(lp0
(lp1
VM
p2
aI1
aF0.6968952699497419
aI100
aI936179
aI1432090448
aa(lp3
g2
aI0
aF0.9973579733025761
aI9361
aI936186
aI1432090584
aa(lp4
g2
aI1
aF0.9996465837707296
aI9386
aI938673
aI1432090721
aa(lp5
g2
aI1
aF0.5722285459523485
aI100
aI942121
aI1432090879
aa(lp6
g2
aI0
aF0.9884459703642031
aI100
aI942157
aI1432091019
aa(lp7
g2
aI1
aF0.9999999901660658
aI9420
aI942057
aI1432091152
aa(lp8
g2
aI0
aF0.8930307364212776
aI100
aI943226
aI1432091292
aa(lp9
g2
aI1
aF0.9515132827350388
aI100
aI943126
aI1432091504
aa(lp10
g2
aI0
aF0.9999812690068414
aI9431
aI943165
aI1432091654
aa(lp11
g2
aI1
aF0.9999546365351261
aI9495
aI949545
aI1432091833
aa(lp12
g2
aI1
aF0.5
aI100
aI949582
aI1432091959
aa(lp13
g2
aI0
aF0.6336236630112657
aI100
aI949596
aI1432092104
aa(lp14
g2
aI0
aF0.9999999902050496
aI9496
aI949641
aI1432092367
aa(lp15
g2
aI1
aF0.9999997116541336
aI9401
aI940145
aI1432092569
aa(lp16
g2
aI0
aF0.9651979199371419
aI100
aI942092
aI1432092746
aa(lp17
g2
aI1
aF0.9738244509000527
aI100
aI941992
aI1432092990
aa(lp18
g2
aI1
aF0.9761656069141278
aI100
aI942075
aI1432093212
aa(lp19
g2
aI0
aF0.9577936982501414
aI100
aI942111
aI1432093324
aa(lp20
g2
aI1
aF0.5
aI100
aI942268
aI1432093470
aa(lp21
g2
aI1
aF0.9992833819706283
aI9421
aI942168
aI1432093650
aa(lp22
g2
aI1
aF0.9772020985969774
aI100
aI932747
aI1432093837
aa(lp23
g2
aI0
aF0.5
aI100
aI932816
aI1432094015
aa(lp24
g2
aI0
aF0.9657186643002946
aI100
aI932716
aI1432094192
aa(lp25
g2
aI0
aF0.999990991803883
aI9326
aI932616
aI1432094262
aa(lp26
g2
aI1
aF0.9999884438730806
aI9232
aI923290
aI1432094482
aa(lp27
g2
aI0
aF0.9999376428938003
aI9268
aI926846
aI1432094631
aa(lp28
g2
aI1
aF0.9794637673169193
aI100
aI917578
aI1432094792
aa(lp29
g2
aI1
aF0.9806718535972732
aI100
aI917478
aI1432094928
aa(lp30
g2
aI0
aF0.9999822803575328
aI9174
aI917493
aI1432095126
aa(lp31
g2
aI0
aF0.5
aI100
aI927307
aI1432095290
aa(lp32
g2
aI0
aF0.9987136514459947
aI9274
aI927403
aI1432095513
aa(lp33
g2
aI0
aF0.6189321136467073
aI100
aI918129
aI1432095719
aa(lp34
g2
aI0
aF0.5741718996857575
aI100
aI918029
aI1432095917
aa(lp35
g2
aI0
aF0.5666607682220696
aI100
aI919114
aI1432096102
aa(lp36
g2
aI1
aF0.9923575021970773
aI9191
aI919119
aI1432096238
aa(lp37
g2
aI0
aF0.9999973797984534
aI9191
aI919151
aI1432096368
aa(lp38
g2
aI0
aF0.6922537156306932
aI100
aI909960
aI1432096582
aa(lp39
g2
aI1
aF0.9889891936690628
aI100
aI909860
aI1432096803
aa(lp40
g2
aI1
aF0.9981389328001345
aI9097
aI909760
aI1432096952
aa(lp41
g2
aI1
aF0.5097293583308076
aI100
aI928121
aI1432097118
aa(lp42
g2
aI1
aF0.9999313658941196
aI9289
aI928931
aI1432097244
aa(lp43
g2
aI0
aF0.9999996660718451
aI9340
aI934054
aI1432097411
aa(lp44
g2
aI0
aF0.9999274902024531
aI9341
aI934190
aI1432097543
aa(lp45
g2
aI1
aF0.8611631720947007
aI100
aI935843
aI1432097741
aa(lp46
g2
aI0
aF0.9999999359644051
aI9358
aI935862
aI1432097874
aa(lp47
g2
aI1
aF0.9943028841179329
aI9265
aI926504
aI1432098009
aa(lp48
g2
aI1
aF0.9850911438344249
aI100
aI917239
aI1432098232
aa(lp49
g2
aI0
aF0.9954123872054825
aI9171
aI917139
aI1432098420
aa(lp50
g2
aI0
aF0.9915464665257647
aI9453
aI945379
aI1432098633
aa(lp51
g2
aI1
aF0.9891768252791262
aI100
aI935926
aI1432098734
aa(lp52
g2
aI1
aF0.9842706072666223
aI100
aI935826
aI1432098859
aa(lp53
g2
aI1
aF0.9900384671324777
aI9358
aI935831
aI1432099048
aa(lp54
g2
aI1
aF0.9969467829059547
aI9264
aI926473
aI1432099210
aa(lp55
g2
aI1
aF0.9956615352891811
aI9513
aI951377
aI1432099355
aa(lp56
g2
aI1
aF0.9802452213938274
aI100
aI941864
aI1432099528
aa(lp57
g2
aI1
aF0.5378364812831216
aI100
aI941764
aI1432099690
aa(lp58
g2
aI1
aF0.999824001317916
aI9416
aI941664
aI1432099862
aa(lp59
g2
aI0
aF0.9664186134840029
aI100
aI942089
aI1432100099
aa(lp60
g2
aI0
aF0.9997031335271711
aI9421
aI942179
aI1432100236
aa(lp61
g2
aI0
aF0.6980609353483711
aI100
aI956687
aI1432100447
aa(lp62
g2
aI0
aF0.9761135663660018
aI100
aI956714
aI1432100621
aa(lp63
g2
aI1
aF0.5
aI100
aI956614
aI1432100743
aa(lp64
g2
aI1
aF0.9995349308574933
aI9565
aI956514
aI1432100885
aa(lp65
g2
aI1
aF0.9999551416794088
aI9602
aI960289
aI1432101035
aa(lp66
g2
aI0
aF0.9038370873727631
aI100
aI970482
aI1432101224
aa(lp67
g2
aI1
aF0.8093256058778673
aI100
aI970707
aI1432101428
aa(lp68
g2
aI1
aF0.9999238774376774
aI9708
aI970809
aI1432101674
aa(lp69
g2
aI0
aF0.9999997439959529
aI9611
aI961101
aI1432101830
aa(lp70
g2
aI1
aF0.9999982603279494
aI9514
aI951490
aI1432101991
aa(lp71
g2
aI1
aF0.9999656678974109
aI9419
aI941976
aI1432102060
aa(lp72
g2
aI0
aF0.5
aI100
aI946771
aI1432102269
aa(lp73
g2
aI0
aF0.5284703517746421
aI100
aI946837
aI1432102438
aa(lp74
g2
aI0
aF0.5694242452451617
aI100
aI946737
aI1432102647
aa(lp75
g2
aI0
aF0.8497959709644254
aI100
aI946816
aI1432102841
aa(lp76
g2
aI0
aF0.9465806102570098
aI100
aI946903
aI1432103109
aa(lp77
g2
aI1
aF0.725661140123406
aI100
aI946939
aI1432103239
aa(lp78
g2
aI0
aF0.5
aI100
aI947063
aI1432103395
aa(lp79
g2
aI0
aF0.9996532177262272
aI9469
aI946963
aI1432103444
aa(lp80
g2
aI1
aF0.9997163739611987
aI9474
aI947484
aI1432103569
aa(lp81
g2
aI0
aF0.9991766056359738
aI9380
aI938010
aI1432103749
aa(lp82
g2
aI1
aF0.9972705275535454
aI9388
aI938869
aI1432103861
aa(lp83
g2
aI1
aF0.5
aI100
aI941488
aI1432103984
aa(lp84
g2
aI1
aF0.8081485812789898
aI100
aI941643
aI1432104150
aa(lp85
g2
aI0
aF0.8916771624954097
aI100
aI941543
aI1432104348
aa(lp86
g2
aI1
aF0.6471584279003618
aI100
aI941443
aI1432104501
aa(lp87
g2
aI1
aF0.9534975670724164
aI100
aI941445
aI1432104635
aa(lp88
g2
aI1
aF0.5
aI100
aI941563
aI1432104843
aa(lp89
g2
aI1
aF0.9999999923942978
aI9414
aI941463
aI1432105014
aa(lp90
VT
p91
aI0
aF0.9831469674103747
aI1500
aI1500
aI1432105228
aa(lp92
g91
aI0
aF0.9355442126432163
aI1500
aI1500
aI1432105422
aa(lp93
g91
aI1
aF0.5
aI1500
aI1500
aI1432105613
aa(lp94
g91
aI1
aF0.9998979134804308
aI1498
aI2996
aI1432105794
aa(lp95
g91
aI1
aF0.999861658525762
aI1500
aI1500
aI1432106134
aa(lp96
g91
aI0
aF0.6819153319188944
aI1500
aI1500
aI1432106280
aa(lp97
g91
aI1
aF0.9233570150218734
aI1500
aI1500
aI1432106432
aa(lp98
g91
aI1
aF0.9940927179658697
aI1500
aI1500
aI1432106617
aa(lp99
g91
aI1
aF0.838266445611025
aI1517
aI3034
aI1432106762
aa(lp100
g91
aI0
aF0.9999009964048815
aI1517
aI1517
aI1432106915
aa(lp101
g91
aI1
aF0.9582324432564692
aI1500
aI1500
aI1432107124
aa(lp102
g91
aI1
aF0.7013378029012005
aI1500
aI1500
aI1432107278
aa(lp103
g91
aI0
aF0.9999975375976708
aI1153
aI2307
aI1432107430
aa(lp104
g91
aI1
aF0.9898500996971835
aI1290
aI2581
aI1432107676
aa(lp105
g91
aI0
aF0.8841276233915851
aI2410
aI4821
aI1432107826
aa(lp106
VE
p107
aI0
aF0.9999703486781617
aI1
aI945999
aI1432108179
aa(lp108
g107
aI1
aF0.8702625400764143
aI1
aI945998
aI1432108308
aa(lp109
g107
aI0
aF0.883080597960836
aI1
aI945999
aI1432108402
aa(lp110
g107
aI1
aF0.9897107895547052
aI1
aI946001
aI1432108503
aa(lp111
g107
aI0
aF0.5
aI1
aI946002
aI1432108659
aa(lp112
g107
aI0
aF0.999999654723188
aI1
aI946001
aI1432108879
aa(lp113
g107
aI0
aF0.9999997023510789
aI1
aI946000
aI1432108951
aa(lp114
g107
aI0
aF0.5
aI1
aI946001
aI1432109064
aa(lp115
g107
aI1
aF0.9113578068548324
aI1
aI946002
aI1432109161
aa(lp116
g107
aI0
aF0.5
aI1
aI946004
aI1432109248
aa(lp117
g107
aI1
aF0.5
aI1
aI946006
aI1432109490
aa(lp118
g107
aI1
aF0.5110995900408923
aI1
aI946008
aI1432109619
aa(lp119
g107
aI1
aF0.9951234495541813
aI1
aI946009
aI1432109736
aa(lp120
g107
aI1
aF0.5
aI1
aI946008
aI1432109859
aa(lp121
g107
aI0
aF0.8644362240811749
aI1
aI946009
aI1432109988
aa(lp122
g107
aI1
aF0.5
aI1
aI946010
aI1432110152
aa(lp123
g107
aI0
aF0.5
aI1
aI946011
aI1432110279
aa(lp124
g107
aI1
aF0.5
aI1
aI946012
aI1432110385
aa(lp125
g107
aI1
aF0.9702244166678492
aI1
aI946013
aI1432110527
aa(lp126
g107
aI1
aF0.5
aI1
aI946012
aI1432110598
aa(lp127
g107
aI0
aF0.5
aI1
aI946011
aI1432110864
aa(lp128
g107
aI0
aF0.5
aI1
aI946010
aI1432111082
aa(lp129
g107
aI0
aF0.5
aI1
aI946009
aI1432111191
aa(lp130
g107
aI0
aF0.5
aI1
aI946010
aI1432111362
aa(lp131
g107
aI1
aF0.9999999863652453
aI1
aI946009
aI1432111483
aa(lp132
g2
aI0
aF0.5
aI100
aI946010
aI1432111636
aa(lp133
g2
aI0
aF0.980597828243996
aI100
aI945910
aI1432111933
aa(lp134
g2
aI0
aF0.7923863789876088
aI100
aI945918
aI1432112035
aa(lp135
g2
aI1
aF0.6242594900212796
aI100
aI945818
aI1432112229
aa(lp136
g2
aI1
aF0.9999771190139809
aI9458
aI945863
aI1432112368
aa(lp137
g2
aI1
aF0.9380085798478242
aI100
aI975810
aI1432112642
aa(lp138
g2
aI0
aF0.6006614210936965
aI100
aI975710
aI1432112858
aa(lp139
g2
aI0
aF0.6159202521993268
aI100
aI975610
aI1432113036
aa(lp140
g2
aI1
aF0.9999914161406969
aI9757
aI975724
aI1432113193
aa(lp141
g2
aI1
aF0.5769713678760158
aI100
aI976207
aI1432113356
aa(lp142
g2
aI0
aF0.9984592062059934
aI9761
aI976107
aI1432113586
aa(lp143
g2
aI1
aF0.9997972894433435
aI9663
aI966346
aI1432113746
aa(lp144
g2
aI1
aF0.5
aI100
aI956683
aI1432113927
aa(lp145
g2
aI1
aF0.7247263279872342
aI100
aI956954
aI1432114088
aa(lp146
g2
aI0
aF0.8329411279438472
aI100
aI957009
aI1432114302
aa(lp147
g2
aI0
aF0.9558584283666314
aI100
aI956909
aI1432114433
aa(lp148
g2
aI1
aF0.5358213604103222
aI100
aI956809
aI1432114569
aa(lp149
g2
aI1
aF0.9726312248674083
aI100
aI956709
aI1432114749
aa(lp150
g2
aI0
aF0.5
aI100
aI956784
aI1432114956
aa(lp151
g2
aI0
aF0.5
aI100
aI956845
aI1432115106
aa(lp152
g2
aI0
aF0.999557800247771
aI9568
aI956876
aI1432115229
aa(lp153
g2
aI0
aF0.9997510623146951
aI9700
aI970092
aI1432115379
aa(lp154
g2
aI0
aF0.9528644477021202
aI100
aI971817
aI1432115541
aa(lp155
g2
aI0
aF0.7595183775375287
aI100
aI972183
aI1432115781
aa(lp156
g2
aI0
aF0.5746642438114453
aI100
aI972083
aI1432116098
aa(lp157
g2
aI1
aF0.5
aI100
aI971983
aI1432116283
aa(lp158
g2
aI0
aF0.9999533466216293
aI9718
aI971883
aI1432116416
aa(lp159
g2
aI1
aF0.9993235656099156
aI9729
aI972983
aI1432116569
aa(lp160
g2
aI1
aF0.5
aI100
aI963254
aI1432116827
aa(lp161
g2
aI0
aF0.754810870879085
aI100
aI963154
aI1432117048
aa(lp162
g2
aI1
aF0.9854904674672452
aI100
aI963054
aI1432117254
aa(lp163
g2
aI1
aF0.9331509342514994
aI100
aI963059
aI1432117435
aa(lp164
g2
aI1
aF0.5
aI100
aI963075
aI1432117606
aa(lp165
g2
aI1
aF0.9755628457844363
aI100
aI962975
aI1432117911
aa(lp166
g2
aI0
aF0.9999850424530796
aI9628
aI962875
aI1432118095
aa(lp167
g2
aI1
aF0.9942909492698517
aI9661
aI966153
aI1432118278
aa(lp168
g2
aI1
aF0.7603790410066941
aI100
aI970406
aI1432118408
aa(lp169
g2
aI0
aF0.9983132532445071
aI9703
aI970306
aI1432118570
aa(lp170
g2
aI1
aF0.5
aI100
aI1001910
aI1432118738
aa(lp171
g2
aI0
aF0.9980372502704704
aI10019
aI1001922
aI1432118825
aa(lp172
g2
aI1
aF0.9999984822370575
aI10020
aI1002029
aI1432118950
aa(lp173
g2
aI0
aF0.8761624338320758
aI100
aI1010286
aI1432119203
aa(lp174
g2
aI1
aF0.9995592043748882
aI10102
aI1010294
aI1432119357
aa(lp175
g2
aI1
aF0.9977130170821329
aI10104
aI1010413
aI1432119519
aa(lp176
g2
aI0
aF0.9942165816030548
aI10239
aI1023901
aI1432119677
aa(lp177
g2
aI0
aF0.732612078279248
aI100
aI1013662
aI1432119829
aa(lp178
g2
aI1
aF0.9968511465222533
aI10137
aI1013712
aI1432120093
aa(lp179
g2
aI0
aF0.999999996907094
aI10035
aI1003575
aI1432120290
aa(lp180
g2
aI0
aF0.9998085877488179
aI10040
aI1004082
aI1432120417
aa(lp181
g2
aI1
aF0.9999951762807061
aI9940
aI994042
aI1432120629
aa(lp182
g2
aI0
aF0.5714030248275341
aI100
aI984102
aI1432120838
aa(lp183
g2
aI1
aF0.9999999877173927
aI9840
aI984002
aI1432120965
aa(lp184
g2
aI1
aF0.8766218162270619
aI100
aI1004814
aI1432121098
aa(lp185
g2
aI0
aF0.5
aI100
aI1004714
aI1432121234
aa(lp186
g2
aI1
aF0.9707280020061739
aI100
aI1004614
aI1432121383
aa(lp187
g2
aI0
aF0.9304441693446632
aI100
aI1004514
aI1432121555
aa(lp188
g2
aI0
aF0.9996390004867705
aI10046
aI1004629
aI1432121710
aa(lp189
g2
aI0
aF0.9946357110695208
aI10078
aI1007880
aI1432121864
aa(lp190
g2
aI1
aF0.9979082070671711
aI9978
aI997802
aI1432122049
aa(lp191
g2
aI1
aF0.5
aI100
aI998407
aI1432122242
aa(lp192
g2
aI0
aF0.9843166386299649
aI100
aI998449
aI1432122434
aa(lp193
g2
aI0
aF0.9999223834456135
aI9984
aI998462
aI1432122543
aa(lp194
g2
aI0
aF0.9980199274973534
aI9999
aI999963
aI1432122646
aa(lp195
g2
aI0
aF0.9951021200361199
aI10061
aI1006152
aI1432122840
aa(lp196
g2
aI1
aF0.6102742367799798
aI100
aI996091
aI1432123179
aa(lp197
g2
aI1
aF0.5
aI100
aI995991
aI1432123318
aa(lp198
g2
aI0
aF0.9950855570608339
aI9958
aI995891
aI1432123602
aa(lp199
g2
aI0
aF0.9973430994567979
aI9859
aI985933
aI1432123877
aa(lp200
g2
aI0
aF0.5
aI100
aI987580
aI1432124056
aa(lp201
g2
aI1
aF0.9957588625133449
aI9874
aI987480
aI1432124263
aa(lp202
g2
aI0
aF0.963220823070652
aI100
aI977606
aI1432124524
aa(lp203
g2
aI1
aF0.9999889422684866
aI9776
aI977610
aI1432124649
aa(lp204
g2
aI0
aF0.8869744314108408
aI100
aI979617
aI1432124833
aa(lp205
g2
aI0
aF0.9998210329809631
aI9797
aI979732
aI1432124969
aa(lp206
g2
aI1
aF0.9762739789505872
aI100
aI983337
aI1432125107
aa(lp207
g2
aI1
aF0.929458076740999
aI100
aI983386
aI1432125241
aa(lp208
g2
aI0
aF0.9410846930802438
aI100
aI983492
aI1432125405
aa(lp209
g2
aI0
aF0.9750273302064855
aI100
aI983392
aI1432125639
aa(lp210
g2
aI0
aF0.9997496664299326
aI9834
aI983421
aI1432125912
aa(lp211
g2
aI0
aF0.9997496664299326
aI9834
aI983421
aI1432125913
aa(lp212
g2
aI1
aF0.8695696368954016
aI100
aI986107
aI1432126130
aa(lp213
g2
aI0
aF0.7541647612613557
aI100
aI986007
aI1432126361
aa(lp214
g2
aI1
aF0.5996553300233572
aI100
aI986010
aI1432126570
aa(lp215
g2
aI0
aF0.8537661401372062
aI100
aI985910
aI1432126720
aa(lp216
g2
aI0
aF0.9995642838435566
aI9858
aI985810
aI1432126877
aa(lp217
g2
aI0
aF0.999284778246444
aI9864
aI986427
aI1432126991
aa(lp218
g2
aI0
aF0.9999927672338852
aI9879
aI987962
aI1432127158
aa(lp219
g2
aI1
aF0.734273700490806
aI100
aI989359
aI1432127289
aa(lp220
g2
aI0
aF0.985925190044165
aI100
aI989361
aI1432127424
aa(lp221
g2
aI1
aF0.9380455304243954
aI100
aI989415
aI1432127507
aa(lp222
g2
aI1
aF0.9320386086802754
aI100
aI989315
aI1432127664
aa(lp223
g2
aI1
aF0.9930583464066512
aI9894
aI989481
aI1432127836
aa(lp224
g2
aI1
aF0.5456978817145185
aI100
aI979587
aI1432127986
aa(lp225
g2
aI1
aF0.9892739427332561
aI100
aI979589
aI1432128087
aa(lp226
g2
aI0
aF0.9831813277855905
aI100
aI979616
aI1432128268
aa(lp227
g2
aI1
aF0.8524590373465268
aI100
aI979516
aI1432128403
aa(lp228
g2
aI1
aF0.9942517333661668
aI9796
aI979626
aI1432128593
aa(lp229
g2
aI1
aF0.5
aI100
aI969830
aI1432128804
aa(lp230
g2
aI1
aF0.9999993881159865
aI9697
aI969730
aI1432128972
aa(lp231
g2
aI0
aF0.9864352538596934
aI100
aI980481
aI1432129174
aa(lp232
g2
aI0
aF0.999815999346537
aI9805
aI980519
aI1432129353
aa(lp233
g91
aI0
aF0.9448646256772814
aI1500
aI1500
aI1432129621
aa(lp234
g91
aI0
aF0.7036952449632803
aI1401
aI2802
aI1432129834
aa(lp235
g91
aI1
aF0.9994484677754005
aI1500
aI1500
aI1432129953
aa(lp236
g91
aI0
aF0.9999468770873454
aI1052
aI2104
aI1432130193
aa(lp237
g91
aI1
aF0.9999999622839052
aI1243
aI2486
aI1432130308
aa(lp238
g91
aI0
aF0.9962255693800731
aI1336
aI2672
aI1432130412
aa(lp239
g91
aI0
aF0.9986330122934192
aI1500
aI1500
aI1432130690
aa(lp240
g91
aI0
aF0.9902204197305831
aI1778
aI1778
aI1432130833
aa(lp241
g91
aI0
aF0.7837326518167689
aI1500
aI1500
aI1432130953
aa(lp242
g91
aI1
aF0.9919038322107022
aI1973
aI1973
aI1432131116
aa(lp243
g91
aI0
aF0.9999980516940535
aI1093
aI2187
aI1432131226
aa(lp244
g91
aI0
aF0.9999811808324801
aI1126
aI2252
aI1432131338
aa(lp245
g91
aI1
aF0.999995658861659
aI1165
aI2331
aI1432131457
aa(lp246
g91
aI1
aF0.9796112835672979
aI1512
aI3024
aI1432131571
aa(lp247
g91
aI0
aF0.9952036910366933
aI1512
aI1512
aI1432131703
aa(lp248
g107
aI1
aF0.999998672913374
aI1
aI972214
aI1432131973
aa(lp249
g107
aI1
aF0.72721203920862
aI1
aI972215
aI1432132110
aa(lp250
g107
aI1
aF0.5
aI1
aI972216
aI1432132217
aa(lp251
g107
aI1
aF0.5
aI1
aI972215
aI1432132377
aa(lp252
g107
aI0
aF0.9673496065619447
aI1
aI972216
aI1432132478
aa(lp253
g107
aI1
aF0.9416733666781457
aI1
aI972215
aI1432132674
aa(lp254
g107
aI1
aF0.9996995287656056
aI1
aI972214
aI1432132822
aa(lp255
g107
aI0
aF0.5
aI1
aI972213
aI1432132958
aa(lp256
g107
aI0
aF0.5
aI1
aI972212
aI1432133083
aa(lp257
g107
aI1
aF0.5
aI1
aI972211
aI1432133162
aa(lp258
g107
aI1
aF0.5
aI1
aI972212
aI1432133357
aa(lp259
g107
aI1
aF0.6260974327285235
aI1
aI972211
aI1432133471
aa(lp260
g107
aI0
aF0.5
aI1
aI972210
aI1432133581
aa(lp261
g107
aI1
aF0.9681682603272503
aI1
aI972211
aI1432133696
aa(lp262
g107
aI0
aF0.5
aI1
aI972212
aI1432133845
aa(lp263
g107
aI1
aF0.5
aI1
aI972214
aI1432133921
aa(lp264
g107
aI1
aF0.5
aI1
aI972215
aI1432134080
aa(lp265
g107
aI1
aF0.5
aI1
aI972214
aI1432134203
aa(lp266
g107
aI1
aF0.5
aI1
aI972213
aI1432134288
aa(lp267
g107
aI0
aF0.5
aI1
aI972212
aI1432134433
aa(lp268
g107
aI1
aF0.9329935990059958
aI1
aI972211
aI1432134631
aa(lp269
g107
aI0
aF0.9213939956792541
aI1
aI972212
aI1432134782
aa(lp270
g107
aI1
aF0.5
aI1
aI972211
aI1432134909
aa(lp271
g107
aI1
aF0.5
aI1
aI972210
aI1432135022
aa(lp272
g107
aI1
aF0.5
aI1
aI972209
aI1432135123
aa(lp273
g2
aI1
aF0.9999847179693488
aI9722
aI972208
aI1432135314
aa(lp274
g2
aI1
aF0.5972098413109018
aI100
aI962486
aI1432135497
aa(lp275
g2
aI0
aF0.9526216463926609
aI100
aI962597
aI1432135667
aa(lp276
g2
aI1
aF0.9345813768830573
aI100
aI962497
aI1432135743
aa(lp277
g2
aI0
aF0.5377850291810609
aI100
aI962397
aI1432135897
aa(lp278
g2
aI0
aF0.9976518427550595
aI9624
aI962402
aI1432136014
aa(lp279
g2
aI1
aF0.5
aI100
aI967739
aI1432136159
aa(lp280
g2
aI0
aF0.9821907658829574
aI100
aI967743
aI1432136417
aa(lp281
g2
aI0
aF0.7337956957444289
aI100
aI967749
aI1432136575
aa(lp282
g2
aI0
aF0.9998778139334104
aI9677
aI967793
aI1432136874
aa(lp283
g2
aI1
aF0.805629693993317
aI100
aI968912
aI1432137080
aa(lp284
g2
aI1
aF0.7530732559801139
aI100
aI968934
aI1432137276
aa(lp285
g2
aI1
aF0.9999948103949329
aI9689
aI968978
aI1432137497
aa(lp286
g2
aI1
aF0.8535586191127732
aI100
aI969280
aI1432137693
aa(lp287
g2
aI0
aF0.962178696173654
aI100
aI969180
aI1432137883
aa(lp288
g2
aI0
aF0.7579476454199815
aI100
aI969205
aI1432138072
aa(lp289
g2
aI0
aF0.633018961073857
aI100
aI969105
aI1432138248
aa(lp290
g2
aI1
aF0.9886981852974928
aI100
aI969005
aI1432138492
aa(lp291
g2
aI0
aF0.7927206202633451
aI100
aI968905
aI1432138638
aa(lp292
g2
aI1
aF0.8637703279342266
aI100
aI968805
aI1432138831
aa(lp293
g2
aI0
aF0.5
aI100
aI968705
aI1432139001
aa(lp294
g2
aI1
aF0.8009283552302369
aI100
aI968850
aI1432139164
aa(lp295
g2
aI1
aF0.9999821204707725
aI9687
aI968750
aI1432139274
aa(lp296
g2
aI0
aF0.9992018980471755
aI9687
aI968750
aI1432139469
aa(lp297
g2
aI0
aF0.5561227220155729
aI100
aI959063
aI1432139700
aa(lp298
g2
aI1
aF0.9999834086285183
aI9589
aI958963
aI1432139877
aa(lp299
g2
aI0
aF0.9998955488071686
aI9598
aI959807
aI1432140018
aa(lp300
g2
aI1
aF0.5471720085818248
aI100
aI950209
aI1432140188
aa(lp301
g2
aI0
aF0.5
aI100
aI950364
aI1432140377
aa(lp302
g2
aI1
aF0.8316075001713222
aI100
aI950405
aI1432140539
aa(lp303
g2
aI0
aF0.8259137604143421
aI100
aI950408
aI1432140641
aa(lp304
g2
aI1
aF0.9995834759590203
aI9504
aI950408
aI1432141307
aa(lp305
g2
aI1
aF0.9987787051617937
aI9409
aI940904
aI1432141453
aa(lp306
g2
aI1
aF0.9332052373244748
aI100
aI941105
aI1432141586
aa(lp307
g2
aI1
aF0.9998286106860844
aI9411
aI941126
aI1432141713
aa(lp308
g2
aI1
aF0.9838261675847428
aI100
aI944272
aI1432141907
aa(lp309
g2
aI1
aF0.9401663347225377
aI100
aI944490
aI1432142105
aa(lp310
g2
aI0
aF0.9429442913015382
aI100
aI944631
aI1432142310
aa(lp311
g2
aI0
aF0.5
aI100
aI944531
aI1432142444
aa(lp312
g2
aI0
aF0.9998520466859602
aI9444
aI944431
aI1432142630
aa(lp313
g2
aI0
aF0.5
aI100
aI975910
aI1432142808
aa(lp314
g2
aI1
aF0.9615336343696168
aI100
aI975810
aI1432142997
aa(lp315
g2
aI0
aF0.9996306868452141
aI9757
aI975710
aI1432143168
aa(lp316
g2
aI0
aF0.8393725964771958
aI100
aI965953
aI1432143378
aa(lp317
g2
aI0
aF0.7926483761653911
aI100
aI966056
aI1432143564
aa(lp318
g2
aI1
aF0.9990498680959748
aI9661
aI966168
aI1432143728
aa(lp319
g2
aI1
aF0.9498010302760255
aI100
aI966501
aI1432143874
aa(lp320
g2
aI0
aF0.9780147329791335
aI100
aI966401
aI1432144009
aa(lp321
g2
aI1
aF0.6623577427106369
aI100
aI966301
aI1432144224
aa(lp322
g2
aI0
aF0.5
aI100
aI966422
aI1432144435
aa(lp323
g2
aI1
aF0.99999535583657
aI9663
aI966322
aI1432144669
aa(lp324
g2
aI0
aF0.9999774989387812
aI9566
aI956659
aI1432144882
aa(lp325
g2
aI0
aF0.999931372679979
aI9708
aI970898
aI1432145041
aa(lp326
g2
aI1
aF0.7567432862804935
aI100
aI976510
aI1432145232
aa(lp327
g2
aI1
aF0.9880930013388449
aI100
aI976410
aI1432145409
aa(lp328
g2
aI1
aF0.9999271462079231
aI9763
aI976310
aI1432145554
aa(lp329
g2
aI1
aF0.9250406649134224
aI100
aI966547
aI1432145755
aa(lp330
g2
aI0
aF0.973489461292983
aI100
aI966447
aI1432145907
aa(lp331
g2
aI0
aF0.9964638259863315
aI9664
aI966451
aI1432146022
aa(lp332
g2
aI0
aF0.999997609361827
aI9567
aI956787
aI1432146214
aa(lp333
g2
aI1
aF0.9989978561528449
aI9472
aI947220
aI1432146485
aa(lp334
g2
aI1
aF0.9999821548017864
aI9377
aI937748
aI1432146671
aa(lp335
g2
aI1
aF0.9832961732022859
aI100
aI928371
aI1432146864
aa(lp336
g2
aI0
aF0.991022740568875
aI9284
aI928446
aI1432147125
aa(lp337
g2
aI0
aF0.5
aI100
aI942428
aI1432147296
aa(lp338
g2
aI0
aF0.5978603716168531
aI100
aI942641
aI1432147485
aa(lp339
g2
aI0
aF0.9318906957080306
aI100
aI942663
aI1432147601
aa(lp340
g2
aI0
aF0.9998333669602057
aI9425
aI942563
aI1432147906
aa(lp341
g2
aI0
aF0.9999993902503039
aI9460
aI946099
aI1432148032
aa(lp342
g2
aI0
aF0.9863039071832183
aI100
aI946790
aI1432148164
aa(lp343
g2
aI1
aF0.9178110387466366
aI100
aI946690
aI1432148383
aa(lp344
g2
aI0
aF0.5
aI100
aI946590
aI1432148489
aa(lp345
g2
aI1
aF0.9966391502903056
aI9464
aI946490
aI1432148598
aa(lp346
g2
aI1
aF0.9999869142797198
aI9468
aI946881
aI1432148740
aa(lp347
g2
aI1
aF0.9853285709482996
aI100
aI947825
aI1432148898
aa(lp348
g2
aI1
aF0.9999855624838833
aI9477
aI947725
aI1432149217
aa(lp349
g2
aI1
aF0.8383601370075222
aI100
aI938248
aI1432149375
aa(lp350
g2
aI0
aF0.8872957724618873
aI100
aI938148
aI1432149454
aa(lp351
g2
aI0
aF0.9999943953979588
aI9380
aI938048
aI1432149686
aa(lp352
g2
aI0
aF0.999923277974576
aI9389
aI938989
aI1432149814
aa(lp353
g2
aI1
aF0.917835581895225
aI100
aI929600
aI1432150019
aa(lp354
g2
aI1
aF0.9683347905517694
aI100
aI929500
aI1432150157
aa(lp355
g2
aI1
aF0.9999951534953726
aI9295
aI929521
aI1432150271
aa(lp356
g2
aI0
aF0.9315455328711518
aI100
aI920226
aI1432150483
aa(lp357
g2
aI1
aF0.9036787155983703
aI100
aI920299
aI1432150604
aa(lp358
g2
aI1
aF0.9631175235310111
aI100
aI920358
aI1432150725
aa(lp359
g2
aI1
aF0.7205306371508987
aI100
aI920258
aI1432150849
aa(lp360
g2
aI0
aF0.6329696072193906
aI100
aI920158
aI1432151067
aa(lp361
g2
aI1
aF0.9941279228788482
aI9201
aI920159
aI1432151201
aa(lp362
g2
aI0
aF0.9791121307916337
aI100
aI920823
aI1432151340
aa(lp363
g2
aI0
aF0.9310031291551396
aI100
aI920723
aI1432151513
aa(lp364
g2
aI0
aF0.9996878943298546
aI9206
aI920623
aI1432151743
aa(lp365
g2
aI1
aF0.5
aI100
aI930496
aI1432151939
aa(lp366
g2
aI0
aF0.9767517675322684
aI100
aI930396
aI1432152101
aa(lp367
g2
aI1
aF0.9992483049941456
aI9304
aI930403
aI1432152230
aa(lp368
g2
aI1
aF0.9740764289363778
aI100
aI921099
aI1432152386
aa(lp369
g2
aI1
aF0.9789102806146754
aI100
aI921513
aI1432152566
aa(lp370
g2
aI0
aF0.9989245746096305
aI9214
aI921413
aI1432152728
aa(lp371
g2
aI0
aF0.999990096492219
aI9233
aI923308
aI1432152928
aa(lp372
g2
aI1
aF0.9823348005461857
aI100
aI923344
aI1432153050
aa(lp373
g91
aI1
aF0.8847848350721618
aI1500
aI1500
aI1432153283
aa(lp374
g91
aI0
aF0.8887597057080582
aI1989
aI3978
aI1432153459
aa(lp375
g91
aI1
aF0.9508638558304561
aI3042
aI6085
aI1432153586
aa(lp376
g91
aI0
aF0.9793844644949738
aI3628
aI7256
aI1432153702
aa(lp377
g91
aI0
aF0.9954424173421521
aI7374
aI14748
aI1432153912
aa(lp378
g91
aI0
aF0.7690359759239012
aI8867
aI17735
aI1432154124
aa(lp379
g91
aI0
aF0.8256827300228624
aI10669
aI21338
aI1432154334
aa(lp380
g91
aI1
aF0.9312290176920733
aI17898
aI35797
aI1432154501
aa(lp381
g91
aI0
aF0.8940103328625301
aI8949
aI17899
aI1432154634
aa(lp382
g91
aI1
aF0.9929953408179941
aI4475
aI8950
aI1432154755
aa(lp383
g91
aI0
aF0.9988809585928861
aI2237
aI4475
aI1432154882
aa(lp384
g91
aI0
aF0.846728947177855
aI1119
aI2238
aI1432155037
aa(lp385
g91
aI0
aF0.9426364131360623
aI1654
aI3308
aI1432155195
aa(lp386
g91
aI1
aF0.9103458066244491
aI2971
aI5942
aI1432155311
aa(lp387
g91
aI0
aF0.9803455498388625
aI3810
aI7621
aI1432155455
aa(lp388
g107
aI0
aF0.5
aI1
aI931986
aI1432155855
aa(lp389
g107
aI0
aF0.6034099855939767
aI1
aI931985
aI1432155925
aa(lp390
g107
aI0
aF0.9995012209573713
aI1
aI931984
aI1432156040
aa(lp391
g107
aI1
aF0.5
aI1
aI931990
aI1432156151
aa(lp392
g107
aI0
aF0.8126484479407305
aI1
aI931991
aI1432156320
aa(lp393
g107
aI0
aF0.5
aI1
aI931990
aI1432156482
aa(lp394
g107
aI0
aF0.5
aI1
aI931991
aI1432156710
aa(lp395
g107
aI1
aF0.5
aI1
aI931992
aI1432156816
aa(lp396
g107
aI0
aF0.5
aI1
aI931993
aI1432156939
aa(lp397
g107
aI0
aF0.9994292693239601
aI1
aI931992
aI1432157102
aa(lp398
g107
aI0
aF0.5
aI1
aI931991
aI1432157205
aa(lp399
g107
aI0
aF0.9999967423860413
aI1
aI931992
aI1432157329
aa(lp400
g107
aI1
aF0.9999998261845628
aI1
aI931996
aI1432157450
aa(lp401
g107
aI1
aF0.5
aI1
aI931997
aI1432157590
aa(lp402
g107
aI1
aF0.983394020833351
aI1
aI931996
aI1432157742
aa(lp403
g107
aI0
aF0.9995765662520257
aI1
aI931995
aI1432157895
aa(lp404
g107
aI1
aF0.9113578068548324
aI1
aI931994
aI1432157981
aa(lp405
g107
aI1
aF0.5
aI1
aI931995
aI1432158094
aa(lp406
g107
aI0
aF0.5
aI1
aI931996
aI1432158222
aa(lp407
g107
aI1
aF0.5
aI1
aI931999
aI1432158361
aa(lp408
g107
aI1
aF0.5
aI1
aI931998
aI1432158498
aa(lp409
g107
aI0
aF0.5
aI1
aI931997
aI1432158717
aa(lp410
g107
aI1
aF0.5
aI1
aI931996
aI1432158858
aa(lp411
g107
aI0
aF0.5
aI1
aI931995
aI1432158968
aa(lp412
g107
aI1
aF0.9999736005026689
aI1
aI931996
aI1432159094
aa(lp413
g2
aI1
aF0.9988115345530323
aI9319
aI931997
aI1432159399
aa(lp414
g2
aI1
aF0.9999060122386642
aI9375
aI937589
aI1432159620
aa(lp415
g2
aI1
aF0.9494318859025954
aI100
aI938696
aI1432159820
aa(lp416
g2
aI1
aF0.9351651645017526
aI100
aI938596
aI1432159963
aa(lp417
g2
aI0
aF0.9999426844303003
aI9384
aI938496
aI1432160149
aa(lp418
g2
aI1
aF0.9999999436066546
aI9291
aI929112
aI1432160282
aa(lp419
g2
aI0
aF0.7247144780023007
aI100
aI919821
aI1432160425
aa(lp420
g2
aI1
aF0.9356060375863863
aI100
aI920677
aI1432160577
aa(lp421
g2
aI1
aF0.9999715357105453
aI9205
aI920577
aI1432160719
aa(lp422
g2
aI0
aF0.5607592502053944
aI100
aI922051
aI1432160906
aa(lp423
g2
aI1
aF0.9334063499104457
aI100
aI921951
aI1432161093
aa(lp424
g2
aI1
aF0.9992505480620058
aI9219
aI921978
aI1432161311
aa(lp425
g2
aI1
aF0.9960256266137769
aI9127
aI912759
aI1432161447
aa(lp426
g2
aI0
aF0.9410335755522765
aI100
aI903632
aI1432161583
aa(lp427
g2
aI1
aF0.905593470334438
aI100
aI903671
aI1432161718
aa(lp428
g2
aI0
aF0.9979008695850009
aI9035
aI903571
aI1432161932
aa(lp429
g2
aI0
aF0.9973542136944518
aI9041
aI904129
aI1432162088
aa(lp430
g2
aI0
aF0.9976412969447475
aI9053
aI905323
aI1432162236
aa(lp431
g2
aI1
aF0.9912463861696803
aI8962
aI896270
aI1432162370
aa(lp432
g2
aI0
aF0.9780549509373795
aI100
aI887308
aI1432162530
aa(lp433
g2
aI0
aF0.8481417331304025
aI100
aI887208
aI1432162717
aa(lp434
g2
aI0
aF0.9568802072594427
aI100
aI887108
aI1432162905
aa(lp435
g2
aI1
aF0.6764002420749278
aI100
aI887276
aI1432163063
aa(lp436
g2
aI0
aF0.9993667143134842
aI8871
aI887176
aI1432163231
aa(lp437
g2
aI0
aF0.9875000766030686
aI100
aI878305
aI1432163438
aa(lp438
g2
aI0
aF0.9988856487031652
aI8784
aI878422
aI1432163560
aa(lp439
g2
aI1
aF0.5546679597181846
aI100
aI880395
aI1432163696
aa(lp440
g2
aI0
aF0.9997300877190354
aI8802
aI880295
aI1432163849
aa(lp441
g2
aI1
aF0.9961732816628085
aI8844
aI884447
aI1432163984
aa(lp442
g2
aI1
aF0.5
aI100
aI875603
aI1432164219
aa(lp443
g2
aI0
aF0.9971947684738487
aI8755
aI875503
aI1432164380
aa(lp444
g2
aI0
aF0.8271178442255015
aI100
aI876235
aI1432164521
aa(lp445
g2
aI1
aF0.9991186813198992
aI8762
aI876253
aI1432164669
aa(lp446
g2
aI0
aF0.9992239493252475
aI8932
aI893223
aI1432164911
aa(lp447
g2
aI1
aF0.8293247766096676
aI100
aI884291
aI1432165045
aa(lp448
g2
aI1
aF0.9667454483441227
aI100
aI884315
aI1432165262
aa(lp449
g2
aI1
aF0.7458023271869297
aI100
aI884215
aI1432165453
aa(lp450
g2
aI1
aF0.9768134613658633
aI100
aI884115
aI1432165642
aa(lp451
g2
aI0
aF0.9996277457590479
aI8841
aI884129
aI1432165775
aa(lp452
g2
aI0
aF0.9981014881582326
aI8877
aI887781
aI1432165918
aa(lp453
g2
aI1
aF0.5179674916465864
aI100
aI888892
aI1432166013
aa(lp454
g2
aI0
aF0.5741431260625174
aI100
aI888916
aI1432166127
aa(lp455
g2
aI0
aF0.9993815985327525
aI8889
aI888928
aI1432166285
aa(lp456
g2
aI0
aF0.998422327400374
aI9031
aI903142
aI1432166519
aa(lp457
g2
aI0
aF0.8243107083266221
aI100
aI906802
aI1432166653
aa(lp458
g2
aI1
aF0.9990678277032292
aI9068
aI906812
aI1432166909
aa(lp459
g2
aI0
aF0.5
aI100
aI897744
aI1432167080
aa(lp460
g2
aI1
aF0.9938904335797824
aI8976
aI897644
aI1432167211
aa(lp461
g2
aI1
aF0.9999866496384815
aI9063
aI906392
aI1432167385
aa(lp462
g2
aI1
aF0.9456215986044875
aI100
aI929178
aI1432167585
aa(lp463
g2
aI0
aF0.9999989206804858
aI9290
aI929078
aI1432167774
aa(lp464
g2
aI1
aF0.5
aI100
aI940940
aI1432167927
aa(lp465
g2
aI1
aF0.5
aI100
aI940956
aI1432168093
aa(lp466
g2
aI1
aF0.8443503813350806
aI100
aI940956
aI1432168354
aa(lp467
g2
aI0
aF0.7289286312677649
aI100
aI941029
aI1432168511
aa(lp468
g2
aI1
aF0.987035378281456
aI100
aI941142
aI1432168714
aa(lp469
g2
aI0
aF0.9999981889559761
aI9411
aI941177
aI1432168878
aa(lp470
g2
aI0
aF0.9999997519142276
aI9317
aI931766
aI1432169071
aa(lp471
g2
aI0
aF0.9992417761646784
aI9321
aI932108
aI1432169257
aa(lp472
g2
aI1
aF0.6961094536293547
aI100
aI933916
aI1432169509
aa(lp473
g2
aI1
aF0.978462079253227
aI100
aI933948
aI1432169723
aa(lp474
g2
aI1
aF0.9756033480310718
aI100
aI934292
aI1432169940
aa(lp475
g2
aI1
aF0.9350671867028401
aI100
aI934292
aI1432170186
aa(lp476
g2
aI1
aF0.9892373380704476
aI100
aI934192
aI1432170388
aa(lp477
g2
aI1
aF0.5
aI100
aI934193
aI1432170487
aa(lp478
g2
aI0
aF0.8536241915160412
aI100
aI934093
aI1432170677
aa(lp479
g2
aI0
aF0.9923309712101118
aI9342
aI934284
aI1432170812
aa(lp480
g2
aI1
aF0.6384225136708132
aI100
aI954627
aI1432170939
aa(lp481
g2
aI1
aF0.9869173816391122
aI100
aI955168
aI1432171064
aa(lp482
g2
aI0
aF0.9530890677158559
aI100
aI955169
aI1432171216
aa(lp483
g2
aI1
aF0.9999999998161844
aI9550
aI955069
aI1432171358
aa(lp484
g2
aI1
aF0.9996227579591814
aI9560
aI956001
aI1432171493
aa(lp485
g2
aI0
aF0.5477368897697077
aI100
aI962288
aI1432171670
aa(lp486
g2
aI1
aF0.8739805150269795
aI100
aI962330
aI1432171859
aa(lp487
g2
aI0
aF0.5218222747041674
aI100
aI962706
aI1432172032
aa(lp488
g2
aI1
aF0.9430090236245137
aI100
aI962606
aI1432172158
aa(lp489
g2
aI1
aF0.999652279635581
aI9626
aI962622
aI1432172337
aa(lp490
g2
aI0
aF0.8641814078831678
aI100
aI981097
aI1432172510
aa(lp491
g2
aI1
aF0.5
aI100
aI981105
aI1432172695
aa(lp492
g2
aI0
aF0.9967201171051159
aI9810
aI981005
aI1432172851
aa(lp493
g2
aI1
aF0.9978076597602654
aI9711
aI971195
aI1432173026
aa(lp494
g2
aI1
aF0.9993954487987293
aI9614
aI961484
aI1432173272
aa(lp495
g2
aI1
aF0.7834936679950105
aI100
aI963719
aI1432173462
aa(lp496
g2
aI1
aF0.9998195999747739
aI9637
aI963791
aI1432173677
aa(lp497
g2
aI0
aF0.9371318704088072
aI100
aI964510
aI1432173781
aa(lp498
g2
aI1
aF0.9999192278725869
aI9644
aI964410
aI1432173986
aa(lp499
g2
aI1
aF0.8943724469149966
aI100
aI965077
aI1432174117
aa(lp500
g2
aI0
aF0.5
aI100
aI965082
aI1432174284
aa(lp501
g2
aI0
aF0.9997963765255675
aI9649
aI964982
aI1432174428
aa(lp502
g2
aI0
aF0.5
aI100
aI978321
aI1432174606
aa(lp503
g2
aI0
aF0.9844537962255793
aI100
aI978349
aI1432174713
aa(lp504
g2
aI0
aF0.513980405948657
aI100
aI978351
aI1432174795
aa(lp505
g2
aI0
aF0.9664277848280862
aI100
aI978400
aI1432174992
aa(lp506
g2
aI0
aF0.7342101347442578
aI100
aI978535
aI1432175197
aa(lp507
g2
aI1
aF0.9999242220919717
aI9785
aI978544
aI1432175314
aa(lp508
g2
aI0
aF0.9730097244906271
aI100
aI979306
aI1432175463
aa(lp509
g2
aI0
aF0.9484650826180079
aI100
aI979206
aI1432175602
aa(lp510
g2
aI0
aF0.9986844263145918
aI9791
aI979106
aI1432175752
aa(lp511
g2
aI0
aF0.9728048559532547
aI100
aI969315
aI1432175908
aa(lp512
g2
aI0
aF0.5128355280848953
aI100
aI969215
aI1432176036
aa(lp513
g91
aI1
aF0.9997596594802971
aI1500
aI1500
aI1432176366
aa(lp514
g91
aI0
aF0.9997829978451542
aI1436
aI2872
aI1432176546
aa(lp515
g91
aI1
aF0.9999999666490176
aI2924
aI5849
aI1432176685
aa(lp516
g91
aI0
aF0.899483756182445
aI3703
aI7407
aI1432176814
aa(lp517
g91
aI1
aF0.6940099290703233
aI7635
aI15271
aI1432177029
aa(lp518
g91
aI1
aF0.9881933646494334
aI10062
aI20124
aI1432177163
aa(lp519
g91
aI1
aF0.9275764830108776
aI10062
aI20124
aI1432177354
aa(lp520
g91
aI1
aF0.9951916330333233
aI5031
aI10062
aI1432177492
aa(lp521
g91
aI0
aF0.984047728316154
aI2515
aI5031
aI1432177702
aa(lp522
g91
aI0
aF0.9999998179326046
aI1258
aI2516
aI1432177877
aa(lp523
g91
aI0
aF0.9933217751585517
aI1554
aI3108
aI1432178000
aa(lp524
g91
aI1
aF0.999258414277945
aI1554
aI1554
aI1432178180
aa(lp525
g91
aI1
aF0.9981755609244918
aI2718
aI5436
aI1432178370
aa(lp526
g91
aI1
aF0.9920686815868094
aI2962
aI5924
aI1432178515
aa(lp527
g91
aI0
aF0.9999973459334253
aI1481
aI2962
aI1432178737
aa(lp528
g107
aI1
aF0.5
aI1
aI1037843
aI1432183552
aa(lp529
g107
aI0
aF0.8023780748174033
aI1
aI1037843
aI1432184135
aa(lp530
g107
aI1
aF0.5
aI1
aI1037843
aI1432184361
aa(lp531
g107
aI0
aF0.9765320548372998
aI1
aI1037844
aI1432184480
aa(lp532
g107
aI0
aF0.9668109405752823
aI1
aI1037845
aI1432184596
aa(lp533
g107
aI0
aF0.5
aI1
aI1037846
aI1432184740
aa(lp534
g107
aI1
aF0.5
aI1
aI1037847
aI1432184873
aa(lp535
g107
aI0
aF0.9843679922104815
aI1
aI1037848
aI1432184987
aa(lp536
g107
aI0
aF0.5
aI1
aI1037848
aI1432185527
aa(lp537
g107
aI0
aF0.5
aI1
aI1037849
aI1432185669
aa(lp538
g107
aI1
aF0.5
aI1
aI1037848
aI1432185860
aa(lp539
g107
aI1
aF0.5
aI1
aI1037847
aI1432185995
aa(lp540
g107
aI0
aF0.5
aI1
aI1037846
aI1432186132
aa(lp541
g107
aI1
aF0.5
aI1
aI1037847
aI1432186263
aa(lp542
g107
aI1
aF0.5
aI1
aI1037846
aI1432186407
aa(lp543
VE
p544
aI1
aF0.9999934206869057
aI1
aI1037848
aI1432186502
aa(lp545
g544
aI0
aF0.6795562954601753
aI1
aI1037849
aI1432186580
aa(lp546
g544
aI1
aF0.5
aI1
aI1037850
aI1432186712
aa(lp547
g544
aI0
aF0.5
aI1
aI1037849
aI1432186910
aa(lp548
g544
aI1
aF0.99811384849176
aI1
aI1037848
aI1432186994
aa(lp549
g544
aI1
aF0.9996700613855524
aI1
aI1037849
aI1432187136
aa(lp550
g544
aI0
aF0.5
aI1
aI1037851
aI1432187272
aa(lp551
g544
aI0
aF0.9614339584705776
aI1
aI1037850
aI1432187384
aa(lp552
g544
aI0
aF0.5
aI1
aI1037852
aI1432187490
aa(lp553
VM
p554
aI0
aF0.8338915419248449
aI100
aI1037853
aI1432187748
aa(lp555
g554
aI1
aF0.8409326004755286
aI100
aI1037855
aI1432187862
aa(lp556
g554
aI0
aF0.9204994076878131
aI100
aI1037755
aI1432188143
aa(lp557
g554
aI1
aF0.5
aI100
aI1037655
aI1432188291
aa(lp558
VT
p559
aI0
aF0.9999996514399848
aI1500
aI1500
aI1432188640
aa(lp560
g559
aI1
aF0.5060420816222102
aI1132
aI2265
aI1432188749
aa(lp561
g559
aI1
aF0.9379217490144441
aI1500
aI1500
aI1432188888
aa(lp562
g559
aI0
aF0.9999999922506442
aI1500
aI1500
aI1432189096
aa(lp563
g559
aI0
aF0.9722558859851884
aI1500
aI1500
aI1432189345
aa(lp564
g559
aI0
aF0.9971864217831281
aI1500
aI1500
aI1432189513
aa(lp565
g559
aI1
aF0.9589795540339288
aI1500
aI1500
aI1432189691
aa(lp566
g559
aI0
aF0.7122829748558701
aI1500
aI1500
aI1432189811
aa(lp567
g559
aI0
aF0.9999088142514206
aI1500
aI1500
aI1432190045
aa(lp568
g559
aI0
aF0.9977639010898052
aI1016
aI2032
aI1432190237
aa(lp569
g559
aI1
aF0.9780931594931019
aI1500
aI1500
aI1432190377
aa(lp570
g559
aI0
aF0.9917840736704666
aI1013
aI2026
aI1432190476
aa(lp571
g559
aI0
aF0.9999999959316659
aI1120
aI2241
aI1432190569
aa(lp572
g559
aI1
aF0.929469810119111
aI1284
aI2569
aI1432190718
aa(lp573
g559
aI0
aF0.9924732054810574
aI3851
aI7703
aI1432190835
aa(lp574
g544
aI0
aF0.9246930432770564
aI1
aI1041407
aI1432191102
aa(lp575
g544
aI1
aF0.5
aI1
aI1041406
aI1432191214
aa(lp576
g544
aI1
aF0.9997949063274186
aI1
aI1041407
aI1432191320
aa(lp577
g544
aI1
aF0.5
aI1
aI1041408
aI1432191417
aa(lp578
g544
aI1
aF0.9728126266632585
aI1
aI1041410
aI1432191521
aa(lp579
g544
aI0
aF0.6705036612202369
aI1
aI1041411
aI1432191600
aa(lp580
g544
aI0
aF0.7698403411827552
aI1
aI1041410
aI1432191735
aa(lp581
g544
aI0
aF0.5
aI1
aI1041411
aI1432191876
aa(lp582
g544
aI0
aF0.9709419234362034
aI1
aI1041416
aI1432192015
aa(lp583
g544
aI0
aF0.5
aI1
aI1041417
aI1432192166
aa(lp584
g544
aI1
aF0.5
aI1
aI1041416
aI1432192240
aa(lp585
g544
aI0
aF0.5
aI1
aI1041417
aI1432192309
aa(lp586
g544
aI0
aF0.5
aI1
aI1041416
aI1432192423
aa(lp587
g544
aI0
aF0.5
aI1
aI1041418
aI1432192473
aa(lp588
g544
aI0
aF0.5
aI1
aI1041417
aI1432192620
aa(lp589
g544
aI0
aF0.8039129712374166
aI1
aI1041417
aI1432192726
aa(lp590
g544
aI0
aF0.9804172260065356
aI1
aI1041416
aI1432192923
aa(lp591
g544
aI0
aF0.5
aI1
aI1041417
aI1432193055
aa(lp592
g544
aI1
aF0.5
aI1
aI1041417
aI1432193464
aa(lp593
g544
aI1
aF0.5
aI1
aI1041418
aI1432193653
aa(lp594
g544
aI0
aF0.5
aI1
aI1041418
aI1432193847
aa(lp595
g544
aI0
aF0.5
aI1
aI1041417
aI1432193996
aa(lp596
g544
aI0
aF0.9907029534619075
aI1
aI1041416
aI1432194123
aa(lp597
g544
aI0
aF0.9982537339677109
aI1
aI1041417
aI1432194276
aa(lp598
g544
aI1
aF0.9447559588885326
aI1
aI1041416
aI1432194381
aa(lp599
g554
aI1
aF0.7433065902086935
aI100
aI1041417
aI1432194532
aa(lp600
g554
aI1
aF0.9999999847677168
aI10416
aI1041625
aI1432194732
aa(lp601
g554
aI0
aF0.9999941424687482
aI10467
aI1046795
aI1432194910
aa(lp602
g554
aI0
aF0.9999152914624654
aI10661
aI1066131
aI1432195043
aa(lp603
g554
aI0
aF0.9709891010552194
aI100
aI1075436
aI1432195278
aa(lp604
g554
aI0
aF0.6025015712901394
aI100
aI1075479
aI1432195397
aa(lp605
g554
aI0
aF0.9999931718061481
aI10757
aI1075762
aI1432195513
aa(lp606
g554
aI1
aF0.9990691284658497
aI10759
aI1075960
aI1432195626
aa(lp607
g554
aI0
aF0.5
aI100
aI1095895
aI1432195787
aa(lp608
g554
aI0
aF0.971195141360301
aI100
aI1096059
aI1432196014
aa(lp609
g554
aI1
aF0.9908967785126186
aI10959
aI1095959
aI1432196152
aa(lp610
g554
aI1
aF0.9908967785126186
aI10959
aI1095959
aI1432196153
aa(lp611
g554
aI1
aF0.8706657577928043
aI100
aI1085000
aI1432196390
aa(lp612
g554
aI1
aF0.9999798880119739
aI10849
aI1084900
aI1432196672
aa(lp613
g554
aI1
aF0.9986403999954424
aI10890
aI1089037
aI1432196841
aa(lp614
g554
aI1
aF0.9986403999954424
aI10890
aI1089037
aI1432196842
aa(lp615
g554
aI1
aF0.7954727168861623
aI100
aI1078147
aI1432196989
aa(lp616
g554
aI0
aF0.998990740801255
aI10780
aI1078047
aI1432197188
aa(lp617
g554
aI0
aF0.9081606820106338
aI100
aI1085788
aI1432197332
aa(lp618
g554
aI1
aF0.9999308372049525
aI10858
aI1085810
aI1432197506
aa(lp619
g554
aI0
aF0.9793001245877068
aI100
aI1085889
aI1432197622
aa(lp620
g554
aI0
aF0.7530154858393998
aI100
aI1086263
aI1432197758
aa(lp621
g554
aI0
aF0.7530154858393998
aI100
aI1086263
aI1432197759
aa(lp622
g554
aI1
aF0.9877266063201421
aI100
aI1086163
aI1432197992
aa(lp623
g554
aI1
aF0.5743208750672757
aI100
aI1086239
aI1432198178
aa(lp624
g554
aI1
aF0.5
aI100
aI1086139
aI1432198409
aa(lp625
g554
aI1
aF0.9867098966615964
aI100
aI1086607
aI1432198566
aa(lp626
g554
aI1
aF0.9999972187382776
aI10867
aI1086735
aI1432198791
aa(lp627
g554
aI1
aF0.9933569714636957
aI10758
aI1075868
aI1432198934
aa(lp628
g554
aI1
aF0.6557885736625193
aI100
aI1078635
aI1432199144
aa(lp629
g554
aI1
aF0.5976071967533751
aI100
aI1078535
aI1432199276
aa(lp630
g554
aI1
aF0.5558626568082251
aI100
aI1078435
aI1432199436
aa(lp631
g554
aI1
aF0.5558626568082251
aI100
aI1078435
aI1432199436
aa(lp632
g554
aI1
aF0.5467447021165556
aI100
aI1078335
aI1432199584
aa(lp633
g554
aI0
aF0.9999177435082327
aI10783
aI1078337
aI1432199721
aa(lp634
g554
aI1
aF0.9997240851640297
aI10675
aI1067554
aI1432199926
aa(lp635
g554
aI1
aF0.9991867740814021
aI10680
aI1068045
aI1432200150
aa(lp636
g554
aI1
aF0.7781577233873322
aI100
aI1057365
aI1432200252
aa(lp637
g554
aI1
aF0.7772236826400508
aI100
aI1057496
aI1432200435
aa(lp638
g554
aI1
aF0.5
aI100
aI1057396
aI1432200541
aa(lp639
g554
aI1
aF0.9022358632820462
aI100
aI1057466
aI1432200677
aa(lp640
g554
aI1
aF0.998971598687953
aI10575
aI1057547
aI1432200882
aa(lp641
g554
aI0
aF0.9756706792153772
aI100
aI1067624
aI1432201088
aa(lp642
g554
aI0
aF0.7120092818718237
aI100
aI1067824
aI1432201325
aa(lp643
g554
aI1
aF0.999385555053244
aI10677
aI1067724
aI1432201490
aa(lp644
g554
aI1
aF0.9089931750101959
aI100
aI1057047
aI1432201648
aa(lp645
g554
aI0
aF0.9980728594363641
aI10570
aI1057082
aI1432201823
aa(lp646
g554
aI0
aF0.7415318467292824
aI100
aI1072516
aI1432201982
aa(lp647
g554
aI1
aF0.9808113513044273
aI100
aI1073067
aI1432202170
aa(lp648
g554
aI1
aF0.9826606993089083
aI100
aI1072967
aI1432202373
aa(lp649
g554
aI1
aF0.9972857110309736
aI10728
aI1072867
aI1432202538
aa(lp650
g554
aI0
aF0.9999878489107406
aI10621
aI1062139
aI1432202834
aa(lp651
g554
aI1
aF0.9999438579509251
aI10623
aI1062354
aI1432203000
aa(lp652
g554
aI0
aF0.9992561620337104
aI10623
aI1062391
aI1432203155
aa(lp653
g554
aI0
aF0.9992561620337104
aI10623
aI1062391
aI1432203156
aa(lp654
g554
aI0
aF0.9995893269291881
aI10517
aI1051768
aI1432203321
aa(lp655
g554
aI0
aF0.9995893269291881
aI10517
aI1051768
aI1432203322
aa(lp656
g554
aI0
aF0.9997638893378207
aI10412
aI1041251
aI1432203742
aa(lp657
g554
aI0
aF0.9997638893378207
aI10412
aI1041251
aI1432203742
aa(lp658
g554
aI0
aF0.9910372488580019
aI10517
aI1051782
aI1432203910
aa(lp659
g554
aI0
aF0.9910372488580019
aI10517
aI1051782
aI1432203911
aa(lp660
g554
aI1
aF0.999997993050707
aI11066
aI1106635
aI1432204162
aa(lp661
g554
aI0
aF0.8946538315350867
aI100
aI1118388
aI1432204313
aa(lp662
g554
aI1
aF0.5
aI100
aI1118393
aI1432204522
aa(lp663
g554
aI1
aF0.5
aI100
aI1118393
aI1432204523
aa(lp664
g554
aI0
aF0.985036925011296
aI100
aI1118293
aI1432204710
aa(lp665
g554
aI1
aF0.8462603008987629
aI100
aI1118365
aI1432204865
aa(lp666
g554
aI0
aF0.8429644078524124
aI100
aI1118265
aI1432204999
aa(lp667
g554
aI1
aF0.9692014110160937
aI100
aI1118165
aI1432205135
aa(lp668
g554
aI0
aF0.9862216802385699
aI100
aI1118065
aI1432205266
aa(lp669
g554
aI1
aF0.999995186642945
aI11179
aI1117965
aI1432205556
aa(lp670
g554
aI1
aF0.990119478845675
aI11067
aI1106786
aI1432206295
aa(lp671
g554
aI0
aF0.759584272805596
aI100
aI1106786
aI1432206296
aa(lp672
g554
aI0
aF0.759584272805596
aI100
aI1106786
aI1432206313
aa(lp673
g554
aI0
aF0.9999992204754353
aI11066
aI1106686
aI1432206592
aa(lp674
g554
aI0
aF0.9999992204754353
aI11066
aI1106686
aI1432206592
aa(lp675
g554
aI1
aF0.980279504814968
aI100
aI1095620
aI1432206706
aa(lp676
g554
aI0
aF0.8130445427562737
aI100
aI1095744
aI1432206897
aa(lp677
g554
aI1
aF0.5
aI100
aI1095769
aI1432207049
aa(lp678
g554
aI0
aF0.9881295140754951
aI100
aI1095669
aI1432207157
aa(lp679
g554
aI0
aF0.9822859224738638
aI100
aI1096023
aI1432207329
aa(lp680
g554
aI1
aF0.9858012954207896
aI100
aI1095923
aI1432207507
aa(lp681
g554
aI0
aF0.8692392272505143
aI100
aI1095823
aI1432207735
aa(lp682
g554
aI0
aF0.9844385972203333
aI100
aI1096118
aI1432207886
aa(lp683
g554
aI0
aF0.9621203225402366
aI100
aI1096018
aI1432208036
aa(lp684
g554
aI1
aF0.9999471372145188
aI10960
aI1096035
aI1432208247
aa(lp685
g554
aI0
aF0.9999309984609901
aI10850
aI1085075
aI1432208449
aa(lp686
g554
aI1
aF0.9999782836209001
aI11027
aI1102789
aI1432208626
aa(lp687
g554
aI0
aF0.5
aI100
aI1091762
aI1432208814
aa(lp688
g554
aI0
aF0.9708442632076694
aI100
aI1091764
aI1432209026
aa(lp689
g554
aI0
aF0.5591792900722736
aI100
aI1091664
aI1432209177
aa(lp690
g554
aI0
aF0.5
aI100
aI1091677
aI1432209435
aa(lp691
g554
aI0
aF0.998898749881058
aI10915
aI1091577
aI1432209675
aa(lp692
g554
aI0
aF0.7792076794262472
aI100
aI1094270
aI1432209805
aa(lp693
g554
aI1
aF0.9996431183890013
aI10943
aI1094314
aI1432209939
aa(lp694
g554
aI1
aF0.9998696012955024
aI10963
aI1096346
aI1432210154
aa(lp695
g554
aI0
aF0.853793338992093
aI100
aI1097177
aI1432210322
aa(lp696
g554
aI0
aF0.9999181589477457
aI10971
aI1097178
aI1432210408
aa(lp697
g554
aI0
aF0.9997155692050677
aI10862
aI1086207
aI1432210552
aa(lp698
g554
aI0
aF0.7308010412434254
aI100
aI1090169
aI1432210803
aa(lp699
g554
aI0
aF0.6314833972186853
aI100
aI1090069
aI1432210980
aa(lp700
g554
aI0
aF0.9866407953970836
aI100
aI1089969
aI1432211143
aa(lp701
g554
aI1
aF0.9447063067289662
aI100
aI1089869
aI1432211305
aa(lp702
g554
aI1
aF0.5
aI100
aI1089769
aI1432211492
aa(lp703
g554
aI0
aF0.6854508223788831
aI100
aI1089669
aI1432211593
aa(lp704
g554
aI1
aF0.9953445311585152
aI10895
aI1089569
aI1432211766
aa(lp705
g559
aI1
aF0.59979031794084
aI1500
aI1500
aI1432212049
aa(lp706
g559
aI0
aF0.5
aI1337
aI2674
aI1432212227
aa(lp707
g559
aI1
aF0.9237490128244334
aI1763
aI3527
aI1432212438
aa(lp708
g559
aI0
aF0.5
aI2549
aI5098
aI1432212554
aa(lp709
g559
aI0
aF0.9995720941436048
aI3235
aI6471
aI1432212685
aa(lp710
g559
aI0
aF0.5202176512253542
aI1618
aI3236
aI1432212834
aa(lp711
g559
aI1
aF0.9993321680394311
aI1618
aI1618
aI1432212985
aa(lp712
g559
aI0
aF0.5
aI1500
aI1500
aI1432213172
aa(lp713
g559
aI1
aF0.9877220067736722
aI1559
aI3118
aI1432213347
aa(lp714
g559
aI0
aF0.99077004504451
aI2227
aI4454
aI1432213667
aa(lp715
g559
aI1
aF0.9379280395497985
aI3111
aI6222
aI1432213863
aa(lp716
g559
aI0
aF0.9897035118438362
aI5724
aI11449
aI1432214063
aa(lp717
g559
aI1
aF0.8784659187772964
aI2862
aI5725
aI1432214208
aa(lp718
g559
aI0
aF0.9999262389536001
aI3198
aI6396
aI1432214421
aa(lp719
g559
aI0
aF0.9802133224187197
aI4186
aI8373
aI1432214622
aa(lp720
g544
aI1
aF0.9874795940263497
aI1
aI1099839
aI1432215006
aa(lp721
g544
aI1
aF0.5
aI1
aI1099840
aI1432215150
aa(lp722
g544
aI0
aF0.5
aI1
aI1099839
aI1432215342
aa(lp723
g544
aI0
aF0.9994679374109734
aI1
aI1099838
aI1432215492
aa(lp724
g544
aI0
aF0.927540629799712
aI1
aI1099837
aI1432215575
aa(lp725
g544
aI0
aF0.5
aI1
aI1099841
aI1432215711
aa(lp726
g544
aI0
aF0.9978582281868995
aI1
aI1099842
aI1432215968
aa(lp727
g544
aI1
aF0.5
aI1
aI1099841
aI1432216068
aa(lp728
g544
aI1
aF0.5
aI1
aI1099840
aI1432216219
aa(lp729
g544
aI1
aF0.5
aI1
aI1099842
aI1432216379
aa(lp730
g544
aI1
aF0.9860388712612357
aI1
aI1099841
aI1432216576
aa(lp731
g544
aI1
aF0.9924723253340845
aI1
aI1099840
aI1432216670
aa(lp732
g544
aI0
aF0.9897953475415905
aI1
aI1099839
aI1432216762
aa(lp733
g544
aI0
aF0.9709419234362034
aI1
aI1099838
aI1432216876
aa(lp734
g544
aI0
aF0.9102904416481705
aI1
aI1099839
aI1432217027
aa(lp735
g544
aI1
aF0.5
aI1
aI1099840
aI1432217133
aa(lp736
g544
aI1
aF0.7321112215270341
aI1
aI1099841
aI1432217301
aa(lp737
g544
aI1
aF0.9999995571328079
aI1
aI1099840
aI1432217392
aa(lp738
g544
aI1
aF0.5
aI1
aI1099839
aI1432217533
aa(lp739
g544
aI0
aF0.5
aI1
aI1099838
aI1432217626
aa(lp740
g544
aI1
aF0.5
aI1
aI1099839
aI1432217731
aa(lp741
g544
aI0
aF0.5
aI1
aI1099842
aI1432217888
aa(lp742
g544
aI1
aF0.5
aI1
aI1099844
aI1432218020
aa(lp743
g544
aI0
aF0.5
aI1
aI1099846
aI1432218229
aa(lp744
g544
aI1
aF0.6260774410714253
aI1
aI1099848
aI1432218323
aa(lp745
g554
aI1
aF0.9950418432871302
aI10998
aI1099849
aI1432218549
aa(lp746
g554
aI1
aF0.9999977179890522
aI10888
aI1088851
aI1432218733
aa(lp747
g554
aI0
aF0.9028479447867475
aI100
aI1077963
aI1432218898
aa(lp748
g554
aI0
aF0.9999996284959758
aI10779
aI1077990
aI1432219106
aa(lp749
g554
aI1
aF0.9469338473043465
aI100
aI1078115
aI1432219226
aa(lp750
g554
aI0
aF0.9976910382730699
aI10780
aI1078015
aI1432219496
aa(lp751
g554
aI0
aF0.9585787222689348
aI100
aI1067235
aI1432219710
aa(lp752
g554
aI0
aF0.902833914298149
aI100
aI1067135
aI1432219841
aa(lp753
g554
aI1
aF0.9943985777750212
aI10670
aI1067035
aI1432220050
aa(lp754
g554
aI0
aF0.8252655412064414
aI100
aI1056365
aI1432220316
aa(lp755
g554
aI1
aF0.8666753268586112
aI100
aI1056265
aI1432220492
aa(lp756
g554
aI1
aF0.7993827072311697
aI100
aI1056165
aI1432220632
aa(lp757
g554
aI0
aF0.9998399150513612
aI10560
aI1056065
aI1432220772
aa(lp758
g554
aI0
aF0.5192801035253166
aI100
aI1057023
aI1432220869
aa(lp759
g554
aI0
aF0.8585057469314095
aI100
aI1057069
aI1432221017
aa(lp760
g554
aI0
aF0.9973916720357984
aI10569
aI1056969
aI1432221198
aa(lp761
g554
aI0
aF0.9998600882137993
aI10584
aI1058467
aI1432221345
aa(lp762
g554
aI1
aF0.9999975038529272
aI10723
aI1072315
aI1432221557
aa(lp763
g554
aI0
aF0.9662719262250953
aI100
aI1072478
aI1432221691
aa(lp764
g554
aI0
aF0.9989305541424269
aI10725
aI1072538
aI1432221820
aa(lp765
g554
aI0
aF0.545627684827101
aI100
aI1061813
aI1432221981
aa(lp766
g554
aI1
aF0.9997208340603072
aI10617
aI1061713
aI1432222108
aa(lp767
g554
aI0
aF0.9594513256209088
aI100
aI1051096
aI1432222230
aa(lp768
g554
aI1
aF0.9403395173594895
aI100
aI1051546
aI1432222451
aa(lp769
g554
aI0
aF0.9999635123897851
aI10515
aI1051554
aI1432222639
aa(lp770
g554
aI1
aF0.9999495348778392
aI10525
aI1052560
aI1432222855
aa(lp771
g554
aI1
aF0.9760994930926605
aI100
aI1058942
aI1432223062
aa(lp772
g554
aI0
aF0.9971223976560466
aI10588
aI1058842
aI1432223233
aa(lp773
g554
aI0
aF0.999588880437556
aI10652
aI1065274
aI1432223403
aa(lp774
g554
aI1
aF0.9994661401670941
aI10546
aI1054622
aI1432223568
aa(lp775
g554
aI1
aF0.9998216308322743
aI10590
aI1059049
aI1432223733
aa(lp776
g554
aI1
aF0.5
aI100
aI1048459
aI1432223927
aa(lp777
g554
aI0
aF0.9999897571066327
aI10484
aI1048463
aI1432224076
aa(lp778
g554
aI0
aF0.9572127783710885
aI100
aI1050367
aI1432224210
aa(lp779
g554
aI1
aF0.9123779739216973
aI100
aI1050267
aI1432224336
aa(lp780
g554
aI0
aF0.5
aI100
aI1050305
aI1432224492
aa(lp781
g554
aI1
aF0.9735960412115644
aI100
aI1050324
aI1432224624
aa(lp782
g554
aI1
aF0.8550750137241037
aI100
aI1050224
aI1432224889
aa(lp783
g554
aI0
aF0.9999982070881743
aI10502
aI1050252
aI1432225007
aa(lp784
g554
aI0
aF0.9999068638190143
aI10397
aI1039750
aI1432225277
aa(lp785
g554
aI1
aF0.5469982550975155
aI100
aI1045265
aI1432225456
aa(lp786
g554
aI1
aF0.9999554631267923
aI10452
aI1045291
aI1432225658
aa(lp787
g554
aI0
aF0.9999234017317543
aI10462
aI1046222
aI1432225785
aa(lp788
g554
aI0
aF0.9932112001526299
aI10494
aI1049448
aI1432226017
aa(lp789
g554
aI1
aF0.5
aI100
aI1050808
aI1432226125
aa(lp790
g554
aI1
aF0.999994859214219
aI10508
aI1050815
aI1432226248
aa(lp791
g554
aI0
aF0.9999992345592854
aI10526
aI1052618
aI1432226415
aa(lp792
g554
aI1
aF0.999946819448542
aI10539
aI1053932
aI1432226536
aa(lp793
g554
aI0
aF0.5
aI100
aI1043393
aI1432226714
aa(lp794
g554
aI0
aF0.9999988713993732
aI10432
aI1043293
aI1432226877
aa(lp795
g554
aI1
aF0.9999978275542922
aI10328
aI1032861
aI1432227093
aa(lp796
g554
aI0
aF0.9907711281393421
aI10225
aI1022533
aI1432227249
aa(lp797
g554
aI0
aF0.9996998991557376
aI10261
aI1026109
aI1432227425
aa(lp798
g554
aI0
aF0.9999370559526708
aI10304
aI1030479
aI1432227580
aa(lp799
g554
aI1
aF0.6495460518453696
aI100
aI1036465
aI1432227719
aa(lp800
g554
aI0
aF0.9688080279480955
aI100
aI1036492
aI1432227953
aa(lp801
g554
aI1
aF0.9901181188648094
aI10365
aI1036518
aI1432228076
aa(lp802
g554
aI0
aF0.9986788269610138
aI10402
aI1040262
aI1432228329
aa(lp803
g554
aI1
aF0.999972202748351
aI10491
aI1049195
aI1432228493
aa(lp804
g554
aI1
aF0.9122913000333288
aI100
aI1038704
aI1432228690
aa(lp805
g554
aI1
aF0.7190140260392874
aI100
aI1038604
aI1432228815
aa(lp806
g554
aI0
aF0.9999395368850093
aI10386
aI1038616
aI1432228910
aa(lp807
g554
aI0
aF0.9998805227929937
aI10408
aI1040829
aI1432229141
aa(lp808
g554
aI0
aF0.6223445038829483
aI100
aI1042690
aI1432229298
aa(lp809
g554
aI1
aF0.5
aI100
aI1042590
aI1432229487
aa(lp810
g554
aI0
aF0.9916302542357257
aI10424
aI1042490
aI1432229560
aa(lp811
g554
aI0
aF0.5674426568720237
aI100
aI1049485
aI1432229732
aa(lp812
g554
aI0
aF0.5576834690403564
aI100
aI1049520
aI1432229854
aa(lp813
g554
aI0
aF0.9210708845875617
aI100
aI1049551
aI1432230012
aa(lp814
g554
aI1
aF0.9953621104749711
aI10495
aI1049566
aI1432230151
aa(lp815
g554
aI0
aF0.7237140953882873
aI100
aI1067377
aI1432230325
aa(lp816
g554
aI1
aF0.8845202201504783
aI100
aI1067277
aI1432230513
aa(lp817
g554
aI0
aF0.9394653795728611
aI100
aI1067305
aI1432230680
aa(lp818
g554
aI1
aF0.9991962624000171
aI10672
aI1067205
aI1432230775
aa(lp819
g554
aI1
aF0.9995862750699152
aI10683
aI1068331
aI1432230898
aa(lp820
g554
aI1
aF0.5403206926842489
aI100
aI1057648
aI1432231021
aa(lp821
g554
aI1
aF0.9526004815868939
aI100
aI1057663
aI1432231176
aa(lp822
g554
aI0
aF0.5
aI100
aI1057563
aI1432231399
aa(lp823
g554
aI1
aF0.9999625386403288
aI10576
aI1057601
aI1432231593
aa(lp824
g554
aI1
aF0.791021569575529
aI100
aI1060283
aI1432231767
aa(lp825
g554
aI1
aF0.9588981270018657
aI100
aI1060183
aI1432231896
aa(lp826
g554
aI0
aF0.9192956513308219
aI100
aI1060270
aI1432232100
aa(lp827
g554
aI1
aF0.6316954986800926
aI100
aI1060403
aI1432232209
aa(lp828
g554
aI1
aF0.9994786872399393
aI10605
aI1060517
aI1432232503
aa(lp829
g554
aI1
aF0.8574944361444151
aI100
aI1066267
aI1432232778
aa(lp830
g554
aI1
aF0.5511650920086965
aI100
aI1066271
aI1432232939
aa(lp831
g554
aI0
aF0.8662722074331399
aI100
aI1066285
aI1432233124
aa(lp832
g554
aI0
aF0.9976664887966145
aI10663
aI1066338
aI1432233292
aa(lp833
g554
aI1
aF0.9483485825115687
aI100
aI1055675
aI1432233466
aa(lp834
g554
aI1
aF0.9978447472748346
aI10555
aI1055575
aI1432233624
aa(lp835
g554
aI1
aF0.9999691605799892
aI10773
aI1077347
aI1432233807
aa(lp836
g554
aI1
aF0.9999613347823523
aI10961
aI1096160
aI1432233946
aa(lp837
g554
aI0
aF0.8910028383001355
aI100
aI1085199
aI1432234115
aa(lp838
g554
aI0
aF0.9188802015249815
aI100
aI1085252
aI1432234294
aa(lp839
g554
aI1
aF0.8945889353727531
aI100
aI1085275
aI1432234460
aa(lp840
g554
aI0
aF0.9991228686129782
aI10851
aI1085175
aI1432234573
aa(lp841
g554
aI0
aF0.9595638195794106
aI100
aI1085773
aI1432234782
aa(lp842
g554
aI1
aF0.692277330679044
aI100
aI1085775
aI1432234892
aa(lp843
g554
aI0
aF0.9918895093950015
aI10858
aI1085830
aI1432235112
aa(lp844
g554
aI1
aF0.9999513213812063
aI10749
aI1074972
aI1432235372
aa(lp845
g559
aI0
aF0.9999964428088677
aI1500
aI1500
aI1432235644
aa(lp846
g559
aI1
aF0.6665151416127082
aI1500
aI1500
aI1432235782
aa(lp847
g559
aI0
aF0.990015573825548
aI1500
aI1500
aI1432235934
aa(lp848
g559
aI0
aF0.9965057099077888
aI1500
aI1500
aI1432236056
aa(lp849
g559
aI1
aF0.9911954619000818
aI1065
aI2131
aI1432236228
aa(lp850
g559
aI0
aF0.9980659109422432
aI1500
aI1500
aI1432236472
aa(lp851
g559
aI0
aF0.5
aI1500
aI1500
aI1432236634
aa(lp852
g559
aI1
aF0.9911606893627608
aI1500
aI1500
aI1432236817
aa(lp853
g559
aI1
aF0.99997840091755
aI1408
aI2816
aI1432236991
aa(lp854
g559
aI1
aF0.8717101186647337
aI1845
aI3691
aI1432237275
aa(lp855
g559
aI1
aF0.9696271268576041
aI1846
aI1846
aI1432237446
aa(lp856
g559
aI1
aF0.5
aI1500
aI1500
aI1432237627
aa(lp857
g559
aI0
aF0.9953805088473642
aI1500
aI1500
aI1432237856
aa(lp858
g559
aI1
aF0.5
aI1500
aI1500
aI1432238021
aa(lp859
g559
aI0
aF0.5
aI2055
aI4110
aI1432238187
aa(lp860
g544
aI0
aF0.5
aI1
aI1066278
aI1432238606
aa(lp861
g544
aI0
aF0.5
aI1
aI1066277
aI1432238813
aa(lp862
g544
aI1
aF0.9754934497275669
aI1
aI1066276
aI1432238966
aa(lp863
g544
aI1
aF0.5
aI1
aI1066277
aI1432239122
aa(lp864
g544
aI0
aF0.5
aI1
aI1066278
aI1432239239
aa(lp865
g544
aI0
aF0.5
aI1
aI1066277
aI1432239346
aa(lp866
g544
aI0
aF0.6249638213874242
aI1
aI1066276
aI1432239458
aa(lp867
g544
aI0
aF0.9969865607153293
aI1
aI1066278
aI1432239624
aa(lp868
g544
aI0
aF0.5
aI1
aI1066280
aI1432239840
aa(lp869
g544
aI1
aF0.5
aI1
aI1066281
aI1432239932
aa(lp870
g544
aI1
aF0.5118891640044974
aI1
aI1066283
aI1432240027
aa(lp871
g544
aI0
aF0.5
aI1
aI1066286
aI1432240141
aa(lp872
g544
aI1
aF0.5
aI1
aI1066285
aI1432240262
aa(lp873
g544
aI0
aF0.5
aI1
aI1066284
aI1432240395
aa(lp874
g544
aI0
aF0.5
aI1
aI1066283
aI1432240525
aa(lp875
g544
aI1
aF0.5
aI1
aI1066282
aI1432240631
aa(lp876
g544
aI1
aF0.5
aI1
aI1066282
aI1432240660
aa(lp877
g544
aI1
aF0.5
aI1
aI1066281
aI1432240788
aa(lp878
g544
aI0
aF0.773504960910992
aI1
aI1066282
aI1432240898
aa(lp879
g544
aI0
aF0.9909223688202763
aI1
aI1066281
aI1432241024
aa(lp880
g544
aI0
aF0.9999047826419127
aI1
aI1066282
aI1432241124
aa(lp881
g544
aI1
aF0.9899181869963801
aI1
aI1066285
aI1432241251
aa(lp882
g544
aI1
aF0.9999998490158936
aI1
aI1066286
aI1432241391
aa(lp883
g544
aI0
aF0.9999947645872749
aI1
aI1066285
aI1432241491
aa(lp884
g544
aI1
aF0.9999998090343507
aI1
aI1066284
aI1432241626
aa(lp885
g554
aI1
aF0.5
aI100
aI1066285
aI1432241839
aa(lp886
g554
aI1
aF0.9505388469411393
aI100
aI1066392
aI1432242086
aa(lp887
g554
aI1
aF0.9990529503261658
aI10662
aI1066292
aI1432242283
aa(lp888
g554
aI0
aF0.999994324303241
aI10556
aI1055630
aI1432242413
aa(lp889
g554
aI1
aF0.7160641410086003
aI100
aI1061904
aI1432242536
aa(lp890
g554
aI0
aF0.9823194560501918
aI100
aI1061804
aI1432242804
aa(lp891
g554
aI1
aF0.7897612235693661
aI100
aI1061838
aI1432243015
aa(lp892
g554
aI1
aF0.5419067868725966
aI100
aI1061738
aI1432243212
aa(lp893
g554
aI0
aF0.9999631740552875
aI10616
aI1061638
aI1432243333
aa(lp894
g554
aI1
aF0.9999717964440544
aI10510
aI1051022
aI1432243479
aa(lp895
g554
aI1
aF0.9855217204047285
aI100
aI1053608
aI1432243618
aa(lp896
g554
aI0
aF0.6857035384409664
aI100
aI1053887
aI1432243814
aa(lp897
g554
aI1
aF0.9999172949869692
aI10539
aI1053918
aI1432244001
aa(lp898
g554
aI1
aF0.9999867866503293
aI10562
aI1056287
aI1432244135
aa(lp899
g554
aI0
aF0.5
aI100
aI1045725
aI1432244343
aa(lp900
g554
aI1
aF0.9917231879139385
aI10456
aI1045625
aI1432244542
aa(lp901
g554
aI0
aF0.9997810643788587
aI10498
aI1049828
aI1432244654
aa(lp902
g554
aI1
aF0.5195359154930955
aI100
aI1060037
aI1432244780
aa(lp903
g554
aI1
aF0.9961377572634591
aI10603
aI1060345
aI1432244945
aa(lp904
g554
aI1
aF0.9444391763053803
aI100
aI1060881
aI1432245078
aa(lp905
g554
aI1
aF0.7346227772607228
aI100
aI1060781
aI1432245217
aa(lp906
g554
aI1
aF0.948445433959373
aI100
aI1060805
aI1432245380
aa(lp907
g554
aI1
aF0.8848299783402399
aI100
aI1060705
aI1432245500
aa(lp908
g554
aI1
aF0.9200093761192765
aI100
aI1060605
aI1432245703
aa(lp909
g554
aI1
aF0.9390296092814066
aI100
aI1060505
aI1432245836
aa(lp910
g554
aI0
aF0.5
aI100
aI1060565
aI1432246102
aa(lp911
g554
aI1
aF0.9735720921608608
aI100
aI1060574
aI1432246223
aa(lp912
g554
aI1
aF0.9878206928764934
aI100
aI1060716
aI1432246370
aa(lp913
g554
aI0
aF0.5
aI100
aI1060752
aI1432246560
aa(lp914
g554
aI0
aF0.7475540098522122
aI100
aI1060652
aI1432246845
aa(lp915
g554
aI1
aF0.9950038126045296
aI10605
aI1060552
aI1432247025
aa(lp916
g554
aI1
aF0.685033091979501
aI100
aI1049947
aI1432247334
aa(lp917
g554
aI1
aF0.9999887846767201
aI10500
aI1050028
aI1432247532
aa(lp918
g554
aI1
aF0.9999354925561086
aI10534
aI1053456
aI1432247711
aa(lp919
g554
aI1
aF0.9164977836186905
aI100
aI1054400
aI1432247905
aa(lp920
g554
aI0
aF0.7328978582421832
aI100
aI1054464
aI1432248115
aa(lp921
g554
aI0
aF0.9856066901139838
aI100
aI1054698
aI1432248325
aa(lp922
g554
aI1
aF0.5
aI100
aI1054598
aI1432248502
aa(lp923
g554
aI1
aF0.9829511799801447
aI100
aI1054629
aI1432248703
aa(lp924
g554
aI1
aF0.8744347507970941
aI100
aI1054654
aI1432248859
aa(lp925
g554
aI1
aF0.5
aI100
aI1054655
aI1432248981
aa(lp926
g554
aI1
aF0.9370603697937939
aI100
aI1054555
aI1432249096
aa(lp927
g554
aI0
aF0.999999947328858
aI10545
aI1054565
aI1432249222
aa(lp928
g554
aI0
aF0.9528303868353367
aI100
aI1057974
aI1432249353
aa(lp929
g554
aI1
aF0.9879833022578512
aI100
aI1057874
aI1432249524
aa(lp930
g554
aI1
aF0.7934650701654756
aI100
aI1057884
aI1432249708
aa(lp931
g554
aI0
aF0.9985206091733093
aI10579
aI1057945
aI1432249923
aa(lp932
g554
aI0
aF0.5
aI100
aI1047366
aI1432250214
aa(lp933
g554
aI0
aF0.9483830590646893
aI100
aI1047433
aI1432250396
aa(lp934
g554
aI1
aF0.9999861858069256
aI10473
aI1047333
aI1432250537
aa(lp935
g554
aI1
aF0.9939831518011234
aI10510
aI1051014
aI1432250670
aa(lp936
g554
aI0
aF0.9988422369812255
aI10405
aI1040504
aI1432250902
aa(lp937
g554
aI1
aF0.9222804176181859
aI100
aI1049032
aI1432251033
aa(lp938
g554
aI1
aF0.9965156082143869
aI10489
aI1048932
aI1432251153
aa(lp939
g554
aI0
aF0.7026001222774738
aI100
aI1038443
aI1432251304
aa(lp940
g554
aI0
aF0.9991028445238632
aI10384
aI1038458
aI1432251440
aa(lp941
g554
aI1
aF0.9980145062266279
aI10389
aI1038954
aI1432251598
aa(lp942
g554
aI0
aF0.5
aI100
aI1028565
aI1432251823
aa(lp943
g554
aI1
aF0.9999669776818951
aI10284
aI1028465
aI1432251995
aa(lp944
g554
aI0
aF0.5
aI100
aI1032527
aI1432252173
aa(lp945
g554
aI1
aF0.9981070739639035
aI10324
aI1032427
aI1432252350
aa(lp946
g554
aI0
aF0.5833154795751194
aI100
aI1033826
aI1432252478
aa(lp947
g554
aI0
aF0.9838277501523527
aI100
aI1033851
aI1432252635
aa(lp948
g554
aI1
aF0.9770204094697953
aI100
aI1033751
aI1432252754
aa(lp949
g554
aI0
aF0.6197749492035025
aI100
aI1033762
aI1432252887
aa(lp950
g554
aI0
aF0.5
aI100
aI1033810
aI1432253013
aa(lp951
g554
aI0
aF0.7670610588190625
aI100
aI1033710
aI1432253113
aa(lp952
g554
aI0
aF0.9999988538808674
aI10337
aI1033792
aI1432253263
aa(lp953
g554
aI0
aF0.9879322499781955
aI100
aI1033955
aI1432253382
aa(lp954
g554
aI1
aF0.5
aI100
aI1033991
aI1432253517
aa(lp955
g554
aI0
aF0.7863170972735883
aI100
aI1033891
aI1432253655
aa(lp956
g554
aI0
aF0.9999991146386542
aI10338
aI1033893
aI1432253798
aa(lp957
g554
aI0
aF0.7831029011637001
aI100
aI1035289
aI1432253931
aa(lp958
g554
aI0
aF0.9936389915429833
aI10351
aI1035189
aI1432254010
aa(lp959
g554
aI0
aF0.9967194468955057
aI10248
aI1024838
aI1432254260
aa(lp960
g554
aI1
aF0.9752619854661172
aI100
aI1034624
aI1432254553
aa(lp961
g554
aI0
aF0.9954834231448946
aI10346
aI1034659
aI1432254736
aa(lp962
g554
aI1
aF0.7883342908683931
aI100
aI1050892
aI1432254920
aa(lp963
g554
aI1
aF0.9999885523785422
aI10507
aI1050792
aI1432255073
aa(lp964
g554
aI1
aF0.9322953242636043
aI100
aI1040285
aI1432255205
aa(lp965
g554
aI1
aF0.6884153831629697
aI100
aI1040401
aI1432255390
aa(lp966
g554
aI1
aF0.7600091580416799
aI100
aI1040301
aI1432255499
aa(lp967
g554
aI0
aF0.9887003993946057
aI100
aI1040311
aI1432255661
aa(lp968
g554
aI1
aF0.995074185503363
aI10402
aI1040211
aI1432255823
aa(lp969
g554
aI0
aF0.9907967348729867
aI10298
aI1029809
aI1432256089
aa(lp970
g554
aI1
aF0.9584429609954104
aI100
aI1054052
aI1432256279
aa(lp971
g554
aI1
aF0.9917461895898623
aI10541
aI1054194
aI1432256487
aa(lp972
g554
aI0
aF0.999986116340655
aI10436
aI1043653
aI1432256780
aa(lp973
g554
aI0
aF0.9399244012296215
aI100
aI1045606
aI1432257006
aa(lp974
g554
aI1
aF0.997912433604472
aI10455
aI1045506
aI1432257130
aa(lp975
g554
aI0
aF0.9998405389727132
aI10721
aI1072148
aI1432257255
aa(lp976
g554
aI0
aF0.9999070785252573
aI10732
aI1073204
aI1432257372
aa(lp977
g554
aI0
aF0.9998112745002905
aI10765
aI1076598
aI1432257532
aa(lp978
g554
aI1
aF0.9999948223946055
aI10658
aI1065833
aI1432257688
aa(lp979
g554
aI0
aF0.9996320046237048
aI10717
aI1071708
aI1432257836
aa(lp980
g554
aI1
aF0.9749055135953131
aI100
aI1075009
aI1432258003
aa(lp981
g554
aI0
aF0.9943165405827692
aI10750
aI1075043
aI1432258119
aa(lp982
g554
aI1
aF0.5017179957247103
aI100
aI1076152
aI1432258238
aa(lp983
g554
aI1
aF0.971040291117924
aI100
aI1076293
aI1432258454
aa(lp984
g559
aI1
aF0.647613383264948
aI1500
aI1500
aI1432258746
aa(lp985
g559
aI1
aF0.647613383264948
aI1500
aI1500
aI1432258746
aa(lp986
g559
aI0
aF0.9988816930503667
aI1500
aI1500
aI1432258903
aa(lp987
g559
aI0
aF0.9996470026186407
aI1049
aI2099
aI1432259086
aa(lp988
g559
aI1
aF0.9411368323614693
aI1235
aI2471
aI1432259223
aa(lp989
g559
aI0
aF0.9963719918427427
aI1500
aI1500
aI1432259423
aa(lp990
g559
aI1
aF0.9999995250959958
aI1832
aI1832
aI1432259576
aa(lp991
g559
aI1
aF0.9743271056909057
aI1260
aI2520
aI1432259692
aa(lp992
g559
aI1
aF0.9832708902649225
aI1500
aI1500
aI1432259813
aa(lp993
g559
aI1
aF0.9944149988272726
aI1805
aI1805
aI1432259954
aa(lp994
g559
aI0
aF0.9999846561013679
aI1020
aI2040
aI1432260093
aa(lp995
g559
aI1
aF0.9966696018191239
aI1370
aI2740
aI1432260318
aa(lp996
g559
aI1
aF0.9954133327128188
aI1725
aI3450
aI1432260446
aa(lp997
g559
aI1
aF0.9555849291869734
aI1964
aI3929
aI1432260615
aa(lp998
g559
aI0
aF0.9974253102624071
aI1965
aI1965
aI1432260798
aa(lp999
g559
aI1
aF0.8032094476438739
aI1466
aI2933
aI1432260951
aa(lp1000
g544
aI1
aF0.5774817791568114
aI1
aI1077979
aI1432261292
aa(lp1001
g544
aI1
aF0.5774817791568114
aI1
aI1077979
aI1432261292
aa(lp1002
g544
aI0
aF0.5
aI1
aI1077978
aI1432261425
aa(lp1003
g544
aI0
aF0.5
aI1
aI1077977
aI1432261594
aa(lp1004
g544
aI1
aF0.8548159583676035
aI1
aI1077978
aI1432261754
aa(lp1005
g544
aI0
aF0.5
aI1
aI1077977
aI1432261889
aa(lp1006
g544
aI1
aF0.5
aI1
aI1077978
aI1432262017
aa(lp1007
g544
aI1
aF0.5
aI1
aI1077979
aI1432262130
aa(lp1008
g544
aI1
aF0.5
aI1
aI1077981
aI1432262286
aa(lp1009
g544
aI1
aF0.5
aI1
aI1077981
aI1432262386
aa(lp1010
g544
aI1
aF0.9999572478381997
aI1
aI1077984
aI1432262570
aa(lp1011
g544
aI1
aF0.5
aI1
aI1077985
aI1432262655
aa(lp1012
g544
aI1
aF0.5
aI1
aI1077988
aI1432262831
aa(lp1013
g544
aI1
aF0.5
aI1
aI1077989
aI1432262962
aa(lp1014
g544
aI0
aF0.999983656352855
aI1
aI1077990
aI1432263048
aa(lp1015
g544
aI1
aF0.8930726377221827
aI1
aI1077989
aI1432263173
aa(lp1016
g544
aI0
aF0.5
aI1
aI1077990
aI1432263288
aa(lp1017
g544
aI1
aF0.5
aI1
aI1077991
aI1432263454
aa(lp1018
g544
aI0
aF0.5
aI1
aI1077992
aI1432263567
aa(lp1019
g544
aI1
aF0.5
aI1
aI1077991
aI1432263686
aa(lp1020
g544
aI0
aF0.5
aI1
aI1077990
aI1432263860
aa(lp1021
g544
aI1
aF0.9930239564083817
aI1
aI1077989
aI1432263969
aa(lp1022
g544
aI1
aF0.5
aI1
aI1077990
aI1432264090
aa(lp1023
g544
aI0
aF0.5
aI1
aI1077991
aI1432264259
aa(lp1024
g544
aI1
aF0.5
aI1
aI1077990
aI1432264391
aa(lp1025
g544
aI1
aF0.5
aI1
aI1077989
aI1432264562
aa(lp1026
g554
aI0
aF0.807614682311266
aI100
aI1077990
aI1432264880
aa(lp1027
g554
aI1
aF0.9757860217724645
aI100
aI1078029
aI1432265057
aa(lp1028
g554
aI0
aF0.8687946008109604
aI100
aI1078032
aI1432265217
aa(lp1029
g554
aI1
aF0.9967001074931234
aI10779
aI1077932
aI1432265354
aa(lp1030
g554
aI1
aF0.9999202021879156
aI10793
aI1079340
aI1432265483
aa(lp1031
g554
aI0
aF0.5
aI100
aI1104809
aI1432265615
aa(lp1032
g554
aI1
aF0.9921355817543359
aI11049
aI1104931
aI1432265703
aa(lp1033
g554
aI0
aF0.9994343207523838
aI10938
aI1093882
aI1432265961
aa(lp1034
g554
aI1
aF0.9785845025095824
aI100
aI1095913
aI1432266180
aa(lp1035
g554
aI0
aF0.8580301097792573
aI100
aI1095813
aI1432266358
aa(lp1036
g554
aI0
aF0.8316913859955578
aI100
aI1095817
aI1432266458
aa(lp1037
g554
aI0
aF0.9979002846240476
aI10958
aI1095854
aI1432266574
aa(lp1038
g554
aI1
aF0.9935672110991531
aI11205
aI1120546
aI1432266818
aa(lp1039
g554
aI0
aF0.999901264868981
aI11093
aI1109341
aI1432266948
aa(lp1040
g554
aI1
aF0.9985623610317976
aI11144
aI1114483
aI1432267100
aa(lp1041
g554
aI1
aF0.9862209968206225
aI100
aI1125649
aI1432267209
aa(lp1042
g554
aI1
aF0.999700621947077
aI11256
aI1125697
aI1432267418
aa(lp1043
g554
aI0
aF0.943898446714437
aI100
aI1114441
aI1432267557
aa(lp1044
g554
aI0
aF0.9656939574394859
aI100
aI1114447
aI1432267715
aa(lp1045
g554
aI0
aF0.5141376831925493
aI100
aI1114347
aI1432267882
aa(lp1046
g554
aI1
aF0.9850062270901866
aI100
aI1114247
aI1432268103
aa(lp1047
g554
aI1
aF0.9999966511368771
aI11141
aI1114147
aI1432268350
aa(lp1048
g554
aI1
aF0.9708184232022303
aI100
aI1103006
aI1432268506
aa(lp1049
g554
aI1
aF0.991200234011238
aI11030
aI1103069
aI1432268675
aa(lp1050
g554
aI0
aF0.9999746435371237
aI10920
aI1092039
aI1432268865
aa(lp1051
g554
aI0
aF0.9984466346533564
aI10934
aI1093405
aI1432269008
aa(lp1052
g554
aI1
aF0.7184283608994155
aI100
aI1094642
aI1432269208
aa(lp1053
g554
aI1
aF0.986821726787816
aI100
aI1094542
aI1432269364
aa(lp1054
g554
aI0
aF0.9429514375781192
aI100
aI1094624
aI1432269535
aa(lp1055
g554
aI0
aF0.8975937551436531
aI100
aI1094654
aI1432269728
aa(lp1056
g554
aI1
aF0.5
aI100
aI1094666
aI1432270063
aa(lp1057
g554
aI1
aF0.9999690112771007
aI10949
aI1094951
aI1432270236
aa(lp1058
g554
aI1
aF0.5
aI100
aI1084002
aI1432270394
aa(lp1059
g554
aI1
aF0.7082659128157038
aI100
aI1083902
aI1432270604
aa(lp1060
g554
aI0
aF0.9997709036384868
aI10838
aI1083802
aI1432270760
aa(lp1061
g554
aI0
aF0.9947183784858207
aI10729
aI1072964
aI1432270906
aa(lp1062
g554
aI1
aF0.9999992551117656
aI10839
aI1083950
aI1432271086
aa(lp1063
g554
aI0
aF0.7553332994595755
aI100
aI1089912
aI1432271197
aa(lp1064
g554
aI1
aF0.9943172075935521
aI10898
aI1089812
aI1432271326
aa(lp1065
g554
aI1
aF0.9756655240037592
aI100
aI1078914
aI1432271481
aa(lp1066
g554
aI1
aF0.9503716526846313
aI100
aI1078814
aI1432271666
aa(lp1067
g554
aI1
aF0.919570307587104
aI100
aI1078850
aI1432271791
aa(lp1068
g554
aI1
aF0.5518524263174309
aI100
aI1078750
aI1432271938
aa(lp1069
g554
aI1
aF0.9948667476016436
aI10787
aI1078789
aI1432272086
aa(lp1070
g554
aI1
aF0.9998790565301112
aI10812
aI1081215
aI1432272258
aa(lp1071
g554
aI0
aF0.8918345539565327
aI100
aI1070403
aI1432272496
aa(lp1072
g554
aI1
aF0.9999991036541184
aI10704
aI1070483
aI1432272644
aa(lp1073
g554
aI1
aF0.9687751065062267
aI100
aI1059779
aI1432272802
aa(lp1074
g554
aI0
aF0.9999989815266813
aI10598
aI1059872
aI1432272995
aa(lp1075
g554
aI1
aF0.8746158501747202
aI100
aI1049274
aI1432273133
aa(lp1076
g554
aI0
aF0.7376085387781186
aI100
aI1049174
aI1432273277
aa(lp1077
g554
aI0
aF0.9812129701563017
aI100
aI1049256
aI1432273492
aa(lp1078
g554
aI0
aF0.9985982535898387
aI10492
aI1049297
aI1432273662
aa(lp1079
g554
aI1
aF0.7632077594429933
aI100
aI1058005
aI1432273801
aa(lp1080
g554
aI1
aF0.9982004076215045
aI10581
aI1058123
aI1432273987
aa(lp1081
g554
aI1
aF0.9386598673056815
aI100
aI1047542
aI1432274173
aa(lp1082
g554
aI0
aF0.9830734451284628
aI100
aI1047556
aI1432274348
aa(lp1083
g554
aI0
aF0.9798689356131984
aI100
aI1047562
aI1432274500
aa(lp1084
g554
aI1
aF0.9999999943610118
aI10476
aI1047614
aI1432274635
aa(lp1085
g554
aI0
aF0.9995313012154465
aI10632
aI1063299
aI1432274811
aa(lp1086
g554
aI0
aF0.9987851165229182
aI10729
aI1072957
aI1432274971
aa(lp1087
g554
aI1
aF0.9994496754223091
aI10752
aI1075280
aI1432275133
aa(lp1088
g554
aI1
aF0.9578367787377277
aI100
aI1064528
aI1432275408
aa(lp1089
g554
aI1
aF0.5
aI100
aI1064428
aI1432275711
aa(lp1090
g554
aI1
aF0.9997535864988492
aI10643
aI1064328
aI1432275894
aa(lp1091
g554
aI1
aF0.9999979890107562
aI10747
aI1074781
aI1432276026
aa.