(lp0
(lp1
VM
p2
aI0
aF17.738587752038452
aI100
aI1083343
aI1432367549
aa(lp3
g2
aI1
aF5.4064574101267935
aI100
aI1083243
aI1432367657
aa(lp4
g2
aI1
aF1.0
aI100
aI1083143
aI1432367796
aa(lp5
g2
aI0
aF795.2278556014314
aI10831
aI1083150
aI1432367915
aa(lp6
g2
aI1
aF1.0
aI100
aI1072319
aI1432368085
aa(lp7
g2
aI0
aF6.145689484231804
aI100
aI1072328
aI1432368420
aa(lp8
g2
aI0
aF56.28198740129926
aI100
aI1072228
aI1432368593
aa(lp9
g2
aI0
aF32.62440245813456
aI100
aI1072128
aI1432368764
aa(lp10
g2
aI0
aF1.0
aI100
aI1072595
aI1432368938
aa(lp11
g2
aI0
aF138.450664907123
aI100
aI1072664
aI1432369096
aa(lp12
g2
aI1
aF29.93326056687948
aI100
aI1072867
aI1432369310
aa(lp13
g2
aI1
aF19.91805768950546
aI100
aI1072767
aI1432369620
aa(lp14
g2
aI1
aF1624.9325800548118
aI10726
aI1072667
aI1432369756
aa(lp15
g2
aI1
aF108.30823557891354
aI100
aI1076763
aI1432369966
aa(lp16
g2
aI0
aF124.31149503600504
aI100
aI1076663
aI1432370147
aa(lp17
g2
aI1
aF1.0
aI100
aI1076825
aI1432370310
aa(lp18
g2
aI0
aF17.73065165478386
aI100
aI1076911
aI1432370515
aa(lp19
g2
aI0
aF6.288250713264004
aI100
aI1076918
aI1432370659
aa(lp20
g2
aI0
aF4.702728871686945
aI100
aI1076818
aI1432370788
aa(lp21
g2
aI0
aF1.0
aI100
aI1076718
aI1432370963
aa(lp22
g2
aI1
aF64917.92452569757
aI10766
aI1076618
aI1432371152
aa(lp23
g2
aI1
aF1.0
aI100
aI1065852
aI1432371447
aa(lp24
g2
aI1
aF26.02016354964453
aI100
aI1065910
aI1432371598
aa(lp25
g2
aI0
aF1.0
aI100
aI1065925
aI1432371852
aa(lp26
g2
aI0
aF1.0
aI100
aI1066195
aI1432372029
aa(lp27
g2
aI1
aF1002.7410081704447
aI10662
aI1066208
aI1432372200
aa(lp28
g2
aI0
aF1.4375931964421147
aI100
aI1055546
aI1432372340
aa(lp29
g2
aI1
aF3.983683744788474
aI100
aI1055446
aI1432372420
aa(lp30
g2
aI0
aF2.2389760805006675
aI100
aI1055710
aI1432372618
aa(lp31
g2
aI1
aF1.0
aI100
aI1055610
aI1432372763
aa(lp32
g2
aI0
aF48.462950103657676
aI100
aI1055826
aI1432373065
aa(lp33
g2
aI1
aF3.4076008589410356
aI100
aI1055726
aI1432373195
aa(lp34
g2
aI1
aF1.0
aI100
aI1055626
aI1432373333
aa(lp35
g2
aI1
aF471.93743383939693
aI10556
aI1055630
aI1432373695
aa(lp36
g2
aI1
aF20.789191600110325
aI100
aI1045074
aI1432373910
aa(lp37
g2
aI1
aF678.3453673190254
aI10449
aI1044974
aI1432374066
aa(lp38
g2
aI0
aF1.0
aI100
aI1049067
aI1432374357
aa(lp39
g2
aI1
aF2.6061382922558183
aI100
aI1049081
aI1432374496
aa(lp40
g2
aI1
aF2.42557689633145
aI100
aI1048981
aI1432374635
aa(lp41
g2
aI1
aF6455282.808277385
aI10488
aI1048881
aI1432374817
aa(lp42
g2
aI1
aF1.0
aI100
aI1058043
aI1432374965
aa(lp43
g2
aI0
aF247525.7720942095
aI10580
aI1058085
aI1432375123
aa(lp44
VT
p45
aI1
aF401.87046543200375
aI1500
aI1500
aI1432375447
aa(lp46
g45
aI0
aF1.057088459920482
aI1126
aI2252
aI1432375676
aa(lp47
g45
aI1
aF58.12357211047179
aI1674
aI3348
aI1432375803
aa(lp48
g45
aI1
aF1.0
aI2646
aI5292
aI1432375981
aa(lp49
g45
aI0
aF35.745388994688845
aI1323
aI2646
aI1432376229
aa(lp50
g45
aI1
aF536.7423125982672
aI1500
aI1500
aI1432376356
aa(lp51
g45
aI0
aF1.0
aI1500
aI1500
aI1432376511
aa(lp52
g45
aI0
aF233236.90722476068
aI1500
aI1500
aI1432376660
aa(lp53
g45
aI0
aF12.016009539721521
aI1019
aI2039
aI1432376818
aa(lp54
g45
aI0
aF1.0
aI1462
aI2924
aI1432376951
aa(lp55
g45
aI0
aF1.031548911869749
aI1500
aI1500
aI1432377105
aa(lp56
g45
aI1
aF29963.692951388235
aI1163
aI2326
aI1432377257
aa(lp57
g45
aI0
aF1.0
aI2022
aI4044
aI1432377432
aa(lp58
g45
aI1
aF1903.8439860466217
aI2888
aI5777
aI1432377617
aa(lp59
g45
aI1
aF1.379040049391409
aI1444
aI2889
aI1432377800
aa(lp60
VE
p61
aI0
aF2.287679544316533
aI1
aI1075077
aI1432378274
aa(lp62
g61
aI1
aF2001745.3689671187
aI1
aI1075076
aI1432378551
aa(lp63
g61
aI1
aF11.52976513165163
aI1
aI1075075
aI1432378771
aa(lp64
g61
aI0
aF1.0
aI1
aI1075076
aI1432379073
aa(lp65
g61
aI1
aF1137.9413842770723
aI1
aI1075075
aI1432379191
aa(lp66
g61
aI1
aF6.675027295648897
aI1
aI1075074
aI1432379632
aa(lp67
g61
aI0
aF651032.0412590327
aI1
aI1075073
aI1432379783
aa(lp68
g61
aI1
aF3.325998166960686
aI1
aI1075072
aI1432379906
aa(lp69
g61
aI1
aF2.095537589631738
aI1
aI1075074
aI1432380389
aa(lp70
g61
aI1
aF18.211210897514597
aI1
aI1075075
aI1432380538
aa(lp71
g61
aI0
aF71.36928446828402
aI1
aI1075074
aI1432381051
aa(lp72
g61
aI1
aF2.025364573370237
aI1
aI1075073
aI1432381175
aa(lp73
g61
aI1
aF3514.190271894453
aI1
aI1075074
aI1432381302
aa(lp74
g2
aI1
aF6464.390623339096
aI10750
aI1075075
aI1432381475
aa(lp75
g2
aI1
aF7.7579942395504435
aI100
aI1076303
aI1432381709
aa(lp76
g2
aI1
aF1.0
aI100
aI1076348
aI1432381799
aa(lp77
g2
aI1
aF1.0
aI100
aI1076248
aI1432382081
aa(lp78
g2
aI0
aF11.511715777897152
aI100
aI1076269
aI1432382223
aa(lp79
g2
aI1
aF4082.4699061824053
aI10763
aI1076354
aI1432382376
aa(lp80
g2
aI1
aF1.0
aI100
aI1077437
aI1432382513
aa(lp81
g2
aI1
aF44.328719779776215
aI100
aI1077487
aI1432382661
aa(lp82
g2
aI1
aF7.113520286474809
aI100
aI1077513
aI1432382851
aa(lp83
g2
aI1
aF5027.665477911243
aI10774
aI1077413
aI1432383098
aa(lp84
g2
aI1
aF114.30804455970565
aI100
aI1066639
aI1432383308
aa(lp85
g2
aI1
aF1.0499297134297854
aI100
aI1066655
aI1432383536
aa(lp86
g2
aI1
aF2.792801781956297
aI100
aI1066555
aI1432383774
aa(lp87
g2
aI0
aF7054.810380881162
aI10665
aI1066576
aI1432384185
aa(lp88
g2
aI0
aF5.544691862211905
aI100
aI1072055
aI1432384339
aa(lp89
g2
aI0
aF2.7947704027658418
aI100
aI1071955
aI1432384469
aa(lp90
g2
aI0
aF542.7678919644632
aI10718
aI1071855
aI1432384756
aa(lp91
g2
aI0
aF2.4658412008870956
aI100
aI1076250
aI1432384891
aa(lp92
g2
aI0
aF2.1894160402237413
aI100
aI1076337
aI1432385074
aa(lp93
g2
aI0
aF21.047460342601042
aI100
aI1076454
aI1432385219
aa(lp94
g2
aI0
aF1.0
aI100
aI1076513
aI1432385420
aa(lp95
g2
aI1
aF63.799096597025574
aI100
aI1076538
aI1432385589
aa(lp96
g2
aI0
aF2.580905286725117
aI100
aI1076554
aI1432385813
aa(lp97
g2
aI1
aF1.0
aI100
aI1076917
aI1432386088
aa(lp98
g2
aI1
aF1.0
aI100
aI1076817
aI1432386374
aa(lp99
g2
aI0
aF1.2051213540786043
aI100
aI1076848
aI1432386600
aa(lp100
g2
aI1
aF1.1021322422690287
aI100
aI1076748
aI1432386746
aa(lp101
g2
aI0
aF1.0
aI100
aI1076648
aI1432387170
aa(lp102
g2
aI1
aF14.335385319210994
aI100
aI1076548
aI1432387339
aa(lp103
g2
aI1
aF1.0
aI100
aI1076583
aI1432387440
aa(lp104
g2
aI1
aF272.9719791807401
aI10764
aI1076483
aI1432387595
aa(lp105
g2
aI1
aF39.80064163903348
aI100
aI1079333
aI1432387753
aa(lp106
g2
aI1
aF11.54945079514004
aI100
aI1079233
aI1432387852
aa(lp107
g2
aI0
aF1.1059816164401872
aI100
aI1079133
aI1432388001
aa(lp108
g2
aI1
aF35912.74206299573
aI10790
aI1079033
aI1432388207
aa(lp109
g2
aI1
aF4393.960784884737
aI10802
aI1080268
aI1432388342
aa(lp110
g2
aI0
aF1.0
aI100
aI1081535
aI1432388494
aa(lp111
g2
aI1
aF1.0
aI100
aI1081559
aI1432388660
aa(lp112
g2
aI1
aF1.0
aI100
aI1081459
aI1432388835
aa(lp113
g2
aI1
aF24.745535568468902
aI100
aI1081476
aI1432388968
aa(lp114
g2
aI0
aF9.947687791215062
aI100
aI1081376
aI1432389238
aa(lp115
g2
aI1
aF2.1704337251768666
aI100
aI1081423
aI1432389410
aa(lp116
g2
aI1
aF18208.73056150859
aI10814
aI1081451
aI1432389533
aa(lp117
g2
aI0
aF102.4855665631559
aI100
aI1082278
aI1432389686
aa(lp118
g2
aI0
aF117.51668053880766
aI100
aI1082305
aI1432389846
aa(lp119
g2
aI1
aF3.194855779838062
aI100
aI1082335
aI1432389965
aa(lp120
g2
aI0
aF19.75897639567794
aI100
aI1082348
aI1432390084
aa(lp121
g2
aI0
aF3694.2134183850367
aI10822
aI1082248
aI1432390241
aa(lp122
g2
aI1
aF1.0
aI100
aI1086037
aI1432390409
aa(lp123
g2
aI1
aF12.0275413206121
aI100
aI1086119
aI1432390560
aa(lp124
g2
aI0
aF1.3240706044913721
aI100
aI1086144
aI1432390662
aa(lp125
g2
aI1
aF23766.0519698506
aI10861
aI1086155
aI1432390825
aa(lp126
g2
aI0
aF982.198176458869
aI10752
aI1075294
aI1432391009
aa(lp127
g2
aI1
aF372.9995363592782
aI10645
aI1064542
aI1432391215
aa(lp128
g2
aI1
aF1.0
aI100
aI1053897
aI1432391340
aa(lp129
g2
aI0
aF2.30906260624935
aI100
aI1053797
aI1432391554
aa(lp130
g2
aI1
aF3.1597920808646625
aI100
aI1053843
aI1432391789
aa(lp131
g2
aI0
aF1.0
aI100
aI1053743
aI1432392032
aa(lp132
g2
aI0
aF8.861456095129034
aI100
aI1053643
aI1432392194
aa(lp133
g2
aI1
aF8.120814022285263
aI100
aI1053543
aI1432392380
aa(lp134
g2
aI0
aF1.0
aI100
aI1053443
aI1432392688
aa(lp135
g2
aI0
aF1.0
aI100
aI1053343
aI1432393004
aa(lp136
g2
aI1
aF1.092736332908239
aI100
aI1053243
aI1432393201
aa(lp137
g2
aI1
aF8.352419606737419
aI100
aI1053143
aI1432393379
aa(lp138
g2
aI0
aF425.3729655153521
aI10530
aI1053043
aI1432393538
aa(lp139
g2
aI0
aF31792.935787547358
aI10582
aI1058260
aI1432393660
aa(lp140
g2
aI0
aF1.0
aI100
aI1047678
aI1432393799
aa(lp141
g2
aI0
aF458.32350473312533
aI10475
aI1047578
aI1432393938
aa(lp142
g2
aI0
aF296.3326379649013
aI10487
aI1048715
aI1432394097
aa(lp143
g2
aI1
aF17.412775532196928
aI100
aI1053254
aI1432394197
aa(lp144
g2
aI1
aF359.36864509715826
aI10531
aI1053154
aI1432394494
aa(lp145
g2
aI0
aF3.271450904867767
aI100
aI1053958
aI1432394663
aa(lp146
g2
aI1
aF1.0
aI100
aI1054001
aI1432394925
aa(lp147
g2
aI1
aF1.0
aI100
aI1054002
aI1432395119
aa(lp148
g2
aI1
aF1256.6930536582972
aI10540
aI1054024
aI1432395333
aa(lp149
g2
aI0
aF7.145877099476154
aI100
aI1056386
aI1432395452
aa(lp150
g2
aI1
aF1.0
aI100
aI1056394
aI1432395630
aa(lp151
g2
aI1
aF25.371967036288012
aI100
aI1056294
aI1432395787
aa(lp152
g2
aI1
aF1.0
aI100
aI1056194
aI1432395969
aa(lp153
g2
aI0
aF1.0
aI100
aI1056223
aI1432396105
aa(lp154
g2
aI1
aF2121.4154709357135
aI10562
aI1056249
aI1432396267
aa(lp155
g2
aI1
aF1639.2108093012082
aI10686
aI1068699
aI1432396400
aa(lp156
g2
aI1
aF1.2010692627448156
aI100
aI1072702
aI1432396535
aa(lp157
g2
aI0
aF54.561689183406656
aI100
aI1072732
aI1432396689
aa(lp158
g2
aI0
aF535.8528980952144
aI10727
aI1072760
aI1432396889
aa(lp159
g2
aI0
aF1.0
aI100
aI1062033
aI1432396999
aa(lp160
g2
aI1
aF1.0
aI100
aI1062054
aI1432397143
aa(lp161
g2
aI1
aF2.0727801068493767
aI100
aI1062098
aI1432397311
aa(lp162
g2
aI0
aF198.36106860012248
aI10625
aI1062520
aI1432397479
aa(lp163
g45
aI0
aF117983.81091291699
aI1500
aI1500
aI1432397773
aa(lp164
g45
aI1
aF4711.121314146349
aI1666
aI3333
aI1432397945
aa(lp165
g45
aI1
aF400.2904992530605
aI2409
aI4819
aI1432398087
aa(lp166
g45
aI1
aF1.408289879817853
aI4771
aI9543
aI1432398233
aa(lp167
g45
aI0
aF27.820674023258963
aI2386
aI4772
aI1432398491
aa(lp168
g45
aI1
aF5951.376498820295
aI3806
aI7613
aI1432398649
aa(lp169
g45
aI0
aF9.48895108496863
aI5914
aI11829
aI1432398839
aa(lp170
g45
aI1
aF1.0421875890831989
aI15573
aI31147
aI1432399026
aa(lp171
g45
aI1
aF76.86256882505063
aI7787
aI15574
aI1432399187
aa(lp172
g45
aI1
aF10.050260668915524
aI8377
aI16754
aI1432399330
aa(lp173
g45
aI1
aF122.94097576673657
aI9973
aI19947
aI1432399480
aa(lp174
g45
aI1
aF16.84991298932197
aI4987
aI9974
aI1432399654
aa(lp175
g45
aI0
aF60.35580165236817
aI2493
aI4987
aI1432399864
aa(lp176
g45
aI0
aF7.677595039626876
aI4591
aI9183
aI1432400068
aa(lp177
g45
aI0
aF15.738770508210678
aI7402
aI14805
aI1432400208
aa(lp178
g61
aI0
aF1.0
aI1
aI1091326
aI1432401027
aa(lp179
g61
aI1
aF3.267836155292773
aI1
aI1091325
aI1432401131
aa(lp180
g61
aI1
aF1.0
aI1
aI1091324
aI1432401249
aa(lp181
g61
aI1
aF1.0
aI1
aI1091323
aI1432401759
aa(lp182
g61
aI0
aF514.2432843683246
aI1
aI1091325
aI1432402220
aa(lp183
g61
aI1
aF5.5046739540934375
aI1
aI1091324
aI1432403046
aa(lp184
g61
aI0
aF1.0
aI1
aI1091325
aI1432403165
aa(lp185
g61
aI1
aF18363.697427012172
aI1
aI1091326
aI1432404081
aa(lp186
g2
aI0
aF297161972.25767446
aI10913
aI1091325
aI1432404280
aa(lp187
g2
aI0
aF1.0
aI100
aI1091603
aI1432404423
aa(lp188
g2
aI0
aF341.128168040501
aI10915
aI1091503
aI1432404870
aa(lp189
g2
aI0
aF1.0
aI100
aI1080588
aI1432405042
aa(lp190
g2
aI0
aF1.1426382431298903
aI100
aI1080605
aI1432405175
aa(lp191
g2
aI1
aF2325.3834042119965
aI10806
aI1080631
aI1432405387
aa(lp192
g2
aI1
aF221493.57961591837
aI10698
aI1069825
aI1432405508
aa(lp193
g2
aI1
aF1.0
aI100
aI1059127
aI1432405660
aa(lp194
g2
aI0
aF1.0
aI100
aI1059027
aI1432405825
aa(lp195
g2
aI1
aF113.15455431794103
aI100
aI1058927
aI1432405983
aa(lp196
g2
aI0
aF2.6016909521576155
aI100
aI1059051
aI1432406194
aa(lp197
g2
aI1
aF6.303317998552714
aI100
aI1059057
aI1432406325
aa(lp198
g2
aI1
aF38.82733723520922
aI100
aI1058957
aI1432406502
aa(lp199
g2
aI0
aF1.4863142330699286
aI100
aI1058973
aI1432406692
aa(lp200
g2
aI0
aF1.0
aI100
aI1059023
aI1432406822
aa(lp201
g2
aI0
aF4.560229585961488
aI100
aI1059042
aI1432407051
aa(lp202
g2
aI0
aF3.937137769806756
aI100
aI1059074
aI1432407196
aa(lp203
g2
aI1
aF30.390370183513063
aI100
aI1059109
aI1432407339
aa(lp204
g2
aI0
aF1.0
aI100
aI1059009
aI1432407475
aa(lp205
g2
aI0
aF37.43382077204473
aI100
aI1058909
aI1432407595
aa(lp206
g2
aI0
aF4.75633410277263
aI100
aI1058916
aI1432407738
aa(lp207
g2
aI0
aF865.1762248211166
aI10591
aI1059118
aI1432407958
aa(lp208
g2
aI0
aF1.0
aI100
aI1066198
aI1432408112
aa(lp209
g2
aI0
aF2.3851597488858816
aI100
aI1066098
aI1432408278
aa(lp210
g2
aI0
aF234.23425819460886
aI10661
aI1066112
aI1432408475
aa(lp211
g2
aI0
aF10.775399929838715
aI100
aI1055451
aI1432408698
aa(lp212
g2
aI1
aF4.249895277284551
aI100
aI1055556
aI1432408857
aa(lp213
g2
aI1
aF709.3539600253376
aI10554
aI1055456
aI1432409010
aa(lp214
g2
aI1
aF5.475210372224473
aI100
aI1055738
aI1432409270
aa(lp215
g2
aI1
aF1.2095365551714092
aI100
aI1055743
aI1432409405
aa(lp216
g2
aI0
aF1.0994951253583372
aI100
aI1055643
aI1432409639
aa(lp217
g2
aI0
aF1.256835903191316
aI100
aI1055543
aI1432409826
aa(lp218
g2
aI0
aF5707.844279231802
aI10554
aI1055443
aI1432410201
aa(lp219
g2
aI0
aF1.1406330249591727
aI100
aI1056696
aI1432410334
aa(lp220
g2
aI0
aF21217.485451032866
aI10565
aI1056596
aI1432410463
aa(lp221
g2
aI0
aF1.0
aI100
aI1046031
aI1432410724
aa(lp222
g2
aI1
aF1.0
aI100
aI1045931
aI1432411033
aa(lp223
g2
aI1
aF36253.86115838759
aI10461
aI1046127
aI1432411188
aa(lp224
g2
aI0
aF21.15429392945358
aI100
aI1035666
aI1432411403
aa(lp225
g2
aI1
aF25.119259545634517
aI100
aI1035686
aI1432411574
aa(lp226
g2
aI1
aF2769.4846049114926
aI10357
aI1035780
aI1432411735
aa(lp227
g2
aI1
aF5448.946284613104
aI10363
aI1036397
aI1432411888
aa(lp228
g2
aI0
aF5251.725259544999
aI10368
aI1036851
aI1432412004
aa(lp229
g2
aI1
aF4.250230236517004
aI100
aI1026483
aI1432412206
aa(lp230
g2
aI1
aF22.780996050142505
aI100
aI1026490
aI1432412383
aa(lp231
g2
aI1
aF1.0
aI100
aI1026390
aI1432412568
aa(lp232
g2
aI1
aF6.180291773775181
aI100
aI1026290
aI1432412705
aa(lp233
g2
aI0
aF1.0
aI100
aI1026190
aI1432412837
aa(lp234
g2
aI0
aF33.009363527884815
aI100
aI1026090
aI1432412988
aa(lp235
g2
aI1
aF3225733.4507243456
aI10261
aI1026145
aI1432413117
aa(lp236
g2
aI0
aF11.077931360854448
aI100
aI1015884
aI1432413185
aa(lp237
g2
aI1
aF77282.12613315036
aI10159
aI1015931
aI1432413315
aa(lp238
g2
aI1
aF1121.0726017017691
aI10213
aI1021300
aI1432413464
aa(lp239
g2
aI0
aF281.93021641525104
aI10110
aI1011087
aI1432413593
aa(lp240
g2
aI1
aF2142.0296773284076
aI10114
aI1011426
aI1432413710
aa(lp241
g2
aI0
aF1.0
aI100
aI1001312
aI1432413918
aa(lp242
g2
aI1
aF34741.13937946781
aI10013
aI1001320
aI1432414219
aa(lp243
g2
aI0
aF3337.099887848925
aI10267
aI1026749
aI1432414656
aa(lp244
g2
aI0
aF935.729790202071
aI10286
aI1028683
aI1432414834
aa(lp245
g2
aI0
aF15.038987016649955
aI100
aI1031326
aI1432415026
aa(lp246
g2
aI0
aF16.97346265771049
aI100
aI1031399
aI1432415187
aa(lp247
g2
aI1
aF43.8396664170461
aI100
aI1031418
aI1432415377
aa(lp248
g2
aI1
aF5546.859716596737
aI10314
aI1031456
aI1432415580
aa(lp249
g2
aI0
aF26.33832595140147
aI100
aI1031951
aI1432415816
aa(lp250
g2
aI1
aF164.72054031446226
aI10318
aI1031851
aI1432415964
aa(lp251
g2
aI1
aF1.0211754163685252
aI100
aI1021533
aI1432416120
aa(lp252
g2
aI0
aF56.23371281058333
aI100
aI1021681
aI1432416304
aa(lp253
g2
aI1
aF11.274178630542684
aI100
aI1021581
aI1432416465
aa(lp254
g2
aI1
aF1.9096810096369885
aI100
aI1021609
aI1432416608
aa(lp255
g2
aI0
aF97377.72859762762
aI10216
aI1021639
aI1432416775
aa(lp256
g2
aI1
aF10.219740950058688
aI100
aI1022141
aI1432416926
aa(lp257
g2
aI0
aF580.677783080697
aI10222
aI1022221
aI1432417279
aa(lp258
g2
aI0
aF5.602260174479414
aI100
aI1022283
aI1432417396
aa(lp259
g2
aI1
aF1.0
aI100
aI1022183
aI1432417785
aa(lp260
g2
aI0
aF1.0
aI100
aI1022083
aI1432417991
aa(lp261
g2
aI1
aF218.7877885362933
aI10219
aI1021983
aI1432418144
aa(lp262
g2
aI0
aF1.0
aI100
aI1011764
aI1432418307
aa(lp263
g2
aI0
aF87.60276486825683
aI100
aI1011664
aI1432418779
aa(lp264
g2
aI0
aF1.1608881777067204
aI100
aI1011737
aI1432418898
aa(lp265
g2
aI0
aF1561.5749658447362
aI10116
aI1011637
aI1432419008
aa(lp266
g2
aI0
aF1.2178025298612323
aI100
aI1001521
aI1432419336
aa(lp267
g2
aI1
aF1.0
aI100
aI1001421
aI1432419467
aa(lp268
g2
aI0
aF6929.390141069245
aI10014
aI1001437
aI1432419622
aa(lp269
g2
aI0
aF2678077.196312416
aI10024
aI1002464
aI1432419859
aa(lp270
g2
aI1
aF135.94951906241198
aI100
aI1005015
aI1432420058
aa(lp271
g2
aI1
aF1.1705743792896015
aI100
aI1005030
aI1432420440
aa(lp272
g2
aI1
aF11.603713316944686
aI100
aI1004930
aI1432420794
aa(lp273
g2
aI0
aF47.300209478489386
aI100
aI1004830
aI1432420932
aa(lp274
g45
aI1
aF2.5790921613200086
aI1500
aI1500
aI1432421167
aa(lp275
g45
aI1
aF2.5790921613200086
aI1500
aI1500
aI1432421167
aa(lp276
g45
aI0
aF1.0
aI1198
aI2396
aI1432421295
aa(lp277
g45
aI0
aF32.16850383955844
aI1500
aI1500
aI1432421560
aa(lp278
g45
aI0
aF1.0
aI1500
aI1500
aI1432421673
aa(lp279
g45
aI1
aF1.6445403634039713
aI1098
aI2196
aI1432421901
aa(lp280
g45
aI1
aF1.7940065255117237
aI1500
aI1500
aI1432422333
aa(lp281
g45
aI0
aF3.172038087641747
aI1815
aI1815
aI1432422455
aa(lp282
g45
aI0
aF1.0
aI1027
aI2055
aI1432422594
aa(lp283
g45
aI1
aF1.0
aI1500
aI1500
aI1432422775
aa(lp284
g45
aI1
aF2.2214027228471886
aI1500
aI1500
aI1432422910
aa(lp285
g45
aI0
aF26.0674484255178
aI1500
aI1500
aI1432423063
aa(lp286
g45
aI0
aF1.0
aI1500
aI1500
aI1432423295
aa(lp287
g45
aI0
aF119.921122891295
aI1500
aI1500
aI1432423424
aa(lp288
g45
aI1
aF13.932435395061521
aI2485
aI4971
aI1432423595
aa(lp289
g61
aI1
aF1.0
aI1
aI1007333
aI1432424726
aa(lp290
g61
aI1
aF4.515724780038548
aI1
aI1007335
aI1432424854
aa(lp291
g61
aI1
aF1.0
aI1
aI1007334
aI1432424982
aa(lp292
g61
aI1
aF15221.988538065436
aI1
aI1007333
aI1432425080
aa(lp293
g61
aI1
aF1.0
aI1
aI1007334
aI1432425328
aa(lp294
g61
aI1
aF7.536707842763438
aI1
aI1007333
aI1432425899
aa(lp295
g61
aI1
aF1137.9413842770723
aI1
aI1007334
aI1432426102
aa(lp296
g61
aI1
aF1.0
aI1
aI1007338
aI1432426286
aa(lp297
g61
aI1
aF1.0
aI1
aI1007339
aI1432426400
aa(lp298
g61
aI1
aF4.563756830047432
aI1
aI1007340
aI1432426506
aa(lp299
g61
aI1
aF391.02751066534194
aI1
aI1007341
aI1432426601
aa(lp300
g2
aI0
aF1.1126583225053819
aI100
aI1007340
aI1432427295
aa(lp301
g2
aI0
aF35968.13281475095
aI10072
aI1007240
aI1432427456
aa(lp302
g2
aI1
aF3.5105461126281305
aI100
aI1018114
aI1432427679
aa(lp303
g2
aI1
aF1.6095617793683905
aI100
aI1018189
aI1432427830
aa(lp304
g2
aI1
aF1.0
aI100
aI1018224
aI1432428041
aa(lp305
g2
aI0
aF382.1768006897856
aI10182
aI1018263
aI1432428389
aa(lp306
g2
aI1
aF1.9975699908489901
aI100
aI1041457
aI1432428504
aa(lp307
g2
aI1
aF7.859299329929835
aI100
aI1041467
aI1432428641
aa(lp308
g2
aI0
aF104.89897111712366
aI100
aI1041491
aI1432428812
aa(lp309
g2
aI1
aF2.189517693250365
aI100
aI1041391
aI1432429019
aa(lp310
g2
aI1
aF24.364855876118803
aI100
aI1041291
aI1432429143
aa(lp311
g2
aI1
aF10375.911059182909
aI10412
aI1041299
aI1432429314
aa(lp312
g2
aI0
aF1.0
aI100
aI1045624
aI1432429480
aa(lp313
g2
aI0
aF4.1864178103127125
aI100
aI1045524
aI1432429662
aa(lp314
g2
aI1
aF582.7488916106901
aI10456
aI1045602
aI1432429872
aa(lp315
g2
aI1
aF686751.2277821937
aI10488
aI1048812
aI1432430073
aa(lp316
g2
aI0
aF1.1237610996468934
aI100
aI1038324
aI1432430473
aa(lp317
g2
aI0
aF6.249808998043693
aI100
aI1038224
aI1432430613
aa(lp318
g2
aI1
aF1.0
aI100
aI1038271
aI1432430800
aa(lp319
g2
aI0
aF1.0
aI100
aI1038171
aI1432431096
aa(lp320
g2
aI1
aF804.4271506281542
aI10380
aI1038071
aI1432431256
aa(lp321
g2
aI0
aF1.0
aI100
aI1027691
aI1432431451
aa(lp322
g2
aI1
aF39196.20865481175
aI10275
aI1027591
aI1432431602
aa(lp323
g2
aI0
aF10.626578972897983
aI100
aI1017316
aI1432431814
aa(lp324
g2
aI0
aF1.0
aI100
aI1017320
aI1432431993
aa(lp325
g2
aI1
aF2.4755749066331845
aI100
aI1017331
aI1432432229
aa(lp326
g2
aI1
aF1.0
aI100
aI1017331
aI1432432395
aa(lp327
g2
aI1
aF1.0
aI100
aI1017372
aI1432432635
aa(lp328
g2
aI1
aF1.8432980041966833
aI100
aI1017272
aI1432432791
aa(lp329
g2
aI0
aF17.77113653317364
aI100
aI1017296
aI1432432974
aa(lp330
g2
aI0
aF7710608.65505382
aI10173
aI1017313
aI1432433614
aa(lp331
g2
aI0
aF820201.6593813214
aI10350
aI1035099
aI1432433777
aa(lp332
g2
aI1
aF1.0
aI100
aI1024749
aI1432434032
aa(lp333
g2
aI0
aF1.0
aI100
aI1024649
aI1432434348
aa(lp334
g2
aI0
aF73.27779168379722
aI100
aI1024549
aI1432434595
aa(lp335
g2
aI0
aF1.0
aI100
aI1024593
aI1432434777
aa(lp336
g2
aI1
aF2385.765648995468
aI10246
aI1024606
aI1432434983
aa(lp337
g2
aI1
aF5.45013215846463
aI100
aI1014360
aI1432435112
aa(lp338
g2
aI0
aF53608.299901643564
aI10144
aI1014412
aI1432435338
aa(lp339
g2
aI0
aF9.090014995152808
aI100
aI1004268
aI1432435503
aa(lp340
g2
aI1
aF1.0
aI100
aI1004275
aI1432435618
aa(lp341
g2
aI1
aF1.0
aI100
aI1004175
aI1432435725
aa(lp342
g2
aI1
aF1.0
aI100
aI1004271
aI1432436069
aa(lp343
g2
aI1
aF29.965935667064517
aI100
aI1004171
aI1432436319
aa(lp344
g2
aI1
aF1.0
aI100
aI1004180
aI1432436491
aa(lp345
g2
aI0
aF1.0
aI100
aI1004334
aI1432436619
aa(lp346
g2
aI1
aF48.09362715105222
aI100
aI1004234
aI1432436796
aa(lp347
g2
aI0
aF1.8906625247740776
aI100
aI1004134
aI1432437032
aa(lp348
g2
aI0
aF3588.602886323054
aI10041
aI1004146
aI1432437154
aa(lp349
g2
aI1
aF1.0
aI100
aI994105
aI1432437298
aa(lp350
g2
aI0
aF10.27046152788131
aI100
aI994129
aI1432437431
aa(lp351
g2
aI0
aF913.9267485788797
aI9942
aI994262
aI1432437557
aa(lp352
g2
aI1
aF40474.06120955758
aI9961
aI996197
aI1432437920
aa(lp353
g2
aI0
aF5.780255834052426
aI100
aI986236
aI1432438157
aa(lp354
g2
aI0
aF1304331.2497311947
aI9861
aI986136
aI1432438319
aa(lp355
g2
aI1
aF1.0
aI100
aI990133
aI1432438456
aa(lp356
g2
aI0
aF191151.74425821684
aI9900
aI990033
aI1432438832
aa(lp357
g2
aI0
aF181.259703307813
aI9801
aI980133
aI1432438982
aa(lp358
g2
aI0
aF2.5291479839894793
aI100
aI970332
aI1432439148
aa(lp359
g2
aI1
aF2229.5103659257343
aI9702
aI970232
aI1432439294
aa(lp360
g2
aI1
aF1.0
aI100
aI971364
aI1432439460
aa(lp361
g2
aI0
aF137.4424988028967
aI100
aI971371
aI1432439648
aa(lp362
g2
aI1
aF113.51970668618199
aI100
aI971398
aI1432439968
aa(lp363
g2
aI0
aF1.0
aI100
aI971400
aI1432440092
aa(lp364
g2
aI0
aF52023.12983358822
aI9713
aI971300
aI1432440211
aa(lp365
g2
aI0
aF1.680160574096004
aI100
aI961587
aI1432440374
aa(lp366
g2
aI0
aF4.165828353560514
aI100
aI961487
aI1432440508
aa(lp367
g2
aI1
aF1.0
aI100
aI961564
aI1432440641
aa(lp368
g2
aI1
aF10083.859304977923
aI9614
aI961464
aI1432440801
aa(lp369
g2
aI0
aF243958.7027836509
aI9518
aI951850
aI1432441279
aa(lp370
g2
aI1
aF1.0
aI100
aI965145
aI1432441487
aa(lp371
g2
aI0
aF1.0
aI100
aI965253
aI1432441652
aa(lp372
g2
aI0
aF17.55346831913143
aI100
aI965434
aI1432442048
aa(lp373
g2
aI1
aF1.0
aI100
aI965550
aI1432442225
aa(lp374
g2
aI0
aF5.922818924955148
aI100
aI965599
aI1432442398
aa(lp375
g2
aI0
aF1.5919287056823874
aI100
aI965499
aI1432442565
aa(lp376
g2
aI0
aF31.590651534426627
aI100
aI965399
aI1432442761
aa(lp377
g2
aI0
aF9.152093580286419
aI100
aI965299
aI1432442946
aa(lp378
g2
aI0
aF5.531232179273844
aI100
aI965199
aI1432443073
aa(lp379
g2
aI0
aF30.23179019210355
aI100
aI965280
aI1432443285
aa(lp380
g2
aI1
aF1.53166782033505
aI100
aI965383
aI1432443478
aa(lp381
g2
aI0
aF4.211415957916301
aI100
aI965607
aI1432443782
aa(lp382
g2
aI0
aF1.0
aI100
aI965507
aI1432443996
aa(lp383
g2
aI1
aF1.0
aI100
aI965539
aI1432444228
aa(lp384
g2
aI1
aF5319.985930434629
aI9654
aI965439
aI1432444367
aa(lp385
g2
aI0
aF1.150885143488231
aI100
aI994666
aI1432444650
aa(lp386
g2
aI1
aF204.66957701198868
aI9945
aI994566
aI1432444841
aa(lp387
g2
aI0
aF3.6899690117076225
aI100
aI1012069
aI1432444985
aa(lp388
g45
aI0
aF13.511158012716438
aI1500
aI1500
aI1432445259
aa(lp389
g45
aI1
aF5170326.75157776
aI1563
aI3126
aI1432445391
aa(lp390
g45
aI1
aF1.0
aI2184
aI4368
aI1432445546
aa(lp391
g45
aI0
aF1.0
aI4564
aI9128
aI1432445774
aa(lp392
g45
aI1
aF4.223934217432995
aI6054
aI12108
aI1432445979
aa(lp393
g45
aI0
aF58842.724019512054
aI7423
aI14847
aI1432446126
aa(lp394
g45
aI1
aF1.0
aI9957
aI19915
aI1432446274
aa(lp395
g45
aI1
aF40131386.17434555
aI13284
aI26569
aI1432446401
aa(lp396
g45
aI1
aF10647.113075708134
aI19939
aI39879
aI1432446583
aa(lp397
g45
aI0
aF4.942259866335526
aI30604
aI61208
aI1432446755
aa(lp398
g45
aI0
aF3.7266674512302735
aI15302
aI30604
aI1432446939
aa(lp399
g45
aI1
aF40601.523333377
aI7651
aI15302
aI1432447080
aa(lp400
g45
aI0
aF58784.34066122888
aI3825
aI7651
aI1432447319
aa(lp401
g45
aI0
aF1.6095841170872272
aI4698
aI9397
aI1432447524
aa(lp402
g45
aI0
aF251665.5785185272
aI6946
aI13892
aI1432447760
aa(lp403
g61
aI1
aF131.5894078018573
aI1
aI1031507
aI1432449625
aa(lp404
g61
aI0
aF1.0
aI1
aI1031506
aI1432449910
aa(lp405
g61
aI0
aF1.0
aI1
aI1031508
aI1432450147
aa(lp406
g61
aI1
aF76167.21883547655
aI1
aI1031509
aI1432450433
aa(lp407
g61
aI1
aF1.0233380050081062
aI1
aI1031510
aI1432450780
aa(lp408
g61
aI0
aF1.0
aI1
aI1031511
aI1432450906
aa(lp409
g61
aI0
aF1.0
aI1
aI1031512
aI1432451125
aa(lp410
g61
aI1
aF3.722783747219563
aI1
aI1031511
aI1432451406
aa(lp411
g2
aI0
aF1.0
aI100
aI1031512
aI1432451649
aa(lp412
g2
aI0
aF9.160035068371325
aI100
aI1031715
aI1432451873
aa(lp413
g2
aI1
aF18.67294892634552
aI100
aI1031615
aI1432451999
aa(lp414
g2
aI1
aF880.255865460123
aI10315
aI1031515
aI1432452236
aa(lp415
g2
aI1
aF1.0
aI100
aI1033660
aI1432452416
aa(lp416
g2
aI1
aF5.7391909143206306
aI100
aI1033724
aI1432452663
aa(lp417
g2
aI0
aF14.861659416474346
aI100
aI1033819
aI1432452826
aa(lp418
g2
aI0
aF1.0646033846006224
aI100
aI1033719
aI1432453021
aa(lp419
g2
aI0
aF1.8860541058427165
aI100
aI1033619
aI1432453137
aa(lp420
g2
aI1
aF3.1015844288446286
aI100
aI1033629
aI1432453288
aa(lp421
g2
aI0
aF9.527173328544235
aI100
aI1033529
aI1432453491
aa(lp422
g2
aI0
aF1.1260435884779973
aI100
aI1033429
aI1432453616
aa(lp423
g2
aI0
aF1.0
aI100
aI1034762
aI1432453755
aa(lp424
g2
aI0
aF4.3104871203712225
aI100
aI1034662
aI1432453893
aa(lp425
g2
aI1
aF9882.960303365711
aI10345
aI1034562
aI1432454063
aa(lp426
g2
aI0
aF1.2144595700530836
aI100
aI1044085
aI1432454207
aa(lp427
g2
aI0
aF31.39638278259699
aI100
aI1044126
aI1432454386
aa(lp428
g2
aI0
aF22.29913177936857
aI100
aI1044185
aI1432454534
aa(lp429
g2
aI0
aF314.44156739376956
aI10440
aI1044085
aI1432454945
aa(lp430
g2
aI0
aF1.0
aI100
aI1050978
aI1432455114
aa(lp431
g2
aI1
aF32512.257405446326
aI10510
aI1051006
aI1432455282
aa(lp432
g2
aI0
aF1.0
aI100
aI1057295
aI1432455477
aa(lp433
g2
aI1
aF2385.6696497473895
aI10571
aI1057195
aI1432455639
aa(lp434
g2
aI1
aF1.0
aI100
aI1046624
aI1432455869
aa(lp435
g2
aI1
aF1528.0578998812243
aI10466
aI1046661
aI1432456024
aa(lp436
g2
aI1
aF4.169099840048197
aI100
aI1047713
aI1432456201
aa(lp437
g2
aI0
aF1.4933674601165707
aI100
aI1047739
aI1432456368
aa(lp438
g2
aI1
aF1.0
aI100
aI1047747
aI1432456502
aa(lp439
g2
aI1
aF134.3344881912611
aI100
aI1047647
aI1432456815
aa(lp440
g2
aI1
aF1.0
aI100
aI1047655
aI1432456941
aa(lp441
g2
aI0
aF4688.6062220649765
aI10475
aI1047555
aI1432457152
aa(lp442
g2
aI0
aF1.0889732741734501
aI100
aI1055471
aI1432457405
aa(lp443
g2
aI0
aF2.297816702542434
aI100
aI1055371
aI1432457569
aa(lp444
g2
aI0
aF2.776790538190204
aI100
aI1055416
aI1432457716
aa(lp445
g2
aI1
aF5.787819217242658
aI100
aI1055491
aI1432457860
aa(lp446
g2
aI1
aF3.034703264165026
aI100
aI1055620
aI1432458023
aa(lp447
g2
aI0
aF1.0782184854599455
aI100
aI1055520
aI1432458477
aa(lp448
g2
aI1
aF6.358761920381181
aI100
aI1055420
aI1432458618
aa(lp449
g2
aI1
aF6774.830548043496
aI10554
aI1055440
aI1432458754
aa(lp450
g2
aI0
aF1.0
aI100
aI1056107
aI1432458883
aa(lp451
g2
aI1
aF1.0
aI100
aI1056007
aI1432459055
aa(lp452
g2
aI1
aF1.0
aI100
aI1055907
aI1432459302
aa(lp453
g2
aI1
aF5891403.418107955
aI10559
aI1055924
aI1432459573
aa(lp454
g2
aI0
aF645.5277923087058
aI10564
aI1056442
aI1432459677
aa(lp455
g2
aI1
aF85.37029385452203
aI100
aI1045878
aI1432459848
aa(lp456
g2
aI1
aF21.371977771208556
aI100
aI1046605
aI1432459978
aa(lp457
g2
aI1
aF37.2973398930986
aI100
aI1046505
aI1432460185
aa(lp458
g2
aI1
aF10.018158904213246
aI100
aI1046405
aI1432460367
aa(lp459
g2
aI1
aF2.9520527452994374
aI100
aI1046305
aI1432460591
aa(lp460
g2
aI1
aF15.17045321365327
aI100
aI1046205
aI1432460778
aa(lp461
g2
aI0
aF256.8580026648612
aI10462
aI1046231
aI1432460928
aa(lp462
g2
aI0
aF55.18952165926277
aI100
aI1047156
aI1432461038
aa(lp463
g2
aI1
aF29.44538286579048
aI100
aI1047180
aI1432461165
aa(lp464
g2
aI0
aF1439.413561170617
aI10472
aI1047210
aI1432461342
aa(lp465
g2
aI1
aF1.6670440114013245
aI100
aI1036738
aI1432461534
aa(lp466
g2
aI0
aF21.33308695904225
aI100
aI1036638
aI1432461735
aa(lp467
g2
aI0
aF432238.55970133154
aI10365
aI1036538
aI1432461955
aa(lp468
g2
aI1
aF1.0
aI100
aI1026173
aI1432462134
aa(lp469
g2
aI1
aF1.0
aI100
aI1026541
aI1432462352
aa(lp470
g2
aI0
aF1.0
aI100
aI1026543
aI1432462484
aa(lp471
g2
aI1
aF1.2889058180452917
aI100
aI1026559
aI1432462713
aa(lp472
g2
aI0
aF5.277255423708757
aI100
aI1026459
aI1432462930
aa(lp473
g2
aI0
aF5.277255423708757
aI100
aI1026459
aI1432462931
aa(lp474
g2
aI1
aF3.3035671555700032
aI100
aI1026467
aI1432463054
aa(lp475
g2
aI1
aF987.8346838629169
aI10267
aI1026736
aI1432463303
aa(lp476
g2
aI0
aF1436.3828301915728
aI10164
aI1016469
aI1432463403
aa(lp477
g2
aI1
aF8450.35450081926
aI10063
aI1006305
aI1432463636
aa(lp478
g2
aI0
aF163.58778620798682
aI10109
aI1010980
aI1432464002
aa(lp479
g2
aI0
aF6.3197966017635
aI100
aI1000871
aI1432464204
aa(lp480
g2
aI0
aF127.24701795717282
aI100
aI1000771
aI1432464432
aa(lp481
g2
aI1
aF31.301075310235877
aI100
aI1000803
aI1432464627
aa(lp482
g2
aI0
aF1.0
aI100
aI1000855
aI1432464855
aa(lp483
g2
aI0
aF22.624191525926538
aI100
aI1000755
aI1432464966
aa(lp484
g2
aI1
aF1.0
aI100
aI1000912
aI1432465117
aa(lp485
g2
aI1
aF1.0
aI100
aI1000932
aI1432465287
aa(lp486
g2
aI0
aF1.0
aI100
aI1000832
aI1432465343
aa(lp487
g2
aI1
aF7.691147734793618
aI100
aI1000732
aI1432465525
aa(lp488
g2
aI0
aF234230.58966372066
aI10008
aI1000815
aI1432465697
aa(lp489
g2
aI1
aF1712332.881978639
aI10040
aI1004062
aI1432465838
aa(lp490
g2
aI0
aF1.0
aI100
aI1007583
aI1432466122
aa(lp491
g2
aI1
aF11.630079820877345
aI100
aI1007483
aI1432466340
aa(lp492
g2
aI0
aF1.1552891743779024
aI100
aI1007548
aI1432466493
aa(lp493
g2
aI0
aF1.0
aI100
aI1007448
aI1432466651
aa(lp494
g2
aI0
aF36.941796063380174
aI100
aI1007552
aI1432466805
aa(lp495
g2
aI1
aF1.0
aI100
aI1007610
aI1432466930
aa(lp496
g2
aI1
aF41.01640786120964
aI100
aI1007653
aI1432467044
aa(lp497
g2
aI1
aF3.1209220374685533
aI100
aI1007687
aI1432467174
aa(lp498
g2
aI0
aF2879.298683854159
aI10075
aI1007587
aI1432467374
aa(lp499
g2
aI1
aF9.97786848700203
aI100
aI1017611
aI1432467546
aa(lp500
g2
aI1
aF1.0
aI100
aI1017511
aI1432467643
aa(lp501
g2
aI1
aF4545.635682739984
aI10174
aI1017411
aI1432467867
aa(lp502
g2
aI0
aF1.0
aI100
aI1007237
aI1432468045
aa(lp503
g2
aI1
aF1.0
aI100
aI1007137
aI1432468196
aa(lp504
g2
aI1
aF1.0
aI100
aI1007162
aI1432468341
aa(lp505
g2
aI1
aF902204.63851618
aI10076
aI1007619
aI1432468595
aa(lp506
g2
aI0
aF5520.36091366342
aI9975
aI997543
aI1432468785
aa(lp507
g45
aI1
aF10.436741036844243
aI1500
aI1500
aI1432469159
aa(lp508
g45
aI0
aF30.480317030108857
aI1500
aI1500
aI1432469356
aa(lp509
g45
aI1
aF7.924048590143778
aI1021
aI2043
aI1432469462
aa(lp510
g45
aI0
aF976.8470464441803
aI1251
aI2502
aI1432469635
aa(lp511
g45
aI0
aF1.3865592439237289
aI1507
aI3014
aI1432469780
aa(lp512
g45
aI1
aF1.2020094543235489
aI1507
aI1507
aI1432469967
aa(lp513
g45
aI1
aF12976.351129259296
aI1500
aI1500
aI1432470147
aa(lp514
g45
aI1
aF129.89598680621617
aI1206
aI2413
aI1432470291
aa(lp515
g45
aI1
aF6.108745579785699
aI2878
aI5757
aI1432470526
aa(lp516
g45
aI0
aF2.399687000985243
aI1439
aI2879
aI1432470747
aa(lp517
g45
aI1
aF1.270650832354589
aI1500
aI1500
aI1432470927
aa(lp518
g45
aI0
aF17352.883348833624
aI1500
aI1500
aI1432471057
aa(lp519
g45
aI0
aF1.2164078597481558
aI1738
aI1738
aI1432471215
aa(lp520
g45
aI1
aF260.8777495160806
aI1974
aI1974
aI1432471381
aa(lp521
g45
aI0
aF1.4880682728267254
aI1500
aI1500
aI1432471541
aa(lp522
g61
aI1
aF1.6632475254512364
aI1
aI989546
aI1432471897
aa(lp523
g61
aI0
aF18.807239194637894
aI1
aI989545
aI1432472017
aa(lp524
g61
aI1
aF4.638186457520151
aI1
aI989544
aI1432472530
aa(lp525
g61
aI1
aF35.72507701493108
aI1
aI989543
aI1432472652
aa(lp526
g61
aI1
aF50.638935466223934
aI1
aI989544
aI1432472957
aa(lp527
g61
aI1
aF3225733.4507243456
aI1
aI989543
aI1432473147
aa(lp528
g61
aI0
aF89.15404480179241
aI1
aI989542
aI1432473215
aa(lp529
g61
aI0
aF480548.06038670155
aI1
aI989541
aI1432473315
aa(lp530
g61
aI1
aF2.771779966201974
aI1
aI989542
aI1432473404
aa(lp531
g61
aI1
aF120.53816968674302
aI1
aI989543
aI1432473680
aa(lp532
g61
aI1
aF1.370249809683533
aI1
aI989544
aI1432473802
aa(lp533
g61
aI0
aF1792.6920002300521
aI1
aI989543
aI1432474452
aa(lp534
g61
aI1
aF1137.9413842770723
aI1
aI989544
aI1432474551
aa(lp535
g61
aI0
aF1.0
aI1
aI989549
aI1432474732
aa(lp536
g61
aI0
aF1.0
aI1
aI989548
aI1432475064
aa(lp537
g2
aI0
aF1.5962614863802642
aI100
aI989547
aI1432475214
aa(lp538
g2
aI0
aF11.56304383593235
aI100
aI989646
aI1432475531
aa(lp539
g2
aI0
aF1954.3398534239607
aI9896
aI989667
aI1432475795
aa(lp540
g2
aI1
aF1.0
aI100
aI979771
aI1432475966
aa(lp541
g2
aI1
aF1.6955987194590991
aI100
aI979788
aI1432476104
aa(lp542
g2
aI0
aF38.16243778892011
aI100
aI979871
aI1432476288
aa(lp543
g2
aI1
aF1.0
aI100
aI979903
aI1432476635
aa(lp544
g2
aI1
aF1633.206731430395
aI9798
aI979803
aI1432476841
aa(lp545
g2
aI0
aF34367.72547610577
aI9809
aI980988
aI1432477024
aa(lp546
g2
aI0
aF1.4696107853593903
aI100
aI981264
aI1432477430
aa(lp547
g2
aI1
aF1.0
aI100
aI981164
aI1432477569
aa(lp548
g2
aI1
aF1.0
aI100
aI981064
aI1432477762
aa(lp549
g2
aI1
aF3780.842220994015
aI9809
aI980964
aI1432477941
aa(lp550
g2
aI0
aF8.34542453816835
aI100
aI984285
aI1432478115
aa(lp551
g2
aI0
aF1.0
aI100
aI984310
aI1432478279
aa(lp552
g2
aI0
aF1.0
aI100
aI984317
aI1432478403
aa(lp553
g2
aI1
aF24596.27304818996
aI9843
aI984377
aI1432478610
aa(lp554
g2
aI1
aF1.0
aI100
aI974534
aI1432478877
aa(lp555
g2
aI1
aF1.0
aI100
aI974659
aI1432479011
aa(lp556
g2
aI1
aF1.0
aI100
aI974671
aI1432479170
aa(lp557
g2
aI0
aF1.0
aI100
aI974571
aI1432479301
aa(lp558
g2
aI0
aF1.1204625578195748
aI100
aI974576
aI1432479410
aa(lp559
g2
aI1
aF1.0
aI100
aI974476
aI1432479553
aa(lp560
g2
aI1
aF21.360098108021056
aI100
aI974572
aI1432479755
aa(lp561
g2
aI0
aF7850.164805555779
aI9744
aI974472
aI1432480043
aa(lp562
g2
aI1
aF164.24069240849445
aI9647
aI964728
aI1432480219
aa(lp563
g2
aI0
aF499.01325548322615
aI9688
aI968887
aI1432480461
aa(lp564
g2
aI1
aF1.769330916367378
aI100
aI971414
aI1432480775
aa(lp565
g2
aI0
aF1.0
aI100
aI971463
aI1432480883
aa(lp566
g2
aI1
aF1.0
aI100
aI971363
aI1432481038
aa(lp567
g2
aI0
aF1.0242076583586457
aI100
aI971402
aI1432481199
aa(lp568
g2
aI0
aF1.0
aI100
aI971402
aI1432481275
aa(lp569
g2
aI1
aF1.0
aI100
aI971431
aI1432481490
aa(lp570
g2
aI0
aF1.0
aI100
aI971331
aI1432481648
aa(lp571
g2
aI1
aF1.1884016338692813
aI100
aI971231
aI1432481832
aa(lp572
g2
aI0
aF1.0
aI100
aI971131
aI1432482009
aa(lp573
g2
aI1
aF69.78325671125425
aI100
aI971166
aI1432482154
aa(lp574
g2
aI1
aF120.37260250312434
aI100
aI971192
aI1432482327
aa(lp575
g2
aI1
aF1.0311197628303872
aI100
aI971092
aI1432482471
aa(lp576
g2
aI1
aF1.0
aI100
aI971502
aI1432482731
aa(lp577
g2
aI0
aF36346.34795049873
aI9714
aI971402
aI1432482854
aa(lp578
g2
aI1
aF1.0
aI100
aI985049
aI1432483070
aa(lp579
g2
aI0
aF1828.2944054036193
aI9849
aI984949
aI1432483200
aa(lp580
g2
aI1
aF1974.614418409968
aI9751
aI975100
aI1432483334
aa(lp581
g2
aI0
aF1.9361024995980363
aI100
aI985975
aI1432483496
aa(lp582
g2
aI0
aF2.6395706321630787
aI100
aI986170
aI1432483690
aa(lp583
g2
aI0
aF1.0
aI100
aI986506
aI1432484106
aa(lp584
g2
aI1
aF950861194.5567153
aI9865
aI986533
aI1432484369
aa(lp585
g2
aI0
aF755.3286005424444
aI9874
aI987417
aI1432484569
aa(lp586
g2
aI1
aF1.0
aI100
aI977543
aI1432484694
aa(lp587
g2
aI0
aF1.0
aI100
aI977443
aI1432484840
aa(lp588
g2
aI0
aF4.279832011352706
aI100
aI977343
aI1432484981
aa(lp589
g2
aI1
aF1.2244904481681016
aI100
aI977368
aI1432485201
aa(lp590
g2
aI1
aF75.0045463378024
aI100
aI977268
aI1432485496
aa(lp591
g2
aI1
aF1.0
aI100
aI977168
aI1432485717
aa(lp592
g2
aI0
aF3.03359799712395
aI100
aI977227
aI1432485863
aa(lp593
g2
aI1
aF1.1988005189706947
aI100
aI977459
aI1432486058
aa(lp594
g2
aI1
aF7.3689601922916905
aI100
aI977359
aI1432486235
aa(lp595
g2
aI0
aF23.37864785491435
aI100
aI977374
aI1432486402
aa(lp596
g2
aI1
aF10.16076644819146
aI100
aI977427
aI1432486629
aa(lp597
g2
aI1
aF212085.48238541937
aI9774
aI977456
aI1432486889
aa(lp598
g2
aI0
aF129.7857792474229
aI100
aI981885
aI1432487054
aa(lp599
g2
aI1
aF1.0
aI100
aI981785
aI1432487252
aa(lp600
g2
aI0
aF1568959.7686855686
aI9818
aI981819
aI1432487486
aa(lp601
g2
aI1
aF1.0
aI100
aI983278
aI1432487621
aa(lp602
g2
aI1
aF3.053331421812739
aI100
aI983289
aI1432487771
aa(lp603
g2
aI1
aF42.34915722449601
aI100
aI983189
aI1432487924
aa(lp604
g2
aI1
aF1.0529850956891706
aI100
aI983089
aI1432488084
aa(lp605
g2
aI1
aF2.1491199645377432
aI100
aI982989
aI1432488234
aa(lp606
g2
aI1
aF1.827202569044039
aI100
aI983015
aI1432488358
aa(lp607
g2
aI0
aF1.0
aI100
aI983022
aI1432488643
aa(lp608
g2
aI1
aF1.0
aI100
aI982922
aI1432488805
aa(lp609
g2
aI1
aF1.3427701642699137
aI100
aI982822
aI1432488960
aa(lp610
g2
aI1
aF1.7230901774114238
aI100
aI982835
aI1432489084
aa(lp611
g2
aI0
aF144783.19792769453
aI9827
aI982735
aI1432489312
aa(lp612
g2
aI0
aF1.0616500100184132
aI100
aI991521
aI1432489545
aa(lp613
g2
aI0
aF99799522.73951437
aI9916
aI991602
aI1432489871
aa(lp614
g2
aI0
aF1.427901521359526
aI100
aI993717
aI1432490024
aa(lp615
g2
aI0
aF1.0149532897041718
aI100
aI993738
aI1432490190
aa(lp616
g2
aI1
aF1.641004400085204
aI100
aI993638
aI1432490347
aa(lp617
g2
aI0
aF2449.994745131468
aI9935
aI993538
aI1432490491
aa(lp618
g2
aI1
aF6715.226231115956
aI10157
aI1015764
aI1432490627
aa(lp619
g2
aI0
aF31.233983147375305
aI100
aI1005607
aI1432490721
aa(lp620
g2
aI0
aF1.0
aI100
aI1005507
aI1432490857
aa(lp621
g2
aI0
aF245.44053690819413
aI10055
aI1005531
aI1432491045
aa(lp622
g2
aI0
aF1.0
aI100
aI1005934
aI1432491157
aa(lp623
g2
aI0
aF1.0
aI100
aI1005834
aI1432491352
aa(lp624
g2
aI0
aF1.0798147564801113
aI100
aI1005734
aI1432491491
aa(lp625
g2
aI1
aF1.0
aI100
aI1005786
aI1432491603
aa(lp626
g2
aI0
aF33.38700129246307
aI100
aI1005686
aI1432491923
aa(lp627
g45
aI1
aF84.18596254616966
aI1500
aI1500
aI1432492161
aa(lp628
g45
aI0
aF2.4033068873122323
aI1254
aI2509
aI1432492291
aa(lp629
g45
aI1
aF1.258150691045889
aI2069
aI4138
aI1432492547
aa(lp630
g45
aI1
aF1.0
aI2993
aI5987
aI1432492745
aa(lp631
g45
aI1
aF1.0
aI4158
aI8316
aI1432492927
aa(lp632
g45
aI0
aF1.0
aI5738
aI11476
aI1432493110
aa(lp633
g45
aI1
aF4509.909082888777
aI2869
aI5738
aI1432493391
aa(lp634
g45
aI0
aF1.0
aI1434
aI2869
aI1432493569
aa(lp635
g45
aI0
aF3.706123225626058
aI1718
aI3436
aI1432493748
aa(lp636
g45
aI1
aF1.0
aI1828
aI3656
aI1432493881
aa(lp637
g45
aI0
aF1.0
aI2651
aI5303
aI1432494087
aa(lp638
g45
aI1
aF3270.356774500115
aI3016
aI6033
aI1432494354
aa(lp639
g45
aI0
aF1.0
aI3477
aI6954
aI1432494595
aa(lp640
g45
aI1
aF1.0
aI3846
aI7693
aI1432494720
aa(lp641
g45
aI1
aF2.8749383152946604
aI6503
aI13007
aI1432494935
aa(lp642
g61
aI1
aF1.0
aI1
aI1031120
aI1432495629
aa(lp643
g61
aI0
aF1440.7620755715716
aI1
aI1031121
aI1432495735
aa(lp644
g61
aI1
aF1.0
aI1
aI1031122
aI1432495922
aa(lp645
g61
aI1
aF4.171436194779468
aI1
aI1031123
aI1432496129
aa(lp646
g61
aI0
aF47.06784722735363
aI1
aI1031124
aI1432496564
aa(lp647
g61
aI0
aF1499.6157320215423
aI1
aI1031123
aI1432497173
aa(lp648
g61
aI1
aF2.499011479889325
aI1
aI1031122
aI1432497402
aa(lp649
g61
aI1
aF285.11861790962
aI1
aI1031123
aI1432497751
aa(lp650
g61
aI0
aF1202964.912701756
aI1
aI1031122
aI1432497927
aa(lp651
g2
aI1
aF1.0
aI100
aI1031123
aI1432498707
aa(lp652
g2
aI0
aF1.0
aI100
aI1031172
aI1432498921
aa(lp653
g2
aI0
aF1.0
aI100
aI1031072
aI1432499236
aa(lp654
g2
aI1
aF1.0
aI100
aI1030972
aI1432499310
aa(lp655
g2
aI0
aF1.0
aI100
aI1030872
aI1432499502
aa(lp656
g2
aI0
aF3339.8210447683077
aI10308
aI1030881
aI1432499621
aa(lp657
g2
aI0
aF11.152195891036579
aI100
aI1038452
aI1432499758
aa(lp658
g2
aI0
aF1473222.9930275688
aI10384
aI1038462
aI1432499962
aa(lp659
g2
aI0
aF1.0
aI100
aI1040419
aI1432500464
aa(lp660
g2
aI1
aF51505.65683820903
aI10404
aI1040432
aI1432500589
aa(lp661
g2
aI1
aF1.0
aI100
aI1030028
aI1432500861
aa(lp662
g2
aI1
aF1.631644988848232
aI100
aI1030196
aI1432501024
aa(lp663
g2
aI1
aF62.085651686640546
aI100
aI1030233
aI1432501151
aa(lp664
g2
aI0
aF775.7024050946153
aI10301
aI1030133
aI1432501466
aa(lp665
g2
aI1
aF1046551.7455697146
aI10305
aI1030586
aI1432501641
aa(lp666
g2
aI0
aF22.056830613758077
aI100
aI1020281
aI1432501846
aa(lp667
g2
aI1
aF3230439.8975877715
aI10202
aI1020286
aI1432501995
aa(lp668
g2
aI1
aF1.0
aI100
aI1021057
aI1432502185
aa(lp669
g2
aI0
aF75.87738722451367
aI100
aI1021083
aI1432502322
aa(lp670
g2
aI1
aF1.2302438876884003
aI100
aI1021160
aI1432502542
aa(lp671
g2
aI1
aF1.0
aI100
aI1021060
aI1432502700
aa(lp672
g2
aI0
aF1.0
aI100
aI1021065
aI1432502842
aa(lp673
g2
aI0
aF16.660411825864106
aI100
aI1021072
aI1432503140
aa(lp674
g2
aI0
aF215.3771995852375
aI10212
aI1021212
aI1432503315
aa(lp675
g2
aI1
aF1.0
aI100
aI1030238
aI1432503448
aa(lp676
g2
aI0
aF1.0
aI100
aI1030287
aI1432503574
aa(lp677
g2
aI0
aF13.191449182230826
aI100
aI1030350
aI1432503729
aa(lp678
g2
aI1
aF1.0
aI100
aI1030250
aI1432503884
aa(lp679
g2
aI1
aF13.477010971088337
aI100
aI1030284
aI1432504131
aa(lp680
g2
aI0
aF5.695478494611628
aI100
aI1030184
aI1432504322
aa(lp681
g2
aI1
aF1.0
aI100
aI1030084
aI1432504506
aa(lp682
g2
aI1
aF136230.61489777954
aI10299
aI1029984
aI1432504636
aa(lp683
g2
aI1
aF1.0
aI100
aI1030324
aI1432504782
aa(lp684
g2
aI0
aF26.355760336585877
aI100
aI1030224
aI1432505085
aa(lp685
g2
aI1
aF2.3374112747051674
aI100
aI1030124
aI1432505296
aa(lp686
g2
aI0
aF74.8129954844704
aI100
aI1030138
aI1432505495
aa(lp687
g2
aI0
aF3439.4319824503527
aI10300
aI1030038
aI1432505655
aa(lp688
g2
aI0
aF1.0
aI100
aI1019738
aI1432505930
aa(lp689
g2
aI1
aF80.77687348278596
aI100
aI1019638
aI1432506130
aa(lp690
g2
aI0
aF4.803844201275307
aI100
aI1019538
aI1432506353
aa(lp691
g2
aI1
aF28.480862915386826
aI100
aI1019438
aI1432506645
aa(lp692
g2
aI1
aF1.3462752493465313
aI100
aI1019487
aI1432506794
aa(lp693
g2
aI0
aF314489692.69146556
aI10194
aI1019489
aI1432506903
aa(lp694
g2
aI0
aF13.007293192021985
aI100
aI1009295
aI1432507108
aa(lp695
g2
aI0
aF4.167635548239148
aI100
aI1009195
aI1432507291
aa(lp696
g2
aI0
aF5.05083962289979
aI100
aI1009095
aI1432507425
aa(lp697
g2
aI0
aF1.0
aI100
aI1009275
aI1432507604
aa(lp698
g2
aI0
aF2.7366734850757797
aI100
aI1009308
aI1432507786
aa(lp699
g2
aI0
aF1.0
aI100
aI1009325
aI1432507988
aa(lp700
g2
aI0
aF1.0
aI100
aI1009225
aI1432508172
aa(lp701
g2
aI1
aF1.0
aI100
aI1009249
aI1432508288
aa(lp702
g2
aI1
aF1.0
aI100
aI1009255
aI1432508407
aa(lp703
g2
aI1
aF1.0967991994677821
aI100
aI1009266
aI1432508923
aa(lp704
g2
aI0
aF910.3200552692421
aI10092
aI1009291
aI1432509212
aa(lp705
g2
aI0
aF6.736935769281615
aI100
aI1017963
aI1432509371
aa(lp706
g2
aI0
aF1.0
aI100
aI1018023
aI1432509545
aa(lp707
g2
aI1
aF1.0
aI100
aI1018044
aI1432509745
aa(lp708
g2
aI1
aF1.0
aI100
aI1018055
aI1432509895
aa(lp709
g2
aI0
aF113994.71473838319
aI10179
aI1017955
aI1432510020
aa(lp710
g2
aI1
aF2.730423973985001
aI100
aI1007776
aI1432510201
aa(lp711
g2
aI0
aF1.0
aI100
aI1007676
aI1432510434
aa(lp712
g2
aI0
aF1.0
aI100
aI1007791
aI1432510630
aa(lp713
g2
aI1
aF7.689712353255649
aI100
aI1007820
aI1432510821
aa(lp714
g2
aI0
aF1.0
aI100
aI1007720
aI1432510986
aa(lp715
g2
aI1
aF83172.40710915855
aI10080
aI1008062
aI1432511083
aa(lp716
g2
aI1
aF1.0
aI100
aI997982
aI1432511327
aa(lp717
g2
aI1
aF14.997541571441335
aI100
aI997882
aI1432511555
aa(lp718
g2
aI1
aF9.210606909974894
aI100
aI998095
aI1432511694
aa(lp719
g2
aI0
aF1.699184322918541
aI100
aI998115
aI1432511793
aa(lp720
g2
aI0
aF14671.621815442111
aI9980
aI998015
aI1432511976
aa(lp721
g2
aI1
aF2660.892126532701
aI10040
aI1004086
aI1432512131
aa(lp722
g2
aI1
aF1.5100929884773677
aI100
aI1009902
aI1432512249
aa(lp723
g2
aI0
aF37172311.094809376
aI10101
aI1010176
aI1432512369
aa(lp724
g2
aI0
aF1.6846016465526956
aI100
aI1010782
aI1432512520
aa(lp725
g2
aI1
aF14.443822445793469
aI100
aI1010682
aI1432512666
aa(lp726
g2
aI1
aF3.546037566231554
aI100
aI1010582
aI1432512826
aa(lp727
g2
aI1
aF1.025988465237062
aI100
aI1010642
aI1432513038
aa(lp728
g2
aI0
aF1.0
aI100
aI1010542
aI1432513177
aa(lp729
g2
aI0
aF2791.610974450823
aI10104
aI1010442
aI1432513340
aa(lp730
g2
aI1
aF1.0
aI100
aI1015102
aI1432513482
aa(lp731
g2
aI0
aF79859.85006494465
aI10150
aI1015002
aI1432513641
aa(lp732
g2
aI1
aF718605.6451031326
aI10159
aI1015940
aI1432513785
aa(lp733
g2
aI1
aF1.0
aI100
aI1005781
aI1432513969
aa(lp734
g2
aI0
aF19551.466406776413
aI10056
aI1005681
aI1432514107
aa(lp735
g2
aI1
aF9.543304885999975
aI100
aI1023232
aI1432514276
aa(lp736
g2
aI0
aF1169.2115872514098
aI10234
aI1023419
aI1432514417
aa(lp737
g2
aI0
aF7307.0423188817895
aI10131
aI1013185
aI1432514584
aa(lp738
g2
aI1
aF734.8775014294337
aI10348
aI1034800
aI1432514781
aa(lp739
g2
aI0
aF127.00542700945397
aI100
aI1024452
aI1432515067
aa(lp740
g2
aI1
aF1.0
aI100
aI1024645
aI1432515362
aa(lp741
g2
aI0
aF2.4920917623744536
aI100
aI1024664
aI1432515501
aa(lp742
g2
aI1
aF1.0
aI100
aI1024564
aI1432515616
aa(lp743
g45
aI1
aF1.8403219956669292
aI1500
aI1500
aI1432515854
aa(lp744
g45
aI1
aF1.0
aI1500
aI1500
aI1432515981
aa(lp745
g45
aI1
aF1.089503331783505
aI1500
aI1500
aI1432516219
aa(lp746
g45
aI0
aF32035.466099229005
aI1755
aI3510
aI1432516443
aa(lp747
g45
aI0
aF77688.09314943562
aI2042
aI4085
aI1432516629
aa(lp748
g45
aI0
aF42.696063864020516
aI2386
aI4772
aI1432516789
aa(lp749
g45
aI1
aF54228.61453003231
aI4388
aI8777
aI1432516902
aa(lp750
g45
aI0
aF1.0
aI2194
aI4389
aI1432517084
aa(lp751
g45
aI0
aF1.0
aI2194
aI4389
aI1432517341
aa(lp752
g45
aI0
aF10.571766489031539
aI1097
aI2195
aI1432517514
aa(lp753
g45
aI1
aF4.981597555674772
aI1500
aI1500
aI1432517715
aa(lp754
g45
aI0
aF340.930961791899
aI1915
aI1915
aI1432517878
aa(lp755
g45
aI1
aF1.0
aI1616
aI3233
aI1432518097
aa(lp756
g45
aI1
aF566286.1216260794
aI1699
aI3399
aI1432518257
aa(lp757
g45
aI1
aF1.0
aI2445
aI4890
aI1432518453
aa(lp758
g45
aI0
aF1.0
aI4067
aI8134
aI1432518611
aa(lp759
g61
aI0
aF1.0
aI1
aI1051705
aI1432519182
aa(lp760
g61
aI0
aF24.834962020860214
aI1
aI1051706
aI1432519327
aa(lp761
g61
aI1
aF1.0
aI1
aI1051708
aI1432519417
aa(lp762
g61
aI1
aF174.62837648442814
aI1
aI1051711
aI1432519628
aa(lp763
g61
aI1
aF19.538502100125918
aI1
aI1051710
aI1432519772
aa(lp764
g61
aI0
aF1.0425544074905564
aI1
aI1051709
aI1432520496
aa(lp765
g61
aI0
aF757.5978620890688
aI1
aI1051708
aI1432520598
aa(lp766
g61
aI1
aF342.1014053621808
aI1
aI1051707
aI1432520746
aa(lp767
g61
aI0
aF5.280262618433274
aI1
aI1051708
aI1432520834
aa(lp768
g61
aI1
aF32.490247770547526
aI1
aI1051707
aI1432521207
aa(lp769
g61
aI0
aF3.790006423676484
aI1
aI1051708
aI1432521347
aa(lp770
g61
aI1
aF1.0021825626088874
aI1
aI1051709
aI1432522138
aa(lp771
g61
aI0
aF1.088487443141336
aI1
aI1051708
aI1432522292
aa(lp772
g2
aI1
aF1.0
aI100
aI1051707
aI1432522501
aa(lp773
g2
aI0
aF1.2365185142978523
aI100
aI1051607
aI1432522728
aa(lp774
g2
aI0
aF1.0
aI100
aI1051618
aI1432522960
aa(lp775
g2
aI0
aF62628.06104224242
aI10516
aI1051656
aI1432523138
aa(lp776
g2
aI1
aF1.0642060991967321
aI100
aI1051932
aI1432523310
aa(lp777
g2
aI0
aF6.736418344603617
aI100
aI1051832
aI1432523485
aa(lp778
g2
aI0
aF1.0
aI100
aI1051833
aI1432523628
aa(lp779
g2
aI1
aF8.338363981710629
aI100
aI1051879
aI1432523755
aa(lp780
g2
aI0
aF1.952127370537343
aI100
aI1051779
aI1432523969
aa(lp781
g2
aI1
aF1.9591031519942534
aI100
aI1051848
aI1432524133
aa(lp782
g2
aI1
aF10.371724378812825
aI100
aI1051856
aI1432524276
aa(lp783
g2
aI0
aF14.533178440908891
aI100
aI1051756
aI1432524421
aa(lp784
g2
aI0
aF23.492020912869798
aI100
aI1051803
aI1432524556
aa(lp785
g2
aI0
aF1.80372954192424
aI100
aI1051834
aI1432524710
aa(lp786
g2
aI0
aF1.0
aI100
aI1051872
aI1432524888
aa(lp787
g2
aI1
aF10.079233733910081
aI100
aI1052062
aI1432525014
aa(lp788
g2
aI1
aF202.94685195415482
aI10519
aI1051962
aI1432525111
aa(lp789
g2
aI0
aF16115.843426159474
aI10529
aI1052983
aI1432525270
aa(lp790
g2
aI1
aF4078.047293864187
aI10424
aI1042454
aI1432525523
aa(lp791
g2
aI0
aF958.5600390276978
aI10320
aI1032030
aI1432525613
aa(lp792
g2
aI1
aF143.17378313529647
aI100
aI1021710
aI1432525740
aa(lp793
g2
aI0
aF1.0538532432618006
aI100
aI1021867
aI1432525899
aa(lp794
g2
aI1
aF1.5971516807914456
aI100
aI1021998
aI1432526355
aa(lp795
g2
aI1
aF1187.5012178412096
aI10218
aI1021898
aI1432526625
aa(lp796
g2
aI0
aF47.79074542941298
aI100
aI1011680
aI1432526784
aa(lp797
g2
aI0
aF735.6915541046262
aI10117
aI1011772
aI1432526917
aa(lp798
g2
aI1
aF1.5672912932016365
aI100
aI1001655
aI1432527175
aa(lp799
g2
aI0
aF1.0824234925147844
aI100
aI1001743
aI1432527354
aa(lp800
g2
aI1
aF59.236323812086724
aI100
aI1001643
aI1432527688
aa(lp801
g2
aI1
aF1.0082185292777432
aI100
aI1001543
aI1432527864
aa(lp802
g2
aI0
aF39.75510159681816
aI100
aI1001443
aI1432528052
aa(lp803
g2
aI1
aF1.0513343010356981
aI100
aI1001536
aI1432528222
aa(lp804
g2
aI1
aF46047.925379865366
aI10014
aI1001436
aI1432528405
aa(lp805
g2
aI0
aF4.346249878528258
aI100
aI1004387
aI1432528580
aa(lp806
g2
aI0
aF4.88977889639154
aI100
aI1004287
aI1432528770
aa(lp807
g2
aI1
aF1.6455578729405433
aI100
aI1004314
aI1432528908
aa(lp808
g2
aI1
aF52.83497281754297
aI100
aI1004315
aI1432529039
aa(lp809
g2
aI0
aF77774.11822951073
aI10043
aI1004356
aI1432529241
aa(lp810
g2
aI1
aF42.64388646546238
aI100
aI1005769
aI1432529399
aa(lp811
g2
aI1
aF160736298.88099658
aI10059
aI1005982
aI1432529603
aa(lp812
g2
aI1
aF1.1194013207204223
aI100
aI1006369
aI1432529750
aa(lp813
g2
aI1
aF1.0
aI100
aI1006269
aI1432530008
aa(lp814
g2
aI0
aF1.0
aI100
aI1006169
aI1432530165
aa(lp815
g2
aI1
aF451.5116382741453
aI10062
aI1006279
aI1432530309
aa(lp816
g2
aI0
aF1.0
aI100
aI1011922
aI1432530523
aa(lp817
g2
aI1
aF1.0
aI100
aI1012087
aI1432530826
aa(lp818
g2
aI1
aF1.0
aI100
aI1012122
aI1432530966
aa(lp819
g2
aI1
aF16539.17293100793
aI10121
aI1012156
aI1432531148
aa(lp820
g2
aI1
aF1.128127842541197
aI100
aI1002035
aI1432531333
aa(lp821
g2
aI1
aF1.6797612239224828
aI100
aI1001935
aI1432531454
aa(lp822
g2
aI0
aF219.90966420746506
aI10019
aI1001952
aI1432531698
aa(lp823
g2
aI0
aF1.431684674622305
aI100
aI1003871
aI1432531908
aa(lp824
g2
aI0
aF99932.25841452832
aI10039
aI1003903
aI1432532050
aa(lp825
g2
aI1
aF1.4873478919130614
aI100
aI993864
aI1432532196
aa(lp826
g2
aI0
aF1.6397633705218264
aI100
aI994094
aI1432532369
aa(lp827
g2
aI0
aF315.85777421866544
aI9939
aI993994
aI1432532606
aa(lp828
g2
aI1
aF1.0
aI100
aI994455
aI1432532700
aa(lp829
g2
aI1
aF1.0
aI100
aI994464
aI1432532841
aa(lp830
g2
aI0
aF1.0
aI100
aI994504
aI1432532996
aa(lp831
g2
aI0
aF103.13608896970649
aI100
aI994513
aI1432533290
aa(lp832
g2
aI0
aF88.4613980452913
aI100
aI994536
aI1432533439
aa(lp833
g2
aI1
aF1.0
aI100
aI994436
aI1432533596
aa(lp834
g2
aI1
aF1.5481909071730546
aI100
aI994443
aI1432533736
aa(lp835
g2
aI0
aF1.0
aI100
aI994490
aI1432533928
aa(lp836
g2
aI1
aF133711.32030434924
aI9948
aI994883
aI1432534140
aa(lp837
g2
aI0
aF38652.700212752556
aI9948
aI994883
aI1432534659
aa(lp838
g2
aI0
aF17300.778252740725
aI9957
aI995778
aI1432535008
aa(lp839
g2
aI0
aF2.612997131440326
aI100
aI985821
aI1432535153
aa(lp840
g2
aI1
aF5765.151465269707
aI9859
aI985936
aI1432535303
aa(lp841
g2
aI0
aF1.0
aI100
aI989943
aI1432535447
aa(lp842
g2
aI1
aF138.84169607440435
aI100
aI989843
aI1432535759
aa(lp843
g2
aI0
aF958.5545022324636
aI9897
aI989743
aI1432535991
aa(lp844
g2
aI1
aF1.0
aI100
aI979846
aI1432536153
aa(lp845
g2
aI1
aF1.0
aI100
aI979746
aI1432536235
aa(lp846
g2
aI1
aF1.0
aI100
aI979646
aI1432536384
aa(lp847
g2
aI0
aF1501.0498002730044
aI9796
aI979653
aI1432536830
aa(lp848
g2
aI1
aF1.0
aI100
aI982994
aI1432537036
aa(lp849
g2
aI1
aF3.1601751500298882
aI100
aI982894
aI1432537301
aa(lp850
g2
aI1
aF37.25411087702278
aI100
aI983007
aI1432537532
aa(lp851
g2
aI0
aF1.0
aI100
aI983008
aI1432537655
aa(lp852
g2
aI1
aF64877.072951856084
aI9830
aI983014
aI1432537786
aa(lp853
g2
aI0
aF2.0090361249001596
aI100
aI988823
aI1432537914
aa(lp854
g2
aI0
aF7.862340062043248
aI100
aI989108
aI1432538145
aa(lp855
g2
aI1
aF1.0
aI100
aI989170
aI1432538534
aa(lp856
g2
aI1
aF528406.0533368564
aI9892
aI989224
aI1432538907
aa(lp857
g2
aI1
aF3765.441003973055
aI9909
aI990986
aI1432539066
aa(lp858
g2
aI0
aF71227.13838056762
aI9933
aI993378
aI1432539313
aa(lp859
g2
aI0
aF1020.9204096862998
aI9834
aI983445
aI1432539476
aa(lp860
g2
aI0
aF3.756445022353444
aI100
aI991387
aI1432539842
aa(lp861
g2
aI1
aF1.0
aI100
aI991396
aI1432540013
aa(lp862
g2
aI0
aF6.887891337618249
aI100
aI991296
aI1432540143
aa(lp863
g45
aI0
aF15596.579387544285
aI1500
aI1500
aI1432540601
aa(lp864
g45
aI0
aF1.0
aI1968
aI1968
aI1432540725
aa(lp865
g45
aI0
aF196.5645978826751
aI1500
aI1500
aI1432540892
aa(lp866
g45
aI1
aF3.5729089466049966
aI1052
aI2104
aI1432541077
aa(lp867
g45
aI1
aF1.3174571585998656
aI1252
aI2504
aI1432541181
aa(lp868
g45
aI1
aF1.0
aI1919
aI3839
aI1432541354
aa(lp869
g45
aI0
aF11549.213670343668
aI2264
aI4529
aI1432541510
aa(lp870
g45
aI0
aF1.002335627691698
aI4595
aI9191
aI1432541666
aa(lp871
g45
aI0
aF594.2498977912052
aI5147
aI10294
aI1432541828
aa(lp872
g45
aI0
aF1.0616636055601263
aI2573
aI5147
aI1432542078
aa(lp873
g45
aI1
aF4.5551408022814535
aI3979
aI7959
aI1432542250
aa(lp874
g45
aI0
aF28.505352060992124
aI5922
aI11845
aI1432542413
aa(lp875
g45
aI0
aF1.2446418600563218
aI2961
aI5923
aI1432542545
aa(lp876
g45
aI0
aF1.3447554581193262
aI3497
aI6994
aI1432542727
aa(lp877
g45
aI0
aF1.186780197903675
aI4185
aI8370
aI1432542858
aa(lp878
g61
aI0
aF1.0
aI1
aI1004731
aI1432543751
aa(lp879
g61
aI1
aF250.620114442307
aI1
aI1004733
aI1432544077
aa(lp880
g61
aI0
aF1792.6920002300521
aI1
aI1004734
aI1432544584
aa(lp881
g61
aI1
aF1.0
aI1
aI1004735
aI1432544708
aa(lp882
g61
aI1
aF1.0
aI1
aI1004734
aI1432545033
aa(lp883
g61
aI1
aF6.55148328348128
aI1
aI1004733
aI1432545183
aa(lp884
g61
aI0
aF47.06784722735363
aI1
aI1004732
aI1432545309
aa(lp885
g61
aI0
aF2.176381233426262
aI1
aI1004732
aI1432545503
aa(lp886
g61
aI1
aF1.0
aI1
aI1004734
aI1432545986
aa(lp887
g2
aI1
aF1.0606347525843398
aI100
aI1004733
aI1432547268
aa(lp888
g2
aI0
aF1.0
aI100
aI1004781
aI1432547428
aa(lp889
g2
aI0
aF213.0306995024177
aI10047
aI1004783
aI1432547534
aa(lp890
g2
aI0
aF10.052948833426514
aI100
aI1007634
aI1432547683
aa(lp891
g2
aI0
aF1.0
aI100
aI1007534
aI1432547836
aa(lp892
g2
aI1
aF590.0232548196977
aI10075
aI1007586
aI1432548140
aa(lp893
g2
aI0
aF1.0
aI100
aI997511
aI1432548304
aa(lp894
g2
aI1
aF1.0
aI100
aI997522
aI1432548456
aa(lp895
g2
aI0
aF1.0
aI100
aI997649
aI1432548620
aa(lp896
g2
aI0
aF1.0
aI100
aI997549
aI1432548869
aa(lp897
g2
aI1
aF1.0
aI100
aI997449
aI1432549020
aa(lp898
g2
aI0
aF1.0
aI100
aI997937
aI1432549157
aa(lp899
g2
aI1
aF2.459795787653935
aI100
aI997989
aI1432549302
aa(lp900
g2
aI1
aF1.0
aI100
aI997889
aI1432549445
aa(lp901
g2
aI0
aF1.1545557292166961
aI100
aI997789
aI1432549660
aa(lp902
g2
aI1
aF12950.833346862952
aI9978
aI997832
aI1432549839
aa(lp903
g2
aI0
aF3989.1654013851767
aI9878
aI987854
aI1432550026
aa(lp904
g2
aI1
aF1.0
aI100
aI977976
aI1432550215
aa(lp905
g2
aI0
aF1.0
aI100
aI977876
aI1432550410
aa(lp906
g2
aI0
aF1.3078812157470547
aI100
aI977933
aI1432550569
aa(lp907
g2
aI1
aF31.257453750199097
aI100
aI977833
aI1432550770
aa(lp908
g2
aI1
aF28.44347794201453
aI100
aI977839
aI1432550928
aa(lp909
g2
aI0
aF15736010.722942973
aI9777
aI977739
aI1432551070
aa(lp910
g2
aI1
aF1325.6444724704888
aI9804
aI980428
aI1432551193
aa(lp911
g2
aI1
aF200.26793813916112
aI9840
aI984062
aI1432551412
aa(lp912
g2
aI0
aF822.1016117783965
aI9742
aI974222
aI1432551556
aa(lp913
g2
aI0
aF3675.2127669908477
aI9644
aI964480
aI1432551710
aa(lp914
g2
aI1
aF163.99260408414355
aI9657
aI965775
aI1432551836
aa(lp915
g2
aI1
aF1.0518522067301272
aI100
aI956118
aI1432552049
aa(lp916
g2
aI1
aF5.791887356183163
aI100
aI956018
aI1432552283
aa(lp917
g2
aI1
aF2.5473896705760746
aI100
aI955918
aI1432552489
aa(lp918
g2
aI1
aF5.102238347195931
aI100
aI955949
aI1432552691
aa(lp919
g2
aI1
aF557.6071580357763
aI9560
aI956051
aI1432552865
aa(lp920
g2
aI1
aF121.22395792970543
aI100
aI956051
aI1432553049
aa(lp921
g2
aI0
aF608.3829122754121
aI9559
aI955951
aI1432553268
aa(lp922
g2
aI1
aF1.0
aI100
aI959451
aI1432553378
aa(lp923
g2
aI1
aF1.1273744239875767
aI100
aI959579
aI1432553550
aa(lp924
g2
aI0
aF1.4540894923646717
aI100
aI959479
aI1432553747
aa(lp925
g2
aI0
aF225.13033349006906
aI9593
aI959379
aI1432553990
aa(lp926
g2
aI1
aF14.990083272682577
aI100
aI949786
aI1432554199
aa(lp927
g2
aI0
aF1.0
aI100
aI949686
aI1432554704
aa(lp928
g2
aI1
aF1.0
aI100
aI949586
aI1432554815
aa(lp929
g2
aI0
aF7249590.510624594
aI9496
aI949615
aI1432554933
aa(lp930
g2
aI1
aF1.0
aI100
aI950182
aI1432555058
aa(lp931
g2
aI0
aF544522.8929438948
aI9500
aI950082
aI1432555196
aa(lp932
g2
aI0
aF1.0
aI100
aI950599
aI1432555308
aa(lp933
g2
aI0
aF489.3383675049932
aI9508
aI950878
aI1432555468
aa(lp934
g2
aI1
aF260744.89569877263
aI9413
aI941370
aI1432555675
aa(lp935
g2
aI0
aF1.0
aI100
aI949821
aI1432555864
aa(lp936
g2
aI0
aF1.0
aI100
aI949934
aI1432556036
aa(lp937
g2
aI1
aF6.473102001257923
aI100
aI949834
aI1432556179
aa(lp938
g2
aI0
aF1.6363765123129035
aI100
aI949734
aI1432556311
aa(lp939
g2
aI1
aF1.0
aI100
aI949753
aI1432556445
aa(lp940
g2
aI0
aF1.9019845005469473
aI100
aI949789
aI1432556632
aa(lp941
g2
aI1
aF45.64726148363309
aI100
aI949989
aI1432556959
aa(lp942
g2
aI0
aF523.8716293475544
aI9498
aI949889
aI1432557127
aa(lp943
g2
aI0
aF4.926793582001579
aI100
aI957283
aI1432557261
aa(lp944
g2
aI1
aF5.016579760179517
aI100
aI957183
aI1432557380
aa(lp945
g2
aI1
aF1194.028371863588
aI9570
aI957083
aI1432557603
aa(lp946
g2
aI1
aF446.5151071793005
aI9703
aI970381
aI1432557762
aa(lp947
g2
aI0
aF172105324.7198662
aI9833
aI983361
aI1432558045
aa(lp948
g2
aI0
aF3.0967813729639486
aI100
aI984836
aI1432558202
aa(lp949
g2
aI1
aF10.500451644997105
aI100
aI984736
aI1432558398
aa(lp950
g2
aI0
aF15.017844731975812
aI100
aI984770
aI1432558526
aa(lp951
g2
aI0
aF2.415845573137891
aI100
aI984916
aI1432558753
aa(lp952
g2
aI1
aF31.55729946381015
aI100
aI984816
aI1432558911
aa(lp953
g2
aI1
aF22.18061766141195
aI100
aI984834
aI1432559080
aa(lp954
g2
aI1
aF12.531329658158484
aI100
aI984734
aI1432559306
aa(lp955
g2
aI0
aF21637.528058571148
aI9846
aI984634
aI1432559506
aa(lp956
g2
aI1
aF2.723835399245116
aI100
aI974788
aI1432559789
aa(lp957
g2
aI0
aF10.393701829297349
aI100
aI974917
aI1432560000
aa(lp958
g2
aI1
aF9.922156559309125
aI100
aI974965
aI1432560211
aa(lp959
g2
aI0
aF1722.4722618903506
aI9748
aI974865
aI1432560393
aa(lp960
g2
aI1
aF1537.0682697624407
aI9651
aI965117
aI1432560544
aa(lp961
g2
aI0
aF54.65074718048959
aI100
aI967161
aI1432560656
aa(lp962
g2
aI1
aF1.2940313438714215
aI100
aI967061
aI1432560771
aa(lp963
g2
aI0
aF18.79563906693611
aI100
aI966961
aI1432560955
aa(lp964
g2
aI1
aF1.0
aI100
aI966979
aI1432561065
aa(lp965
g2
aI0
aF34.74768895643862
aI100
aI966879
aI1432561225
aa(lp966
g2
aI1
aF25.293194486515898
aI100
aI966918
aI1432561393
aa(lp967
g2
aI0
aF1.0
aI100
aI966818
aI1432561587
aa(lp968
g2
aI0
aF2.2383844747136608
aI100
aI966928
aI1432561772
aa(lp969
g2
aI1
aF1.0
aI100
aI967082
aI1432561999
aa(lp970
g2
aI1
aF1.0
aI100
aI967082
aI1432562000
aa(lp971
g2
aI0
aF1.0
aI100
aI966982
aI1432562159
aa(lp972
g2
aI1
aF1.0
aI100
aI966882
aI1432562267
aa(lp973
g2
aI0
aF1.0
aI100
aI966919
aI1432562422
aa(lp974
g2
aI0
aF2.798909908159205
aI100
aI967001
aI1432562626
aa(lp975
g2
aI1
aF1.0
aI100
aI966901
aI1432562784
aa(lp976
g2
aI1
aF88709.08105446408
aI9669
aI966920
aI1432562978
aa(lp977
g2
aI0
aF1.3991194772056847
aI100
aI968659
aI1432563101
aa(lp978
g2
aI0
aF1.3991194772056847
aI100
aI968659
aI1432563102
aa(lp979
g2
aI1
aF29.06818409840438
aI100
aI968714
aI1432563228
aa(lp980
g2
aI1
aF221.86160740629558
aI9687
aI968792
aI1432563504
aa(lp981
g2
aI0
aF47455.48116332671
aI9591
aI959105
aI1432563713
aa(lp982
g2
aI0
aF125125.96762296668
aI9495
aI949514
aI1432563896
aa(lp983
g2
aI0
aF1.6591870083190412
aI100
aI952934
aI1432564065
aa(lp984
g2
aI1
aF1.0
aI100
aI952834
aI1432564355
aa(lp985
g45
aI0
aF1.0
aI1500
aI1500
aI1432564800
aa(lp986
g45
aI0
aF1.0
aI1971
aI1971
aI1432564963
aa(lp987
g45
aI1
aF1.0
aI1500
aI1500
aI1432565220
aa(lp988
g45
aI0
aF1.0
aI1275
aI2550
aI1432565425
aa(lp989
g45
aI1
aF1.0
aI1500
aI1500
aI1432565573
aa(lp990
g45
aI0
aF2.791254862280057
aI1880
aI1880
aI1432565729
aa(lp991
g45
aI1
aF1212.21154998318
aI1500
aI1500
aI1432565859
aa(lp992
g45
aI0
aF1.0
aI1500
aI1500
aI1432566093
aa(lp993
g45
aI1
aF1.0
aI1140
aI2280
aI1432566280
aa(lp994
g45
aI1
aF1.0
aI1500
aI1500
aI1432566482
aa(lp995
g45
aI1
aF3.129878373442288
aI1500
aI1500
aI1432566624
aa(lp996
g45
aI0
aF1.0
aI1500
aI1500
aI1432566763
aa(lp997
g45
aI1
aF6.282270540805584
aI2644
aI5289
aI1432566964
aa(lp998
g45
aI0
aF1.0
aI4348
aI8697
aI1432567089
aa(lp999
g61
aI0
aF3.188900651130085
aI1
aI957219
aI1432567348
aa(lp1000
g61
aI1
aF1.0
aI1
aI957220
aI1432567602
aa(lp1001
g61
aI0
aF4.0774784668840685
aI1
aI957221
aI1432567719
aa(lp1002
g61
aI0
aF16557.158118512245
aI1
aI957222
aI1432567959
aa(lp1003
g61
aI0
aF3.3341909792320754
aI1
aI957221
aI1432568473
aa(lp1004
g61
aI0
aF1.0
aI1
aI957220
aI1432568891
aa(lp1005
g61
aI1
aF55.675936843327555
aI1
aI957221
aI1432569416
aa(lp1006
g61
aI0
aF2.159517119426237
aI1
aI957222
aI1432569792
aa(lp1007
g61
aI1
aF17.222225585380222
aI1
aI957221
aI1432569908
aa(lp1008
g61
aI1
aF2.264095470182226
aI1
aI957220
aI1432570361
aa(lp1009
g61
aI1
aF3.986220697877495
aI1
aI957221
aI1432570494
aa(lp1010
g2
aI0
aF1.0
aI100
aI957222
aI1432571149
aa(lp1011
g2
aI0
aF1.0
aI100
aI957233
aI1432571300
aa(lp1012
g2
aI1
aF1.0
aI100
aI957133
aI1432571455
aa(lp1013
g2
aI0
aF4523.157734955973
aI9570
aI957033
aI1432571643
aa(lp1014
g2
aI1
aF88.96647508317389
aI100
aI958705
aI1432571886
aa(lp1015
g2
aI0
aF1.122889300473417
aI100
aI958754
aI1432572073
aa(lp1016
g2
aI0
aF47.53956708224321
aI100
aI958654
aI1432572233
aa(lp1017
g2
aI0
aF1.0
aI100
aI958554
aI1432572340
aa(lp1018
g2
aI0
aF3548906.7690199753
aI9585
aI958572
aI1432572503
aa(lp1019
g2
aI0
aF141.04757144905787
aI100
aI948987
aI1432572634
aa(lp1020
g2
aI0
aF1.0
aI100
aI949006
aI1432572817
aa(lp1021
g2
aI1
aF1.0362618141520066
aI100
aI948906
aI1432573019
aa(lp1022
g2
aI1
aF793.9413160677133
aI9489
aI948939
aI1432573177
aa(lp1023
g2
aI0
aF1.0071502075767436
aI100
aI948939
aI1432573391
aa(lp1024
g2
aI1
aF2.3681677108803427
aI100
aI948839
aI1432573547
aa(lp1025
g2
aI0
aF2257.7908049855887
aI9488
aI948895
aI1432573723
aa(lp1026
g2
aI0
aF20.532723142213055
aI100
aI958761
aI1432573905
aa(lp1027
g2
aI1
aF1.0
aI100
aI958770
aI1432574033
aa(lp1028
g2
aI1
aF1.0
aI100
aI958797
aI1432574155
aa(lp1029
g2
aI1
aF80.02120515271442
aI100
aI958803
aI1432574350
aa(lp1030
g2
aI0
aF3.558430612079711
aI100
aI958703
aI1432574491
aa(lp1031
g2
aI0
aF1.0
aI100
aI959122
aI1432574747
aa(lp1032
g2
aI1
aF111.23417709335737
aI100
aI959321
aI1432574969
aa(lp1033
g2
aI1
aF1.0
aI100
aI959358
aI1432575289
aa(lp1034
g2
aI1
aF1.0
aI100
aI959400
aI1432575501
aa(lp1035
g2
aI0
aF159.36217077560855
aI9593
aI959300
aI1432575638
aa(lp1036
g2
aI1
aF140.81946512173778
aI100
aI949707
aI1432575952
aa(lp1037
g2
aI0
aF32.24367263864775
aI100
aI949714
aI1432576095
aa(lp1038
g2
aI1
aF1.0
aI100
aI949777
aI1432576303
aa(lp1039
g2
aI1
aF1.0
aI100
aI949790
aI1432576480
aa(lp1040
g2
aI1
aF1.819066708623485
aI100
aI949866
aI1432576800
aa(lp1041
g2
aI0
aF1.295347397115554
aI100
aI949766
aI1432576933
aa(lp1042
g2
aI1
aF12.929843474078947
aI100
aI949666
aI1432577100
aa(lp1043
g2
aI1
aF1.0
aI100
aI949566
aI1432577251
aa(lp1044
g2
aI0
aF37.36788270157582
aI100
aI949466
aI1432577453
aa(lp1045
g2
aI0
aF1.0
aI100
aI949548
aI1432577690
aa(lp1046
g2
aI1
aF5054677.507538584
aI9494
aI949448
aI1432577880
aa(lp1047
g2
aI0
aF1.0
aI100
aI939954
aI1432578053
aa(lp1048
g2
aI0
aF1.0
aI100
aI939854
aI1432578225
aa(lp1049
g2
aI1
aF79.0748213083454
aI100
aI939754
aI1432578375
aa(lp1050
g2
aI1
aF1.0
aI100
aI939761
aI1432578594
aa(lp1051
g2
aI1
aF1.0
aI100
aI939794
aI1432578759
aa(lp1052
g2
aI0
aF18.70710759290225
aI100
aI939825
aI1432578925
aa(lp1053
g2
aI0
aF4.1970825652010735
aI100
aI939858
aI1432579201
aa(lp1054
g2
aI1
aF57.83674312695179
aI100
aI940105
aI1432579374
aa(lp1055
g2
aI0
aF1.0
aI100
aI940129
aI1432579590
aa(lp1056
g2
aI1
aF5.854595016450377
aI100
aI940148
aI1432579717
aa(lp1057
g2
aI0
aF2.8878002982106827
aI100
aI940048
aI1432579885
aa(lp1058
g2
aI0
aF2113.7077887935297
aI9399
aI939948
aI1432580072
aa(lp1059
g2
aI0
aF1.0
aI100
aI940929
aI1432580234
aa(lp1060
g2
aI0
aF11.155042318054917
aI100
aI940829
aI1432580404
aa(lp1061
g2
aI1
aF1.6829096263590548
aI100
aI940729
aI1432580550
aa(lp1062
g2
aI0
aF1.0
aI100
aI940629
aI1432580654
aa(lp1063
g2
aI0
aF6.50370682690824
aI100
aI940957
aI1432580868
aa(lp1064
g2
aI1
aF1.0
aI100
aI940857
aI1432581061
aa(lp1065
g2
aI1
aF15863051469.558939
aI9408
aI940868
aI1432581200
aa(lp1066
g2
aI1
aF4.065403074108208
aI100
aI931460
aI1432581424
aa(lp1067
g2
aI0
aF522.3193136298568
aI9314
aI931467
aI1432581714
aa(lp1068
g2
aI1
aF90.62927353407103
aI100
aI922153
aI1432581845
aa(lp1069
g2
aI1
aF7.8049719997304585
aI100
aI922197
aI1432582046
aa(lp1070
g2
aI0
aF1.0
aI100
aI922231
aI1432582215
aa(lp1071
g2
aI0
aF433.8350284245892
aI9221
aI922131
aI1432582348
aa(lp1072
g2
aI1
aF519.4425997515268
aI9129
aI912910
aI1432582475
aa(lp1073
g2
aI0
aF189.13894455572435
aI9143
aI914342
aI1432582592
aa(lp1074
g2
aI0
aF975309.4520146218
aI9195
aI919509
aI1432582773
aa(lp1075
g2
aI0
aF5.339797648003511
aI100
aI922221
aI1432582913
aa(lp1076
g2
aI1
aF1.0
aI100
aI923842
aI1432583647
aa(lp1077
g2
aI0
aF2968.1924929393977
aI9237
aI923742
aI1432583837
aa(lp1078
g2
aI1
aF1.0
aI100
aI927529
aI1432584000
aa(lp1079
g2
aI0
aF1.0180600837917853
aI100
aI927547
aI1432584155
aa(lp1080
g2
aI0
aF441.8714830469827
aI9274
aI927447
aI1432584366
aa(lp1081
g2
aI0
aF1.0
aI100
aI927717
aI1432584520
aa(lp1082
g2
aI0
aF1.0
aI100
aI927617
aI1432584742
aa(lp1083
g2
aI1
aF4.1645849134392705
aI100
aI927517
aI1432584862
aa(lp1084
g2
aI1
aF263505.13539465325
aI9274
aI927417
aI1432585095
aa(lp1085
g2
aI1
aF1.4950718575457194
aI100
aI932692
aI1432585223
aa(lp1086
g2
aI1
aF1.0758565468372858
aI100
aI932592
aI1432585373
aa(lp1087
g2
aI1
aF71.33388565049151
aI100
aI932492
aI1432585505
aa(lp1088
g2
aI0
aF1.087605450691226
aI100
aI932508
aI1432585671
aa(lp1089
g2
aI0
aF11.157368022414191
aI100
aI932408
aI1432585777
aa(lp1090
g2
aI0
aF59.76326634658829
aI100
aI932436
aI1432585973
aa(lp1091
g2
aI0
aF69.80909421513617
aI100
aI932336
aI1432586164
aa(lp1092
g2
aI1
aF1.2745872550262236
aI100
aI932336
aI1432586744
aa(lp1093
g2
aI0
aF2698.145965849154
aI9322
aI932236
aI1432586903
aa(lp1094
g2
aI1
aF1.0
aI100
aI953943
aI1432587082
aa(lp1095
g2
aI1
aF1.222068671210898
aI100
aI953843
aI1432587253
aa(lp1096
g2
aI0
aF25263.2562331605
aI9540
aI954011
aI1432587473
aa(lp1097
g2
aI0
aF429314.29305257223
aI9444
aI944471
aI1432587592
aa(lp1098
g2
aI1
aF1.6989498785422326
aI100
aI935027
aI1432587747
aa(lp1099
g2
aI0
aF1.0
aI100
aI934927
aI1432587919
aa(lp1100
g2
aI0
aF3.1857250183479957
aI100
aI934827
aI1432588054
aa(lp1101
g45
aI0
aF1.0
aI1500
aI1500
aI1432588289
aa(lp1102
VM
p1103
aI0
aF1.0
aI100
aI937389
aI1432627029
aa(lp1104
g1103
aI0
aF1.0
aI100
aI937289
aI1432627162
aa(lp1105
g1103
aI0
aF1.0
aI100
aI937189
aI1432627441
aa(lp1106
g1103
aI1
aF1.1749402049786664
aI100
aI937218
aI1432627615
aa(lp1107
g1103
aI0
aF163.0344125054124
aI9373
aI937373
aI1432627936
aa(lp1108
g1103
aI1
aF1.0
aI100
aI928000
aI1432628173
aa(lp1109
g1103
aI1
aF4.558788031833924
aI100
aI928071
aI1432628354
aa(lp1110
g1103
aI0
aF124.80380509092679
aI100
aI928133
aI1432628475
aa(lp1111
g1103
aI0
aF1.0
aI100
aI928166
aI1432628609
aa(lp1112
g1103
aI0
aF1.0
aI100
aI928166
aI1432628610
aa(lp1113
g1103
aI1
aF2337.590432288847
aI9283
aI928369
aI1432628836
aa(lp1114
g1103
aI1
aF1.0
aI100
aI931202
aI1432629087
aa(lp1115
g1103
aI0
aF941.303995490104
aI9312
aI931227
aI1432629484
aa(lp1116
g1103
aI0
aF102553806.62310094
aI9323
aI932352
aI1432629644
aa(lp1117
g1103
aI0
aF35.67563108100589
aI100
aI923029
aI1432629783
aa(lp1118
g1103
aI1
aF882793.4065589587
aI9231
aI923185
aI1432629958
aa(lp1119
g1103
aI1
aF3.520932474261676
aI100
aI925198
aI1432630142
aa(lp1120
g1103
aI0
aF1.0
aI100
aI925098
aI1432630326
aa(lp1121
g1103
aI1
aF2.702578916508422
aI100
aI925123
aI1432630522
aa(lp1122
g1103
aI1
aF1.0
aI100
aI925173
aI1432630720
aa(lp1123
g1103
aI1
aF1.0
aI100
aI925192
aI1432631002
aa(lp1124
g1103
aI1
aF1.307361001658602
aI100
aI925213
aI1432631170
aa(lp1125
g1103
aI0
aF1.0
aI100
aI925583
aI1432631402
aa(lp1126
g1103
aI1
aF1.0
aI100
aI925594
aI1432631604
aa(lp1127
g1103
aI1
aF1.0
aI100
aI925600
aI1432631743
aa(lp1128
g1103
aI1
aF5.043869995561804
aI100
aI925686
aI1432631875
aa(lp1129
g1103
aI1
aF1.2902655886754941
aI100
aI925700
aI1432632033
aa(lp1130
g1103
aI1
aF1.1976764837319471
aI100
aI926031
aI1432632320
aa(lp1131
g1103
aI0
aF519164.0321144478
aI9259
aI925931
aI1432632486
aa(lp1132
g1103
aI0
aF1.0344601884629387
aI100
aI928464
aI1432632614
aa(lp1133
g1103
aI0
aF1715.1277163170203
aI9283
aI928364
aI1432632798
aa(lp1134
g1103
aI1
aF1.3648423902959497
aI100
aI929497
aI1432632917
aa(lp1135
g1103
aI1
aF327.63508965804897
aI9296
aI929613
aI1432633144
aa(lp1136
g1103
aI0
aF13.238209487622491
aI100
aI935087
aI1432633264
aa(lp1137
g1103
aI1
aF1.0
aI100
aI935469
aI1432633464
aa(lp1138
g1103
aI1
aF15.836499214070594
aI100
aI935369
aI1432633613
aa(lp1139
g1103
aI0
aF1.5917051723919402
aI100
aI935269
aI1432634078
aa(lp1140
g1103
aI1
aF1.0
aI100
aI935302
aI1432634244
aa(lp1141
g1103
aI1
aF1.0
aI100
aI935310
aI1432634376
aa(lp1142
g1103
aI0
aF501.03325121346535
aI9352
aI935210
aI1432634681
aa(lp1143
g1103
aI1
aF7.467770890536629
aI100
aI925858
aI1432634839
aa(lp1144
g1103
aI1
aF8.945222409935536
aI100
aI925868
aI1432635043
aa(lp1145
g1103
aI0
aF8140.721722980965
aI9258
aI925884
aI1432635210
aa(lp1146
g1103
aI0
aF1.0
aI100
aI927783
aI1432635351
aa(lp1147
VT
p1148
aI1
aF1.0
aI1500
aI1500
aI1432635634
aa(lp1149
g1148
aI1
aF1.0
aI1500
aI1500
aI1432635634
aa(lp1150
g1148
aI0
aF9.714099112589253
aI1022
aI2045
aI1432635754
aa(lp1151
g1148
aI0
aF21.137127280940405
aI1500
aI1500
aI1432636132
aa(lp1152
g1148
aI1
aF1.0
aI1500
aI1500
aI1432636289
aa(lp1153
g1148
aI0
aF1.042182312399755
aI1261
aI2523
aI1432636470
aa(lp1154
g1148
aI1
aF312.64566948613884
aI1400
aI2801
aI1432636670
aa(lp1155
g1148
aI0
aF1.0
aI1609
aI3219
aI1432636913
aa(lp1156
g1148
aI0
aF1.0
aI1610
aI1610
aI1432637078
aa(lp1157
g1148
aI0
aF5710.988892142645
aI1500
aI1500
aI1432637278
aa(lp1158
g1148
aI0
aF1.0
aI1500
aI1500
aI1432637442
aa(lp1159
g1148
aI0
aF821.5245099329837
aI1500
aI1500
aI1432637615
aa(lp1160
g1148
aI0
aF1070.0939424473481
aI4939
aI9879
aI1432637843
aa(lp1161
g1148
aI1
aF1122.8440980247312
aI8534
aI17069
aI1432637973
aa(lp1162
g1148
aI0
aF106.03607439373677
aI4267
aI8535
aI1432638238
aa(lp1163
VE
p1164
aI0
aF2.5365105533021053
aI1
aI938187
aI1432638995
aa(lp1165
g1164
aI1
aF14.906411488493179
aI1
aI938187
aI1432639479
aa(lp1166
g1164
aI0
aF1.0
aI1
aI938190
aI1432639602
aa(lp1167
g1164
aI0
aF46236.27053284623
aI1
aI938191
aI1432639739
aa(lp1168
g1164
aI0
aF43.80505781266034
aI1
aI938193
aI1432639839
aa(lp1169
g1164
aI1
aF6.292443234926729
aI1
aI938192
aI1432639963
aa(lp1170
g1164
aI1
aF1310.6411666877175
aI1
aI938193
aI1432640358
aa(lp1171
g1164
aI1
aF1.0
aI1
aI938194
aI1432640498
aa(lp1172
g1164
aI1
aF1.0
aI1
aI938193
aI1432640598
aa(lp1173
g1164
aI1
aF3156.7467142880087
aI1
aI938194
aI1432640703
aa(lp1174
g1164
aI0
aF629.6726722011488
aI1
aI938196
aI1432640828
aa(lp1175
g1164
aI0
aF1.1234209446785122
aI1
aI938195
aI1432640993
aa(lp1176
g1164
aI1
aF1943.669537003498
aI1
aI938194
aI1432641107
aa(lp1177
g1164
aI1
aF5651.465202592631
aI1
aI938195
aI1432641204
aa(lp1178
g1164
aI0
aF14.536117999158112
aI1
aI938194
aI1432641310
aa(lp1179
g1164
aI0
aF91207.82036468302
aI1
aI938193
aI1432641691
aa(lp1180
g1103
aI0
aF991.293288579232
aI9381
aI938195
aI1432641880
aa(lp1181
g1103
aI1
aF37.60930613717126
aI100
aI939465
aI1432641988
aa(lp1182
g1103
aI1
aF1.888080105183082
aI100
aI939489
aI1432642216
aa(lp1183
g1103
aI1
aF1.0
aI100
aI939504
aI1432642492
aa(lp1184
g1103
aI1
aF37.38449284055196
aI100
aI939404
aI1432642627
aa(lp1185
g1103
aI0
aF143351.47697378194
aI9393
aI939304
aI1432642789
aa(lp1186
g1103
aI0
aF1067.3387320318025
aI9404
aI940434
aI1432642923
aa(lp1187
g1103
aI1
aF18.012199656610278
aI100
aI931030
aI1432643085
aa(lp1188
g1103
aI0
aF8.0076147561909
aI100
aI930930
aI1432643210
aa(lp1189
g1103
aI1
aF1.0
aI100
aI930830
aI1432643398
aa(lp1190
g1103
aI1
aF1.9556276555528096
aI100
aI930878
aI1432643600
aa(lp1191
g1103
aI1
aF298.4897395448708
aI9307
aI930778
aI1432643802
aa(lp1192
g1103
aI0
aF1880.1651924545895
aI9214
aI921471
aI1432644003
aa(lp1193
g1103
aI0
aF31484.96825834186
aI9244
aI924430
aI1432644424
aa(lp1194
g1103
aI1
aF918595.4534199729
aI9151
aI915186
aI1432644863
aa(lp1195
g1103
aI1
aF918595.4534199729
aI9151
aI915186
aI1432644864
aa(lp1196
g1103
aI0
aF39.61170898068399
aI100
aI916641
aI1432644985
aa(lp1197
g1103
aI0
aF39.61170898068399
aI100
aI916641
aI1432644985
aa(lp1198
g1103
aI0
aF6834.560196639531
aI9165
aI916541
aI1432645230
aa(lp1199
g1103
aI0
aF6834.560196639531
aI9165
aI916541
aI1432645231
aa(lp1200
g1103
aI0
aF17.701548636142615
aI100
aI907376
aI1432645482
aa(lp1201
g1103
aI0
aF17.701548636142615
aI100
aI907376
aI1432645482
aa(lp1202
g1103
aI1
aF4.8810716268848235
aI100
aI907276
aI1432645744
aa(lp1203
g1103
aI0
aF1.0
aI100
aI907427
aI1432645930
aa(lp1204
g1103
aI0
aF1.0
aI100
aI907427
aI1432645931
aa(lp1205
g1103
aI1
aF399.76595147230466
aI9073
aI907327
aI1432646022
aa(lp1206
g1103
aI0
aF53024.82490375976
aI8982
aI898254
aI1432646151
aa(lp1207
g1103
aI0
aF30.672707583386003
aI100
aI903734
aI1432646306
aa(lp1208
g1103
aI0
aF14.48253735991321
aI100
aI903793
aI1432646440
aa(lp1209
g1103
aI0
aF1.2027040345481694
aI100
aI903809
aI1432646570
aa(lp1210
g1103
aI1
aF12971.526759351942
aI9037
aI903709
aI1432646890
aa(lp1211
g1103
aI1
aF660.0348484154956
aI8946
aI894672
aI1432647023
aa(lp1212
g1103
aI1
aF21.182000693330153
aI100
aI904745
aI1432647215
aa(lp1213
g1103
aI1
aF1.0
aI100
aI904645
aI1432647333
aa(lp1214
g1103
aI1
aF1.0
aI100
aI904545
aI1432647420
aa(lp1215
g1103
aI0
aF1.8252178313563006
aI100
aI904607
aI1432647589
aa(lp1216
g1103
aI0
aF1.0
aI100
aI904507
aI1432647743
aa(lp1217
g1103
aI1
aF1.1464728426855402
aI100
aI904558
aI1432647833
aa(lp1218
g1103
aI1
aF3.8744300278077333
aI100
aI904458
aI1432647991
aa(lp1219
g1103
aI0
aF5.642558377286371
aI100
aI904358
aI1432648098
aa(lp1220
g1103
aI1
aF1.0
aI100
aI904372
aI1432648280
aa(lp1221
g1103
aI0
aF622102.117897655
aI9044
aI904445
aI1432648441
aa(lp1222
g1103
aI1
aF1.1757389046346172
aI100
aI904615
aI1432648944
aa(lp1223
g1103
aI0
aF62.75838093066186
aI100
aI905500
aI1432649107
aa(lp1224
g1103
aI1
aF1.2996662711463105
aI100
aI905524
aI1432649480
aa(lp1225
g1103
aI0
aF39.7897989093419
aI100
aI905604
aI1432649681
aa(lp1226
g1103
aI1
aF5.7797485832495745
aI100
aI905504
aI1432649813
aa(lp1227
g1103
aI1
aF1.0
aI100
aI905718
aI1432650166
aa(lp1228
g1103
aI1
aF8.062651687862367
aI100
aI905618
aI1432650367
aa(lp1229
g1103
aI1
aF1.8215631347759742
aI100
aI905679
aI1432650579
aa(lp1230
g1103
aI0
aF6940331.025284389
aI9055
aI905579
aI1432650743
aa(lp1231
g1103
aI1
aF1.0
aI100
aI914461
aI1432650994
aa(lp1232
g1103
aI1
aF2.5522660455802484
aI100
aI914499
aI1432651136
aa(lp1233
g1103
aI0
aF18.08516385336652
aI100
aI914529
aI1432651286
aa(lp1234
g1103
aI1
aF19209135.616732005
aI9144
aI914429
aI1432651455
aa(lp1235
g1103
aI1
aF6.834921042773524
aI100
aI915907
aI1432651911
aa(lp1236
g1103
aI0
aF1.643333404965096
aI100
aI915957
aI1432652026
aa(lp1237
g1103
aI1
aF7807.604058456393
aI9158
aI915857
aI1432652222
aa(lp1238
g1103
aI0
aF62.48836293953347
aI100
aI906699
aI1432652496
aa(lp1239
g1103
aI0
aF2.512093663733482
aI100
aI906805
aI1432652646
aa(lp1240
g1103
aI1
aF1.0
aI100
aI906909
aI1432652860
aa(lp1241
g1103
aI0
aF20.205552113474873
aI100
aI906909
aI1432652981
aa(lp1242
g1103
aI0
aF1.0
aI100
aI906913
aI1432653148
aa(lp1243
g1103
aI1
aF1657.6983677495466
aI9068
aI906813
aI1432653343
aa(lp1244
g1103
aI1
aF1.0
aI100
aI897745
aI1432653626
aa(lp1245
g1103
aI0
aF1.0
aI100
aI897645
aI1432653807
aa(lp1246
g1103
aI1
aF8.933616962123734
aI100
aI897545
aI1432653963
aa(lp1247
g1103
aI1
aF1.0
aI100
aI897603
aI1432654177
aa(lp1248
g1103
aI1
aF1.0
aI100
aI897659
aI1432654329
aa(lp1249
g1103
aI0
aF276971104.0608353
aI8982
aI898273
aI1432654540
aa(lp1250
g1103
aI1
aF14298.770357533633
aI8994
aI899490
aI1432654746
aa(lp1251
g1103
aI0
aF19.928943585502417
aI100
aI903517
aI1432654923
aa(lp1252
g1103
aI1
aF13583.712332016565
aI9035
aI903572
aI1432655073
aa(lp1253
g1103
aI0
aF1.0
aI100
aI905376
aI1432655304
aa(lp1254
g1103
aI0
aF92.50844192156457
aI100
aI905276
aI1432655473
aa(lp1255
g1103
aI1
aF12.899033982369913
aI100
aI905353
aI1432655654
aa(lp1256
g1103
aI1
aF24.60091152281895
aI100
aI905386
aI1432655816
aa(lp1257
g1103
aI1
aF3.1286317723919232
aI100
aI905398
aI1432655980
aa(lp1258
g1103
aI0
aF1.0
aI100
aI905398
aI1432656213
aa(lp1259
g1103
aI1
aF1935745.7855651153
aI9052
aI905298
aI1432656378
aa(lp1260
g1103
aI1
aF57592.54461602851
aI9080
aI908053
aI1432656512
aa(lp1261
g1103
aI1
aF24.86600389077383
aI100
aI908819
aI1432656634
aa(lp1262
g1103
aI0
aF12.051750825213912
aI100
aI908719
aI1432656880
aa(lp1263
g1103
aI0
aF1.3597358483078184
aI100
aI908619
aI1432657060
aa(lp1264
g1103
aI1
aF2028.054404086452
aI9086
aI908626
aI1432657188
aa(lp1265
g1103
aI1
aF1.0
aI100
aI909037
aI1432657316
aa(lp1266
g1103
aI1
aF22.909121249873202
aI100
aI909118
aI1432657451
aa(lp1267
g1103
aI1
aF5.828219235108241
aI100
aI909149
aI1432657580
aa(lp1268
g1103
aI0
aF106.93486648934072
aI100
aI909049
aI1432657739
aa(lp1269
g1103
aI0
aF2.733350369138834
aI100
aI909113
aI1432657847
aa(lp1270
g1103
aI0
aF1.0
aI100
aI909177
aI1432657967
aa(lp1271
g1103
aI0
aF1.5161926169953392
aI100
aI909260
aI1432658126
aa(lp1272
g1103
aI0
aF1.0
aI100
aI909472
aI1432658495
aa(lp1273
g1103
aI1
aF309.904765207942
aI9096
aI909695
aI1432658758
aa(lp1274
g1148
aI0
aF1.0
aI1500
aI1500
aI1432659027
aa(lp1275
g1148
aI1
aF1.0
aI1204
aI2409
aI1432659159
aa(lp1276
g1148
aI1
aF5.82813587941301
aI1500
aI1500
aI1432659382
aa(lp1277
g1148
aI0
aF1.0
aI1848
aI1848
aI1432659555
aa(lp1278
g1148
aI1
aF1.0
aI1976
aI3953
aI1432659766
aa(lp1279
g1148
aI1
aF426.85977207507017
aI2192
aI4384
aI1432659884
aa(lp1280
g1148
aI0
aF14.790150925828366
aI1096
aI2192
aI1432660133
aa(lp1281
g1148
aI1
aF1.6982958191100317
aI1561
aI3123
aI1432660292
aa(lp1282
g1148
aI1
aF1.0
aI1812
aI3624
aI1432660435
aa(lp1283
g1148
aI1
aF1.0
aI2817
aI5635
aI1432660549
aa(lp1284
g1148
aI0
aF19.66075466876217
aI1409
aI2818
aI1432660724
aa(lp1285
g1148
aI0
aF8.960122941774888
aI1751
aI3502
aI1432660904
aa(lp1286
g1148
aI0
aF1.0
aI1751
aI1751
aI1432661038
aa(lp1287
g1148
aI1
aF1.6289823041375955
aI2980
aI5960
aI1432661214
aa(lp1288
g1148
aI1
aF1.0
aI4668
aI9337
aI1432661433
aa(lp1289
g1164
aI1
aF120.37260250312434
aI1
aI915096
aI1432661991
aa(lp1290
g1164
aI1
aF12772.266834401911
aI1
aI915095
aI1432662196
aa(lp1291
g1164
aI1
aF29.480344077799806
aI1
aI915096
aI1432663123
aa(lp1292
g1164
aI0
aF1.0
aI1
aI915095
aI1432663674
aa(lp1293
g1103
aI0
aF2.5928186726860085
aI100
aI915096
aI1432665360
aa(lp1294
g1103
aI0
aF6.017350738844645
aI100
aI915148
aI1432665482
aa(lp1295
g1103
aI1
aF194.0662649469753
aI9150
aI915048
aI1432665650
aa(lp1296
g1103
aI1
aF1.296384586222573
aI100
aI905898
aI1432665810
aa(lp1297
g1103
aI0
aF1.0
aI100
aI905798
aI1432665965
aa(lp1298
g1103
aI0
aF967.5342759389899
aI9059
aI905979
aI1432666233
aa(lp1299
g1103
aI1
aF1.0
aI100
aI908753
aI1432666404
aa(lp1300
g1103
aI1
aF14189.366967931093
aI9086
aI908653
aI1432666564
aa(lp1301
g1103
aI1
aF41.70212264371428
aI100
aI911649
aI1432666680
aa(lp1302
g1103
aI1
aF1.0
aI100
aI911549
aI1432666813
aa(lp1303
g1103
aI1
aF328629.2404847567
aI9115
aI911570
aI1432666962
aa(lp1304
g1103
aI1
aF1.4736205165017437
aI100
aI911716
aI1432667065
aa(lp1305
g1103
aI1
aF299.08506625355443
aI9117
aI911756
aI1432667290
aa(lp1306
g1103
aI1
aF1.0
aI100
aI902639
aI1432667425
aa(lp1307
g1103
aI0
aF45.913378802145544
aI100
aI902793
aI1432667781
aa(lp1308
g1103
aI1
aF1.0
aI100
aI902693
aI1432668221
aa(lp1309
g1103
aI1
aF9676482.110653892
aI9027
aI902783
aI1432668418
aa(lp1310
g1103
aI1
aF155.77426966317714
aI9055
aI905525
aI1432668639
aa(lp1311
g1103
aI1
aF1.0
aI100
aI896470
aI1432669037
aa(lp1312
g1103
aI1
aF1.0
aI100
aI896558
aI1432669212
aa(lp1313
g1103
aI1
aF6.905207558623109
aI100
aI896458
aI1432669374
aa(lp1314
g1103
aI1
aF44.87690380021069
aI100
aI896460
aI1432669514
aa(lp1315
g1103
aI1
aF211957.1179009253
aI8963
aI896360
aI1432669892
aa(lp1316
g1103
aI1
aF1.4281356600211939
aI100
aI887397
aI1432670046
aa(lp1317
g1103
aI0
aF1.0
aI100
aI887297
aI1432670167
aa(lp1318
g1103
aI0
aF4.969319999836755
aI100
aI887197
aI1432670495
aa(lp1319
g1103
aI0
aF6.111198907734588
aI100
aI887204
aI1432670686
aa(lp1320
g1103
aI1
aF1.169253195201383
aI100
aI887104
aI1432670893
aa(lp1321
g1103
aI1
aF3.82413099610833
aI100
aI887125
aI1432671026
aa(lp1322
g1103
aI1
aF5569.794314949879
aI8870
aI887025
aI1432671161
aa(lp1323
g1103
aI1
aF2303.6316996007376
aI8781
aI878155
aI1432671313
aa(lp1324
g1103
aI1
aF341.61314588445066
aI8788
aI878842
aI1432671535
aa(lp1325
g1103
aI0
aF4024934.2559179496
aI8822
aI882294
aI1432671736
aa(lp1326
g1103
aI0
aF92.50650575765
aI100
aI882387
aI1432672006
aa(lp1327
g1103
aI1
aF71.56155898792504
aI100
aI882287
aI1432672295
aa(lp1328
g1103
aI0
aF1.0
aI100
aI882441
aI1432672496
aa(lp1329
g1103
aI0
aF3.2568581595174297
aI100
aI882572
aI1432672634
aa(lp1330
g1103
aI0
aF1.0
aI100
aI882584
aI1432672879
aa(lp1331
g1103
aI0
aF3.9372519812498887
aI100
aI882616
aI1432673039
aa(lp1332
g1103
aI1
aF1723.2967518062183
aI8826
aI882638
aI1432673234
aa(lp1333
g1103
aI0
aF1.0
aI100
aI884835
aI1432673448
aa(lp1334
g1103
aI1
aF1.0
aI100
aI885142
aI1432673691
aa(lp1335
g1103
aI0
aF13.04405657815451
aI100
aI885297
aI1432673918
aa(lp1336
g1103
aI0
aF1.0
aI100
aI885309
aI1432674042
aa(lp1337
g1103
aI1
aF4.708619114376099
aI100
aI885368
aI1432674366
aa(lp1338
g1103
aI0
aF187.48831029475758
aI8854
aI885487
aI1432674540
aa(lp1339
g1103
aI0
aF124636.04100111547
aI8915
aI891582
aI1432674709
aa(lp1340
g1103
aI0
aF1.0
aI100
aI882667
aI1432674904
aa(lp1341
g1103
aI1
aF4.3335493959802385
aI100
aI882779
aI1432675064
aa(lp1342
g1103
aI1
aF1.1681929634490147
aI100
aI882679
aI1432675200
aa(lp1343
g1103
aI1
aF13.514814667437966
aI100
aI882579
aI1432675361
aa(lp1344
g1103
aI0
aF1.404240455774323
aI100
aI882479
aI1432675499
aa(lp1345
g1103
aI1
aF156.42327464583423
aI8825
aI882547
aI1432675704
aa(lp1346
g1103
aI0
aF1766.300102418835
aI8737
aI873722
aI1432675903
aa(lp1347
g1103
aI1
aF1.0950527169069135
aI100
aI864985
aI1432676300
aa(lp1348
g1103
aI0
aF1.0
aI100
aI864885
aI1432676607
aa(lp1349
g1103
aI1
aF7.32101021450114
aI100
aI864887
aI1432676755
aa(lp1350
g1103
aI0
aF1.4808561610851254
aI100
aI864921
aI1432676899
aa(lp1351
g1103
aI1
aF77511.38022583204
aI8649
aI864987
aI1432677219
aa(lp1352
g1103
aI1
aF1.0
aI100
aI865638
aI1432677331
aa(lp1353
g1103
aI0
aF1130.0084288023304
aI8662
aI866278
aI1432677483
aa(lp1354
g1103
aI1
aF1.0
aI100
aI857616
aI1432677698
aa(lp1355
g1103
aI1
aF15.482074671251725
aI100
aI857670
aI1432677836
aa(lp1356
g1103
aI0
aF1.0
aI100
aI857705
aI1432677999
aa(lp1357
g1103
aI0
aF1.0
aI100
aI857712
aI1432678165
aa(lp1358
g1103
aI1
aF24.909981224360557
aI100
aI857612
aI1432678392
aa(lp1359
g1103
aI0
aF1.0
aI100
aI857643
aI1432678515
aa(lp1360
g1103
aI0
aF17804.376895535497
aI8575
aI857543
aI1432678698
aa(lp1361
g1103
aI1
aF1.0
aI100
aI860154
aI1432678838
aa(lp1362
g1103
aI1
aF4.79146566355328
aI100
aI860054
aI1432678991
aa(lp1363
g1103
aI1
aF1392024.7201532405
aI8599
aI859954
aI1432679270
aa(lp1364
g1103
aI0
aF15.614830958090067
aI100
aI860686
aI1432679433
aa(lp1365
g1103
aI1
aF2.8677928254742593
aI100
aI860885
aI1432679682
aa(lp1366
g1103
aI0
aF847714.1406144131
aI8609
aI860907
aI1432679831
aa(lp1367
g1103
aI0
aF21.757111722554278
aI100
aI852298
aI1432680001
aa(lp1368
g1103
aI1
aF1.3600976955077055
aI100
aI852198
aI1432680179
aa(lp1369
g1103
aI1
aF21.076739837445036
aI100
aI852202
aI1432680292
aa(lp1370
g1103
aI1
aF1.5609919690236285
aI100
aI852223
aI1432680513
aa(lp1371
g1103
aI0
aF1.0
aI100
aI852123
aI1432680685
aa(lp1372
g1103
aI1
aF2247.047128158274
aI8520
aI852023
aI1432680873
aa(lp1373
g1103
aI0
aF8995.170881427592
aI8529
aI852954
aI1432680999
aa(lp1374
g1103
aI1
aF720.919520462155
aI8539
aI853978
aI1432681145
aa(lp1375
g1103
aI1
aF74.28660633121122
aI100
aI845439
aI1432681301
aa(lp1376
g1103
aI1
aF46.55896539095009
aI100
aI845440
aI1432681393
aa(lp1377
g1103
aI1
aF1.0
aI100
aI845340
aI1432681610
aa(lp1378
g1103
aI1
aF1.1768775085504548
aI100
aI845367
aI1432681805
aa(lp1379
g1103
aI1
aF1.0
aI100
aI845267
aI1432681979
aa(lp1380
g1103
aI0
aF1209.0997615365
aI8453
aI845303
aI1432682090
aa(lp1381
g1103
aI0
aF22.982162019222006
aI100
aI836850
aI1432682227
aa(lp1382
g1103
aI1
aF1.0
aI100
aI837026
aI1432682458
aa(lp1383
g1103
aI1
aF113.63983824880975
aI100
aI837419
aI1432682632
aa(lp1384
g1148
aI0
aF1.0
aI1500
aI1500
aI1432682906
aa(lp1385
g1148
aI0
aF105.72558202229011
aI1922
aI1922
aI1432683043
aa(lp1386
g1148
aI0
aF11.342297657405013
aI1500
aI1500
aI1432683186
aa(lp1387
g1148
aI1
aF2187935.988119134
aI1938
aI1938
aI1432683356
aa(lp1388
g1148
aI1
aF438.45449352312045
aI1687
aI3374
aI1432683685
aa(lp1389
g1148
aI1
aF13.589391398160672
aI1997
aI3995
aI1432683891
aa(lp1390
g1148
aI0
aF2.648611706012078
aI2203
aI4407
aI1432683991
aa(lp1391
g1148
aI0
aF808.6455964658016
aI1102
aI2204
aI1432684186
aa(lp1392
g1148
aI1
aF4.103897152488747
aI1274
aI2549
aI1432684330
aa(lp1393
g1148
aI1
aF563.1887926583722
aI1500
aI1500
aI1432684464
aa(lp1394
g1148
aI1
aF11.2716343244062
aI1706
aI1706
aI1432684639
aa(lp1395
g1148
aI0
aF4.790816554476301
aI1500
aI1500
aI1432684802
aa(lp1396
g1148
aI0
aF1423.560664347031
aI1607
aI1607
aI1432684926
aa(lp1397
g1148
aI1
aF4.597448905587905
aI1479
aI2959
aI1432685139
aa(lp1398
g1164
aI1
aF405.40252316479695
aI1
aI838819
aI1432685792
aa(lp1399
g1164
aI1
aF1.0
aI1
aI838818
aI1432685919
aa(lp1400
g1164
aI0
aF1.0
aI1
aI838819
aI1432686180
aa(lp1401
g1164
aI0
aF1.0
aI1
aI838818
aI1432686571
aa(lp1402
g1164
aI1
aF1.1164411559767766
aI1
aI838819
aI1432686868
aa(lp1403
g1164
aI0
aF1.0
aI1
aI838818
aI1432687365
aa(lp1404
g1164
aI0
aF76.02454023939305
aI1
aI838817
aI1432687628
aa(lp1405
g1164
aI0
aF5463.1721146761965
aI1
aI838818
aI1432687993
aa(lp1406
g1103
aI0
aF1.3518835309329014
aI100
aI838817
aI1432689039
aa(lp1407
g1103
aI1
aF182184.68506321654
aI8387
aI838717
aI1432689251
aa(lp1408
g1103
aI0
aF817.3985780980216
aI8303
aI830330
aI1432689471
aa(lp1409
g1103
aI0
aF731497.077626557
aI8376
aI837622
aI1432689596
aa(lp1410
g1103
aI0
aF5.031342345892667
aI100
aI866881
aI1432689911
aa(lp1411
VM
p1412
aI1
aF216.66009873490304
aI100
aI866891
aI1432690066
aa(lp1413
g1412
aI0
aF1.0
aI100
aI866791
aI1432690220
aa(lp1414
g1412
aI1
aF104.41792053981548
aI100
aI866691
aI1432690364
aa(lp1415
g1412
aI1
aF8030948.888583198
aI8667
aI866723
aI1432690535
aa(lp1416
g1412
aI1
aF1.0
aI100
aI858056
aI1432690717
aa(lp1417
g1412
aI1
aF1077443.1184137887
aI8579
aI857956
aI1432691007
aa(lp1418
g1412
aI1
aF31.17166203663821
aI100
aI849377
aI1432691208
aa(lp1419
g1412
aI1
aF1.077155881442939
aI100
aI849277
aI1432691462
aa(lp1420
g1412
aI0
aF44267.51479973976
aI100
aI849315
aI1432691647
aa(lp1421
g1412
aI1
aF1607.8300507155127
aI100
aI849324
aI1432691844
aa(lp1422
g1412
aI0
aF5088.391312575297
aI100
aI849421
aI1432692038
aa(lp1423
g1412
aI0
aF1.7487989765483754
aI100
aI849321
aI1432692348
aa(lp1424
g1412
aI1
aF1.0
aI100
aI849381
aI1432692669
aa(lp1425
g1412
aI1
aF1.0
aI100
aI849281
aI1432692842
aa(lp1426
g1412
aI0
aF1.0
aI100
aI849181
aI1432693085
aa(lp1427
g1412
aI0
aF1.0
aI100
aI849196
aI1432693236
aa(lp1428
g1412
aI0
aF1.0
aI100
aI849219
aI1432693478
aa(lp1429
g1412
aI0
aF5804.676029986823
aI100
aI849119
aI1432693611
aa(lp1430
g1412
aI0
aF155.73768886425492
aI100
aI849019
aI1432693731
aa(lp1431
g1412
aI1
aF1.0
aI100
aI849025
aI1432693902
aa(lp1432
g1412
aI1
aF23.117443373272252
aI100
aI849044
aI1432694126
aa(lp1433
g1412
aI0
aF1.166550739751847
aI100
aI848944
aI1432694268
aa(lp1434
g1412
aI1
aF1.0323324950163089
aI100
aI848844
aI1432694441
aa(lp1435
g1412
aI0
aF75.305061627365
aI100
aI848871
aI1432694606
aa(lp1436
g1412
aI1
aF1.0
aI100
aI848771
aI1432694872
aa(lp1437
g1412
aI1
aF1.0
aI100
aI848671
aI1432695043
aa(lp1438
g1412
aI0
aF2297.7136517879794
aI100
aI848571
aI1432695285
aa(lp1439
g1412
aI1
aF1.0
aI100
aI848652
aI1432695509
aa(lp1440
g1412
aI0
aF1.0
aI100
aI848662
aI1432695635
aa(lp1441
g1412
aI0
aF1.0
aI100
aI848662
aI1432695916
aa(lp1442
g1412
aI0
aF1.257167436802904
aI100
aI848678
aI1432696068
aa(lp1443
g1412
aI0
aF1.0
aI100
aI849599
aI1432696228
aa(lp1444
g1412
aI1
aF1.0
aI100
aI849499
aI1432696490
aa(lp1445
g1412
aI0
aF401809878.015759
aI8495
aI849561
aI1432696801
aa(lp1446
g1412
aI0
aF3317371.223448338
aI8410
aI841066
aI1432696912
aa(lp1447
g1412
aI1
aF36.005274364571484
aI100
aI841453
aI1432697253
aa(lp1448
g1412
aI0
aF1.0
aI100
aI841638
aI1432697437
aa(lp1449
g1412
aI0
aF47.79223987285732
aI100
aI841659
aI1432697616
aa(lp1450
g1412
aI0
aF1.0
aI100
aI841677
aI1432697842
aa(lp1451
g1412
aI1
aF51.12149098358822
aI100
aI841719
aI1432698010
aa(lp1452
g1412
aI1
aF877.4519229170618
aI100
aI841619
aI1432698194
aa(lp1453
g1412
aI1
aF1.0
aI100
aI841519
aI1432698379
aa(lp1454
g1412
aI1
aF4553.032352640684
aI100
aI841419
aI1432698567
aa(lp1455
g1412
aI1
aF1.0
aI100
aI841501
aI1432698705
aa(lp1456
g1412
aI0
aF13.504157533694894
aI100
aI841401
aI1432698865
aa(lp1457
g1412
aI0
aF35.37556820869251
aI100
aI841301
aI1432699069
aa(lp1458
g1412
aI0
aF9.995576947791081
aI100
aI841201
aI1432699208
aa(lp1459
g1412
aI1
aF1.377271681608288
aI100
aI841318
aI1432699355
aa(lp1460
g1412
aI0
aF427.6869162733384
aI100
aI841336
aI1432699531
aa(lp1461
g1412
aI1
aF4335.259372774834
aI100
aI841236
aI1432699899
aa(lp1462
g1412
aI0
aF1.0
aI100
aI841251
aI1432700105
aa(lp1463
g1412
aI0
aF1.1660137261158718
aI100
aI841151
aI1432700256
aa(lp1464
g1412
aI0
aF11440.202146839052
aI100
aI841184
aI1432700392
aa(lp1465
g1412
aI1
aF45.29976071436923
aI100
aI841245
aI1432700586
aa(lp1466
g1412
aI0
aF2.7191054867411624
aI100
aI841145
aI1432700770
aa(lp1467
g1412
aI1
aF2707.0157571332197
aI100
aI841045
aI1432701119
aa(lp1468
g1412
aI0
aF3.91102150930951
aI100
aI841058
aI1432701261
aa(lp1469
g1412
aI0
aF1.0
aI100
aI841186
aI1432701483
aa(lp1470
g1412
aI1
aF1.0
aI100
aI841354
aI1432701612
aa(lp1471
g1412
aI0
aF6.378756228339009
aI100
aI841381
aI1432701803
aa(lp1472
g1412
aI1
aF1.0
aI100
aI841794
aI1432702221
aa(lp1473
g1412
aI0
aF3.473814053003629
aI100
aI841694
aI1432702419
aa(lp1474
g1412
aI0
aF3574.9414409288265
aI100
aI841953
aI1432702606
aa(lp1475
g1412
aI1
aF1.0
aI100
aI841993
aI1432702732
aa(lp1476
g1412
aI1
aF4.797053922344049
aI100
aI841893
aI1432702934
aa(lp1477
g1412
aI1
aF472231.75452777557
aI8419
aI841973
aI1432703118
aa(lp1478
g1412
aI0
aF79.06810232111629
aI100
aI852271
aI1432703256
aa(lp1479
g1412
aI1
aF2.7521139372902352
aI100
aI852316
aI1432703515
aa(lp1480
g1412
aI0
aF1.0
aI100
aI852216
aI1432703654
aa(lp1481
g1412
aI0
aF6.525088884499515
aI100
aI852228
aI1432703807
aa(lp1482
g1412
aI0
aF18253.765908009587
aI100
aI852128
aI1432703936
aa(lp1483
g1412
aI1
aF9366738.947763002
aI8521
aI852196
aI1432704096
aa(lp1484
g1412
aI1
aF393.14681234926127
aI100
aI843675
aI1432704364
aa(lp1485
g1412
aI0
aF3.348014141345392
aI100
aI843575
aI1432704884
aa(lp1486
g1412
aI1
aF116.29195381018752
aI100
aI843656
aI1432705077
aa(lp1487
g1412
aI1
aF39.66605406498815
aI100
aI843660
aI1432705182
aa(lp1488
g1412
aI0
aF1.81298271456278
aI100
aI843757
aI1432705328
aa(lp1489
g1412
aI1
aF115.44027097221559
aI100
aI843657
aI1432705691
aa(lp1490
g1412
aI1
aF4.289078534632855
aI100
aI843677
aI1432706012
aa(lp1491
g1412
aI1
aF1.0
aI100
aI843577
aI1432706193
aa(lp1492
g1412
aI0
aF1.0
aI100
aI843839
aI1432706361
aa(lp1493
g1412
aI1
aF1.0
aI100
aI843739
aI1432706495
aa(lp1494
g1412
aI0
aF20.50758128138113
aI100
aI843824
aI1432706630
aa(lp1495
g1412
aI1
aF117.18533681654387
aI100
aI843724
aI1432706849
aa(lp1496
VT
p1497
aI1
aF4.891498756094229
aI1500
aI1500
aI1432707304
aa(lp1498
g1497
aI1
aF1.0
aI1500
aI1500
aI1432707535
aa(lp1499
g1497
aI0
aF654.7733706697003
aI2256
aI4513
aI1432707811
aa(lp1500
g1497
aI0
aF1.0
aI3885
aI7771
aI1432708007
aa(lp1501
g1497
aI1
aF61.66322164244582
aI1943
aI3886
aI1432708192
aa(lp1502
g1497
aI1
aF1.0
aI1943
aI1943
aI1432708384
aa(lp1503
g1497
aI0
aF1.0
aI1634
aI3269
aI1432708546
aa(lp1504
g1497
aI1
aF1.8820777897057615
aI1735
aI3470
aI1432708697
aa(lp1505
g1497
aI1
aF93.24514121052005
aI1735
aI1735
aI1432708844
aa(lp1506
g1497
aI0
aF13221737.298658077
aI1132
aI2264
aI1432709002
aa(lp1507
g1497
aI1
aF14.912079588857173
aI1417
aI2834
aI1432709210
aa(lp1508
g1497
aI0
aF1.0
aI2214
aI4429
aI1432709340
aa(lp1509
g1497
aI1
aF8.846864256704063
aI1107
aI2215
aI1432709501
aa(lp1510
g1497
aI0
aF3.5708804544159394
aI1520
aI3040
aI1432709687
aa(lp1511
g1497
aI0
aF507.3220165337201
aI1520
aI1520
aI1432709847
aa(lp1512
VE
p1513
aI1
aF78.60069509990313
aI1
aI845278
aI1432710486
aa(lp1514
g1513
aI0
aF1.192656480140894
aI1
aI845279
aI1432710573
aa(lp1515
g1513
aI0
aF1.1585012285576304
aI1
aI845280
aI1432711059
aa(lp1516
g1513
aI0
aF1672393.7754402487
aI1
aI845279
aI1432711200
aa(lp1517
g1513
aI1
aF1.0
aI1
aI845281
aI1432711306
aa(lp1518
g1513
aI0
aF6.120423722605367
aI1
aI845282
aI1432711545
aa(lp1519
g1513
aI1
aF61.008654024799156
aI1
aI845283
aI1432711679
aa(lp1520
g1513
aI1
aF493.28246402037325
aI1
aI845284
aI1432711886
aa(lp1521
g1513
aI1
aF1755.3229935867237
aI1
aI845283
aI1432712034
aa(lp1522
g1513
aI1
aF299.00139204011924
aI1
aI845282
aI1432712135
aa(lp1523
g1513
aI0
aF831.6944880507846
aI1
aI845283
aI1432712215
aa(lp1524
g1513
aI0
aF629.6726722011488
aI1
aI845284
aI1432712385
aa(lp1525
g1412
aI1
aF1.0198975337508953
aI100
aI845283
aI1432713492
aa(lp1526
g1412
aI1
aF51.75345613036306
aI100
aI845183
aI1432713829
aa(lp1527
g1412
aI1
aF1644856.5210676205
aI8450
aI845083
aI1432713949
aa(lp1528
g1412
aI0
aF161.25132512441883
aI100
aI836633
aI1432714285
aa(lp1529
g1412
aI0
aF2850.1800332977787
aI100
aI836533
aI1432714418
aa(lp1530
g1412
aI0
aF1.0
aI100
aI836556
aI1432714568
aa(lp1531
g1412
aI1
aF1.0
aI100
aI837301
aI1432714765
aa(lp1532
g1412
aI0
aF6.007322293484553
aI100
aI837482
aI1432714929
aa(lp1533
g1412
aI0
aF12.278743893352633
aI100
aI837534
aI1432715094
aa(lp1534
g1412
aI0
aF80.66780350012392
aI100
aI837434
aI1432715331
aa(lp1535
g1412
aI1
aF7143.202255025523
aI100
aI837801
aI1432715517
aa(lp1536
g1412
aI0
aF114.29537724137309
aI100
aI837811
aI1432715654
aa(lp1537
g1412
aI1
aF12.77635095371122
aI100
aI837865
aI1432715859
aa(lp1538
g1412
aI1
aF192.3626370581213
aI100
aI838140
aI1432716050
aa(lp1539
g1412
aI1
aF1.803905290145294
aI100
aI838040
aI1432716156
aa(lp1540
g1412
aI0
aF16.901600464731544
aI100
aI838070
aI1432716275
aa(lp1541
g1412
aI1
aF3.1836739749821845
aI100
aI837970
aI1432716430
aa(lp1542
g1412
aI0
aF1.0
aI100
aI838112
aI1432716722
aa(lp1543
g1412
aI0
aF1.3176007272873864
aI100
aI838131
aI1432716811
aa(lp1544
g1412
aI0
aF27.491335837284275
aI100
aI838232
aI1432716993
aa(lp1545
g1412
aI0
aF369.5611491017914
aI100
aI838132
aI1432717149
aa(lp1546
g1412
aI0
aF369.5611491017914
aI100
aI838132
aI1432717150
aa(lp1547
g1412
aI0
aF5188.65356853152
aI100
aI838032
aI1432717294
aa(lp1548
g1412
aI0
aF25.7336320993411
aI100
aI838048
aI1432717457
aa(lp1549
g1412
aI1
aF1.7097668971373219
aI100
aI837948
aI1432717606
aa(lp1550
g1412
aI0
aF8087.1616539363895
aI100
aI837978
aI1432717762
aa(lp1551
g1412
aI1
aF93105.3649963637
aI100
aI838002
aI1432717928
aa(lp1552
g1412
aI1
aF322118.3592119073
aI8380
aI838010
aI1432718064
aa(lp1553
g1412
aI0
aF50.25608311541356
aI100
aI829630
aI1432718173
aa(lp1554
g1412
aI1
aF1.0
aI100
aI829530
aI1432718387
aa(lp1555
g1412
aI0
aF1.0
aI100
aI829578
aI1432718538
aa(lp1556
g1412
aI0
aF1.0
aI100
aI829610
aI1432719022
aa(lp1557
g1412
aI1
aF220518.498468841
aI8295
aI829510
aI1432719204
aa(lp1558
g1412
aI0
aF1.3219277863179344
aI100
aI830350
aI1432719401
aa(lp1559
g1412
aI1
aF1.0297779394505975
aI100
aI830250
aI1432719609
aa(lp1560
g1412
aI1
aF316.5434991756414
aI100
aI830313
aI1432719771
aa(lp1561
g1412
aI0
aF1072.006983843545
aI100
aI830213
aI1432719898
aa(lp1562
g1412
aI1
aF11.413420342869566
aI100
aI830238
aI1432720037
aa(lp1563
g1412
aI1
aF1.0
aI100
aI830138
aI1432720287
aa(lp1564
g1412
aI1
aF9.729879109938425
aI100
aI830156
aI1432720429
aa(lp1565
g1412
aI0
aF3264125.8887870973
aI8301
aI830174
aI1432720583
aa(lp1566
g1412
aI1
aF1.0
aI100
aI832596
aI1432720710
aa(lp1567
g1412
aI0
aF230.42184928863134
aI100
aI832616
aI1432720923
aa(lp1568
g1412
aI1
aF3.325178503471312
aI100
aI832684
aI1432721106
aa(lp1569
g1412
aI1
aF166331.50623018004
aI8325
aI832584
aI1432721236
aa(lp1570
g1412
aI0
aF1.0
aI100
aI839545
aI1432721387
aa(lp1571
g1412
aI0
aF174.2756268694564
aI100
aI839686
aI1432721522
aa(lp1572
g1412
aI0
aF1.0180307673236548
aI100
aI839586
aI1432721758
aa(lp1573
g1412
aI1
aF9.585498301200138
aI100
aI839486
aI1432722052
aa(lp1574
g1412
aI1
aF334.6182439293751
aI100
aI839818
aI1432722324
aa(lp1575
g1412
aI0
aF73.72939530628388
aI100
aI839718
aI1432722478
aa(lp1576
g1412
aI0
aF5.304703096875725
aI100
aI839618
aI1432722674
aa(lp1577
g1412
aI1
aF2.8301658135029184
aI100
aI839518
aI1432722914
aa(lp1578
g1412
aI1
aF2705.5824473541707
aI100
aI839557
aI1432723055
aa(lp1579
g1412
aI1
aF1.0
aI100
aI839569
aI1432723186
aa(lp1580
g1412
aI0
aF1193713.6690329607
aI8395
aI839579
aI1432723323
aa(lp1581
g1412
aI1
aF406.15843368652304
aI100
aI839661
aI1432723464
aa(lp1582
g1412
aI1
aF11.939328918620308
aI100
aI839676
aI1432723601
aa(lp1583
g1412
aI1
aF122.45258263780062
aI100
aI839576
aI1432723800
aa(lp1584
g1412
aI0
aF3.761701346747691
aI100
aI839626
aI1432723997
aa(lp1585
g1412
aI0
aF48.6170988319851
aI100
aI839526
aI1432724163
aa(lp1586
g1412
aI1
aF1.4935054655730082
aI100
aI839426
aI1432724386
aa(lp1587
g1412
aI0
aF1.0
aI100
aI839445
aI1432724540
aa(lp1588
g1412
aI1
aF1.3876467216010715
aI100
aI839453
aI1432724673
aa(lp1589
g1412
aI1
aF2.628292776292011
aI100
aI839353
aI1432724827
aa(lp1590
g1412
aI0
aF114207.31656930613
aI100
aI839370
aI1432724974
aa(lp1591
g1412
aI1
aF1.0
aI100
aI839270
aI1432725093
aa(lp1592
g1412
aI0
aF1.0
aI100
aI839319
aI1432725283
aa(lp1593
g1412
aI1
aF34271.7279197993
aI100
aI839338
aI1432725699
aa(lp1594
g1412
aI0
aF741.2202815583142
aI100
aI839238
aI1432725838
aa(lp1595
g1412
aI0
aF26503.501005202288
aI100
aI839138
aI1432726033
aa(lp1596
g1412
aI1
aF3557.578973628772
aI100
aI839038
aI1432726130
aa(lp1597
g1412
aI0
aF1.0
aI100
aI839284
aI1432726293
aa(lp1598
g1412
aI1
aF1272.3623226662694
aI100
aI839184
aI1432726527
aa(lp1599
g1412
aI1
aF19298.913998698903
aI100
aI839235
aI1432726824
aa(lp1600
g1412
aI0
aF8.250327804717017
aI100
aI839252
aI1432726956
aa(lp1601
g1412
aI1
aF13631258.739954688
aI8392
aI839297
aI1432727120
aa(lp1602
g1412
aI0
aF1.8697351767668051
aI100
aI840147
aI1432727472
aa(lp1603
g1412
aI0
aF4.258070096683651
aI100
aI840158
aI1432727652
aa(lp1604
g1412
aI0
aF1.0
aI100
aI840058
aI1432727803
aa(lp1605
g1412
aI0
aF5753.733745063315
aI100
aI840110
aI1432728006
aa(lp1606
g1412
aI0
aF1.8516474698629726
aI100
aI840150
aI1432728246
aa(lp1607
g1412
aI1
aF20.225457415424337
aI100
aI840243
aI1432728407
aa(lp1608
g1412
aI0
aF17.582538333643157
aI100
aI840259
aI1432728622
aa(lp1609
g1412
aI1
aF1.0
aI100
aI840280
aI1432728811
aa(lp1610
g1412
aI1
aF91.25731743186033
aI100
aI840180
aI1432729049
aa(lp1611
g1412
aI1
aF174731.632080957
aI8400
aI840080
aI1432729191
aa(lp1612
g1412
aI1
aF1.0
aI100
aI831680
aI1432729408
aa(lp1613
g1412
aI0
aF107.8916955001079
aI100
aI831580
aI1432729567
aa(lp1614
g1412
aI1
aF382.9639654073385
aI100
aI831480
aI1432729699
aa(lp1615
g1412
aI0
aF1.0
aI100
aI831497
aI1432730177
aa(lp1616
g1412
aI0
aF10.56103583918331
aI100
aI831581
aI1432730540
aa(lp1617
g1497
aI1
aF1.9926586262638706
aI1500
aI1500
aI1432730809
aa(lp1618
g1497
aI0
aF17251637.645010773
aI1395
aI2790
aI1432730944
aa(lp1619
g1497
aI1
aF1.0
aI1691
aI3383
aI1432731090
aa(lp1620
g1497
aI0
aF716.9414126910335
aI2017
aI4035
aI1432731296
aa(lp1621
g1497
aI1
aF558.0754773254486
aI1009
aI2018
aI1432731518
aa(lp1622
g1497
aI1
aF3.430597886637979
aI2027
aI4054
aI1432731699
aa(lp1623
g1497
aI1
aF1.0
aI1013
aI2027
aI1432731907
aa(lp1624
g1497
aI1
aF8.168960428142526
aI1089
aI2178
aI1432732124
aa(lp1625
g1497
aI1
aF918890.1514006896
aI1427
aI2855
aI1432732296
aa(lp1626
g1497
aI0
aF1.0
aI1544
aI3089
aI1432732482
aa(lp1627
g1497
aI0
aF431.62348978160844
aI1545
aI1545
aI1432732645
aa(lp1628
g1497
aI0
aF1.0
aI3023
aI6046
aI1432732857
aa(lp1629
g1497
aI0
aF7873696.213976556
aI3816
aI7633
aI1432733115
aa(lp1630
g1497
aI0
aF1.0
aI4326
aI8653
aI1432733317
aa(lp1631
g1497
aI0
aF1.0
aI2163
aI4327
aI1432733531
aa(lp1632
g1513
aI1
aF14.536117999158112
aI1
aI833766
aI1432734387
aa(lp1633
g1513
aI0
aF1.0247467293707542
aI1
aI833767
aI1432734909
aa(lp1634
g1513
aI0
aF47.06784722735363
aI1
aI833770
aI1432735241
aa(lp1635
g1513
aI0
aF74.45208818715184
aI1
aI833770
aI1432735824
aa(lp1636
g1513
aI1
aF331.58385856304164
aI1
aI833771
aI1432735925
aa(lp1637
g1513
aI1
aF5.300592139781487
aI1
aI833774
aI1432736159
aa(lp1638
g1513
aI1
aF6.888344345135497
aI1
aI833773
aI1432736271
aa(lp1639
g1513
aI0
aF1.0
aI1
aI833777
aI1432737076
aa(lp1640
g1513
aI0
aF114.46465559769706
aI1
aI833778
aI1432737223
aa(lp1641
g1513
aI1
aF555.3928696739315
aI1
aI833777
aI1432737658
aa(lp1642
g1412
aI0
aF2561.6901822106065
aI100
aI833776
aI1432738121
aa(lp1643
g1412
aI0
aF49433.87942881261
aI100
aI833779
aI1432738243
aa(lp1644
g1412
aI1
aF36.28063137729184
aI100
aI833854
aI1432738427
aa(lp1645
g1412
aI0
aF3872.466413410086
aI100
aI833996
aI1432738590
aa(lp1646
g1412
aI1
aF1.0
aI100
aI833896
aI1432738803
aa(lp1647
g1412
aI1
aF1.0
aI100
aI833909
aI1432738986
aa(lp1648
g1412
aI0
aF23.5395672362225
aI100
aI833809
aI1432739214
aa(lp1649
g1412
aI1
aF451.79021963360884
aI100
aI833841
aI1432739395
aa(lp1650
g1412
aI0
aF117.18910341590988
aI100
aI833978
aI1432739597
aa(lp1651
g1412
aI0
aF61.40215081487263
aI100
aI833980
aI1432739751
aa(lp1652
g1412
aI1
aF3144.579402996226
aI100
aI833986
aI1432739938
aa(lp1653
g1412
aI1
aF2.5198254931040007
aI100
aI833886
aI1432740123
aa(lp1654
g1412
aI0
aF1.2838935039662807
aI100
aI833954
aI1432740322
aa(lp1655
g1412
aI1
aF1.1817164778436102
aI100
aI833854
aI1432740460
aa(lp1656
g1412
aI1
aF400123.14854956453
aI8337
aI833754
aI1432740626
aa(lp1657
g1412
aI1
aF1.6581687488762635
aI100
aI837776
aI1432740845
aa(lp1658
g1412
aI0
aF1.3235456178761114
aI100
aI837787
aI1432741002
aa(lp1659
g1412
aI1
aF1.0
aI100
aI837687
aI1432741180
aa(lp1660
g1412
aI1
aF1.395360974759629
aI100
aI837813
aI1432741317
aa(lp1661
g1412
aI1
aF102.22689317571366
aI100
aI838110
aI1432741636
aa(lp1662
g1412
aI0
aF328.08311719548226
aI100
aI838010
aI1432741786
aa(lp1663
g1412
aI1
aF440.51109135398815
aI100
aI838136
aI1432741993
aa(lp1664
g1412
aI0
aF1.1047962042737969
aI100
aI838195
aI1432742140
aa(lp1665
g1412
aI0
aF25.718981589133627
aI100
aI838220
aI1432742318
aa(lp1666
g1412
aI0
aF1.0076202185475616
aI100
aI838255
aI1432742503
aa(lp1667
g1412
aI0
aF2789.342789509818
aI100
aI838155
aI1432742678
aa(lp1668
g1412
aI1
aF4.523779634968509
aI100
aI838161
aI1432742857
aa(lp1669
g1412
aI0
aF9.624795241125941
aI100
aI838612
aI1432743033
aa(lp1670
g1412
aI1
aF9.156125877494427
aI100
aI838619
aI1432743176
aa(lp1671
g1412
aI0
aF1.0
aI100
aI838519
aI1432743433
aa(lp1672
g1412
aI1
aF1.0
aI100
aI838419
aI1432743645
aa(lp1673
g1412
aI1
aF3.1263652503351853
aI100
aI838459
aI1432743812
aa(lp1674
g1412
aI1
aF1.0
aI100
aI838473
aI1432743934
aa(lp1675
g1412
aI1
aF47.071637854174554
aI100
aI838538
aI1432744076
aa(lp1676
g1412
aI1
aF1.0
aI100
aI838556
aI1432744201
aa(lp1677
g1412
aI0
aF282.15953434416497
aI100
aI838634
aI1432744356
aa(lp1678
g1412
aI1
aF1.0
aI100
aI838649
aI1432744530
aa(lp1679
g1412
aI1
aF10.603219193342776
aI100
aI838549
aI1432744730
aa(lp1680
g1412
aI1
aF1160.72533079096
aI100
aI838579
aI1432744876
aa(lp1681
g1412
aI0
aF1331.5071738707468
aI100
aI838591
aI1432744990
aa(lp1682
g1412
aI1
aF103.91892597288754
aI100
aI838611
aI1432745111
aa(lp1683
g1412
aI0
aF13.03646043238812
aI100
aI838680
aI1432745260
aa(lp1684
g1412
aI0
aF1.0
aI100
aI838580
aI1432745458
aa(lp1685
g1412
aI0
aF18.92544079780458
aI100
aI838480
aI1432745693
aa(lp1686
g1412
aI1
aF3083.4600979704774
aI100
aI838558
aI1432745826
aa(lp1687
g1412
aI0
aF5.055991057912482
aI100
aI838458
aI1432745998
aa(lp1688
g1412
aI1
aF73.09152786053413
aI100
aI838358
aI1432746156
aa(lp1689
g1412
aI0
aF2.68046075256346
aI100
aI838258
aI1432746343
aa(lp1690
g1412
aI0
aF1.0
aI100
aI838158
aI1432746502
aa(lp1691
g1412
aI1
aF1.0
aI100
aI838058
aI1432746714
aa(lp1692
g1412
aI0
aF5.172393103339458
aI100
aI838074
aI1432747048
aa(lp1693
g1412
aI1
aF1.0
aI100
aI838085
aI1432747198
aa(lp1694
g1412
aI1
aF1.6791554629618386
aI100
aI837985
aI1432747575
aa(lp1695
g1412
aI0
aF11213.980097384225
aI100
aI837885
aI1432747730
aa(lp1696
g1412
aI0
aF1.0714335965359276
aI100
aI837785
aI1432747867
aa(lp1697
g1412
aI1
aF65.6005033927306
aI100
aI837820
aI1432748022
aa(lp1698
g1412
aI0
aF377.3698006555702
aI100
aI837894
aI1432748193
aa(lp1699
g1412
aI1
aF41.99956644028495
aI100
aI837907
aI1432748362
aa(lp1700
g1412
aI0
aF94.63877125332056
aI100
aI837940
aI1432748477
aa(lp1701
g1412
aI1
aF2.286339773881923
aI100
aI837973
aI1432748632
aa(lp1702
g1412
aI0
aF1.8661197841350037
aI100
aI837873
aI1432748784
aa(lp1703
g1412
aI0
aF1.0
aI100
aI837910
aI1432749073
aa(lp1704
g1412
aI0
aF1.1453332727368601
aI100
aI837923
aI1432749212
aa(lp1705
g1412
aI1
aF33.373507153889804
aI100
aI837969
aI1432749608
aa(lp1706
g1412
aI0
aF60.992345900722064
aI100
aI838025
aI1432749779
aa(lp1707
g1412
aI0
aF1.742362831471235
aI100
aI837925
aI1432750015
aa(lp1708
g1412
aI1
aF13645.635096804494
aI100
aI838405
aI1432750258
aa(lp1709
g1412
aI1
aF37.22829921010681
aI100
aI838426
aI1432750381
aa(lp1710
g1412
aI0
aF1.0
aI100
aI838326
aI1432750494
aa(lp1711
g1412
aI1
aF600.4608150646835
aI100
aI838226
aI1432750742
aa(lp1712
g1412
aI0
aF6610.334283546352
aI100
aI838126
aI1432750943
aa(lp1713
g1412
aI1
aF24.427271769502344
aI100
aI838130
aI1432751173
aa(lp1714
g1412
aI1
aF2.1730868205585057
aI100
aI838030
aI1432751339
aa(lp1715
g1412
aI1
aF1.0
aI100
aI837930
aI1432751569
aa(lp1716
g1412
aI1
aF1.0
aI100
aI838112
aI1432751701
aa(lp1717
g1412
aI1
aF3650.505869042561
aI100
aI838962
aI1432751880
aa(lp1718
g1412
aI1
aF211.3241632304423
aI100
aI838975
aI1432752067
aa(lp1719
g1412
aI1
aF1.2692493283428132
aI100
aI839735
aI1432752246
aa(lp1720
g1412
aI0
aF1.340094981098958
aI100
aI840099
aI1432752470
aa(lp1721
g1412
aI0
aF4898220.557980649
aI8399
aI839999
aI1432752822
aa(lp1722
g1412
aI1
aF1.4615904086141642
aI100
aI840964
aI1432752962
aa(lp1723
g1412
aI1
aF190.2438868953815
aI100
aI841006
aI1432753318
aa(lp1724
g1412
aI1
aF471.88193361190184
aI100
aI841282
aI1432753440
aa(lp1725
g1412
aI1
aF336.9795311560827
aI100
aI841182
aI1432753556
aa(lp1726
g1412
aI0
aF1.0545097760217448
aI100
aI841204
aI1432753716
aa(lp1727
g1412
aI0
aF4808.512332640169
aI100
aI841282
aI1432753959
aa(lp1728
g1412
aI0
aF1.0
aI100
aI841182
aI1432754244
aa(lp1729
g1412
aI1
aF90.68234769198241
aI100
aI841864
aI1432754372
aa(lp1730
g1412
aI1
aF1.3998373827688035
aI100
aI841886
aI1432754577
aa(lp1731
g1412
aI1
aF724.0923683091928
aI100
aI841786
aI1432754799
aa(lp1732
g1412
aI0
aF1.0
aI100
aI841830
aI1432754962
aa(lp1733
g1412
aI1
aF1.0
aI100
aI841852
aI1432755086
aa(lp1734
g1412
aI1
aF2.9690685940266914
aI100
aI841752
aI1432755215
aa(lp1735
g1497
aI0
aF234.94583381937775
aI1500
aI1500
aI1432755430
aa(lp1736
g1497
aI0
aF28.379161410707948
aI1805
aI3610
aI1432755582
aa(lp1737
g1497
aI1
aF160622515.8853562
aI2811
aI5623
aI1432755748
aa(lp1738
g1497
aI0
aF33988.68670823019
aI2989
aI5979
aI1432755873
aa(lp1739
g1497
aI1
aF657.4982267199337
aI1495
aI2990
aI1432756057
aa(lp1740
g1497
aI1
aF16.618221668767987
aI2513
aI5027
aI1432756200
aa(lp1741
g1497
aI0
aF488633.48069397314
aI1257
aI2514
aI1432756374
aa(lp1742
g1497
aI1
aF2661.6543057071026
aI1434
aI2869
aI1432756486
aa(lp1743
g1497
aI0
aF25.562884875751838
aI2041
aI4083
aI1432756683
aa(lp1744
g1497
aI0
aF112259.58165594791
aI2726
aI5453
aI1432756795
aa(lp1745
g1497
aI1
aF3.3782726752918233
aI2956
aI5913
aI1432756981
aa(lp1746
g1497
aI0
aF19435.92850099704
aI3222
aI6445
aI1432757166
aa(lp1747
g1497
aI1
aF12.070535773402845
aI3490
aI6981
aI1432757278
aa(lp1748
g1497
aI1
aF9.632566652204785
aI4042
aI8084
aI1432757429
aa(lp1749
g1497
aI1
aF2.9052176304117223
aI8012
aI16025
aI1432757564
aa(lp1750
g1513
aI1
aF2.263880369143127
aI1
aI849665
aI1432758041
aa(lp1751
g1513
aI1
aF3.0621086637183907
aI1
aI849668
aI1432758596
aa(lp1752
g1513
aI1
aF15.306019709681904
aI1
aI849667
aI1432758722
aa(lp1753
g1513
aI0
aF264.02479667023266
aI1
aI849666
aI1432758908
aa(lp1754
g1513
aI1
aF1.868892162089728
aI1
aI849668
aI1432759858
aa(lp1755
g1513
aI1
aF1.0
aI1
aI849667
aI1432760595
aa(lp1756
g1513
aI0
aF1.0
aI1
aI849666
aI1432760931
aa(lp1757
g1513
aI0
aF1.6018654635329925
aI1
aI849667
aI1432761149
aa(lp1758
g1513
aI0
aF159.33079987827728
aI1
aI849666
aI1432761435
aa(lp1759
g1412
aI0
aF2.315020210999508
aI100
aI849665
aI1432761684
aa(lp1760
g1412
aI0
aF1.0
aI100
aI849565
aI1432761809
aa(lp1761
g1412
aI1
aF1.6651288861262628
aI100
aI849577
aI1432761997
aa(lp1762
g1412
aI1
aF8.728396067976256
aI100
aI849601
aI1432762144
aa(lp1763
g1412
aI0
aF128.36962033774356
aI100
aI849501
aI1432762323
aa(lp1764
g1412
aI0
aF40.30711491823215
aI100
aI849539
aI1432762563
aa(lp1765
g1412
aI1
aF4.247891311386011
aI100
aI849439
aI1432762720
aa(lp1766
g1412
aI1
aF1.8453104961905555
aI100
aI849667
aI1432762909
aa(lp1767
g1412
aI1
aF643.5265345679934
aI100
aI849710
aI1432763063
aa(lp1768
g1412
aI1
aF3.6154992479258183
aI100
aI849718
aI1432763212
aa(lp1769
g1412
aI1
aF41.62659982851122
aI100
aI849898
aI1432763371
aa(lp1770
g1412
aI1
aF83.44449174252
aI100
aI850134
aI1432763730
aa(lp1771
g1412
aI1
aF226.3594171580905
aI100
aI850161
aI1432763992
aa(lp1772
g1412
aI1
aF1.0
aI100
aI850165
aI1432764121
aa(lp1773
g1412
aI0
aF4.696987896100761
aI100
aI850729
aI1432764363
aa(lp1774
g1412
aI1
aF15019.811811115731
aI100
aI850629
aI1432764534
aa(lp1775
g1412
aI1
aF1.3150376708053477
aI100
aI850666
aI1432764777
aa(lp1776
g1412
aI0
aF1.0
aI100
aI850794
aI1432764946
aa(lp1777
g1412
aI0
aF1839.993383971556
aI100
aI850816
aI1432765085
aa(lp1778
g1412
aI0
aF3661.142086310316
aI100
aI850716
aI1432765208
aa(lp1779
g1412
aI0
aF1.0
aI100
aI850739
aI1432765681
aa(lp1780
g1412
aI1
aF7.59235210634318
aI100
aI851053
aI1432765923
aa(lp1781
g1412
aI1
aF1.0
aI100
aI851083
aI1432766118
aa(lp1782
g1412
aI1
aF34.303367317363296
aI100
aI851124
aI1432766276
aa(lp1783
g1412
aI1
aF18081.798130729796
aI100
aI851129
aI1432766421
aa(lp1784
g1412
aI1
aF1332.7226860997337
aI100
aI851146
aI1432766566
aa(lp1785
g1412
aI1
aF11.832985174138239
aI100
aI851200
aI1432766728
aa(lp1786
g1412
aI1
aF701821255.861914
aI8511
aI851100
aI1432766867
aa(lp1787
g1412
aI1
aF513.8037035316786
aI100
aI859440
aI1432767079
aa(lp1788
g1412
aI0
aF1.0
aI100
aI859493
aI1432767244
aa(lp1789
g1412
aI1
aF1.0
aI100
aI859527
aI1432767403
aa(lp1790
g1412
aI0
aF34491.4445289728
aI100
aI859427
aI1432767574
aa(lp1791
g1412
aI1
aF4.783191308173213
aI100
aI859431
aI1432767725
aa(lp1792
g1412
aI0
aF1.609152686600911
aI100
aI859331
aI1432767840
aa(lp1793
g1412
aI0
aF290939.07974433707
aI8593
aI859347
aI1432768019
aa(lp1794
g1412
aI0
aF1.3056578679290838
aI100
aI864244
aI1432768170
aa(lp1795
g1412
aI0
aF2.9397809949491673
aI100
aI864293
aI1432768333
aa(lp1796
g1412
aI1
aF9302.165488074
aI100
aI864193
aI1432768496
aa(lp1797
g1412
aI0
aF1.7582992685501102
aI100
aI864093
aI1432768700
aa(lp1798
g1412
aI1
aF2331615.7393163308
aI8641
aI864108
aI1432768817
aa(lp1799
g1412
aI0
aF2.6273354674045857
aI100
aI865682
aI1432768979
aa(lp1800
g1412
aI0
aF38.84367108992494
aI100
aI865719
aI1432769196
aa(lp1801
g1412
aI1
aF1008.2463609710077
aI100
aI865619
aI1432769454
aa(lp1802
g1412
aI0
aF1.0
aI100
aI865519
aI1432769588
aa(lp1803
g1412
aI1
aF1.0092159156684934
aI100
aI865419
aI1432769792
aa(lp1804
g1412
aI1
aF1.0
aI100
aI865319
aI1432769980
aa(lp1805
g1412
aI1
aF15.608663233384204
aI100
aI865219
aI1432770078
aa(lp1806
g1412
aI1
aF1.7885652965999825
aI100
aI865274
aI1432770389
aa(lp1807
g1412
aI0
aF126760090.94980735
aI8651
aI865174
aI1432770880
aa(lp1808
g1412
aI0
aF1.0
aI100
aI856523
aI1432771036
aa(lp1809
g1412
aI0
aF126.9985986592347
aI100
aI856672
aI1432771298
aa(lp1810
g1412
aI0
aF1.0
aI100
aI856932
aI1432771422
aa(lp1811
g1412
aI0
aF313.81883181557936
aI100
aI856832
aI1432771621
aa(lp1812
g1412
aI1
aF3.290028903670074
aI100
aI856836
aI1432771998
aa(lp1813
g1412
aI0
aF9.009663450734623
aI100
aI857433
aI1432772160
aa(lp1814
g1412
aI1
aF1.0
aI100
aI857333
aI1432772347
aa(lp1815
g1412
aI0
aF1.7920879997853603
aI100
aI857233
aI1432772565
aa(lp1816
g1412
aI1
aF1.134610713920039
aI100
aI857306
aI1432772725
aa(lp1817
g1412
aI1
aF217527.5578134217
aI8574
aI857449
aI1432772908
aa(lp1818
g1412
aI1
aF680.9190342236193
aI100
aI861229
aI1432773052
aa(lp1819
g1412
aI0
aF2.581609911905643
aI100
aI861312
aI1432773199
aa(lp1820
g1412
aI0
aF2.2843963663113467
aI100
aI861322
aI1432773346
aa(lp1821
g1412
aI1
aF1.0
aI100
aI861222
aI1432773566
aa(lp1822
g1412
aI1
aF82.87010931502337
aI100
aI861242
aI1432773779
aa(lp1823
g1412
aI1
aF4.485568679277582
aI100
aI861250
aI1432774021
aa(lp1824
g1412
aI1
aF2.145391400984011
aI100
aI861335
aI1432774177
aa(lp1825
g1412
aI0
aF5.505647591929792
aI100
aI861386
aI1432774300
aa(lp1826
g1412
aI0
aF5.999086350608786
aI100
aI862569
aI1432774414
aa(lp1827
g1412
aI1
aF14865.76482621653
aI100
aI862588
aI1432774609
aa(lp1828
g1412
aI0
aF18.331294496820597
aI100
aI862618
aI1432774770
aa(lp1829
g1412
aI0
aF10.226694867283934
aI100
aI862666
aI1432774991
aa(lp1830
g1412
aI1
aF20.855151881759593
aI100
aI862695
aI1432775125
aa(lp1831
g1412
aI0
aF1.0
aI100
aI862595
aI1432775267
aa(lp1832
g1412
aI1
aF3.6187100111919097
aI100
aI863423
aI1432775465
aa(lp1833
g1412
aI1
aF1.0
aI100
aI863323
aI1432775769
aa(lp1834
g1412
aI1
aF1.0
aI100
aI863339
aI1432776001
aa(lp1835
g1412
aI0
aF1.0
aI100
aI863239
aI1432776111
aa(lp1836
g1412
aI1
aF904.8522238886577
aI100
aI863254
aI1432776216
aa(lp1837
g1412
aI1
aF13.186246941879109
aI100
aI863154
aI1432776406
aa(lp1838
g1412
aI0
aF40.2341133468087
aI100
aI863166
aI1432776595
aa(lp1839
g1412
aI0
aF80.96669017903551
aI100
aI863178
aI1432776721
aa(lp1840
g1412
aI1
aF1.0014425240940117
aI100
aI863188
aI1432776874
aa(lp1841
g1412
aI1
aF40.855988696574656
aI100
aI863088
aI1432777007
aa(lp1842
g1412
aI1
aF1054.5480234166748
aI100
aI863108
aI1432777156
aa(lp1843
g1412
aI0
aF51.12973319849044
aI100
aI863209
aI1432777342
aa(lp1844
g1412
aI0
aF1.0671772903825374
aI100
aI863279
aI1432777480
aa(lp1845
g1412
aI0
aF1.0
aI100
aI863179
aI1432777638
aa(lp1846
g1412
aI1
aF12.071734060212128
aI100
aI863179
aI1432777749
aa(lp1847
g1412
aI1
aF3.767494451087317
aI100
aI863384
aI1432777934
aa(lp1848
g1412
aI1
aF3.036265454504954
aI100
aI863284
aI1432778095
aa(lp1849
g1412
aI0
aF3.3526476569193426
aI100
aI863184
aI1432778367
aa(lp1850
g1412
aI1
aF2036790.2930239327
aI8630
aI863084
aI1432778546
aa(lp1851
g1497
aI0
aF2.5924076525048676
aI1000
aI1000
aI1432779083
aa(lp1852
g1497
aI1
aF1.0
aI1169
aI2339
aI1432779220
aa(lp1853
g1497
aI0
aF1.0
aI1500
aI1500
aI1432779408
aa(lp1854
g1497
aI1
aF1.0
aI1359
aI2719
aI1432779726
aa(lp1855
g1497
aI1
aF21049.504565036597
aI1905
aI3811
aI1432780225
aa(lp1856
g1497
aI0
aF367.3526351889773
aI1906
aI1906
aI1432780515
aa(lp1857
g1497
aI0
aF3.512554866164448
aI1500
aI1500
aI1432780685
aa(lp1858
g1497
aI0
aF1.0
aI1131
aI2263
aI1432780982
aa(lp1859
g1497
aI1
aF46.93371394614514
aI1500
aI1500
aI1432781142
aa(lp1860
g1497
aI0
aF1.0
aI1616
aI1616
aI1432781262
aa(lp1861
g1497
aI0
aF1.0
aI1500
aI1500
aI1432781394
aa(lp1862
g1497
aI0
aF1.0
aI1500
aI1500
aI1432781556
aa(lp1863
g1513
aI1
aF574.5716626362465
aI1
aI872765
aI1432782327
aa(lp1864
g1513
aI1
aF1.9846429098180092
aI1
aI872764
aI1432783146
aa(lp1865
g1513
aI1
aF1.0435261127132593
aI1
aI872763
aI1432784649
aa(lp1866
g1513
aI0
aF3.1284194493679562
aI1
aI872762
aI1432784903
aa(lp1867
g1513
aI1
aF25.49974904030937
aI1
aI872763
aI1432785018
aa(lp1868
g1513
aI0
aF1.2200495992354063
aI1
aI872762
aI1432785139
aa(lp1869
g1513
aI1
aF1.0
aI1
aI872761
aI1432785260
aa(lp1870
g1412
aI1
aF1.2881129609636779
aI100
aI872760
aI1432785458
aa(lp1871
g1412
aI1
aF12189.589548415064
aI100
aI872660
aI1432785700
aa(lp1872
g1412
aI0
aF1.0
aI100
aI872560
aI1432785962
aa(lp1873
g1412
aI0
aF2149.2109510075798
aI100
aI872598
aI1432786116
aa(lp1874
g1412
aI0
aF100.75534407539234
aI100
aI872607
aI1432786277
aa(lp1875
g1412
aI0
aF1.2248099958866363
aI100
aI872507
aI1432786429
aa(lp1876
g1412
aI1
aF549.8346217192427
aI100
aI872407
aI1432786911
aa(lp1877
g1412
aI0
aF35.387773392441396
aI100
aI872307
aI1432787037
aa(lp1878
g1412
aI0
aF28.010999042157707
aI100
aI872207
aI1432787261
aa(lp1879
g1412
aI0
aF2.2182047364286643
aI100
aI872592
aI1432787492
aa(lp1880
g1412
aI1
aF1.0
aI100
aI872592
aI1432787750
aa(lp1881
g1412
aI0
aF41.00567526774627
aI100
aI872618
aI1432787884
aa(lp1882
g1412
aI0
aF7.458746900624485
aI100
aI872518
aI1432788113
aa(lp1883
g1412
aI0
aF1.0
aI100
aI872656
aI1432788548
aa(lp1884
g1412
aI0
aF1.0
aI100
aI872666
aI1432788740
aa(lp1885
g1412
aI0
aF1.1059098953963002
aI100
aI872566
aI1432788959
aa(lp1886
g1412
aI0
aF45574.545067636296
aI100
aI872581
aI1432789150
aa(lp1887
g1412
aI1
aF3940.427854981969
aI100
aI872596
aI1432789495
aa(lp1888
g1412
aI0
aF1.3708121178996984
aI100
aI872496
aI1432789652
aa(lp1889
g1412
aI1
aF1.4806586878860575
aI100
aI872396
aI1432789795
aa(lp1890
g1412
aI1
aF1.4399419007771572
aI100
aI872793
aI1432790110
aa(lp1891
g1412
aI0
aF1.0
aI100
aI873100
aI1432790277
aa(lp1892
g1412
aI0
aF1.0
aI100
aI873118
aI1432790400
aa(lp1893
g1412
aI0
aF1776.5366884153123
aI100
aI873018
aI1432790664
aa(lp1894
g1412
aI0
aF1524161.2490769527
aI8730
aI873037
aI1432791105
aa(lp1895
g1412
aI0
aF1044.0480526664871
aI100
aI864307
aI1432791312
aa(lp1896
g1412
aI0
aF7.756934022531542
aI100
aI864311
aI1432791423
aa(lp1897
g1412
aI1
aF1273.2464515666336
aI100
aI864386
aI1432791621
aa(lp1898
g1412
aI0
aF1757.2134541123357
aI100
aI864397
aI1432791777
aa(lp1899
g1412
aI1
aF5.473175364054501
aI100
aI864417
aI1432791894
aa(lp1900
g1412
aI0
aF1.0
aI100
aI864491
aI1432792051
aa(lp1901
g1412
aI1
aF1.0858338488861534
aI100
aI864567
aI1432792152
aa(lp1902
g1412
aI1
aF8.62996366766992
aI100
aI864592
aI1432792372
aa(lp1903
g1412
aI1
aF1.3914313150653468
aI100
aI864599
aI1432792564
aa(lp1904
g1412
aI1
aF12774.705528816186
aI100
aI864610
aI1432792719
aa(lp1905
g1412
aI1
aF233.28733279317453
aI100
aI864510
aI1432792897
aa(lp1906
g1412
aI0
aF1.0
aI100
aI864736
aI1432793333
aa(lp1907
g1412
aI1
aF1.0
aI100
aI864636
aI1432793439
aa(lp1908
g1412
aI1
aF1.1312758366789581
aI100
aI864536
aI1432793649
aa(lp1909
g1412
aI0
aF8.030130269696734
aI100
aI864610
aI1432793996
aa(lp1910
g1412
aI1
aF1.1002552699355237
aI100
aI864510
aI1432794143
aa(lp1911
g1412
aI0
aF1.0
aI100
aI864410
aI1432794279
aa(lp1912
g1412
aI0
aF190.35863769179545
aI100
aI864310
aI1432794393
aa(lp1913
g1412
aI0
aF4.420842957716286
aI100
aI864210
aI1432794574
aa(lp1914
g1412
aI1
aF1.0
aI100
aI864110
aI1432794798
aa(lp1915
g1412
aI1
aF6.707826985892976
aI100
aI864126
aI1432794931
aa(lp1916
g1412
aI1
aF1.0743349255131398
aI100
aI864026
aI1432795115
aa(lp1917
g1412
aI1
aF3701.3224892248313
aI100
aI863926
aI1432795221
aa(lp1918
g1412
aI1
aF1.06492796185639
aI100
aI863968
aI1432795408
aa(lp1919
g1412
aI1
aF511.96249708892447
aI100
aI863868
aI1432795529
aa(lp1920
g1412
aI0
aF8691181.478154773
aI8637
aI863768
aI1432795705
aa(lp1921
g1412
aI0
aF1.0
aI100
aI866847
aI1432795829
aa(lp1922
g1412
aI1
aF8.021272638912787
aI100
aI866747
aI1432796049
aa(lp1923
g1412
aI1
aF1.0
aI100
aI866793
aI1432796233
aa(lp1924
g1412
aI1
aF1.0
aI100
aI866693
aI1432796344
aa(lp1925
g1412
aI1
aF1.0
aI100
aI866593
aI1432796609
aa(lp1926
g1412
aI1
aF1.0
aI100
aI866646
aI1432796761
aa(lp1927
g1412
aI1
aF1.0
aI100
aI866546
aI1432797075
aa(lp1928
g1412
aI0
aF7.28477196873483
aI100
aI866446
aI1432797294
aa(lp1929
g1412
aI1
aF1.0
aI100
aI866537
aI1432797456
aa(lp1930
g1412
aI0
aF1.0
aI100
aI866576
aI1432797600
aa(lp1931
g1412
aI0
aF1.0
aI100
aI866655
aI1432797840
aa(lp1932
g1412
aI1
aF783652484.6499835
aI8666
aI866679
aI1432798008
aa(lp1933
g1412
aI1
aF12167.963618061465
aI100
aI877846
aI1432798344
aa(lp1934
g1412
aI1
aF285.4801127314247
aI100
aI877746
aI1432798519
aa(lp1935
g1412
aI1
aF1.0
aI100
aI877878
aI1432798792
aa(lp1936
g1412
aI0
aF6979.106466356618
aI100
aI877890
aI1432799012
aa(lp1937
g1412
aI1
aF1.0
aI100
aI877790
aI1432799150
aa(lp1938
g1412
aI1
aF2.252611853709226
aI100
aI877690
aI1432799419
aa(lp1939
g1412
aI1
aF269445.76922127523
aI8775
aI877590
aI1432799557
aa(lp1940
g1412
aI0
aF1.0
aI100
aI878359
aI1432800003
aa(lp1941
g1412
aI1
aF5.08222274217881
aI100
aI878367
aI1432800170
aa(lp1942
g1412
aI1
aF1.0
aI100
aI878375
aI1432800365
aa(lp1943
g1412
aI0
aF317.95776713391535
aI100
aI878275
aI1432800567
aa(lp1944
g1412
aI0
aF1.3975924359192935
aI100
aI878286
aI1432800790
aa(lp1945
g1412
aI1
aF1.0
aI100
aI878186
aI1432800926
aa(lp1946
g1412
aI0
aF23.60055140011184
aI100
aI878204
aI1432801091
aa(lp1947
g1412
aI0
aF1.0
aI100
aI878104
aI1432801275
aa(lp1948
g1412
aI0
aF1.0
aI100
aI878120
aI1432801420
aa(lp1949
g1412
aI1
aF54.39693576345975
aI100
aI878020
aI1432801550
aa(lp1950
g1412
aI1
aF118.97559981024334
aI100
aI878054
aI1432801746
aa(lp1951
g1412
aI0
aF1.0
aI100
aI877954
aI1432801915
aa(lp1952
g1412
aI1
aF5.555949333736205
aI100
aI877970
aI1432802060
aa(lp1953
g1412
aI1
aF1.0
aI100
aI877870
aI1432802212
aa(lp1954
g1412
aI0
aF3.1156170410636275
aI100
aI877770
aI1432802556
aa(lp1955
g1497
aI0
aF606.2668058186318
aI1500
aI1500
aI1432802862
aa(lp1956
g1497
aI1
aF11.226720097632843
aI1150
aI2300
aI1432802993
aa(lp1957
g1497
aI0
aF1.064764995370979
aI1990
aI3980
aI1432803197
aa(lp1958
g1497
aI0
aF288.8470205565048
aI3546
aI7092
aI1432803327
aa(lp1959
g1497
aI1
aF410.57346144741507
aI1773
aI3546
aI1432803512
aa(lp1960
g1497
aI0
aF1.0
aI1773
aI1773
aI1432803696
aa(lp1961
g1497
aI1
aF1524.5571542063108
aI1493
aI2986
aI1432803889
aa(lp1962
g1497
aI1
aF3.50372508091967
aI2574
aI5149
aI1432804042
aa(lp1963
g1497
aI0
aF39.502095321515306
aI4210
aI8420
aI1432804272
aa(lp1964
g1497
aI0
aF55.756420030231844
aI5877
aI11754
aI1432804510
aa(lp1965
g1497
aI1
aF13772.862700369227
aI6809
aI13618
aI1432804645
aa(lp1966
g1497
aI0
aF30.54872484032951
aI10950
aI21900
aI1432804771
aa(lp1967
g1497
aI0
aF4638.8288984545825
aI5475
aI10950
aI1432804943
aa(lp1968
g1497
aI0
aF1.3818323894972393
aI2737
aI5475
aI1432805116
aa(lp1969
g1497
aI1
aF652.1665459970977
aI3518
aI7037
aI1432805251
aa(lp1970
g1513
aI1
aF1.6445872677175835
aI1
aI886392
aI1432805728
aa(lp1971
g1513
aI0
aF43227.96064104048
aI1
aI886391
aI1432805958
aa(lp1972
g1513
aI0
aF4.665295365051984
aI1
aI886392
aI1432806051
aa(lp1973
g1513
aI1
aF3285.5082723689893
aI1
aI886391
aI1432806168
aa(lp1974
g1513
aI1
aF3.6318686762579024
aI1
aI886392
aI1432806264
aa(lp1975
g1513
aI1
aF3420.602737897687
aI1
aI886391
aI1432806408
aa(lp1976
g1513
aI0
aF1.0
aI1
aI886390
aI1432806566
aa(lp1977
g1513
aI1
aF1.1626621412157383
aI1
aI886391
aI1432806673
aa(lp1978
g1513
aI1
aF186.75205684231517
aI1
aI886390
aI1432806810
aa(lp1979
g1513
aI0
aF3.973960432440839
aI1
aI886392
aI1432806949
aa(lp1980
g1513
aI1
aF1.0
aI1
aI886391
aI1432808631
aa(lp1981
g1412
aI1
aF1.0
aI100
aI886392
aI1432809096
aa(lp1982
g1412
aI0
aF1.0
aI100
aI886505
aI1432809269
aa(lp1983
g1412
aI1
aF24037.11622900347
aI100
aI886405
aI1432809420
aa(lp1984
g1412
aI0
aF1.0438361686782727
aI100
aI886407
aI1432809570
aa(lp1985
g1412
aI0
aF9878.602743574902
aI100
aI886492
aI1432809812
aa(lp1986
g1412
aI1
aF1093.9322664140577
aI100
aI886517
aI1432809957
aa(lp1987
g1412
aI1
aF4.338407300467739
aI100
aI886525
aI1432810109
aa(lp1988
g1412
aI1
aF3.750727876211273
aI100
aI886567
aI1432810295
aa(lp1989
g1412
aI0
aF2.327803856049768
aI100
aI886607
aI1432810441
aa(lp1990
g1412
aI0
aF2.759583014939879
aI100
aI886637
aI1432810628
aa(lp1991
g1412
aI1
aF15.287300986377197
aI100
aI886537
aI1432810899
aa(lp1992
g1412
aI0
aF179.7360006388252
aI100
aI886555
aI1432811025
aa(lp1993
g1412
aI0
aF1.0
aI100
aI886595
aI1432811171
aa(lp1994
g1412
aI0
aF1.235993666297169
aI100
aI886604
aI1432811291
aa(lp1995
g1412
aI1
aF277788.3591903268
aI8866
aI886631
aI1432811804
aa(lp1996
g1412
aI1
aF281.82824804384325
aI100
aI893687
aI1432812009
aa(lp1997
g1412
aI0
aF1.0
aI100
aI893587
aI1432812135
aa(lp1998
g1412
aI0
aF1.0
aI100
aI893487
aI1432812377
aa(lp1999
g1412
aI0
aF2.2070593770134406
aI100
aI893387
aI1432812571
aa(lp2000
g1412
aI0
aF5.993278300425574
aI100
aI893287
aI1432812794
aa(lp2001
g1412
aI0
aF1.0
aI100
aI893187
aI1432812943
aa(lp2002
g1412
aI0
aF3565.649685950781
aI100
aI893252
aI1432813167
aa(lp2003
g1412
aI1
aF1.0
aI100
aI893152
aI1432813344
aa(lp2004
g1412
aI1
aF8.717317738464583
aI100
aI893476
aI1432813487
aa(lp2005
g1412
aI1
aF36.98414533934515
aI100
aI893483
aI1432813775
aa(lp2006
g1412
aI1
aF395.3121923042102
aI100
aI893509
aI1432813985
aa(lp2007
g1412
aI1
aF918.0298926763257
aI100
aI893409
aI1432814192
aa(lp2008
g1412
aI1
aF18717.45689347171
aI100
aI893436
aI1432814355
aa(lp2009
g1412
aI0
aF1.0
aI100
aI893336
aI1432814508
aa(lp2010
g1412
aI1
aF1.0
aI100
aI893351
aI1432814645
aa(lp2011
g1412
aI0
aF1.9305890927474874
aI100
aI893364
aI1432814787
aa(lp2012
g1412
aI1
aF172.7450210542239
aI100
aI893500
aI1432815098
aa(lp2013
g1412
aI1
aF1.3880009825945956
aI100
aI893400
aI1432815307
aa(lp2014
g1412
aI0
aF729.6977923802555
aI100
aI893300
aI1432815427
aa(lp2015
g1412
aI1
aF1.0
aI100
aI893367
aI1432815569
aa(lp2016
g1412
aI0
aF43.48287156087008
aI100
aI893431
aI1432815813
aa(lp2017
g1412
aI1
aF19.32013925448716
aI100
aI893447
aI1432816382
aa(lp2018
g1412
aI0
aF2.189773402526268
aI100
aI893597
aI1432816644
aa(lp2019
g1412
aI1
aF1.0
aI100
aI893497
aI1432816857
aa(lp2020
g1412
aI1
aF202.90344910303804
aI100
aI893397
aI1432817029
aa(lp2021
g1412
aI0
aF3.9863981564501003
aI100
aI893297
aI1432817383
aa(lp2022
g1412
aI0
aF11659.601046090835
aI100
aI893305
aI1432817541
aa(lp2023
g1412
aI1
aF1.0
aI100
aI893369
aI1432817752
aa(lp2024
g1412
aI0
aF6.873890526691528
aI100
aI893378
aI1432817916
aa(lp2025
g1412
aI0
aF290.4816472176471
aI100
aI893388
aI1432818101
aa(lp2026
g1412
aI0
aF21.451269540293406
aI100
aI893492
aI1432818282
aa(lp2027
g1412
aI0
aF1.0
aI100
aI893392
aI1432818911
aa(lp2028
g1412
aI0
aF7.442311885916459
aI100
aI893443
aI1432819083
aa(lp2029
g1412
aI0
aF1399.8481937859149
aI100
aI893516
aI1432819276
aa(lp2030
g1412
aI0
aF22251.991671896714
aI100
aI893595
aI1432819446
aa(lp2031
g1412
aI0
aF21.50455385389406
aI100
aI893495
aI1432819640
aa(lp2032
g1412
aI0
aF2329.3516958866285
aI100
aI893395
aI1432819767
aa(lp2033
g1412
aI1
aF1.1621641552305784
aI100
aI893399
aI1432819922
aa(lp2034
g1412
aI0
aF9872.252463039234
aI100
aI893475
aI1432820104
aa(lp2035
g1412
aI1
aF7.021625509652889
aI100
aI893490
aI1432820197
aa(lp2036
g1412
aI1
aF1.0
aI100
aI893390
aI1432820383
aa(lp2037
g1412
aI0
aF1.0
aI100
aI893677
aI1432820502
aa(lp2038
g1412
aI0
aF374.0612857194717
aI100
aI893711
aI1432820687
aa(lp2039
g1412
aI0
aF1.0
aI100
aI893830
aI1432820914
aa(lp2040
g1412
aI0
aF1.0
aI100
aI893897
aI1432821092
aa(lp2041
g1412
aI1
aF1.0
aI100
aI893797
aI1432821218
aa(lp2042
g1412
aI1
aF1.0
aI100
aI893697
aI1432821437
aa(lp2043
g1412
aI1
aF2.590649777684179
aI100
aI893729
aI1432821615
aa(lp2044
g1412
aI1
aF1779.249596900711
aI100
aI893748
aI1432821836
aa(lp2045
g1412
aI0
aF76.55390097639966
aI100
aI893648
aI1432821962
aa(lp2046
g1412
aI0
aF167128.11340331717
aI8936
aI893663
aI1432822133
aa(lp2047
g1412
aI1
aF14.355213786012959
aI100
aI894598
aI1432822300
aa(lp2048
g1412
aI1
aF7.747804348854438
aI100
aI894654
aI1432822457
aa(lp2049
g1412
aI0
aF1.0
aI100
aI894554
aI1432822662
aa(lp2050
g1412
aI1
aF2.9703417134606567
aI100
aI894454
aI1432822820
aa(lp2051
g1412
aI1
aF14712.22933182515
aI100
aI894504
aI1432822972
aa(lp2052
g1412
aI0
aF30.69359166351984
aI100
aI894536
aI1432823090
aa(lp2053
g1412
aI0
aF160592.73500000604
aI100
aI894564
aI1432823260
aa(lp2054
g1412
aI1
aF129.45136657258996
aI100
aI894464
aI1432823426
aa(lp2055
g1412
aI0
aF4253994.561231899
aI8944
aI894483
aI1432823582
aa(lp2056
g1412
aI1
aF28.32396731580179
aI100
aI906430
aI1432823775
aa(lp2057
g1412
aI0
aF331.011566488104
aI100
aI906444
aI1432824005
aa(lp2058
g1412
aI0
aF1.0
aI100
aI906613
aI1432824173
aa(lp2059
g1412
aI1
aF746.4919951735299
aI100
aI906513
aI1432824375
aa(lp2060
g1412
aI1
aF5351.918177735708
aI100
aI906413
aI1432824491
aa(lp2061
g1412
aI0
aF1.4188576806656399
aI100
aI906435
aI1432824667
aa(lp2062
g1412
aI0
aF883.4405211868701
aI100
aI906335
aI1432824800
aa(lp2063
g1412
aI0
aF4779.637192832689
aI100
aI906356
aI1432824984
aa(lp2064
g1412
aI0
aF34.04360897988609
aI100
aI906256
aI1432825136
aa(lp2065
g1412
aI0
aF17106.36480499358
aI100
aI906381
aI1432825321
aa(lp2066
g1412
aI0
aF1.0
aI100
aI906281
aI1432825537
aa(lp2067
g1412
aI0
aF1.0
aI100
aI906626
aI1432826008
aa(lp2068
g1412
aI0
aF1.0334794605309572
aI100
aI906634
aI1432826183
aa(lp2069
g1412
aI0
aF2.937033839304223
aI100
aI906663
aI1432826282
aa(lp2070
g1412
aI1
aF1.0
aI100
aI906710
aI1432826581
aa(lp2071
g1497
aI0
aF1.0
aI1500
aI1500
aI1432826834
aa(lp2072
g1497
aI0
aF176839.60686402582
aI1123
aI2247
aI1432826993
aa(lp2073
g1497
aI0
aF84377.05149794601
aI1500
aI1500
aI1432827151
aa(lp2074
g1497
aI0
aF1.563100340532392
aI1932
aI3864
aI1432827324
aa(lp2075
g1497
aI0
aF620.2063083770685
aI1932
aI1932
aI1432827594
aa(lp2076
g1497
aI1
aF27.824835095858642
aI1500
aI1500
aI1432827748
aa(lp2077
g1497
aI1
aF421.62574932283985
aI1815
aI1815
aI1432827878
aa(lp2078
g1497
aI0
aF580.1835038818797
aI1500
aI1500
aI1432828018
aa(lp2079
g1497
aI0
aF82913258.06272471
aI1872
aI1872
aI1432828171
aa(lp2080
g1497
aI0
aF3542792.308392123
aI1059
aI2118
aI1432828299
aa(lp2081
g1497
aI1
aF8.578533996428362
aI1196
aI2393
aI1432828463
aa(lp2082
g1497
aI1
aF103669486.22918585
aI1358
aI2717
aI1432828621
aa(lp2083
g1497
aI0
aF1.1333139682270248
aI1453
aI2906
aI1432828768
aa(lp2084
g1497
aI1
aF16994.349928020787
aI1604
aI3208
aI1432828937
aa(lp2085
g1497
aI0
aF5.795430080535472
aI2361
aI4722
aI1432829135
aa(lp2086
g1513
aI1
aF3.3954218808310697
aI1
aI912830
aI1432829537
aa(lp2087
g1513
aI1
aF35.61389307492879
aI1
aI912829
aI1432829631
aa(lp2088
g1513
aI0
aF1.0
aI1
aI912828
aI1432829969
aa(lp2089
g1513
aI0
aF7250.229862545841
aI1
aI912829
aI1432830458
aa(lp2090
g1513
aI1
aF1.0
aI1
aI912828
aI1432831619
aa(lp2091
g1513
aI1
aF15.217256783682416
aI1
aI912829
aI1432831791
aa(lp2092
g1513
aI1
aF4103.726374778749
aI1
aI912828
aI1432831871
aa(lp2093
g1513
aI0
aF2326.618503676631
aI1
aI912829
aI1432832169
aa(lp2094
g1513
aI0
aF1.0
aI1
aI912830
aI1432832421
aa(lp2095
g1513
aI1
aF57.9574233429767
aI1
aI912834
aI1432832743
aa(lp2096
g1412
aI1
aF1.0
aI100
aI912835
aI1432832980
aa(lp2097
g1412
aI1
aF250.8826517903541
aI100
aI912904
aI1432833138
aa(lp2098
g1412
aI1
aF43243.98460497444
aI100
aI913323
aI1432833298
aa(lp2099
g1412
aI1
aF891.3197512612788
aI100
aI913421
aI1432833670
aa(lp2100
g1412
aI1
aF37.33150292637975
aI100
aI913321
aI1432833868
aa(lp2101
g1412
aI1
aF1.2245991399676193
aI100
aI913221
aI1432834083
aa(lp2102
g1412
aI0
aF14908.190882377985
aI100
aI913121
aI1432834234
aa(lp2103
g1412
aI1
aF318623.3306428755
aI9131
aI913184
aI1432834380
aa(lp2104
g1412
aI1
aF1677.3893250189833
aI100
aI913817
aI1432834516
aa(lp2105
g1412
aI0
aF1.0
aI100
aI913909
aI1432834690
aa(lp2106
g1412
aI0
aF52.60780950489897
aI100
aI913916
aI1432834804
aa(lp2107
g1412
aI1
aF1.1301448962362306
aI100
aI913953
aI1432834962
aa(lp2108
g1412
aI1
aF117.16428704420534
aI100
aI913853
aI1432835092
aa(lp2109
g1412
aI1
aF2.9124158039178134
aI100
aI913859
aI1432835260
aa(lp2110
g1412
aI1
aF28.583700640154934
aI100
aI913759
aI1432835664
aa(lp2111
g1412
aI0
aF11173.87627273137
aI100
aI913771
aI1432835928
aa(lp2112
g1412
aI1
aF1.0
aI100
aI913780
aI1432836101
aa(lp2113
g1412
aI1
aF301.02102440353406
aI100
aI913680
aI1432836334
aa(lp2114
g1412
aI1
aF141697.41642245743
aI100
aI913689
aI1432836674
aa(lp2115
g1412
aI0
aF1.0
aI100
aI913589
aI1432836810
aa(lp2116
g1412
aI0
aF1.0
aI100
aI914092
aI1432836954
aa(lp2117
g1412
aI1
aF1.0
aI100
aI913992
aI1432837176
aa(lp2118
g1412
aI0
aF11.939561258118514
aI100
aI913892
aI1432837336
aa(lp2119
g1412
aI1
aF2.516445619673873
aI100
aI913792
aI1432837536
aa(lp2120
g1412
aI1
aF1.0
aI100
aI913692
aI1432837678
aa(lp2121
g1412
aI1
aF98.86026898073933
aI100
aI913848
aI1432837746
aa(lp2122
g1412
aI1
aF3.810231022590334
aI100
aI913748
aI1432837970
aa(lp2123
g1412
aI1
aF1.1072937428408576
aI100
aI913648
aI1432838098
aa(lp2124
g1412
aI0
aF2731.025985340756
aI100
aI913548
aI1432838237
aa(lp2125
g1412
aI0
aF356.9018416905699
aI100
aI913448
aI1432838438
aa(lp2126
g1412
aI1
aF4252892.043305868
aI9134
aI913451
aI1432838548
aa(lp2127
g1412
aI1
aF1.3086321105681278
aI100
aI914783
aI1432838878
aa(lp2128
g1412
aI0
aF1.3138915404515386
aI100
aI914813
aI1432839190
aa(lp2129
g1412
aI0
aF1.0468850830777126
aI100
aI914713
aI1432839429
aa(lp2130
g1412
aI0
aF93.21303011684074
aI100
aI914613
aI1432839581
aa(lp2131
g1412
aI1
aF1.1889037633291275
aI100
aI914632
aI1432839799
aa(lp2132
g1412
aI0
aF38.387670001331315
aI100
aI914707
aI1432839961
aa(lp2133
g1412
aI0
aF1457639139.7689564
aI9147
aI914731
aI1432840174
aa(lp2134
g1412
aI0
aF1.0
aI100
aI915122
aI1432840297
aa(lp2135
g1412
aI0
aF2.464097051880855
aI100
aI915138
aI1432840499
aa(lp2136
g1412
aI1
aF1.0359434269689272
aI100
aI915221
aI1432840668
aa(lp2137
g1412
aI0
aF1.0
aI100
aI915121
aI1432840805
aa(lp2138
g1412
aI0
aF10195.867342305384
aI100
aI915144
aI1432840931
aa(lp2139
g1412
aI1
aF513.2853175020637
aI100
aI915148
aI1432841053
aa(lp2140
g1412
aI0
aF1.2648397230427288
aI100
aI915048
aI1432841200
aa(lp2141
g1412
aI1
aF29.634055162450586
aI100
aI915299
aI1432841330
aa(lp2142
g1412
aI1
aF4.557721002109568
aI100
aI915199
aI1432841529
aa(lp2143
g1412
aI0
aF3906.894365311501
aI100
aI915099
aI1432841661
aa(lp2144
g1412
aI1
aF1.0
aI100
aI914999
aI1432841858
aa(lp2145
g1412
aI1
aF879.4660455181286
aI100
aI914899
aI1432841975
aa(lp2146
g1412
aI0
aF1655115.2227637244
aI9147
aI914799
aI1432842169
aa(lp2147
g1412
aI1
aF11.244781115790168
aI100
aI920198
aI1432842327
aa(lp2148
g1412
aI0
aF412.54657855340935
aI100
aI920244
aI1432842563
aa(lp2149
g1412
aI1
aF1.0
aI100
aI920253
aI1432842708
aa(lp2150
g1412
aI1
aF3.680792194204533
aI100
aI920153
aI1432842918
aa(lp2151
g1412
aI0
aF51.99388608920255
aI100
aI920238
aI1432843117
aa(lp2152
g1412
aI1
aF1.6677399305450655
aI100
aI920138
aI1432843327
aa(lp2153
g1412
aI0
aF267.9091308464223
aI100
aI920188
aI1432843478
aa(lp2154
g1412
aI0
aF72402.45472131766
aI100
aI920088
aI1432843695
aa(lp2155
g1412
aI0
aF344.5584597456695
aI100
aI919988
aI1432843862
aa(lp2156
g1412
aI1
aF1.0
aI100
aI920003
aI1432843998
aa(lp2157
g1412
aI1
aF327.01345682027807
aI100
aI920023
aI1432844199
aa(lp2158
g1412
aI1
aF133.88245552835872
aI100
aI920039
aI1432844335
aa(lp2159
g1412
aI1
aF1.0
aI100
aI920058
aI1432844515
aa(lp2160
g1412
aI0
aF9.129636451311415
aI100
aI920090
aI1432844657
aa(lp2161
g1412
aI0
aF10730.167879224677
aI100
aI920245
aI1432845075
aa(lp2162
g1412
aI0
aF7.471966454105976
aI100
aI920145
aI1432845265
aa(lp2163
g1412
aI0
aF92.44112782131269
aI100
aI920211
aI1432845504
aa(lp2164
g1412
aI0
aF28.584045685201616
aI100
aI920111
aI1432845752
aa(lp2165
g1412
aI1
aF64.23431587037982
aI100
aI920582
aI1432845932
aa(lp2166
g1412
aI1
aF580.3888041309896
aI100
aI920646
aI1432846044
aa(lp2167
g1412
aI0
aF3.8949622772415884
aI100
aI920668
aI1432846213
aa(lp2168
g1412
aI0
aF16.848286475692607
aI100
aI920785
aI1432846397
aa(lp2169
g1412
aI0
aF334257880.9320313
aI9208
aI920802
aI1432846600
aa(lp2170
g1412
aI0
aF8.94694905818692
aI100
aI921147
aI1432846823
aa(lp2171
g1412
aI1
aF1.0
aI100
aI921184
aI1432847003
aa(lp2172
g1412
aI1
aF1.0
aI100
aI921205
aI1432847132
aa(lp2173
g1412
aI0
aF1.0
aI100
aI921105
aI1432847254
aa(lp2174
g1412
aI1
aF4.1806807918091495
aI100
aI921118
aI1432847455
aa(lp2175
g1412
aI0
aF1.6675330513845306
aI100
aI921150
aI1432847621
aa(lp2176
g1412
aI1
aF269.98477675870464
aI100
aI921157
aI1432847784
aa(lp2177
g1412
aI0
aF2.4641451133289873
aI100
aI921057
aI1432848125
aa(lp2178
g1412
aI1
aF1.0
aI100
aI920957
aI1432848318
aa(lp2179
g1412
aI1
aF14.616875149585049
aI100
aI920969
aI1432848439
aa(lp2180
g1412
aI1
aF147.1501160137886
aI100
aI920869
aI1432848600
aa(lp2181
g1412
aI1
aF244.1492279752893
aI100
aI920885
aI1432848892
aa(lp2182
g1412
aI1
aF1.639396712701958
aI100
aI920895
aI1432849062
aa(lp2183
g1412
aI1
aF1674.271572480603
aI100
aI920795
aI1432849228
aa(lp2184
g1412
aI0
aF6.320476154097032
aI100
aI920695
aI1432849365
aa(lp2185
g1412
aI0
aF35549.05976303828
aI100
aI920595
aI1432849674
aa(lp2186
g1412
aI1
aF8352.516272853787
aI100
aI920495
aI1432849848
aa(lp2187
g1497
aI1
aF50.217103198849436
aI1500
aI1500
aI1432850130
aa(lp2188
g1497
aI1
aF17121.48746693858
aI1250
aI2500
aI1432850337
aa(lp2189
g1497
aI1
aF1.0
aI1358
aI2716
aI1432850501
aa(lp2190
g1497
aI1
aF93.0109826008925
aI1578
aI3157
aI1432850632
aa(lp2191
g1497
aI0
aF186.39894434170228
aI1579
aI1579
aI1432850955
aa(lp2192
g1497
aI1
aF153.43890109499569
aI1095
aI2190
aI1432851104
aa(lp2193
g1497
aI1
aF4.96810549963696
aI1376
aI2752
aI1432851327
aa(lp2194
g1497
aI0
aF1.0
aI1500
aI1500
aI1432851477
aa(lp2195
g1497
aI1
aF22.734951007277573
aI1883
aI1883
aI1432851631
aa(lp2196
g1497
aI0
aF1.0
aI1500
aI1500
aI1432851810
aa(lp2197
g1497
aI0
aF3242.2722696141495
aI1011
aI2022
aI1432852053
aa(lp2198
g1497
aI0
aF1.0
aI1386
aI2773
aI1432852202
aa(lp2199
g1497
aI1
aF1.0
aI1500
aI1500
aI1432852350
aa(lp2200
g1497
aI0
aF1.0
aI1173
aI2346
aI1432852558
aa(lp2201
g1497
aI0
aF1.0
aI1500
aI1500
aI1432852682
aa(lp2202
g1513
aI0
aF1.3235456178761114
aI1
aI927619
aI1432853018
aa(lp2203
g1513
aI1
aF93.09593644850457
aI1
aI927618
aI1432853139
aa(lp2204
g1513
aI0
aF128804.83790591056
aI1
aI927619
aI1432854511
aa(lp2205
g1513
aI1
aF1.206696516732982
aI1
aI927620
aI1432854609
aa(lp2206
g1513
aI0
aF2.827122731454354
aI1
aI927621
aI1432855174
aa(lp2207
g1513
aI1
aF9.8576621568361
aI1
aI927622
aI1432855800
aa(lp2208
g1513
aI0
aF2.360617066271372
aI1
aI927621
aI1432855919
aa(lp2209
g1513
aI0
aF1839.623586565328
aI1
aI927622
aI1432856065
aa(lp2210
g1412
aI0
aF3.8472995626558437
aI100
aI927624
aI1432856561
aa(lp2211
g1412
aI0
aF1.0412802852401426
aI100
aI927950
aI1432856711
aa(lp2212
g1412
aI0
aF10.747209577138165
aI100
aI927850
aI1432856926
aa(lp2213
g1412
aI1
aF1.0
aI100
aI927750
aI1432857034
aa(lp2214
g1412
aI1
aF3058.0226947103642
aI100
aI927650
aI1432857162
aa(lp2215
g1412
aI1
aF21060960.3645511
aI9276
aI927669
aI1432857320
aa(lp2216
g1412
aI0
aF3134.7487073801203
aI100
aI928118
aI1432857449
aa(lp2217
g1412
aI1
aF119.80118797680892
aI100
aI928129
aI1432857643
aa(lp2218
g1412
aI1
aF3961.1908221474537
aI100
aI928029
aI1432857824
aa(lp2219
g1412
aI0
aF1.0
aI100
aI927929
aI1432858010
aa(lp2220
g1412
aI0
aF2.416653270767933
aI100
aI927986
aI1432858321
aa(lp2221
g1412
aI1
aF1.0
aI100
aI928199
aI1432858425
aa(lp2222
g1412
aI0
aF1.4361135268331482
aI100
aI928383
aI1432858741
aa(lp2223
g1412
aI1
aF769465.269422908
aI9284
aI928416
aI1432858919
aa(lp2224
g1412
aI1
aF1.0
aI100
aI931341
aI1432859187
aa(lp2225
g1412
aI1
aF1.339309040647762
aI100
aI931381
aI1432859399
aa(lp2226
g1412
aI0
aF1.9902596454248709
aI100
aI931613
aI1432859541
aa(lp2227
g1412
aI0
aF19.86207597392331
aI100
aI931513
aI1432859777
aa(lp2228
g1412
aI0
aF2.2315488164370807
aI100
aI931695
aI1432859931
aa(lp2229
g1412
aI1
aF89.58294626986323
aI100
aI931595
aI1432860070
aa(lp2230
g1412
aI0
aF54775.96925887765
aI100
aI931651
aI1432860214
aa(lp2231
g1412
aI0
aF2358.8565636935996
aI100
aI932755
aI1432860444
aa(lp2232
g1412
aI0
aF1.0
aI100
aI932935
aI1432860601
aa(lp2233
g1412
aI1
aF2.7638845800206613
aI100
aI932835
aI1432860757
aa(lp2234
g1412
aI1
aF1169.050744729868
aI100
aI932735
aI1432860919
aa(lp2235
g1412
aI1
aF16.224429743067184
aI100
aI932635
aI1432861048
aa(lp2236
g1412
aI1
aF10345.821068888052
aI100
aI932535
aI1432861246
aa(lp2237
g1412
aI0
aF3.265723097210118
aI100
aI932547
aI1432861523
aa(lp2238
g1412
aI1
aF1.0
aI100
aI932447
aI1432861688
aa(lp2239
g1412
aI1
aF7.056100391075154
aI100
aI932347
aI1432861872
aa(lp2240
g1412
aI1
aF1.0
aI100
aI932442
aI1432862241
aa(lp2241
g1412
aI0
aF14.780008391823408
aI100
aI932342
aI1432862406
aa(lp2242
g1412
aI0
aF1.0
aI100
aI932388
aI1432862612
aa(lp2243
g1412
aI1
aF428.00229490508724
aI100
aI932288
aI1432862803
aa(lp2244
g1412
aI0
aF36.67072868086985
aI100
aI932311
aI1432863012
aa(lp2245
g1412
aI1
aF380.5657294992426
aI100
aI932211
aI1432863186
aa(lp2246
g1412
aI1
aF2834.1117474245843
aI100
aI932234
aI1432863353
aa(lp2247
g1412
aI1
aF8283406.987157214
aI9323
aI932313
aI1432863527
aa(lp2248
g1412
aI0
aF1.0
aI100
aI944259
aI1432863642
aa(lp2249
g1412
aI0
aF9.227210724840676
aI100
aI944262
aI1432863803
aa(lp2250
g1412
aI1
aF19.183108957347372
aI100
aI944162
aI1432864493
aa(lp2251
g1412
aI0
aF1.166524678271925
aI100
aI944062
aI1432864674
aa(lp2252
g1412
aI0
aF3.8338124439486223
aI100
aI943962
aI1432864826
aa(lp2253
g1412
aI0
aF368.34869291258644
aI100
aI943862
aI1432865138
aa(lp2254
g1412
aI0
aF142.75339146014073
aI100
aI943762
aI1432865343
aa(lp2255
g1412
aI0
aF1.0263376813976426
aI100
aI943662
aI1432865535
aa(lp2256
g1412
aI0
aF1.927103475883841
aI100
aI943562
aI1432865730
aa(lp2257
g1412
aI0
aF1.0
aI100
aI943591
aI1432865967
aa(lp2258
g1412
aI0
aF49.01630193506307
aI100
aI943491
aI1432866131
aa(lp2259
g1412
aI1
aF28.473229773856986
aI100
aI943540
aI1432866368
aa(lp2260
g1412
aI0
aF1.8456576597397194
aI100
aI943551
aI1432866518
aa(lp2261
g1412
aI1
aF1.0
aI100
aI943451
aI1432866637
aa(lp2262
g1412
aI1
aF1.0
aI100
aI943509
aI1432866781
aa(lp2263
g1412
aI1
aF4.219469039490839
aI100
aI943409
aI1432866944
aa(lp2264
g1412
aI0
aF1.322587276976245
aI100
aI943309
aI1432867089
aa(lp2265
g1412
aI0
aF79.49540505839525
aI100
aI943209
aI1432867276
aa(lp2266
g1412
aI1
aF1.0
aI100
aI943286
aI1432867420
aa(lp2267
g1412
aI1
aF3.7897255589590424
aI100
aI943293
aI1432867564
aa(lp2268
g1412
aI0
aF144913.15934993647
aI100
aI943350
aI1432867686
aa(lp2269
g1412
aI1
aF1.0
aI100
aI943250
aI1432867891
aa(lp2270
g1412
aI0
aF10968.833292547599
aI100
aI943294
aI1432868071
aa(lp2271
g1412
aI1
aF249.187131676124
aI100
aI943299
aI1432868221
aa(lp2272
g1412
aI1
aF10.649363108742357
aI100
aI943199
aI1432868405
aa(lp2273
g1412
aI0
aF113.44861568646017
aI100
aI943290
aI1432868605
aa(lp2274
g1412
aI1
aF1.0
aI100
aI943337
aI1432868771
aa(lp2275
g1412
aI0
aF1318.420936263324
aI100
aI943237
aI1432868965
aa(lp2276
g1412
aI1
aF374.4604765939775
aI100
aI943239
aI1432869101
aa(lp2277
g1412
aI1
aF6.463245640985496
aI100
aI943256
aI1432869231
aa(lp2278
g1412
aI1
aF1.9864983160699858
aI100
aI943285
aI1432869380
aa(lp2279
g1412
aI1
aF150.51799847585195
aI100
aI943185
aI1432869513
aa(lp2280
g1412
aI1
aF8.044386596548808
aI100
aI943207
aI1432869686
aa(lp2281
g1412
aI1
aF1.0
aI100
aI943239
aI1432869914
aa(lp2282
g1412
aI0
aF61346.617915852854
aI100
aI943139
aI1432870185
aa(lp2283
g1412
aI0
aF1.0
aI100
aI943162
aI1432870329
aa(lp2284
g1412
aI0
aF274721.91539714
aI9430
aI943062
aI1432870575
aa(lp2285
g1412
aI0
aF1.0
aI100
aI933632
aI1432870744
aa(lp2286
g1412
aI0
aF1.0
aI100
aI933775
aI1432870937
aa(lp2287
g1412
aI0
aF6.271620699184664
aI100
aI933958
aI1432871072
aa(lp2288
g1412
aI0
aF205.81273780667874
aI100
aI934167
aI1432871187
aa(lp2289
g1412
aI1
aF1.0
aI100
aI934226
aI1432871370
aa(lp2290
g1412
aI1
aF1.0
aI100
aI934252
aI1432871531
aa(lp2291
g1412
aI1
aF8.997865069845727
aI100
aI934271
aI1432871836
aa(lp2292
g1412
aI1
aF1.0
aI100
aI934282
aI1432871975
aa(lp2293
g1412
aI0
aF5283.949506961943
aI100
aI934329
aI1432872112
aa(lp2294
g1412
aI1
aF1.8609825620783547
aI100
aI934229
aI1432872581
aa(lp2295
g1412
aI0
aF491045.1699604115
aI9342
aI934247
aI1432872714
aa(lp2296
g1412
aI1
aF23882.913469369898
aI100
aI924905
aI1432872888
aa(lp2297
g1412
aI0
aF1.0
aI100
aI924945
aI1432873011
aa(lp2298
g1412
aI0
aF1.0
aI100
aI924955
aI1432873140
aa(lp2299
g1412
aI0
aF1.8546948657712687
aI100
aI925173
aI1432873336
aa(lp2300
g1497
aI0
aF1.0
aI1500
aI1500
aI1432873576
aa(lp2301
g1497
aI0
aF7.417971178476185
aI1237
aI2475
aI1432873707
aa(lp2302
g1497
aI0
aF318.2887871760717
aI1439
aI2878
aI1432873841
aa(lp2303
g1497
aI0
aF6055398.561124127
aI1500
aI1500
aI1432874012
aa(lp2304
g1497
aI1
aF138.70873164630865
aI1018
aI2036
aI1432874196
aa(lp2305
g1497
aI1
aF1.0
aI1500
aI1500
aI1432874378
aa(lp2306
g1497
aI1
aF159.7856987520785
aI1276
aI2553
aI1432874567
aa(lp2307
g1497
aI1
aF1.0
aI2473
aI4946
aI1432874729
aa(lp2308
g1497
aI1
aF1.0
aI3031
aI6062
aI1432874916
aa(lp2309
g1497
aI1
aF2581077.2778399712
aI4079
aI8159
aI1432875049
aa(lp2310
g1497
aI1
aF1.0
aI4405
aI8810
aI1432875199
aa(lp2311
g1497
aI1
aF1.0
aI2202
aI4405
aI1432875396
aa(lp2312
g1497
aI1
aF182.2428794628055
aI3105
aI6210
aI1432875534
aa(lp2313
g1497
aI1
aF1.0
aI3792
aI7585
aI1432875697
aa(lp2314
g1497
aI0
aF1.0
aI4220
aI8440
aI1432875811
aa(lp2315
g1513
aI1
aF1098.8975894153562
aI1
aI929405
aI1432876277
aa(lp2316
g1513
aI0
aF1.0
aI1
aI929406
aI1432876583
aa(lp2317
g1513
aI0
aF78549.9081442659
aI1
aI929405
aI1432876688
aa(lp2318
g1513
aI1
aF4.021607237903662
aI1
aI929404
aI1432877120
aa(lp2319
g1513
aI1
aF2.0677789926995116
aI1
aI929405
aI1432877251
aa(lp2320
g1513
aI1
aF30.2186592001318
aI1
aI929404
aI1432877389
aa(lp2321
g1513
aI0
aF1.4762168540237677
aI1
aI929405
aI1432878095
aa(lp2322
g1513
aI1
aF83.97963530208024
aI1
aI929406
aI1432878256
aa(lp2323
g1513
aI1
aF1.0
aI1
aI929405
aI1432878429
aa(lp2324
g1513
aI0
aF4889.447605367108
aI1
aI929406
aI1432878543
aa(lp2325
g1513
aI0
aF21.0636013893109
aI1
aI929405
aI1432878738
aa(lp2326
g1513
aI1
aF570.6530402671298
aI1
aI929404
aI1432879171
aa(lp2327
g1513
aI0
aF6.998480268819836
aI1
aI929403
aI1432879381
aa(lp2328
g1412
aI1
aF548.075452276505
aI100
aI929405
aI1432879587
aa(lp2329
g1412
aI0
aF113.16999935673081
aI100
aI929305
aI1432879735
aa(lp2330
g1412
aI0
aF1.0
aI100
aI929205
aI1432879902
aa(lp2331
g1412
aI0
aF1.0
aI100
aI929105
aI1432880191
aa(lp2332
g1412
aI0
aF390.96021024598656
aI100
aI929005
aI1432880330
aa(lp2333
g1412
aI1
aF1.0
aI100
aI928905
aI1432880519
aa(lp2334
g1412
aI1
aF2.361662815895185
aI100
aI928805
aI1432880673
aa(lp2335
g1412
aI1
aF1.0008526151100194
aI100
aI928705
aI1432880898
aa(lp2336
g1412
aI1
aF1.0
aI100
aI928605
aI1432881105
aa(lp2337
g1412
aI1
aF1975.2073618979562
aI100
aI928625
aI1432881257
aa(lp2338
g1412
aI1
aF122438.70532059344
aI100
aI928635
aI1432881556
aa(lp2339
g1412
aI0
aF1.0554315791915045
aI100
aI928646
aI1432881725
aa(lp2340
g1412
aI0
aF2637.7330868442036
aI100
aI928546
aI1432881994
aa(lp2341
g1412
aI0
aF1767.8047696302756
aI100
aI928579
aI1432882297
aa(lp2342
g1412
aI1
aF1.0
aI100
aI928639
aI1432882511
aa(lp2343
g1412
aI0
aF181.46792200470804
aI100
aI928539
aI1432882657
aa(lp2344
g1412
aI0
aF1.0
aI100
aI928555
aI1432882776
aa(lp2345
g1412
aI0
aF1.0
aI100
aI928596
aI1432882900
aa(lp2346
g1412
aI0
aF273.96583909857424
aI100
aI928496
aI1432883282
aa(lp2347
g1412
aI1
aF1.0
aI100
aI928541
aI1432883496
aa(lp2348
g1412
aI0
aF1.0
aI100
aI928441
aI1432883666
aa(lp2349
g1412
aI1
aF10.134764478366414
aI100
aI928341
aI1432883806
aa(lp2350
g1412
aI0
aF2.707772297416134
aI100
aI928241
aI1432883970
aa(lp2351
g1412
aI0
aF3.3041171278707058
aI100
aI928272
aI1432884333
aa(lp2352
g1412
aI0
aF3324.2849113374964
aI100
aI928428
aI1432884506
aa(lp2353
g1412
aI1
aF40.920676945882626
aI100
aI928493
aI1432884723
aa(lp2354
g1412
aI0
aF2013.5103816253093
aI100
aI928499
aI1432884848
aa(lp2355
g1412
aI0
aF31.133451597109655
aI100
aI928509
aI1432885024
aa(lp2356
g1412
aI1
aF1.0
aI100
aI928409
aI1432885222
aa(lp2357
g1412
aI0
aF9.175615036521064
aI100
aI928309
aI1432885401
aa(lp2358
g1412
aI1
aF1.0
aI100
aI928209
aI1432885566
aa(lp2359
g1412
aI1
aF303.4630931031121
aI100
aI928525
aI1432885820
aa(lp2360
g1412
aI1
aF2.0727877272201343
aI100
aI928425
aI1432885986
aa(lp2361
g1412
aI0
aF1.0
aI100
aI928325
aI1432886123
aa(lp2362
g1412
aI0
aF1.0
aI100
aI928405
aI1432886290
aa(lp2363
g1412
aI1
aF1.0
aI100
aI928424
aI1432886499
aa(lp2364
g1412
aI0
aF1.0632595431569665
aI100
aI928324
aI1432886754
aa(lp2365
g1412
aI0
aF1.0
aI100
aI928224
aI1432886886
aa(lp2366
g1412
aI0
aF359.4112024572727
aI100
aI928124
aI1432887337
aa(lp2367
g1412
aI1
aF1.0
aI100
aI928157
aI1432887743
aa(lp2368
g1412
aI0
aF1.484092660841813
aI100
aI928057
aI1432887992
aa(lp2369
g1412
aI1
aF514.4518754824378
aI100
aI928096
aI1432888241
aa(lp2370
g1412
aI0
aF3.7808960246717227
aI100
aI928131
aI1432888382
aa(lp2371
g1412
aI0
aF1.0
aI100
aI928187
aI1432888948
aa(lp2372
g1412
aI0
aF1.546488968123997
aI100
aI928087
aI1432889118
aa(lp2373
g1412
aI1
aF1.0
aI100
aI928164
aI1432889269
aa(lp2374
g1412
aI0
aF49.36149445740982
aI100
aI928292
aI1432889388
aa(lp2375
g1412
aI1
aF2.952701137660667
aI100
aI928192
aI1432889677
aa(lp2376
g1412
aI0
aF93.68953641532678
aI100
aI928092
aI1432889855
aa(lp2377
g1412
aI1
aF32.09242802238612
aI100
aI928117
aI1432890012
aa(lp2378
g1412
aI0
aF73919.47572476664
aI100
aI928130
aI1432890168
aa(lp2379
g1412
aI1
aF16732.60246958192
aI100
aI928183
aI1432890344
aa(lp2380
g1412
aI1
aF1.4679598968811385
aI100
aI928083
aI1432890464
aa(lp2381
g1412
aI1
aF1.0
aI100
aI928126
aI1432890613
aa(lp2382
g1412
aI1
aF1.0
aI100
aI928026
aI1432890769
aa(lp2383
g1412
aI0
aF1.0
aI100
aI928047
aI1432890946
aa(lp2384
g1412
aI1
aF1.3792967333655342
aI100
aI928181
aI1432891129
aa(lp2385
g1412
aI0
aF57.77091245542121
aI100
aI928081
aI1432891346
aa(lp2386
g1412
aI1
aF314.6738590025761
aI100
aI928108
aI1432891506
aa(lp2387
g1412
aI1
aF1.0
aI100
aI928119
aI1432891713
aa(lp2388
g1412
aI0
aF1.0
aI100
aI928136
aI1432891851
aa(lp2389
g1412
aI1
aF403.37457004552084
aI100
aI928036
aI1432892059
aa(lp2390
g1412
aI1
aF62.66362591653619
aI100
aI927936
aI1432892290
aa(lp2391
g1412
aI0
aF70.76843820684596
aI100
aI928046
aI1432892520
aa(lp2392
g1412
aI0
aF75.36412503515392
aI100
aI927946
aI1432892740
aa(lp2393
g1412
aI1
aF12.066674426118043
aI100
aI927963
aI1432892848
aa(lp2394
g1412
aI0
aF1.0
aI100
aI927863
aI1432893025
aa(lp2395
g1412
aI0
aF1.0
aI100
aI927897
aI1432893202
aa(lp2396
g1412
aI1
aF848.2617923973991
aI100
aI927938
aI1432893388
aa(lp2397
g1412
aI0
aF4943.982175416181
aI100
aI928009
aI1432893569
aa(lp2398
g1412
aI0
aF28.139367687576
aI100
aI927909
aI1432893818
aa(lp2399
g1412
aI1
aF1.0
aI100
aI927959
aI1432894063
aa(lp2400
g1412
aI1
aF7.308427072083168
aI100
aI927995
aI1432894262
aa(lp2401
g1412
aI1
aF1.0
aI100
aI928027
aI1432894400
aa(lp2402
g1412
aI0
aF101563.41053164017
aI100
aI927927
aI1432894588
aa(lp2403
g1412
aI0
aF2.8027135616221113
aI100
aI927827
aI1432894736
aa(lp2404
g1412
aI1
aF1.0
aI100
aI927868
aI1432894892
aa(lp2405
g1412
aI0
aF2.686816450799648
aI100
aI927886
aI1432895070
aa(lp2406
g1412
aI0
aF2513380.127759786
aI9277
aI927786
aI1432895280
aa(lp2407
g1412
aI0
aF1.9187997230892888
aI100
aI918509
aI1432895453
aa(lp2408
g1412
aI0
aF51.765951572114346
aI100
aI918582
aI1432895610
aa(lp2409
g1412
aI1
aF9898.59416577716
aI100
aI918621
aI1432895847
aa(lp2410
g1412
aI0
aF1.3218622234900805
aI100
aI918521
aI1432895969
aa(lp2411
g1412
aI1
aF16616.49438034498
aI100
aI918574
aI1432896132
aa(lp2412
g1412
aI0
aF1.0
aI100
aI918474
aI1432896351
aa(lp2413
g1412
aI1
aF1.0
aI100
aI918499
aI1432896544
aa(lp2414
g1412
aI1
aF212.4882922648554
aI100
aI918507
aI1432896693
aa(lp2415
g1412
aI1
aF1.0
aI100
aI918535
aI1432896842
aa(lp2416
g1412
aI1
aF1.0
aI100
aI918435
aI1432896986
aa(lp2417
g1412
aI1
aF31.159705544587904
aI100
aI918510
aI1432897222
aa(lp2418
g1497
aI0
aF1446.7091693084212
aI1500
aI1500
aI1432897796
aa(lp2419
g1497
aI0
aF4524.380516591362
aI1500
aI1500
aI1432897998
aa(lp2420
g1497
aI0
aF14.131112856190162
aI1990
aI1990
aI1432898103
aa(lp2421
g1497
aI0
aF1.0
aI1500
aI1500
aI1432898252
aa(lp2422
g1497
aI0
aF12230818.474096376
aI2283
aI4567
aI1432898420
aa(lp2423
g1497
aI1
aF176570.68438032086
aI3407
aI6814
aI1432898588
aa(lp2424
g1497
aI1
aF3.072163689057238
aI4679
aI9358
aI1432898738
aa(lp2425
g1497
aI0
aF320362.212786485
aI2339
aI4679
aI1432898886
aa(lp2426
g1497
aI1
aF2599.8147463509436
aI1170
aI2340
aI1432899005
aa(lp2427
g1497
aI1
aF1.0
aI1368
aI2736
aI1432899103
aa(lp2428
g1497
aI0
aF37.305558701653894
aI2144
aI4289
aI1432899245
aa(lp2429
g1497
aI0
aF210.82117192387992
aI1072
aI2145
aI1432899402
aa(lp2430
g1497
aI0
aF1.0
aI1500
aI1500
aI1432899554
aa(lp2431
g1497
aI0
aF873974.4890655635
aI1783
aI1783
aI1432899686
aa(lp2432
g1497
aI0
aF36263.77585789135
aI1500
aI1500
aI1432899810
aa(lp2433
g1513
aI0
aF1.0
aI1
aI922167
aI1432900249
aa(lp2434
g1513
aI0
aF1.1071858879268126
aI1
aI922169
aI1432900402
aa(lp2435
g1513
aI1
aF1.44110502701636
aI1
aI922168
aI1432900948
aa(lp2436
g1513
aI1
aF2.083811568099484
aI1
aI922169
aI1432901078
aa(lp2437
g1513
aI0
aF45726.633672285825
aI1
aI922168
aI1432901283
aa(lp2438
g1513
aI0
aF592.1552900056369
aI1
aI922169
aI1432901427
aa(lp2439
g1513
aI0
aF930.5397359202606
aI1
aI922168
aI1432901698
aa(lp2440
g1513
aI0
aF2.655944885862703
aI1
aI922167
aI1432901795
aa(lp2441
g1513
aI0
aF22.734951007277573
aI1
aI922168
aI1432901933
aa(lp2442
g1513
aI1
aF2.313918634039287
aI1
aI922167
aI1432902121
aa(lp2443
g1513
aI1
aF2.5708382745789704
aI1
aI922166
aI1432903321
aa(lp2444
g1513
aI0
aF617.738366282095
aI1
aI922165
aI1432903411
aa(lp2445
g1412
aI0
aF1.0
aI100
aI922164
aI1432903622
aa(lp2446
g1412
aI0
aF219.23897392661513
aI100
aI922218
aI1432903790
aa(lp2447
g1412
aI1
aF1.0
aI100
aI922118
aI1432904068
aa(lp2448
g1412
aI1
aF454.643371991683
aI100
aI922510
aI1432904499
aa(lp2449
g1412
aI0
aF123086.20141921827
aI100
aI922410
aI1432904626
aa(lp2450
g1412
aI1
aF11615.29701265953
aI100
aI922429
aI1432904882
aa(lp2451
g1412
aI0
aF7.631151049658431
aI100
aI922470
aI1432905016
aa(lp2452
g1412
aI1
aF13521.622156082349
aI100
aI922499
aI1432905178
aa(lp2453
g1412
aI1
aF430.5613424768659
aI100
aI922505
aI1432905396
aa(lp2454
g1412
aI0
aF3.7440891494777206
aI100
aI922515
aI1432905551
aa(lp2455
g1412
aI0
aF1.0
aI100
aI922562
aI1432905704
aa(lp2456
g1412
aI1
aF1.0
aI100
aI922622
aI1432905857
aa(lp2457
g1412
aI1
aF1.0
aI100
aI922643
aI1432906040
aa(lp2458
g1412
aI0
aF12878.78822631219
aI100
aI922690
aI1432906221
aa(lp2459
g1412
aI1
aF28.76803081466291
aI100
aI922590
aI1432906410
aa(lp2460
g1412
aI1
aF5.025515131169633
aI100
aI922638
aI1432906584
aa(lp2461
g1412
aI1
aF140.55154101005178
aI100
aI922974
aI1432906702
aa(lp2462
g1412
aI0
aF3.17059225676172
aI100
aI922874
aI1432906871
aa(lp2463
g1412
aI1
aF1.0
aI100
aI922774
aI1432907074
aa(lp2464
g1412
aI0
aF986.6844877407804
aI100
aI922794
aI1432907196
aa(lp2465
g1412
aI0
aF35.32543760701756
aI100
aI922694
aI1432907515
aa(lp2466
g1412
aI0
aF2.974647420266689
aI100
aI922816
aI1432907768
aa(lp2467
g1412
aI0
aF234.82026434906402
aI100
aI922878
aI1432908255
aa(lp2468
g1412
aI1
aF2.608692540174876
aI100
aI922778
aI1432908441
aa(lp2469
g1412
aI0
aF1.0
aI100
aI922678
aI1432908615
aa(lp2470
g1412
aI1
aF1.0
aI100
aI922578
aI1432908756
aa(lp2471
g1412
aI1
aF1.5098836574736014
aI100
aI922478
aI1432908933
aa(lp2472
g1412
aI0
aF3.4463463760365256
aI100
aI922505
aI1432909140
aa(lp2473
g1412
aI1
aF8.280180720481823
aI100
aI922405
aI1432909447
aa(lp2474
g1412
aI0
aF5037.5574105865535
aI100
aI922305
aI1432909603
aa(lp2475
g1412
aI0
aF1.2447877675905998
aI100
aI922348
aI1432909790
aa(lp2476
g1412
aI1
aF1675.64255650847
aI100
aI922387
aI1432909969
aa(lp2477
g1412
aI0
aF53.20640862486488
aI100
aI922415
aI1432910108
aa(lp2478
g1412
aI1
aF1.5069263729179698
aI100
aI922444
aI1432910546
aa(lp2479
g1412
aI0
aF3.9258995650953024
aI100
aI922344
aI1432910812
aa(lp2480
g1412
aI1
aF993.7602336726723
aI100
aI922380
aI1432910941
aa(lp2481
g1412
aI1
aF1239675.6336272035
aI9222
aI922280
aI1432911048
aa(lp2482
g1412
aI1
aF1.0909961546382303
aI100
aI913058
aI1432911225
aa(lp2483
g1412
aI1
aF6.024656763511336
aI100
aI912958
aI1432911724
aa(lp2484
g1412
aI0
aF2.829696219943771
aI100
aI913012
aI1432911848
aa(lp2485
g1412
aI0
aF1.6924516786274824
aI100
aI913013
aI1432911967
aa(lp2486
g1412
aI1
aF137.85211856260904
aI100
aI913021
aI1432912138
aa(lp2487
g1412
aI0
aF224620.70429679955
aI9129
aI912921
aI1432912581
aa(lp2488
g1412
aI1
aF11.717077875828958
aI100
aI913840
aI1432912853
aa(lp2489
g1412
aI1
aF1.0
aI100
aI913847
aI1432913057
aa(lp2490
g1412
aI0
aF1.4279734522426137
aI100
aI913884
aI1432913224
aa(lp2491
g1412
aI0
aF158.75303741780766
aI100
aI913959
aI1432913431
aa(lp2492
g1412
aI0
aF88.15175860890537
aI100
aI914041
aI1432913600
aa(lp2493
g1412
aI0
aF400.5882147155082
aI100
aI914067
aI1432913726
aa(lp2494
g1412
aI0
aF1.7378186075347066
aI100
aI914098
aI1432913949
aa(lp2495
g1412
aI1
aF45.97675859797555
aI100
aI913998
aI1432914339
aa(lp2496
g1412
aI0
aF868.1206758672461
aI100
aI914660
aI1432914528
aa(lp2497
g1412
aI1
aF15.985221382764145
aI100
aI914690
aI1432914671
aa(lp2498
g1412
aI0
aF1.0
aI100
aI915233
aI1432914807
aa(lp2499
g1412
aI1
aF719.6633184556654
aI100
aI915133
aI1432914949
aa(lp2500
g1412
aI1
aF1.0
aI100
aI915033
aI1432915125
aa(lp2501
g1412
aI0
aF1.1278697059039218
aI100
aI914933
aI1432915393
aa(lp2502
g1412
aI0
aF1.0
aI100
aI914833
aI1432915537
aa(lp2503
g1412
aI1
aF1.0
aI100
aI914849
aI1432915683
aa(lp2504
g1412
aI0
aF1.0
aI100
aI914749
aI1432915829
aa(lp2505
g1412
aI1
aF1.0
aI100
aI914769
aI1432916014
aa(lp2506
g1412
aI1
aF208.93658494381566
aI100
aI914669
aI1432916222
aa(lp2507
g1412
aI0
aF67.83756624094428
aI100
aI914569
aI1432916401
aa(lp2508
g1412
aI0
aF1.0
aI100
aI914729
aI1432916540
aa(lp2509
g1412
aI0
aF1.2904683319641923
aI100
aI914866
aI1432916785
aa(lp2510
g1412
aI1
aF51.08560055890992
aI100
aI914866
aI1432916928
aa(lp2511
g1412
aI0
aF309.5464304402484
aI100
aI914869
aI1432917081
aa(lp2512
g1412
aI0
aF4354030.273475056
aI9147
aI914769
aI1432917245
aa(lp2513
g1412
aI0
aF133700.57516867467
aI100
aI915020
aI1432917372
aa(lp2514
g1412
aI1
aF1.0
aI100
aI914920
aI1432917561
aa(lp2515
g1412
aI1
aF2.422065677397126
aI100
aI914820
aI1432917740
aa(lp2516
g1412
aI0
aF1.38510713508757
aI100
aI914720
aI1432917895
aa(lp2517
g1412
aI0
aF1586.8979938955667
aI100
aI914620
aI1432918069
aa(lp2518
g1412
aI1
aF1.0636599863016987
aI100
aI914648
aI1432918215
aa(lp2519
g1412
aI1
aF148.0191653417023
aI100
aI914548
aI1432918544
aa(lp2520
g1412
aI0
aF1.0
aI100
aI914584
aI1432918703
aa(lp2521
g1412
aI1
aF40.24027943407985
aI100
aI914587
aI1432918905
aa(lp2522
g1412
aI1
aF29574.249691789013
aI100
aI914752
aI1432919050
aa(lp2523
g1412
aI0
aF21.13832411603564
aI100
aI914775
aI1432919252
aa(lp2524
g1412
aI1
aF1.0
aI100
aI914675
aI1432919375
aa(lp2525
g1412
aI1
aF226.21052313110926
aI100
aI914744
aI1432919526
aa(lp2526
g1412
aI1
aF5.261439357285593
aI100
aI914769
aI1432919648
aa(lp2527
g1412
aI1
aF221100.980103511
aI9146
aI914669
aI1432919815
aa(lp2528
g1412
aI0
aF1.0
aI100
aI905523
aI1432919945
aa(lp2529
g1412
aI0
aF1.0
aI100
aI905423
aI1432920069
aa(lp2530
g1497
aI1
aF5.295989589419426
aI1500
aI1500
aI1432920328
aa(lp2531
g1497
aI1
aF5.319910595641452
aI1985
aI1985
aI1432920478
aa(lp2532
g1497
aI1
aF1.6178021887739817
aI1239
aI2479
aI1432921158
aa(lp2533
g1497
aI0
aF1.8786036178224084
aI1500
aI1500
aI1432921328
aa(lp2534
g1497
aI0
aF8499.24744633451
aI1816
aI1816
aI1432921530
aa(lp2535
g1497
aI1
aF1.1009602270455825
aI1034
aI2068
aI1432921733
aa(lp2536
g1497
aI1
aF12.378035578056037
aI1500
aI1500
aI1432922301
aa(lp2537
g1497
aI1
aF793.6106046778252
aI1241
aI2482
aI1432922691
aa(lp2538
g1513
aI1
aF215681.84674880072
aI1
aI908009
aI1432923143
aa(lp2539
g1513
aI1
aF24.96779962204912
aI1
aI908010
aI1432923398
aa(lp2540
g1513
aI0
aF33.56246799490416
aI1
aI908011
aI1432923508
aa(lp2541
g1513
aI1
aF539502.9411226738
aI1
aI908012
aI1432923645
aa(lp2542
g1513
aI0
aF12948.28975008893
aI1
aI908011
aI1432923718
aa(lp2543
g1513
aI0
aF54.70980378207731
aI1
aI908012
aI1432923848
aa(lp2544
g1513
aI0
aF483.9847633487087
aI1
aI908013
aI1432924198
aa(lp2545
g1513
aI0
aF108041.44344365227
aI1
aI908012
aI1432924509
aa(lp2546
g1513
aI1
aF1562.8418102952473
aI1
aI908013
aI1432924915
aa(lp2547
g1513
aI1
aF1.0
aI1
aI908014
aI1432925005
aa(lp2548
g1513
aI0
aF1.0
aI1
aI908013
aI1432925331
aa(lp2549
g1513
aI0
aF7.099932682636478
aI1
aI908014
aI1432925430
aa(lp2550
g1513
aI0
aF1.0
aI1
aI908013
aI1432925880
aa(lp2551
g1412
aI1
aF6.8660109794368385
aI100
aI908014
aI1432926511
aa(lp2552
g1412
aI0
aF3.9845225281623486
aI100
aI908015
aI1432926662
aa(lp2553
g1412
aI0
aF1.0
aI100
aI907915
aI1432926811
aa(lp2554
g1412
aI0
aF2.765358675642684
aI100
aI907920
aI1432926918
aa(lp2555
g1412
aI0
aF1.158877367093374
aI100
aI907941
aI1432927102
aa(lp2556
g1412
aI0
aF5.2276227191222455
aI100
aI908001
aI1432927211
aa(lp2557
g1412
aI1
aF8.361825700248318
aI100
aI907901
aI1432927393
aa(lp2558
g1412
aI1
aF1.0891934230762421
aI100
aI908920
aI1432927584
aa(lp2559
g1412
aI0
aF11.8297867556136
aI100
aI908820
aI1432928043
aa(lp2560
g1412
aI0
aF840.2010243883406
aI100
aI908896
aI1432928396
aa(lp2561
g1412
aI1
aF50489.001394257924
aI100
aI908903
aI1432928555
aa(lp2562
g1412
aI0
aF1.0
aI100
aI908803
aI1432928905
aa(lp2563
g1412
aI0
aF49.45425521161549
aI100
aI909065
aI1432929108
aa(lp2564
g1412
aI0
aF1.0
aI100
aI909238
aI1432929319
aa(lp2565
g1412
aI0
aF3.3178123533720183
aI100
aI909138
aI1432929466
aa(lp2566
g1412
aI0
aF277.9940856161669
aI100
aI909038
aI1432929698
aa(lp2567
g1412
aI0
aF169.92727754723364
aI100
aI908938
aI1432929897
aa(lp2568
g1412
aI1
aF79677.53987618854
aI100
aI908838
aI1432930140
aa(lp2569
g1412
aI1
aF772.9227388018722
aI100
aI908846
aI1432930305
aa(lp2570
g1412
aI0
aF51.98542179064075
aI100
aI908865
aI1432930444
aa(lp2571
g1412
aI1
aF282150.3337274193
aI9087
aI908765
aI1432930646
aa(lp2572
g1412
aI0
aF1.0
aI100
aI912589
aI1432930860
aa(lp2573
g1412
aI1
aF5.964468029075414
aI100
aI912628
aI1432930967
aa(lp2574
g1412
aI1
aF1.070037931419323
aI100
aI912528
aI1432931115
aa(lp2575
g1412
aI1
aF1691241.4174760086
aI9124
aI912428
aI1432931252
aa(lp2576
g1412
aI1
aF2.57344305270525
aI100
aI914908
aI1432931439
aa(lp2577
g1412
aI1
aF21268428.502106816
aI9149
aI914917
aI1432931552
aa(lp2578
g1412
aI1
aF2.2612848709879207
aI100
aI905768
aI1432931728
aa(lp2579
g1412
aI1
aF1.0
aI100
aI905668
aI1432931913
aa(lp2580
g1412
aI1
aF1.0
aI100
aI905568
aI1432932070
aa(lp2581
g1412
aI1
aF1.0
aI100
aI905634
aI1432932238
aa(lp2582
g1412
aI1
aF1.0
aI100
aI905534
aI1432932394
aa(lp2583
g1412
aI1
aF7.120682820298148
aI100
aI905434
aI1432932561
aa(lp2584
g1412
aI1
aF30.640002296909973
aI100
aI905471
aI1432932693
aa(lp2585
g1412
aI0
aF1.0742170830333577
aI100
aI905371
aI1432933039
aa(lp2586
g1412
aI1
aF1.0
aI100
aI905271
aI1432933196
aa(lp2587
g1412
aI0
aF37.90333895837011
aI100
aI905274
aI1432933314
aa(lp2588
g1412
aI0
aF483595.1140965851
aI9052
aI905285
aI1432933500
aa(lp2589
g1412
aI1
aF54.563870473901375
aI100
aI896233
aI1432933689
aa(lp2590
g1412
aI0
aF1.0
aI100
aI896133
aI1432933878
aa(lp2591
g1412
aI0
aF602.5874738588291
aI100
aI896033
aI1432934096
aa(lp2592
g1412
aI1
aF471.9638286682832
aI100
aI896089
aI1432934361
aa(lp2593
g1412
aI0
aF1.0370128607671407
aI100
aI895989
aI1432934527
aa(lp2594
g1412
aI0
aF1.0
aI100
aI896024
aI1432934722
aa(lp2595
g1412
aI1
aF1.0
aI100
aI896161
aI1432934973
aa(lp2596
g1412
aI0
aF2.103925021259225
aI100
aI896300
aI1432935130
aa(lp2597
g1412
aI0
aF378.50448912752347
aI100
aI896481
aI1432935277
aa(lp2598
g1412
aI0
aF8.192481960231005
aI100
aI896536
aI1432935473
aa(lp2599
g1412
aI1
aF290625127200.3486
aI8965
aI896538
aI1432935776
aa(lp2600
g1412
aI1
aF1.0
aI100
aI898618
aI1432935956
aa(lp2601
g1412
aI1
aF29.391675911393367
aI100
aI898518
aI1432936090
aa(lp2602
g1412
aI0
aF3675.426533648397
aI100
aI898418
aI1432936219
aa(lp2603
g1412
aI1
aF14203.160643246263
aI100
aI898318
aI1432936448
aa(lp2604
g1412
aI1
aF4.641489745357549
aI100
aI898396
aI1432936607
aa(lp2605
g1412
aI0
aF1.0
aI100
aI898296
aI1432936766
aa(lp2606
g1412
aI0
aF1.0
aI100
aI898196
aI1432936899
aa(lp2607
g1412
aI0
aF4642.164446528981
aI100
aI898221
aI1432937016
aa(lp2608
g1412
aI1
aF1.1070176860915846
aI100
aI898536
aI1432937230
aa(lp2609
g1412
aI0
aF200.95308891170902
aI100
aI898717
aI1432937535
aa(lp2610
g1412
aI1
aF2.041719797889484
aI100
aI898735
aI1432937673
aa(lp2611
g1412
aI1
aF16.11694525266136
aI100
aI898635
aI1432937870
aa(lp2612
g1412
aI0
aF11.827910263096735
aI100
aI899016
aI1432938011
aa(lp2613
g1412
aI1
aF1.0
aI100
aI898916
aI1432938244
aa(lp2614
g1412
aI0
aF1.0
aI100
aI898980
aI1432938393
aa(lp2615
g1412
aI0
aF1.0
aI100
aI899024
aI1432938629
aa(lp2616
g1412
aI1
aF2.731302826148063
aI100
aI899038
aI1432938804
aa(lp2617
g1412
aI0
aF1.091522311067424
aI100
aI898938
aI1432938959
aa(lp2618
g1412
aI0
aF11.163198151833186
aI100
aI898838
aI1432939113
aa(lp2619
g1412
aI0
aF1.1329373997371275
aI100
aI898879
aI1432939334
aa(lp2620
g1412
aI1
aF333926.8185826653
aI8987
aI898779
aI1432939650
aa(lp2621
g1412
aI0
aF448920.34707610385
aI8897
aI889792
aI1432939904
aa(lp2622
g1412
aI1
aF3.999950272125929
aI100
aI889999
aI1432940022
aa(lp2623
g1412
aI0
aF14.44537100654561
aI100
aI890027
aI1432940180
aa(lp2624
g1412
aI0
aF50.54062197653465
aI100
aI889927
aI1432940309
aa(lp2625
g1412
aI0
aF1.0
aI100
aI889936
aI1432940423
aa(lp2626
g1412
aI1
aF1.0
aI100
aI889836
aI1432940536
aa(lp2627
g1412
aI0
aF1.1393790032118714
aI100
aI889861
aI1432940660
aa(lp2628
g1412
aI1
aF2.2908814700379687
aI100
aI889761
aI1432940854
aa(lp2629
g1412
aI1
aF2572.934769926754
aI100
aI889841
aI1432941056
aa(lp2630
g1412
aI0
aF1.0
aI100
aI889741
aI1432941224
aa(lp2631
g1412
aI0
aF238.78791150973905
aI100
aI889834
aI1432941400
aa(lp2632
g1412
aI0
aF1.0
aI100
aI889854
aI1432941530
aa(lp2633
g1412
aI1
aF1.0
aI100
aI889878
aI1432941671
aa(lp2634
g1412
aI1
aF1.0
aI100
aI889778
aI1432941904
aa(lp2635
g1412
aI0
aF1.0527603049311387
aI100
aI889829
aI1432942059
aa(lp2636
g1412
aI1
aF1.0
aI100
aI889930
aI1432942226
aa(lp2637
g1412
aI0
aF59.0098323957296
aI100
aI889964
aI1432942347
aa(lp2638
g1412
aI0
aF1.0
aI100
aI889982
aI1432942507
aa(lp2639
g1412
aI1
aF1.0
aI100
aI889996
aI1432942666
aa(lp2640
g1412
aI1
aF1.0
aI100
aI890048
aI1432942814
aa(lp2641
g1412
aI1
aF1652.018936656651
aI100
aI889948
aI1432943037
aa(lp2642
g1412
aI0
aF1.0
aI100
aI889959
aI1432943161
aa(lp2643
g1412
aI1
aF2.548610724492839
aI100
aI889859
aI1432943359
aa(lp2644
g1412
aI0
aF24189.721902554593
aI100
aI890000
aI1432943686
aa(lp2645
g1497
aI1
aF1.0
aI1500
aI1500
aI1432943928
aa(lp2646
g1497
aI1
aF1.0
aI1500
aI1500
aI1432943929
aa(lp2647
g1497
aI0
aF8568.897370516854
aI1993
aI1993
aI1432944095
aa(lp2648
g1497
aI0
aF15.38546864014229
aI2249
aI4498
aI1432944224
aa(lp2649
g1497
aI0
aF150.11506922459225
aI3440
aI6881
aI1432944517
aa(lp2650
g1497
aI0
aF1.0
aI1720
aI3441
aI1432944731
aa(lp2651
g1497
aI1
aF166.63298874116606
aI2663
aI5327
aI1432944922
aa(lp2652
g1497
aI1
aF15088.05112792007
aI2900
aI5800
aI1432945052
aa(lp2653
g1497
aI0
aF2.1173677586788022
aI1450
aI2900
aI1432945206
aa(lp2654
g1497
aI1
aF1.0
aI1500
aI1500
aI1432945383
aa(lp2655
g1497
aI0
aF27.53994460755616
aI1500
aI1500
aI1432945525
aa(lp2656
g1497
aI0
aF2.8315513733428257
aI1969
aI1969
aI1432945671
aa(lp2657
g1497
aI1
aF52.56785438955677
aI1500
aI1500
aI1432945864
aa(lp2658
g1497
aI0
aF1.0
aI1500
aI1500
aI1432945995
aa(lp2659
g1497
aI0
aF415486.45020782494
aI1500
aI1500
aI1432946151
aa(lp2660
g1497
aI0
aF6372.706038063216
aI1500
aI1500
aI1432946288
aa(lp2661
g1513
aI1
aF147.30631100473002
aI1
aI894253
aI1432947362
aa(lp2662
g1513
aI1
aF1.0
aI1
aI894254
aI1432947851
aa(lp2663
g1513
aI0
aF1.0
aI1
aI894255
aI1432948457
aa(lp2664
g1513
aI1
aF2571.399393249176
aI1
aI894257
aI1432949540
aa(lp2665
g1513
aI1
aF4.618611102379285
aI1
aI894258
aI1432949922
aa(lp2666
g1513
aI1
aF1.0
aI1
aI894260
aI1432950016
aa(lp2667
g1412
aI1
aF1.0
aI100
aI894259
aI1432950210
aa(lp2668
g1412
aI0
aF1.0
aI100
aI894159
aI1432950385
aa(lp2669
g1412
aI0
aF5053.617680262484
aI100
aI894059
aI1432950573
aa(lp2670
g1412
aI0
aF1.0
aI100
aI894074
aI1432950885
aa(lp2671
g1412
aI1
aF1.0
aI100
aI894114
aI1432951010
aa(lp2672
g1412
aI0
aF1.0
aI100
aI894014
aI1432951190
aa(lp2673
g1412
aI0
aF2.4454565030275752
aI100
aI893914
aI1432951382
aa(lp2674
g1412
aI1
aF7891058.109580658
aI8938
aI893814
aI1432951539
aa(lp2675
g1412
aI1
aF21.509873564627988
aI100
aI894696
aI1432951738
aa(lp2676
g1412
aI1
aF1322.0465353448435
aI100
aI894596
aI1432952016
aa(lp2677
g1412
aI1
aF1.0
aI100
aI894496
aI1432952216
aa(lp2678
g1412
aI1
aF1.074598904922372
aI100
aI894502
aI1432952307
aa(lp2679
g1412
aI1
aF1.0
aI100
aI894402
aI1432952418
aa(lp2680
g1412
aI1
aF1.5400206843536115
aI100
aI894302
aI1432952611
aa(lp2681
g1412
aI0
aF1098.7176175670606
aI100
aI894202
aI1432952824
aa(lp2682
g1412
aI1
aF1.2259771704549391
aI100
aI894380
aI1432952932
aa(lp2683
g1412
aI0
aF2354.729997162629
aI100
aI894280
aI1432953053
aa(lp2684
g1412
aI1
aF71.39623067870907
aI100
aI894305
aI1432953252
aa(lp2685
g1412
aI0
aF1.1617703237301753
aI100
aI894318
aI1432953528
aa(lp2686
g1412
aI1
aF375.8951917996419
aI100
aI894218
aI1432953689
aa(lp2687
g1412
aI0
aF277.84566632394643
aI100
aI894236
aI1432953851
aa(lp2688
g1412
aI0
aF1.5402294532739724
aI100
aI894242
aI1432953962
aa(lp2689
g1412
aI1
aF1737018.1153346966
aI8942
aI894276
aI1432954179
aa(lp2690
g1412
aI0
aF153.64004607813195
aI100
aI885334
aI1432954387
aa(lp2691
g1412
aI0
aF1.0
aI100
aI885341
aI1432954581
aa(lp2692
g1412
aI0
aF3.816818575627228
aI100
aI885241
aI1432954755
aa(lp2693
g1412
aI1
aF1.0
aI100
aI885266
aI1432954911
aa(lp2694
g1412
aI0
aF1.7500256424893947
aI100
aI885302
aI1432955070
aa(lp2695
g1412
aI1
aF406448.99524447246
aI8853
aI885332
aI1432955311
aa(lp2696
g1412
aI1
aF245.34490777367265
aI100
aI885749
aI1432955490
aa(lp2697
g1412
aI1
aF31.423975955378868
aI100
aI885649
aI1432955741
aa(lp2698
g1412
aI0
aF2.21676094191308
aI100
aI885549
aI1432955917
aa(lp2699
g1412
aI0
aF86.81318811729645
aI100
aI885449
aI1432956165
aa(lp2700
g1412
aI0
aF67.7752441151433
aI100
aI885349
aI1432956321
aa(lp2701
g1412
aI0
aF4.81630083616191
aI100
aI885249
aI1432956456
aa(lp2702
g1412
aI1
aF1.7465320405130376
aI100
aI885149
aI1432956601
aa(lp2703
g1412
aI0
aF3.28372402903591
aI100
aI885049
aI1432956741
aa(lp2704
g1412
aI0
aF1.2429845860951216
aI100
aI884949
aI1432956947
aa(lp2705
g1412
aI1
aF1.0
aI100
aI884992
aI1432957232
aa(lp2706
g1412
aI0
aF1.1074329593614014
aI100
aI885071
aI1432957372
aa(lp2707
g1412
aI0
aF5.1604166376946905
aI100
aI884971
aI1432957543
aa(lp2708
g1412
aI1
aF15367.820151850541
aI100
aI885133
aI1432957862
aa(lp2709
g1412
aI1
aF1.0
aI100
aI885165
aI1432958033
aa(lp2710
g1412
aI1
aF1.731654029100415
aI100
aI885065
aI1432958301
aa(lp2711
g1412
aI1
aF1.7102482096679696
aI100
aI884965
aI1432958445
aa(lp2712
g1412
aI0
aF61483.992868773326
aI100
aI884865
aI1432958650
aa(lp2713
g1412
aI0
aF63.08828568190974
aI100
aI884765
aI1432958872
aa(lp2714
g1412
aI1
aF92.70464534250341
aI100
aI884817
aI1432959189
aa(lp2715
g1412
aI1
aF1.3785904887837226
aI100
aI884717
aI1432959420
aa(lp2716
g1412
aI0
aF1.0
aI100
aI884617
aI1432959584
aa(lp2717
g1412
aI1
aF1.0
aI100
aI884517
aI1432959738
aa(lp2718
g1412
aI1
aF1.1242391321896759
aI100
aI884706
aI1432960110
aa(lp2719
g1412
aI0
aF14.95044744015247
aI100
aI884839
aI1432960289
aa(lp2720
g1412
aI0
aF6.008563847599191
aI100
aI884917
aI1432960473
aa(lp2721
g1412
aI1
aF1472140.2819992187
aI8849
aI884934
aI1432960607
aa(lp2722
g1412
aI1
aF1.0
aI100
aI876085
aI1432960782
aa(lp2723
g1412
aI0
aF6.510860814676533
aI100
aI876209
aI1432960964
aa(lp2724
g1412
aI0
aF1.0
aI100
aI876109
aI1432961127
aa(lp2725
g1412
aI1
aF98.02594839447192
aI100
aI876132
aI1432961316
aa(lp2726
g1412
aI1
aF1.2917756567368137
aI100
aI876032
aI1432961508
aa(lp2727
g1412
aI0
aF1.0
aI100
aI875932
aI1432961644
aa(lp2728
g1412
aI0
aF221.22021640695712
aI100
aI875962
aI1432961774
aa(lp2729
g1412
aI0
aF1.0
aI100
aI875862
aI1432961947
aa(lp2730
g1412
aI0
aF397191.4464743779
aI8758
aI875888
aI1432962127
aa(lp2731
g1412
aI1
aF12607.436332351082
aI100
aI879588
aI1432962296
aa(lp2732
g1412
aI0
aF222.26959080165457
aI100
aI879645
aI1432962457
aa(lp2733
g1412
aI0
aF1.0
aI100
aI879684
aI1432962654
aa(lp2734
g1412
aI0
aF1.0
aI100
aI879696
aI1432962837
aa(lp2735
g1412
aI0
aF3.0351714673744
aI100
aI879702
aI1432963030
aa(lp2736
g1412
aI0
aF1.0
aI100
aI879602
aI1432963179
aa(lp2737
g1412
aI1
aF1.5357647454370582
aI100
aI879642
aI1432963316
aa(lp2738
g1412
aI1
aF1.0702625137984103
aI100
aI879708
aI1432963519
aa(lp2739
g1412
aI0
aF1.8178330285447226
aI100
aI879608
aI1432963680
aa(lp2740
g1412
aI1
aF1852.0917347379575
aI100
aI879629
aI1432963826
aa(lp2741
g1412
aI0
aF38.70918168677861
aI100
aI879885
aI1432964008
aa(lp2742
g1412
aI1
aF33.43469622855895
aI100
aI879929
aI1432964155
aa(lp2743
g1412
aI1
aF195.67632884928494
aI100
aI879829
aI1432964275
aa(lp2744
g1412
aI1
aF5215.673150540218
aI100
aI879887
aI1432964475
aa(lp2745
g1412
aI1
aF7.8572118377265285
aI100
aI879964
aI1432964644
aa(lp2746
g1412
aI1
aF1.0
aI100
aI880470
aI1432964870
aa(lp2747
g1412
aI0
aF7.309250042260455
aI100
aI880476
aI1432965117
aa(lp2748
g1412
aI0
aF1.0
aI100
aI880376
aI1432965327
aa(lp2749
g1412
aI1
aF22.56465072928964
aI100
aI880388
aI1432965457
aa(lp2750
g1412
aI0
aF124.1736194538359
aI100
aI880288
aI1432965614
aa(lp2751
g1412
aI0
aF1.0
aI100
aI880188
aI1432965826
aa(lp2752
g1412
aI0
aF1.0
aI100
aI880088
aI1432966005
aa(lp2753
g1412
aI1
aF7.502650042293045
aI100
aI880201
aI1432966146
aa(lp2754
g1412
aI0
aF11.012767216376078
aI100
aI880101
aI1432966350
aa(lp2755
g1412
aI1
aF1.0
aI100
aI880001
aI1432966514
aa(lp2756
g1412
aI1
aF3.3567994556996315
aI100
aI879901
aI1432966703
aa(lp2757
g1412
aI1
aF87.27914489336298
aI100
aI879801
aI1432967039
aa(lp2758
g1412
aI1
aF1.0
aI100
aI879811
aI1432967196
aa(lp2759
g1497
aI0
aF94.97619065760773
aI1500
aI1500
aI1432967520
aa(lp2760
g1497
aI1
aF1.1141784649616533
aI1500
aI1500
aI1432967728
aa.