(lp0
(lp1
VM
p2
aF0.5
aI1
aI6059
aI1428390482
aa(lp3
g2
aF0.5540435834014281
aI60
aI6058
aI1428390640
aa(lp4
g2
aF0.8623573199454294
aI599
aI5998
aI1428390786
aa(lp5
g2
aF0.5636307045347366
aI53
aI5399
aI1428390953
aa(lp6
g2
aF0.6436829063882882
aI54
aI5400
aI1428391094
aa(lp7
g2
aF0.8292736191883577
aI543
aI5439
aI1428391307
aa(lp8
g2
aF0.571260893380388
aI54
aI5467
aI1428391448
aa(lp9
g2
aF0.5293924116588913
aI1
aI5413
aI1428391668
aa(lp10
g2
aF0.8106387468979043
aI541
aI5412
aI1428391836
aa(lp11
g2
aF0.7020485076966101
aI563
aI5635
aI1428392011
aa(lp12
g2
aF0.6530540062110032
aI507
aI5072
aI1428392190
aa(lp13
g2
aF0.5924248882986751
aI45
aI4565
aI1428392307
aa(lp14
g2
aF0.8729345586972048
aI452
aI4520
aI1428392562
aa(lp15
g2
aF0.8523197243983796
aI455
aI4554
aI1428392742
aa(lp16
g2
aF0.728342849788417
aI457
aI4574
aI1428392894
aa(lp17
VT
p18
aF0.5827441980123498
aI1425
aI1425
aI1428393129
aa(lp19
g18
aF0.5827441980123498
aI1425
aI1425
aI1428393129
aa(lp20
g18
aF0.5539606523502486
aI1394
aI2789
aI1428393248
aa(lp21
g18
aF0.6048514647095515
aI1503
aI3006
aI1428393416
aa(lp22
g18
aF0.5
aI1741
aI3483
aI1428393660
aa(lp23
g18
aF0.5
aI2029
aI4059
aI1428393810
aa(lp24
g18
aF0.8454072682244992
aI2244
aI4488
aI1428393949
aa(lp25
g18
aF0.893338321609322
aI2864
aI5729
aI1428394114
aa(lp26
g18
aF0.5
aI1432
aI2865
aI1428394267
aa(lp27
g18
aF0.9147515250539154
aI1549
aI3098
aI1428394396
aa(lp28
g18
aF0.5
aI1549
aI1549
aI1428394566
aa(lp29
g18
aF0.6636429869603057
aI1675
aI1675
aI1428394693
aa(lp30
g18
aF0.6453441493589532
aI1002
aI2005
aI1428394883
aa(lp31
g18
aF0.5
aI1089
aI2178
aI1428395097
aa(lp32
g18
aF0.8870422366882437
aI1433
aI2867
aI1428395249
aa(lp33
g18
aF0.5
aI1559
aI3118
aI1428395421
aa(lp34
VE
p35
aF0.5
aI1
aI10454
aI1428395895
aa(lp36
g35
aF0.5
aI1
aI10454
aI1428395896
aa(lp37
g35
aF0.5216921062747653
aI1
aI10453
aI1428396003
aa(lp38
g35
aF0.5
aI1
aI10456
aI1428396149
aa(lp39
g35
aF0.5164752284686212
aI1
aI10457
aI1428396228
aa(lp40
g35
aF0.5
aI1
aI10458
aI1428396348
aa(lp41
g35
aF0.5
aI1
aI10457
aI1428396470
aa(lp42
g35
aF0.7532717968287772
aI1
aI10458
aI1428396639
aa(lp43
g35
aF0.5
aI1
aI10461
aI1428396742
aa(lp44
g35
aF0.6938149153028386
aI1
aI10462
aI1428396913
aa(lp45
g35
aF0.857814412999821
aI1
aI10464
aI1428397048
aa(lp46
g35
aF0.5
aI1
aI10465
aI1428397193
aa(lp47
g35
aF0.8531541533716651
aI1
aI10464
aI1428397364
aa(lp48
g35
aF0.5
aI1
aI10465
aI1428397478
aa(lp49
g35
aF0.7916630763497634
aI1
aI10464
aI1428397582
aa(lp50
g35
aF0.5
aI1
aI10465
aI1428397703
aa(lp51
g35
aF0.5778022545740997
aI1
aI10464
aI1428397893
aa(lp52
g35
aF0.6901381828088675
aI1
aI10463
aI1428397973
aa(lp53
g35
aF0.9719391644824154
aI1
aI10465
aI1428398117
aa(lp54
g35
aF0.5
aI1
aI10464
aI1428398276
aa(lp55
g35
aF0.5
aI1
aI10465
aI1428398432
aa(lp56
g35
aF0.5119266912314349
aI1
aI10464
aI1428398565
aa(lp57
g35
aF0.5
aI1
aI10463
aI1428398663
aa(lp58
g35
aF0.6517842275889656
aI1
aI10462
aI1428398814
aa(lp59
g35
aF0.5
aI1
aI10461
aI1428399043
aa(lp60
g35
aF0.5
aI1
aI10462
aI1428399153
aa(lp61
g2
aF0.7398342540246833
aI1046
aI10461
aI1428399352
aa(lp62
g2
aF0.7000815092758528
aI1266
aI12666
aI1428399546
aa(lp63
g2
aF0.6454644900630668
aI140
aI14024
aI1428399809
aa(lp64
g2
aF0.7472680031590834
aI1410
aI14100
aI1428399940
aa(lp65
g2
aF0.8707436571946425
aI1435
aI14354
aI1428400106
aa(lp66
g2
aF0.6430404124104596
aI161
aI16130
aI1428400304
aa(lp67
g2
aF0.8331486645162716
aI1623
aI16233
aI1428400434
aa(lp68
g2
aF0.769097916778458
aI1635
aI16358
aI1428400572
aa(lp69
g2
aF0.8025583295393424
aI1472
aI14723
aI1428400687
aa(lp70
g2
aF0.7068916586941162
aI1862
aI18627
aI1428400859
aa(lp71
g2
aF0.8727321564801848
aI1894
aI18941
aI1428401027
aa(lp72
g2
aF0.5351786225605528
aI1
aI19181
aI1428401153
aa(lp73
g2
aF0.7071529871066492
aI1918
aI19180
aI1428401300
aa(lp74
g2
aF0.5411725246124874
aI1
aI20236
aI1428401433
aa(lp75
g2
aF0.5129547955007057
aI1
aI20237
aI1428401567
aa(lp76
g2
aF0.6938032991645549
aI2023
aI20238
aI1428401730
aa(lp77
g2
aF0.9705989696309563
aI2044
aI20443
aI1428401971
aa(lp78
g2
aF0.6968976202957768
aI1839
aI18399
aI1428402206
aa(lp79
g2
aF0.8027765340650419
aI1656
aI16560
aI1428402395
aa(lp80
g2
aF0.6802687412146511
aI1490
aI14904
aI1428402561
aa(lp81
g2
aF0.5
aI1
aI16193
aI1428402739
aa(lp82
g2
aF0.8671055732806856
aI1619
aI16194
aI1428402925
aa(lp83
g2
aF0.9541007137093747
aI1457
aI14575
aI1428403062
aa(lp84
g2
aF0.7223090631946916
aI1475
aI14752
aI1428403234
aa(lp85
g2
aF0.5113200034696346
aI1
aI15116
aI1428403442
aa(lp86
g2
aF0.7843951737792416
aI1511
aI15117
aI1428403560
aa(lp87
g2
aF0.626667341697723
aI136
aI13606
aI1428403753
aa(lp88
g2
aF0.994357807145495
aI1347
aI13470
aI1428403901
aa(lp89
g2
aF0.5600288408853807
aI149
aI14994
aI1428404021
aa(lp90
g2
aF0.9189923382293754
aI1484
aI14845
aI1428404185
aa(lp91
g2
aF0.5342873695818698
aI1
aI13361
aI1428404302
aa(lp92
g2
aF0.820472783675658
aI1336
aI13360
aI1428404447
aa(lp93
g2
aF0.5
aI1
aI13584
aI1428404616
aa(lp94
g2
aF0.8850555602722175
aI1358
aI13585
aI1428404786
aa(lp95
g2
aF0.9583854405058974
aI1427
aI14270
aI1428404962
aa(lp96
g2
aF0.5312382147744376
aI1
aI15024
aI1428405130
aa(lp97
g2
aF0.7631363232761097
aI1502
aI15023
aI1428405271
aa(lp98
g2
aF0.5
aI1
aI13521
aI1428405418
aa(lp99
g2
aF0.7783971447327571
aI1352
aI13520
aI1428405591
aa(lp100
g2
aF0.919012871524209
aI4391
aI43911
aI1428405825
aa(lp101
g2
aF0.6341112327333366
aI495
aI49571
aI1428406004
aa(lp102
g2
aF0.5926807694819572
aI490
aI49076
aI1428406121
aa(lp103
g2
aF0.8617758338801433
aI4858
aI48586
aI1428406312
aa(lp104
g2
aF0.5088487629471923
aI1
aI49339
aI1428406456
aa(lp105
g2
aF0.7894916723152532
aI4933
aI49338
aI1428406588
aa(lp106
g2
aF0.8994725681974081
aI4440
aI44405
aI1428406706
aa(lp107
g2
aF0.5
aI1
aI47333
aI1428406868
aa(lp108
g2
aF0.7288774584605147
aI4733
aI47332
aI1428407057
aa(lp109
g2
aF0.5399962230533792
aI1
aI42599
aI1428407222
aa(lp110
g2
aF0.8899729694022256
aI4260
aI42600
aI1428407304
aa(lp111
g2
aF0.5030288395815615
aI1
aI44563
aI1428407600
aa(lp112
g2
aF0.5483176504382309
aI1
aI44564
aI1428407776
aa(lp113
g2
aF0.7885411860342535
aI4456
aI44567
aI1428407947
aa(lp114
g2
aF0.5278983797656998
aI1
aI40111
aI1428408119
aa(lp115
g2
aF0.5383487478549733
aI1
aI40112
aI1428408398
aa(lp116
g2
aF0.8839777480931731
aI4011
aI40113
aI1428408567
aa(lp117
g2
aF0.88007629536821
aI4201
aI42011
aI1428408748
aa(lp118
g2
aF0.6721059918274568
aI4285
aI42856
aI1428408886
aa(lp119
g2
aF0.8045654356594295
aI3857
aI38571
aI1428409021
aa(lp120
g2
aF0.8835233420074338
aI3904
aI39041
aI1428409190
aa(lp121
g2
aF0.5
aI1
aI39791
aI1428409348
aa(lp122
g2
aF0.7997006574925329
aI3979
aI39792
aI1428409524
aa(lp123
g2
aF0.5
aI1
aI40209
aI1428409768
aa(lp124
g2
aF0.6926673435037948
aI4020
aI40208
aI1428409981
aa(lp125
g2
aF0.5908348587406581
aI410
aI41061
aI1428410155
aa(lp126
g2
aF0.6169128880570441
aI411
aI41122
aI1428410405
aa(lp127
g2
aF0.9116659397180351
aI4150
aI41504
aI1428410609
aa(lp128
g2
aF0.8691702197365757
aI4380
aI43801
aI1428410806
aa(lp129
g2
aF0.8691702197365757
aI4380
aI43801
aI1428410806
aa(lp130
g2
aF0.8565237406521268
aI3942
aI39421
aI1428411098
aa(lp131
g2
aF0.6679125945475949
aI4020
aI40206
aI1428411263
aa(lp132
g2
aF0.5
aI1
aI36186
aI1428411408
aa(lp133
g2
aF0.8866920356578846
aI3618
aI36187
aI1428411594
aa(lp134
g2
aF0.627138940129981
aI387
aI38795
aI1428411729
aa(lp135
g2
aF0.8925462114806415
aI3840
aI38408
aI1428412007
aa(lp136
g2
aF0.5814635747455965
aI345
aI34568
aI1428412178
aa(lp137
g2
aF0.636082225601084
aI347
aI34761
aI1428412395
aa(lp138
g2
aF0.7669430617123505
aI3441
aI34414
aI1428412528
aa(lp139
g2
aF0.8717870329177686
aI3715
aI37150
aI1428412803
aa(lp140
g2
aF0.5
aI1
aI37619
aI1428412981
aa(lp141
g2
aF0.7516733637309965
aI3761
aI37618
aI1428413115
aa(lp142
g2
aF0.658981037505802
aI4856
aI48565
aI1428413360
aa(lp143
g2
aF0.8925322227827015
aI5248
aI52489
aI1428413492
aa(lp144
g2
aF0.7958593599820074
aI4724
aI47241
aI1428413728
aa(lp145
g2
aF0.9566258292352907
aI4251
aI42517
aI1428413898
aa(lp146
g2
aF0.5
aI1
aI38266
aI1428414029
aa(lp147
g2
aF0.7214511984248941
aI3826
aI38265
aI1428414150
aa(lp148
g2
aF0.5
aI1
aI34439
aI1428414286
aa(lp149
g2
aF0.5
aI1
aI34438
aI1428414504
aa(lp150
g2
aF0.8357726843103113
aI3443
aI34437
aI1428414725
aa(lp151
g2
aF0.6628581768540743
aI3099
aI30994
aI1428414863
aa(lp152
g2
aF0.5
aI1
aI27895
aI1428415056
aa(lp153
g2
aF0.6886097516320732
aI2789
aI27896
aI1428415201
aa(lp154
g2
aF0.9639303873581976
aI2854
aI28541
aI1428415337
aa(lp155
g2
aF0.6458230398362623
aI302
aI30274
aI1428415567
aa(lp156
g2
aF0.6502152982168868
aI3050
aI30506
aI1428415723
aa(lp157
g2
aF0.8960899148380468
aI2745
aI27456
aI1428415884
aa(lp158
g2
aF0.696263480022738
aI2829
aI28293
aI1428415988
aa(lp159
g2
aF0.5652778531491964
aI315
aI31563
aI1428416144
aa(lp160
g2
aF0.8172930782182863
aI3157
aI31578
aI1428416282
aa(lp161
g2
aF0.5608483232985804
aI284
aI28421
aI1428416452
aa(lp162
g18
aF0.8901909999158661
aI1425
aI1425
aI1428416693
aa(lp163
g18
aF0.6011512092490098
aI1425
aI1425
aI1428416855
aa(lp164
g18
aF0.7191392501069725
aI1425
aI1425
aI1428417009
aa(lp165
g18
aF0.8605687364288742
aI2011
aI4023
aI1428417182
aa(lp166
g18
aF0.6426025669700403
aI3186
aI6373
aI1428417324
aa(lp167
g18
aF0.8215783754455974
aI1593
aI3187
aI1428417485
aa(lp168
g18
aF0.8465516640192328
aI1838
aI3677
aI1428417606
aa(lp169
g18
aF0.8906652330336584
aI2089
aI4179
aI1428417791
aa(lp170
g18
aF0.718738410812852
aI1045
aI2090
aI1428417965
aa(lp171
g18
aF0.8930317975883216
aI1425
aI1425
aI1428418109
aa(lp172
g18
aF0.6520156099151709
aI1425
aI1425
aI1428418238
aa(lp173
g18
aF0.9099037197419135
aI1425
aI1425
aI1428418443
aa(lp174
g18
aF0.795720975867311
aI1114
aI2229
aI1428418633
aa(lp175
g18
aF0.6871918007413323
aI1425
aI1425
aI1428418776
aa(lp176
g18
aF0.8934762649712905
aI3272
aI6545
aI1428419057
aa(lp177
g35
aF0.5
aI1
aI38608
aI1428419485
aa(lp178
g35
aF0.579385485115379
aI1
aI38607
aI1428419590
aa(lp179
g35
aF0.5
aI1
aI38608
aI1428419721
aa(lp180
g35
aF0.5
aI1
aI38607
aI1428419852
aa(lp181
g35
aF0.5
aI1
aI38606
aI1428420012
aa(lp182
g35
aF0.8477365922865729
aI1
aI38607
aI1428420174
aa(lp183
g35
aF0.9844662319126649
aI1
aI38608
aI1428420344
aa(lp184
g35
aF0.5
aI1
aI38609
aI1428420479
aa(lp185
g35
aF0.6441796457084179
aI1
aI38611
aI1428420569
aa(lp186
g35
aF0.5418739383271431
aI1
aI38610
aI1428420701
aa(lp187
g35
aF0.5
aI1
aI38609
aI1428420815
aa(lp188
g35
aF0.5
aI1
aI38608
aI1428420930
aa(lp189
g35
aF0.5
aI1
aI38607
aI1428421036
aa(lp190
g35
aF0.7158038741733594
aI1
aI38611
aI1428421304
aa(lp191
g35
aF0.7628702773187129
aI1
aI38613
aI1428421482
aa(lp192
g35
aF0.5
aI1
aI38615
aI1428421684
aa(lp193
g35
aF0.5
aI1
aI38614
aI1428421854
aa(lp194
g35
aF0.5
aI1
aI38615
aI1428421967
aa(lp195
g35
aF0.5
aI1
aI38614
aI1428422092
aa(lp196
g35
aF0.5
aI1
aI38613
aI1428422306
aa(lp197
g35
aF0.5
aI1
aI38612
aI1428422418
aa(lp198
g35
aF0.5
aI1
aI38613
aI1428422528
aa(lp199
g35
aF0.5
aI1
aI38614
aI1428422696
aa(lp200
g35
aF0.6689541394812086
aI1
aI38613
aI1428422773
aa(lp201
g35
aF0.5
aI1
aI38614
aI1428422885
aa(lp202
g2
aF0.5402385804162803
aI1
aI38631
aI1428423082
aa(lp203
g2
aF0.6275377269037913
aI386
aI38630
aI1428423266
aa(lp204
g2
aF0.5
aI1
aI38796
aI1428423441
aa(lp205
g2
aF0.5759858875051981
aI387
aI38795
aI1428423639
aa(lp206
g2
aF0.7913079653353018
aI3882
aI38823
aI1428423782
aa(lp207
g2
aF0.603325148884239
aI398
aI39898
aI1428423927
aa(lp208
g2
aF0.8304182604673682
aI3950
aI39500
aI1428424129
aa(lp209
g2
aF0.6236283394635069
aI355
aI35550
aI1428424316
aa(lp210
g2
aF0.8994478774319601
aI3519
aI35195
aI1428424520
aa(lp211
g2
aF0.8951050976097008
aI3546
aI35462
aI1428424652
aa(lp212
g2
aF0.524509210311139
aI1
aI48880
aI1428424899
aa(lp213
g2
aF0.9473824699943733
aI4887
aI48879
aI1428425076
aa(lp214
g2
aF0.7730911423736783
aI4399
aI43992
aI1428425224
aa(lp215
g2
aF0.7250603924737279
aI4420
aI44201
aI1428425344
aa(lp216
g2
aF0.6942814100267838
aI5582
aI55824
aI1428425460
aa(lp217
g2
aF0.5087036468464131
aI1
aI58503
aI1428425651
aa(lp218
g2
aF0.6909821753987745
aI5850
aI58504
aI1428425865
aa(lp219
g2
aF0.7709350500263226
aI8098
aI80980
aI1428426122
aa(lp220
g2
aF0.521582509996881
aI1
aI82575
aI1428426279
aa(lp221
g2
aF0.845227543521906
aI8257
aI82574
aI1428426467
aa(lp222
g2
aF0.7090556857858679
aI7431
aI74317
aI1428426624
aa(lp223
g2
aF0.6410945981592142
aI818
aI81857
aI1428426793
aa(lp224
g2
aF0.5613502346744197
aI831
aI83151
aI1428427028
aa(lp225
g2
aF0.6548290397192394
aI8232
aI82320
aI1428427188
aa(lp226
g2
aF0.6673172614879603
aI7408
aI74088
aI1428427444
aa(lp227
g2
aF0.6108167847835252
aI764
aI76487
aI1428427619
aa(lp228
g2
aF0.7012769495483938
aI7572
aI75723
aI1428427780
aa(lp229
g2
aF0.7071651496191156
aI7618
aI76189
aI1428427943
aa(lp230
g2
aF0.8425881556305513
aI6857
aI68571
aI1428428170
aa(lp231
g2
aF0.8886410241945124
aI6171
aI61714
aI1428428304
aa(lp232
g2
aF0.5943199466285897
aI621
aI62180
aI1428428484
aa(lp233
g2
aF0.9276364352634331
aI6155
aI61559
aI1428428639
aa(lp234
g2
aF0.5
aI1
aI55404
aI1428428818
aa(lp235
g2
aF0.5879872913101908
aI554
aI55403
aI1428428991
aa(lp236
g2
aF0.6955576708657628
aI5545
aI55459
aI1428429162
aa(lp237
g2
aF0.7247834733010771
aI5673
aI56730
aI1428429304
aa(lp238
g2
aF0.7873921483120271
aI5704
aI57042
aI1428429423
aa(lp239
g2
aF0.5491163008055655
aI1
aI57247
aI1428429592
aa(lp240
g2
aF0.5
aI1
aI57248
aI1428429725
aa(lp241
g2
aF0.8570287495195847
aI5724
aI57247
aI1428429924
aa(lp242
g2
aF0.5212510588034408
aI1
aI51523
aI1428430113
aa(lp243
g2
aF0.5961435825104698
aI515
aI51522
aI1428430319
aa(lp244
g2
aF0.9571877731455324
aI5193
aI51930
aI1428430504
aa(lp245
g2
aF0.5
aI1
aI46737
aI1428430679
aa(lp246
g2
aF0.5
aI1
aI46738
aI1428430809
aa(lp247
g2
aF0.6457200351109194
aI467
aI46739
aI1428430987
aa(lp248
g2
aF0.6900404268543463
aI4677
aI46771
aI1428431099
aa(lp249
g2
aF0.787716189764968
aI4822
aI48225
aI1428431301
aa(lp250
g2
aF0.6792499259072463
aI4340
aI43403
aI1428431434
aa(lp251
g2
aF0.8400832906589772
aI4390
aI43907
aI1428431585
aa(lp252
g2
aF0.6985803507430365
aI3951
aI39517
aI1428431853
aa(lp253
g2
aF0.8291246190382939
aI4251
aI42518
aI1428432052
aa(lp254
g2
aF0.5598908375950213
aI441
aI44114
aI1428432202
aa(lp255
g2
aF0.5410908113450743
aI1
aI43673
aI1428432396
aa(lp256
g2
aF0.9270842404817964
aI4367
aI43674
aI1428432567
aa(lp257
g2
aF0.5294010008890458
aI1
aI39307
aI1428432725
aa(lp258
g2
aF0.5413546849683042
aI1
aI39306
aI1428432967
aa(lp259
g2
aF0.5
aI1
aI39311
aI1428433182
aa(lp260
g2
aF0.9942961331545633
aI3931
aI39310
aI1428433327
aa(lp261
g2
aF0.7235977713007284
aI3974
aI39745
aI1428433437
aa(lp262
g2
aF0.5
aI1
aI35771
aI1428433616
aa(lp263
g2
aF0.5459009956296126
aI1
aI35770
aI1428433819
aa(lp264
g2
aF0.8146617053633021
aI3576
aI35769
aI1428433970
aa(lp265
g2
aF0.7013901380753335
aI3219
aI32193
aI1428434107
aa(lp266
g2
aF0.7232264773323197
aI2897
aI28974
aI1428434250
aa(lp267
g2
aF0.5483180051354766
aI1
aI29717
aI1428434374
aa(lp268
g2
aF0.8186088961843734
aI2971
aI29719
aI1428434517
aa(lp269
g2
aF0.5
aI1
aI29822
aI1428434686
aa(lp270
g2
aF0.9449505197060772
aI2982
aI29823
aI1428434821
aa(lp271
g2
aF0.5309967325427074
aI1
aI26841
aI1428435068
aa(lp272
g2
aF0.5715716226865162
aI268
aI26840
aI1428435225
aa(lp273
g2
aF0.638564716854596
aI265
aI26572
aI1428435428
aa(lp274
g2
aF0.8680815544693197
aI2682
aI26827
aI1428435540
aa(lp275
g2
aF0.5782693016029821
aI241
aI24145
aI1428435693
aa(lp276
g2
aF0.9435097365818282
aI2423
aI24236
aI1428435911
aa(lp277
g2
aF0.5561532087004822
aI218
aI21813
aI1428436040
aa(lp278
g2
aF0.8265391993240918
aI2185
aI21859
aI1428436225
aa(lp279
g2
aF0.5
aI1
aI19674
aI1428436435
aa(lp280
g2
aF0.8955429408789779
aI1967
aI19675
aI1428436517
aa(lp281
g2
aF0.6806933617123144
aI1987
aI19873
aI1428436631
aa(lp282
g2
aF0.5672675523798828
aI178
aI17886
aI1428436764
aa(lp283
g2
aF0.86819665931886
aI1814
aI18140
aI1428436941
aa(lp284
g2
aF0.6207105543100484
aI188
aI18845
aI1428437074
aa(lp285
g2
aF0.5826868533030466
aI186
aI18657
aI1428437244
aa(lp286
g2
aF0.5
aI1
aI18674
aI1428437338
aa(lp287
g2
aF0.9264570643517429
aI1867
aI18673
aI1428437453
aa(lp288
g2
aF0.6061755078514376
aI168
aI16806
aI1428437644
aa(lp289
g2
aF0.7998044431452044
aI1663
aI16638
aI1428437827
aa(lp290
g2
aF0.7244041874771476
aI2434
aI24344
aI1428438016
aa(lp291
g2
aF0.7432001345043716
aI2191
aI21910
aI1428438190
aa(lp292
g2
aF0.9022585943954367
aI2207
aI22071
aI1428438325
aa(lp293
g2
aF0.7454449042216598
aI2210
aI22109
aI1428438437
aa(lp294
g2
aF0.6609545132124981
aI1989
aI19899
aI1428438681
aa(lp295
g2
aF0.5141348800501453
aI1
aI17910
aI1428438865
aa(lp296
g2
aF0.5803365320944425
aI179
aI17913
aI1428439061
aa(lp297
g2
aF0.7943527292224114
aI1773
aI17734
aI1428439252
aa(lp298
g2
aF0.9100074212321938
aI1812
aI18128
aI1428439371
aa(lp299
g2
aF0.5
aI1
aI16316
aI1428439625
aa(lp300
g2
aF0.8493340871680526
aI1631
aI16315
aI1428439733
aa(lp301
g2
aF0.5936017362099294
aI146
aI14684
aI1428439944
aa(lp302
g18
aF0.8464172446590446
aI1425
aI1425
aI1428440228
aa(lp303
g18
aF0.8464172446590446
aI1425
aI1425
aI1428440228
aa(lp304
g18
aF0.703313879549781
aI1443
aI2887
aI1428440513
aa(lp305
g18
aF0.9207735641545921
aI2330
aI4660
aI1428440702
aa(lp306
g18
aF0.6959961576551693
aI2684
aI5369
aI1428440863
aa(lp307
g18
aF0.5
aI5360
aI10720
aI1428440982
aa(lp308
g18
aF0.5318061953190647
aI7463
aI14927
aI1428441115
aa(lp309
g18
aF0.5858855005485293
aI3732
aI7464
aI1428441311
aa(lp310
g18
aF0.8449324441481514
aI4052
aI8104
aI1428441504
aa(lp311
g18
aF0.6106386685689876
aI6261
aI12523
aI1428441655
aa(lp312
g18
aF0.7282238018815212
aI3131
aI6262
aI1428441918
aa(lp313
g18
aF0.5
aI1565
aI3131
aI1428442021
aa(lp314
g18
aF0.6684984431269582
aI2492
aI4984
aI1428442179
aa(lp315
g18
aF0.7305497066225068
aI1246
aI2492
aI1428442376
aa(lp316
g18
aF0.5
aI1425
aI1425
aI1428442649
aa(lp317
g18
aF0.572670343990306
aI1749
aI1749
aI1428442787
aa(lp318
g35
aF0.5
aI1
aI17259
aI1428443293
aa(lp319
g35
aF0.5
aI1
aI17259
aI1428443294
aa(lp320
g35
aF0.5
aI1
aI17260
aI1428443432
aa(lp321
g35
aF0.6841837530371544
aI1
aI17259
aI1428443523
aa(lp322
g35
aF0.5
aI1
aI17260
aI1428443697
aa(lp323
g35
aF0.5
aI1
aI17262
aI1428443927
aa(lp324
g35
aF0.5
aI1
aI17261
aI1428444122
aa(lp325
g35
aF0.5
aI1
aI17260
aI1428444228
aa(lp326
g35
aF0.5
aI1
aI17259
aI1428444333
aa(lp327
g35
aF0.569556826165593
aI1
aI17258
aI1428444471
aa(lp328
g35
aF0.8167401328214171
aI1
aI17257
aI1428444693
aa(lp329
g35
aF0.7879422127537048
aI1
aI17256
aI1428444788
aa(lp330
g35
aF0.5
aI1
aI17257
aI1428444939
aa(lp331
g35
aF0.5
aI1
aI17256
aI1428445066
aa(lp332
g35
aF0.5444112349602457
aI1
aI17255
aI1428445146
aa(lp333
g35
aF0.5
aI1
aI17256
aI1428445274
aa(lp334
g35
aF0.6038549804825403
aI1
aI17255
aI1428445428
aa(lp335
g35
aF0.7909986856085621
aI1
aI17254
aI1428445496
aa(lp336
g35
aF0.558912354628876
aI1
aI17255
aI1428445653
aa(lp337
g35
aF0.5
aI1
aI17256
aI1428445860
aa(lp338
g35
aF0.774247586064635
aI1
aI17260
aI1428445967
aa(lp339
g35
aF0.5
aI1
aI17260
aI1428446409
aa(lp340
g35
aF0.6027737666246656
aI1
aI17259
aI1428446533
aa(lp341
g35
aF0.5
aI1
aI17258
aI1428446661
aa(lp342
g35
aF0.5
aI1
aI17259
aI1428446766
aa(lp343
g35
aF0.6051217958804678
aI1
aI17258
aI1428446935
aa(lp344
g2
aF0.8801795718397557
aI1725
aI17259
aI1428447135
aa(lp345
g2
aF0.7534109755663237
aI1781
aI17817
aI1428447288
aa(lp346
g2
aF0.7397564348099843
aI1805
aI18050
aI1428447508
aa(lp347
g2
aF0.501817815632505
aI1
aI16245
aI1428447737
aa(lp348
g2
aF0.7104824791618269
aI1624
aI16246
aI1428447837
aa(lp349
g2
aF0.9155081212015261
aI1646
aI16468
aI1428448005
aa(lp350
g2
aF0.5
aI1
aI17782
aI1428448207
aa(lp351
g2
aF0.734541650473881
aI1778
aI17783
aI1428448414
aa(lp352
g2
aF0.9380317799561104
aI2105
aI21057
aI1428448602
aa(lp353
g2
aF0.8541139588971914
aI2179
aI21792
aI1428448775
aa(lp354
g2
aF0.806883442796553
aI2241
aI22413
aI1428448930
aa(lp355
g2
aF0.8213440540892318
aI2247
aI22475
aI1428449038
aa(lp356
g2
aF0.7956246556760007
aI2444
aI24440
aI1428449289
aa(lp357
g2
aF0.8980283297994713
aI3149
aI31495
aI1428449563
aa(lp358
g2
aF0.5
aI1
aI28346
aI1428449764
aa(lp359
g2
aF0.6891922677694009
aI2835
aI28351
aI1428450003
aa(lp360
g2
aF0.8999996933566415
aI2835
aI28351
aI1428450303
aa(lp361
g2
aF0.6862597450224359
aI2551
aI25516
aI1428450440
aa(lp362
g2
aF0.9168452501253115
aI2596
aI25961
aI1428450599
aa(lp363
g2
aF0.5457046686446325
aI1
aI26666
aI1428450737
aa(lp364
g2
aF0.8236122470095838
aI2666
aI26665
aI1428450946
aa(lp365
g2
aF0.6832869522675445
aI3327
aI33275
aI1428451192
aa(lp366
g2
aF0.7194282697120398
aI3809
aI38098
aI1428451342
aa(lp367
g2
aF0.6798540443193946
aI3428
aI34289
aI1428451450
aa(lp368
g2
aF0.7210148845084959
aI5149
aI51496
aI1428451610
aa(lp369
g2
aF0.6710315070020617
aI5799
aI57990
aI1428451767
aa(lp370
g2
aF0.5
aI1
aI59234
aI1428451919
aa(lp371
g2
aF0.8899635455097793
aI5923
aI59233
aI1428452126
aa(lp372
g2
aF0.7512865552051826
aI6056
aI60569
aI1428452283
aa(lp373
g2
aF0.5
aI1
aI60641
aI1428452436
aa(lp374
g2
aF0.7867660461273482
aI6064
aI60640
aI1428452637
aa(lp375
g2
aF0.5438573920928437
aI1
aI65226
aI1428452815
aa(lp376
g2
aF0.5
aI1
aI65227
aI1428452922
aa(lp377
g2
aF0.5320100756875167
aI1
aI65226
aI1428453066
aa(lp378
g2
aF0.6896528033638925
aI6522
aI65227
aI1428453202
aa(lp379
g2
aF0.7749029948916127
aI6658
aI66583
aI1428453328
aa(lp380
g2
aF0.5200550710678913
aI1
aI59925
aI1428453437
aa(lp381
g2
aF0.7261469674342917
aI5992
aI59924
aI1428453555
aa(lp382
g2
aF0.9061157292375702
aI6854
aI68547
aI1428453718
aa(lp383
g2
aF0.6048456030338283
aI817
aI81775
aI1428453905
aa(lp384
g2
aF0.6481780908154882
aI809
aI80958
aI1428454012
aa(lp385
g2
aF0.8923790560510262
aI8117
aI81170
aI1428454279
aa(lp386
g2
aF0.5142599999103757
aI1
aI96273
aI1428454429
aa(lp387
g2
aF0.6510823656875939
aI9627
aI96274
aI1428454583
aa(lp388
g2
aF0.8091786052700899
aI9756
aI97560
aI1428454695
aa(lp389
g2
aF0.6675908486716853
aI8780
aI87804
aI1428454837
aa(lp390
g2
aF0.660431944146725
aI7902
aI79024
aI1428455068
aa(lp391
g2
aF0.5
aI1
aI82684
aI1428455299
aa(lp392
g2
aF0.9250391937130792
aI8268
aI82683
aI1428455443
aa(lp393
g2
aF0.6391217114859867
aI836
aI83624
aI1428455557
aa(lp394
g2
aF0.7785908694760177
aI8576
aI85762
aI1428455765
aa(lp395
g2
aF0.934193344548773
aI10171
aI101714
aI1428455940
aa(lp396
g2
aF0.8332022523598737
aI11164
aI111644
aI1428456092
aa(lp397
g2
aF0.8823672121874471
aI10048
aI100480
aI1428456286
aa(lp398
g2
aF0.6834564545622919
aI9043
aI90432
aI1428456443
aa(lp399
g2
aF0.6286787345664215
aI928
aI92845
aI1428456685
aa(lp400
g2
aF0.6545415000172893
aI9293
aI92938
aI1428456918
aa(lp401
g2
aF0.5449247098026684
aI1
aI83645
aI1428457055
aa(lp402
g2
aF0.6900258713262927
aI8364
aI83644
aI1428457214
aa(lp403
g2
aF0.7036278631801492
aI8824
aI88246
aI1428457335
aa(lp404
g2
aF0.6784576201874775
aI7942
aI79422
aI1428457563
aa(lp405
g2
aF0.7919756595259786
aI7981
aI79812
aI1428457702
aa(lp406
g2
aF0.87922511655419
aI9514
aI95143
aI1428457821
aa(lp407
g2
aF0.5058320572096463
aI1
aI85629
aI1428457961
aa(lp408
g2
aF0.8867366775831677
aI8562
aI85628
aI1428458125
aa(lp409
g2
aF0.7656386248824271
aI11205
aI112056
aI1428458243
aa(lp410
g2
aF0.5
aI1
aI100851
aI1428458418
aa(lp411
g2
aF0.6747855568408574
aI10085
aI100850
aI1428458700
aa(lp412
g2
aF0.7778323783490528
aI10152
aI101523
aI1428458833
aa(lp413
g2
aF0.8560304333052092
aI9137
aI91371
aI1428458969
aa(lp414
g2
aF0.8165944486390417
aI9225
aI92253
aI1428459105
aa(lp415
g2
aF0.9888076494879184
aI9356
aI93561
aI1428459333
aa(lp416
g2
aF0.8803618597911782
aI8420
aI84205
aI1428459496
aa(lp417
g2
aF0.6899544689801844
aI8984
aI89849
aI1428459642
aa(lp418
g2
aF0.5798028200991265
aI1645
aI164522
aI1428459858
aa(lp419
g2
aF0.6554236948522794
aI16709
aI167091
aI1428459978
aa(lp420
g2
aF0.5850639986123479
aI1717
aI171786
aI1428460148
aa(lp421
g2
aF0.6695828084953619
aI17196
aI171966
aI1428460372
aa(lp422
g2
aF0.9520694855829546
aI18591
aI185913
aI1428460566
aa(lp423
g2
aF0.7919502972424912
aI18711
aI187113
aI1428460669
aa(lp424
g2
aF0.5489430270012385
aI1
aI211282
aI1428460867
aa(lp425
g2
aF0.8679526676717065
aI21128
aI211283
aI1428461040
aa(lp426
g2
aF0.85737363553957
aI19015
aI190155
aI1428461307
aa(lp427
g2
aF0.596727444096076
aI1711
aI171140
aI1428461448
aa(lp428
g2
aF0.8294941316537761
aI16942
aI169429
aI1428461579
aa(lp429
VM
p430
aF0.5367495612579232
aI1
aI152487
aI1428461722
aa(lp431
g430
aF0.8736570969685598
aI15248
aI152489
aI1428461938
aa(lp432
g430
aF0.6817304165115705
aI13724
aI137241
aI1428462120
aa(lp433
g430
aF0.5
aI1
aI123517
aI1428462265
aa(lp434
g430
aF0.5
aI1
aI123518
aI1428462427
aa(lp435
g430
aF0.5892817683625022
aI1235
aI123519
aI1428462677
aa(lp436
g430
aF0.8189463049595695
aI12362
aI123628
aI1428462820
aa(lp437
g430
aF0.541768367412481
aI1
aI126005
aI1428462956
aa(lp438
g430
aF0.5708616411645143
aI1260
aI126004
aI1428463183
aa(lp439
g430
aF0.6146732423089117
aI1247
aI124744
aI1428463414
aa(lp440
g430
aF0.812584936359738
aI12349
aI123497
aI1428463569
aa(lp441
g430
aF0.8528117906093202
aI12611
aI126114
aI1428463703
aa(lp442
g430
aF0.5
aI1
aI127816
aI1428463913
aa(lp443
g430
aF0.5590416850968071
aI1278
aI127815
aI1428464053
aa(lp444
g430
aF0.5
aI1
aI135387
aI1428464198
aa(lp445
VT
p446
aF0.7861650597792799
aI1425
aI1425
aI1428464512
aa(lp447
g446
aF0.7861650597792799
aI1425
aI1425
aI1428464512
aa(lp448
g446
aF0.6054179129179638
aI1425
aI1425
aI1428464714
aa(lp449
g446
aF0.7821997085439327
aI1913
aI1913
aI1428464916
aa(lp450
g446
aF0.5442661819822887
aI1210
aI2420
aI1428465045
aa(lp451
g446
aF0.5204223074808825
aI1425
aI1425
aI1428465310
aa(lp452
g446
aF0.7947952902390967
aI1425
aI1425
aI1428465517
aa(lp453
g446
aF0.8540788277362097
aI1425
aI1425
aI1428465639
aa(lp454
g446
aF0.8347705025926337
aI1694
aI1694
aI1428465845
aa(lp455
g446
aF0.6399361826022949
aI1434
aI2868
aI1428466166
aa(lp456
g446
aF0.5493116160474468
aI1503
aI3006
aI1428466282
aa(lp457
g446
aF0.8536968300688339
aI1503
aI1503
aI1428466498
aa(lp458
g446
aF0.754917435036516
aI1542
aI3085
aI1428466680
aa(lp459
g446
aF0.6756623889814535
aI1543
aI1543
aI1428466853
aa(lp460
g446
aF0.7202004825596267
aI1425
aI1425
aI1428467057
aa(lp461
g446
aF0.6684613934918664
aI1904
aI1904
aI1428467367
aa(lp462
VE
p463
aF0.5847252688822707
aI1
aI136813
aI1428467834
aa(lp464
g463
aF0.6754268463714695
aI1
aI136814
aI1428467973
aa(lp465
g463
aF0.5
aI1
aI136815
aI1428468096
aa(lp466
g463
aF0.5
aI1
aI136814
aI1428468258
aa(lp467
g463
aF0.7741691672203012
aI1
aI136815
aI1428468354
aa(lp468
g463
aF0.5
aI1
aI136816
aI1428468502
aa(lp469
g463
aF0.5
aI1
aI136817
aI1428468638
aa(lp470
g463
aF0.5
aI1
aI136816
aI1428468797
aa(lp471
VM
p472
aI1
aF0.6157146026912399
aI100
aI937640
aI1431818922
aa(lp473
g472
aI1
aF0.9510742346746961
aI100
aI937540
aI1431819133
aa(lp474
g472
aI0
aF0.9878938914841978
aI100
aI937440
aI1431819339
aa.