(lp0
(dp1
VKasumi 98
p2
I0
sVGadisii
p3
I1
sVT. kawk
p4
I2
sVScopedog-rsc
p5
I3
sVLf2 - deep
p6
I4
sVLucky colt
p7
I5
sVFf mai shiranui
p8
I6
sVArmor Guts
p9
I7
sVHaohmaru EX
p10
I8
sVS.sinclair EX
p11
I9
sVIka musume
p12
I10
sVSkeletor dx
p13
I11
sVScarecrow
p14
I12
sVSheep the royal
p15
I13
sVM-e-warlock
p16
I4330
sVBlack joker
p17
I14
sVMulan
p18
I15
sVSledge
p19
I16
sVGuy mk ii
p20
I17
sVClaus
p21
I18
sVUltraman jack_a
p22
I19
sVHeavyarms custom
p23
I20
sVBlack polnareff
p24
I21
sVRonald
p25
I22
sVShigen
p26
I23
sVDhaos ND3
p27
I24
sVAzami
p28
I25
sVBalrog IV
p29
I26
sVAruru(yuka)
p30
I27
sVBaltan
p31
I30
sVSheng long
p32
I31
sVWonderman
p33
I32
sVMordecai
p34
I3009
sVDougster
p35
I33
sVBonobono
p36
I34
sVFirestar
p37
I35
sVFakir
p38
I36
sVBlade
p39
I37
sVPocket Gouki
p40
I38
sVAoi matsubara
p41
I39
sVHiei
p42
I40
sVRoadsign
p43
I41
sVSatsuki yumiduka EX
p44
I4065
sVXenophage
p45
I42
sVThanoseid
p46
I43
sVMukai
p47
I4286
sVObsidian
p48
I4508
sVSammo-hacka
p49
I45
sVMister king
p50
I46
sVSion tatari EX2
p51
I47
sVBroly
p52
I48
sVPsyduck
p53
I49
sVSatsuki yumiduka
p54
I50
sVItachi uchiha nzc
p55
I51
sVThe batman
p56
I4178
sVEvil q
p57
I4273
sVD4 kirby
p58
I52
sVBroli
p59
I3978
sVProfessor x
p60
I3863
sVThe mask
p61
I53
sVPaul
p62
I54
sVSyoh
p63
I2417
sVRubette EX2
p64
I55
sVChar's zaku
p65
I56
sVKuanyinshen_nagiai
p66
I57
sVBenimaru945
p67
I58
sVLion(coh)
p68
I59
sVCrazy mukuro
p69
I60
sVShiki
p70
I61
sVDongdong'
p71
I62
sVSatoko
p72
I63
sVChinese gouki
p73
I64
sVRiesbyfe stridberg
p74
I65
sVKinniku suguru
p75
I66
sVGen shougo
p76
I67
sVBloodrayne
p77
I68
sVMizuki
p78
I69
sVShizuka
p79
I70
sVChippzanuff
p80
I71
sVGideon
p81
I72
sVSegalow
p82
I73
sVSuper vegeta EX3
p83
I4158
sVRotom
p84
I75
sVShadow geist
p85
I1421
sVGrievous
p86
I76
sVKohaku
p87
I78
sVZeus
p88
I4479
sVMokou fujiwara
p89
I1189
sVKim XIII
p90
I79
sVKung fu man neo
p91
I80
sVSyakoya
p92
I4421
sVNosferu
p93
I3319
sVLeo FM
p94
I81
sVGolrio
p95
I4182
sVDormammu-r
p96
I82
sVRamparudo
p97
I83
sVAkiko EX
p98
I4179
sVSachiko
p99
I84
sVShiki tohno
p100
I85
sVMech gouki
p101
I4708
sVSquirtle
p102
I4424
sVGanondorf
p103
I86
sVBc-sakura
p104
I87
sVEx-kyo
p105
I88
sVXiayu
p106
I89
sVEx-kyo(jin-typea)
p107
I90
sVHulk 2099
p108
I4166
sVHato sabure
p109
I91
sVYuka
p110
I92
sVAtomos
p111
I93
sVAzure
p112
I94
sVValdoll
p113
I95
sVJon talbain
p114
I3886
sVHonda ex
p115
I96
sVHancock EX
p116
I97
sVCustom sd luffy
p117
I98
sVHamtaro
p118
I4482
sVRanma saotome EX2
p119
I99
sVCaptain caveman
p120
I100
sVAkane inuwaka
p121
I101
sVShadow agent
p122
I3973
sVThe moon
p123
I102
sVElisabeth
p124
I103
sVOyashiro_chie
p125
I104
sVMike Tyson IWBTG
p126
I105
sVFff
p127
I106
sVRadel
p128
I107
sVBaby bonnie hood
p129
I108
sVYatteyaru-death
p130
I109
sVArchangel
p131
I110
sVGohan  grande normale
p132
I111
sVJet
p133
I112
sVKon
p134
I4662
sVMagic dunker EX FF
p135
I113
sVMother
p136
I114
sVMadoka kaname_ai
p137
I115
sVKana-chan dhq
p138
I116
sVNorimaro MVC3
p139
I4374
sVArima_miyako
p140
I117
sVBoon
p141
I119
sVM-gato
p142
I120
sVD.hibiki
p143
I121
sVAlessi
p144
I122
sVKou
p145
I123
sVAlsa
p146
I124
sVHakumen
p147
I1305
sVNirvana
p148
I125
sVMiyako yoshika
p149
I126
sVZeppeli ex
p150
I127
sVCvs shiva
p151
I128
sVSailor jupiter EX2
p152
I129
sVSorluska EX2
p153
I130
sVKarina toyota
p154
I131
sVRemilia scarlet
p155
I132
sVAgrias
p156
I4268
sVNarukana EX3
p157
I133
sVOgre
p158
I3029
sVApplejack
p159
I134
sVMichaelangelo
p160
I135
sVSailor chibi moon
p161
I136
sVRaptor
p162
I137
sVLeon c
p163
I138
sVHarley quinn
p164
I4278
sVCci shermie
p165
I139
sVHoimislime
p166
I140
sVShadow x
p167
I141
sVPaprika
p168
I142
sVKain
p169
I908
sVTurf EX3
p170
I144
sVKool aid man
p171
I4037
sVDooj mustachio
p172
I145
sVGeese CVS
p173
I146
sVElena_n
p174
I147
sV95
p175
I3914
sVKula xiii
p176
I4670
sVGouki x
p177
I148
sVMery
p178
I149
sVGuy CVS
p179
I150
sVKatakura kojuro
p180
I151
sVWalkure
p181
I152
sVButtercup DG
p182
I153
sVDeadpool mvc3
p183
I154
sVPrizm-star
p184
I155
sVNanoha takamachi EX3
p185
I156
sVHitosyura ex
p186
I157
sVPopeye
p187
I158
sVMarona(beta)
p188
I159
sVGundam rx-78 gp02a
p189
I160
sVAmiba EX
p190
I161
sVDevilch
p191
I162
sVFireman EX3
p192
I3557
sVMotaro
p193
I4175
sVWasp
p194
I163
sVTokiko EX2
p195
I164
sVMiyako
p196
I165
sVEx keine
p197
I166
sVPresea combatir
p198
I167
sVBilly kane ffsp
p199
I168
sVRuby heart mvc3
p200
I169
sVRyo EX2
p201
I4324
sVUroboros
p202
I170
sVMargaretha_solin
p203
I171
sVMasaki anzu
p204
I172
sVMiduma EX3
p205
I173
sVRera EX3
p206
I174
sVShadow EX3
p207
I175
sVEagle
p208
I176
sVKuma CVS
p209
I177
sVShiori misaka
p210
I178
sVKai
p211
I179
sVApollo
p212
I180
sVMami EX
p213
I181
sVRokurouta
p214
I182
sVMokou EX H
p215
I183
sVJin
p216
I184
sVMiranda
p217
I185
sVIronman
p218
I186
sVKay
p219
I187
sVRock volnutt
p220
I188
sVSub-zero
p221
I189
sVMongori EX
p222
I190
sVWily
p223
I191
sVMarian
p224
I192
sVSs6 rinrin
p225
I193
sVShadow kouma
p226
I194
sVNoel
p227
I3918
sVS.clara
p228
I195
sVEharu EX3
p229
I196
sVDokuo_ver1.39
p230
I4493
sVSa-x
p231
I197
sVCatwoman EX
p232
I198
sVReal gloria
p233
I199
sVCarlos
p234
I200
sVHibiki-san
p235
I626
sVNanaya toki
p236
I202
sVCloud (3d)
p237
I203
sVIdaten
p238
I204
sVMulchi fe
p239
I205
sVDhalsims
p240
I206
sVAoba EX2
p241
I207
sVDeluxe lucia fernandez
p242
I4566
sVBobby mk ii
p243
I208
sVBlack widow EX
p244
I209
sVChadha
p245
I1786
sVMomasusta
p246
I4494
sVSpy larue e
p247
I210
sVPerson-lichkeit
p248
I211
sVKensou EX3
p249
I4221
sVIrene
p250
I212
sVArrange_godzilla
p251
I213
sVUltraman_a
p252
I214
sVBilly kane
p253
I215
sVTamao mitsurugi
p254
I216
sVHiguresan
p255
I217
sVRare Sophitia
p256
I2099
sVAngela belti
p257
I218
sVElektra
p258
I219
sVKen X
p259
I4004
sVMomo-len_ver1.39
p260
I221
sVMade multi
p261
I222
sVRock howard EX2
p262
I223
sVGen sfa
p263
I224
sVDeath EX3
p264
I4294
sVShuma
p265
I225
sVMain Man Knuckles
p266
I226
sVSalty Goku GT
p267
I227
sVNakoruru EX2
p268
I228
sVNakoruru EX3
p269
I229
sVKlaus garcia
p270
I230
sVP tabasa
p271
I4394
sVGaira
p272
I231
sV'gou no ken' kenshirou
p273
I232
sVVidel fight money
p274
I233
sVRoy wilson
p275
I234
sVHerb
p276
I235
sVEl_yukari
p277
I4495
sVKyo 98
p278
I236
sVDiyaa man
p279
I237
sVKiller whale
p280
I238
sVOgre akuma
p281
I239
sVKotiya sanae
p282
I240
sVDora
p283
I4236
sVKinopio EX
p284
I241
sVEmerald
p285
I242
sVTensi
p286
I243
sVRaoh sai
p287
I244
sVF.killerbee
p288
I245
sVKim hoon EX
p289
I3025
sVBrunestud arcueid
p290
I246
sVToron
p291
I247
sVMugen de saikyou no lemirya
p292
I4388
sVKasumi ex
p293
I4502
sVDitto
p294
I248
sVAnthony hawk
p295
I249
sVKliff
p296
I250
sVDark order sol
p297
I251
sVScarlet dragon EX3
p298
I2554
sVSeth
p299
I252
sVKung fu man v-ism
p300
I253
sVRyofu
p301
I254
sVKen EX3
p302
I255
sVIceman
p303
I3989
sVWeregarurumon
p304
I257
sVUmvc_aya
p305
I258
sVJamm
p306
I259
sVNameless
p307
I260
sVDuke nukem
p308
I261
sVBuront
p309
I262
sVCustom ssfiv abel
p310
I263
sVNightmare gamera
p311
I4422
sVKirigamine kiriko
p312
I4228
sVGohan zeta
p313
I3913
sVKikyo_ex
p314
I264
sVSmall ryu EX3
p315
I4722
sVShikamaru nara
p316
I4693
sVWind-se
p317
I266
sVSuper vegetto ag
p318
I267
sVYoshimitsu
p319
I4488
sVDerp
p320
I268
sVShandera-k
p321
I269
sV<> ( 0)<>/2
p322
I270
sVDizzy
p323
I4719
sVProofed up matt
p324
I271
sVRainbow
p325
I4684
sVCheep-chomp
p326
I272
sVUm-krizalid-2k1
p327
I273
sVMaxima EX3
p328
I274
sVOotani reimu
p329
I275
sVSupermario64
p330
I2738
sVVaisaga
p331
I276
sVCaptain atlantis
p332
I4476
sVHugo dc
p333
I4630
sVBsb ridley
p334
I277
sVRaydric_and_archer
p335
I4414
sVStevareno
p336
I278
sVBilly two moons (jp)
p337
I279
sVBrocken
p338
I280
sVScorpion EX2
p339
I281
sVScorpion EX3
p340
I282
sVSyo hayate EX
p341
I283
sVElisabeth EX3
p342
I284
sVPlok
p343
I285
sVAzusa
p344
I286
sVN.boss
p345
I287
sVBra 18
p346
I4536
sVDeidara nzc
p347
I288
sVHyperbattlecyborg
p348
I289
sVHydron
p349
I290
sVWashizuka b style
p350
I291
sVKatana
p351
I292
sVChun-lee dark bolt
p352
I294
sVMelusine
p353
I295
sVHattori-hanzo
p354
I1208
sVMajin boo EX3
p355
I296
sVNakoruru
p356
I4090
sVHiedano akyu
p357
I297
sVKinu_ex
p358
I298
sVUmvc_youmu
p359
I299
sVKing ghidorah
p360
I300
sVMiyuki
p361
I301
sVGoku z2
p362
I302
sVAkira
p363
I303
sVAisha
p364
I304
sVShizumaru ex
p365
I305
sVLion_gunta
p366
I306
sVRei ayanami
p367
I307
sVMai 2k2
p368
I308
sVSuzuki megumi
p369
I309
sVRozaly
p370
I310
sVUnkoman
p371
I311
sVMeu(you-ki)
p372
I312
sVRimle
p373
I313
sVJackie Drunken Fist
p374
I314
sVMature
p375
I315
sVTien
p376
I3928
sVKano EX
p377
I4475
sVKiki de appendix
p378
I317
sVEvil homer
p379
I318
sVCyborg_d-9f
p380
I319
sVYu-lan
p381
I1280
sVCheatman
p382
I320
sVChan
p383
I3940
sVRaoh
p384
I323
sVNair
p385
I4398
sVNail
p386
I324
sVSoma cruz ex
p387
I325
sVDeluxe tetsu yatogi
p388
I3939
sVCandyman
p389
I3941
sVGaira EX2
p390
I326
sVTruck
p391
I4106
sVSilversamurai mvc2
p392
I4010
sVDlanor a. knox
p393
I327
sVTeoc reisen
p394
I328
sVStoneaxe
p395
I329
sVBekkamu2
p396
I330
sVUltraman gaia_a
p397
I331
sVCci kim
p398
I332
sVBridget
p399
I333
sVSai EX2
p400
I334
sVZangief maskered
p401
I335
sVCammy
p402
I336
sVClawbear
p403
I337
sVGod_gundom
p404
I338
sVJin saotome
p405
I339
sVKill bill gogo
p406
I340
sVMayor of earth
p407
I4432
sVRikard
p408
I341
sVGoat_b
p409
I342
sVRalf
p410
I343
sVRugagaga!!
p411
I344
sVJudgment EX3
p412
I345
sVSonic
p413
I346
sVYumeji kurokouchi
p414
I347
sVYuiren
p415
I348
sVBimmy Lee
p416
I349
sVSeth EX3
p417
I350
sVMyth blue ranger
p418
I3272
sVAdo
p419
I1733
sVMirror cube square
p420
I351
sVVile EX3
p421
I352
sVDoraemon EX3
p422
I353
sVAthena asamiya
p423
I3888
sVHomura & friends
p424
I354
sVXavier pendragon
p425
I1840
sVMystique
p426
I566
sVG silver
p427
I356
sVJudgment
p428
I357
sVPhobos(yanagi_ai)
p429
I4665
sVGeisya
p430
I452
sVZuepia
p431
I4094
sVIron lantern
p432
I3098
sVLilly kane
p433
I359
sVLady aozaki
p434
I360
sVThe flash
p435
I361
sVRoyal air king
p436
I362
sVBroly lssj3
p437
I4586
sVMuhi
p438
I4085
sVE Ken
p439
I4006
sVStorm-owl
p440
I363
sVFurudo_erika
p441
I364
sVDonkeykongjr EX
p442
I365
sVGuile cvs2
p443
I366
sVNise athena
p444
I367
sVVanillaIce
p445
I368
sVK joker
p446
I3960
sVMakoto sawatari
p447
I369
sVKotonoha katsura
p448
I370
sVUltraman dyna_a
p449
I371
sVNatasha
p450
I372
sVBlanka
p451
I373
sVRobo
p452
I374
sVLegion EX3
p453
I375
sVA-unagi
p454
I376
sVA-kain
p455
I377
sVFinn and jake
p456
I378
sVKazami yuka_ns
p457
I379
sVDead kung fu man EX3
p458
I4483
sVMiroku
p459
I380
sVWarmachine MVC2
p460
I381
sVYoumu konpaku
p461
I382
sVAkiha tohno EX
p462
I523
sVOrochi(rance)
p463
I383
sVGloria EX3
p464
I384
sVFray
p465
I3281
sVSonson
p466
I385
sVVenom GG
p467
I386
sVAlex_a
p468
I387
sVCody EX
p469
I388
sVLililen
p470
I389
sVOverlord
p471
I4321
sVBender
p472
I390
sVLf2 - dennis
p473
I391
sVMs.valliere
p474
I392
sVScharlachrot
p475
I393
sVStake
p476
I394
sV98
p477
I143
sVShocker
p478
I395
sVSue sakamoto
p479
I396
sVKyoko_sakura EX
p480
I4067
sVJunichi
p481
I397
sVCharlie EX3
p482
I398
sVNega peach EX3
p483
I2236
sVIvonne
p484
I399
sVMimizuku_teacher
p485
I4141
sVBaki-hanma EX3
p486
I400
sVEddie DD
p487
I401
sVBane
p488
I4164
sVBlackheart
p489
I402
sVBang
p490
I403
sVHokutomaru
p491
I404
sVPatrick
p492
I3755
sVEgg chamber
p493
I406
sVAsh
p494
I407
sVOmega
p495
I408
sVMorrigan Aensland
p496
I2741
sVKoishi_b EX3
p497
I409
sVThouther 2
p498
I410
sVKnight
p499
I411
sVSagat_a
p500
I4098
sVGold lightan
p501
I4462
sVLucy
p502
I4460
sVCecil_damon
p503
I413
sVUltraman tarou
p504
I414
sVQb
p505
I415
sVPikopiko
p506
I4153
sVCaptain america
p507
I4240
sVWalkyrie
p508
I416
sVZangoose EX2
p509
I4533
sVRugal b. EX
p510
I417
sVCobra
p511
I418
sVTumbleweed
p512
I419
sVRasputin
p513
I4474
sVGuldo
p514
I1228
sVFaydal
p515
I422
sVMetal mario
p516
I423
sVRoomi
p517
I424
sVChameleon DS
p518
I4337
sVOmega_rugal EX
p519
I425
sVNarukana
p520
I426
sVSpiny
p521
I427
sVStraight cougar
p522
I428
sVAcid
p523
I429
sVDevil_daigo EX
p524
I430
sVBlodia
p525
I431
sVMaster ken
p526
I4072
sVThe mythical dacentrurian
p527
I1299
sVNeff
p528
I433
sVMini zeroko
p529
I434
sVHybrid form sula
p530
I4664
sVRughadjeen
p531
I437
sVKung flappy man
p532
I438
sVSpider-man 2099
p533
I800
sVBriaaaaaaaaaaaaaaaaan ex
p534
I3980
sVClark steel
p535
I439
sVBarbarccia
p536
I440
sVLex luthor
p537
I441
sVChenshiro
p538
I3509
sVRemy sf3
p539
I1929
sVServbot
p540
I444
sVMike bison
p541
I4081
sVWally West
p542
I445
sVRanmaru
p543
I4013
sVLi xiangfei
p544
I446
sVBurai yamamoto
p545
I4689
sVBig
p546
I4260
sVYamazaki 71113
p547
I448
sVSailor venus k
p548
I4367
sVSodom sfa
p549
I450
sVCharlotte Aulin
p550
I451
sVAnother blood
p551
I3975
sVFlonne
p552
I358
sVAnimus
p553
I4027
sVEcoco EX3
p554
I453
sVOyashirorika
p555
I454
sVDaiyousei_hsts
p556
I455
sVRandy m. green EX
p557
I4607
sVOhaou
p558
I3900
sVLt.kurosawa EX
p559
I4051
sVPepsi man
p560
I456
sVGorimaru jr
p561
I457
sVGardevoir EX3
p562
I458
sVMasako(emanon)
p563
I2600
sVGigapowier loves dark ruler
p564
I459
sVFelicueid
p565
I460
sVNana diclonius
p566
I4009
sVDate masamune_ch
p567
I461
sVRen idagawa
p568
I462
sVKszsk-shuko
p569
I463
sVErmac mk2
p570
I464
sVNatalia glinka
p571
I465
sVYuusuke
p572
I466
sVLegendary super saiyan akuma
p573
I467
sVZazie muhaba
p574
I3297
sVGlacius
p575
I468
sVX
p576
I469
sVViolent dan
p577
I471
sVAoko 7thmoonstyle
p578
I472
sVTsubaki yayoi
p579
I4420
sVAnnoying orange
p580
I473
sVBatista
p581
I474
sVSabotage
p582
I2863
sVWild ken ex
p583
I475
sVShiki nanaya
p584
I476
sVAccelerator
p585
I3299
sVYou are already dead
p586
I477
sVYuki ex EX3
p587
I478
sVFire sonic
p588
I4465
sVRyoko asakura
p589
I479
sVJabu
p590
I480
sVSakuya izayoi EX3
p591
I481
sVElirin EX3
p592
I482
sVRin
p593
I483
sVKarai EX2
p594
I484
sVLegendary super saiyan
p595
I485
sVSailor venus EX2
p596
I486
sVEvil kung fu man mkii
p597
I4362
sVMiu_kurosaki
p598
I4265
sVJoe higashi
p599
I487
sVSaishu
p600
I488
sVNishiura baseball`s
p601
I489
sVDarth vader
p602
I490
sVChiyo mihama EX
p603
I4005
sVLin EX
p604
I4525
sVMaster toadman
p605
I492
sVBuntaro EX
p606
I442
sVYashiro EX2
p607
I494
sVDoge
p608
I3947
sVTheskiver
p609
I4290
sVE nagamori
p610
I2608
sVKaioh-retsu
p611
I495
sVMr. buu
p612
I496
sVZorororonoa
p613
I4467
sVGn-pioneer
p614
I497
sVBlack_k'
p615
I498
sVNatsuka fuou
p616
I499
sVMissingnumber
p617
I500
sVUfo
p618
I501
sVThe joker
p619
I3993
sVFliz
p620
I4656
sVMaraiah
p621
I4119
sVSheeva
p622
I503
sVKamui EX3
p623
I504
sVRasho-zero
p624
I505
sVLee f22
p625
I506
sVMilan flare
p626
I507
sVPulseman
p627
I4496
sVDragon EX2
p628
I4077
sVHayato
p629
I510
sVG rugal CVS
p630
I511
sVDrew 0D
p631
I512
sVCyborg t-8p
p632
I513
sVRyoko ex EX3
p633
I514
sVSuika
p634
I515
sVTarnished ryu
p635
I516
sVKnuckles custom
p636
I517
sVChonshu ex
p637
I518
sVTios
p638
I519
sVGulool ja ja
p639
I520
sVChrome dome
p640
I959
sVKoopa troopa djhr
p641
I521
sVDragon EX
p642
I522
sVCapella
p643
I502
sVTakuma 2002
p644
I524
sVAgent p
p645
I526
sVNyoki
p646
I3512
sVNeku sakuraba
p647
I528
sVS-kishima_kouma
p648
I529
sVHong krizalid
p649
I530
sVBasilisk-s[0.98]
p650
I531
sVTretista-kelverian
p651
I532
sVRorschach
p652
I2616
sVTamamo-no-mae
p653
I533
sVDemitri
p654
I534
sVCruelty blood arcueid
p655
I535
sVZidane
p656
I536
sVSeravy
p657
I537
sVChiester410
p658
I538
sVKim kaphwan CVS2
p659
I539
sVSaki-mvc
p660
I540
sVKatsura kotonoha
p661
I541
sVGadis
p662
I542
sVT ninja
p663
I3911
sVKohaku vp EX3
p664
I543
sVSakuya_swr
p665
I4193
sVKimala the bouncer
p666
I544
sVAnge EX3
p667
I545
sVWhip
p668
I546
sVLoud Demon M1
p669
I4345
sVKim hoon EX FF
p670
I547
sVDokuganp
p671
I548
sVDespero
p672
I549
sVTakuma945 EX3
p673
I550
sVVergil
p674
I551
sVMarisa,k
p675
I552
sVDoraemon
p676
I553
sVPeach mizuki
p677
I554
sVCondor heads
p678
I555
sVFinal sigma w
p679
I3311
sVFlan-b
p680
I557
sVKisarah-n
p681
I558
sVTaideo EX
p682
I559
sVShaoran lee
p683
I560
sVRyo 98
p684
I561
sVBlaque
p685
I562
sVTf2 - sniper
p686
I563
sVBlue suede goo
p687
I4450
sVRugal bernstein
p688
I564
sVRobert nbc
p689
I565
sVChaves
p690
I4551
sVDao-long
p691
I28
sVBattle mahoro EX
p692
I567
sVSuperpez
p693
I568
sVIncredible power kyo
p694
I1950
sVLio convoy
p695
I569
sVKatima
p696
I570
sVBoxer
p697
I3792
sVZodd
p698
I572
sVGray fly
p699
I573
sVWatern
p700
I574
sVKyle broflovski
p701
I575
sVMarrow
p702
I576
sVGargoyle
p703
I577
sVRockman x EX2
p704
I578
sVKasai
p705
I579
sVMephisto
p706
I4411
sVSailor mars k
p707
I580
sVJazz EX3
p708
I581
sVKomepo
p709
I3854
sVFire heart
p710
I583
sVGalivan
p711
I584
sVR.mika
p712
I585
sVWinggod kanna
p713
I1321
sVKnuckles EX3
p714
I587
sVDonovan
p715
I588
sVYang
p716
I4638
sVPan transform
p717
I589
sVDirtyfat
p718
I4219
sVDialog
p719
I4481
sVJimmy
p720
I3458
sVCurfue
p721
I4310
sVEarth-suika
p722
I590
sVZoro roronoa
p723
I591
sVMaxima ex
p724
I592
sVSolisr8000
p725
I4190
sVOmanyte EX3
p726
I593
sVReal zeroko
p727
I594
sVReimu hakurei EX
p728
I4306
sVRai ex
p729
I595
sVAku-amakusa
p730
I596
sVYukari yakumo
p731
I597
sVAnother kyo
p732
I598
sVDorniar ex
p733
I599
sVZatracenie
p734
I600
sVGoodman
p735
I3318
sVMike macho haggar
p736
I74
sVCless
p737
I603
sVAl azif
p738
I4028
sVMax eagle
p739
I605
sVSilvermoon
p740
I2627
sVAyane_ikuse EX
p741
I606
sVBilly two moons
p742
I3673
sVRighteous ken
p743
I607
sVXehrnyth
p744
I608
sVRenamon Dv2
p745
I609
sVSaku EX2
p746
I610
sVMongul
p747
I611
sVThe kung fu man
p748
I612
sVSamwell han
p749
I613
sVKongman EX3
p750
I614
sVRyuho
p751
I615
sVSpiral
p752
I616
sVDevil daimajin
p753
I617
sVSpiderman
p754
I2299
sVNanaya_reaver
p755
I618
sVYurika kirishima
p756
I619
sVBig bomberder
p757
I620
sVProfessor farnsworth
p758
I621
sVThe atom
p759
I622
sVPrimeus
p760
I623
sVD EX
p761
I624
sVCammy_a
p762
I1958
sVHimegami aisa
p763
I625
sVRobert garcia EX2
p764
I4454
sVDokuro chan
p765
I627
sVJill roberts
p766
I4659
sVDracula
p767
I628
sVShinsaku maekawa
p768
I629
sVKaku
p769
I525
sVB-cirno
p770
I630
sVSnoopy
p771
I631
sVJames
p772
I632
sVFiona mayfield
p773
I4217
sVAlakazam
p774
I634
sVTomoko
p775
I635
sVAzteca EX
p776
I2514
sVGoku
p777
I636
sVHonedge
p778
I637
sVMo-mo-
p779
I638
sVOrochi iori EX
p780
I4603
sVZankuro EX2
p781
I639
sVRin EX2
p782
I640
sVPupazz
p783
I4266
sVSsj4 goten
p784
I2413
sVKyoudou senna
p785
I4259
sVJoe higashi EX3
p786
I642
sV(sman)
p787
I4264
sVRouwe EX3
p788
I643
sVItoko
p789
I644
sVFenice
p790
I645
sVHinako shijo
p791
I646
sVFaust
p792
I647
sVUltraman gaia
p793
I648
sVCaptain ginyu
p794
I649
sVLugia
p795
I3920
sVDiablo_skeleton EX3
p796
I651
sVAnaroguma
p797
I652
sVGreen lantern lucario
p798
I4172
sVLayzner_tyanko ai
p799
I653
sVNu 13
p800
I654
sVSonic the hedgehog
p801
I4096
sVBilly
p802
I655
sVMina
p803
I656
sVSylphie
p804
I4025
sVDavid bell
p805
I657
sVKasumi todo
p806
I658
sVMakishi masao
p807
I2256
sVMokey d. luffy
p808
I660
sVBiscuit-oliva
p809
I661
sVRio hinayama
p810
I662
sVKousaku
p811
I663
sVCondor EX
p812
I664
sVMiacis
p813
I665
sVMint
p814
I4073
sVZ gundam
p815
I666
sVRoyal guard
p816
I667
sVTao jun
p817
I4305
sVD4 reimu EX3
p818
I668
sVDaigo ken
p819
I669
sVPogo
p820
I670
sVLuke cage
p821
I671
sVSpitfire_m
p822
I672
sVKracko
p823
I673
sVPeijin-san
p824
I1699
sVMakoto(*zenkai*)
p825
I1968
sVMoyomoto
p826
I4499
sVF_gills
p827
I674
sVKubikiri basara EX
p828
I675
sVKarate kenji dhq
p829
I676
sVIroha
p830
I677
sVW.nut
p831
I678
sVFreedom -meteor-
p832
I4423
sVKen MVC3
p833
I679
sVSkullomania
p834
I680
sVUkyo tachibana EX3
p835
I1062
sVNinja EX3
p836
I682
sVSaber
p837
I683
sVMai-ling
p838
I684
sVGundam double zeta
p839
I685
sVShin gouki
p840
I687
sVDiglett
p841
I4583
sVWing
p842
I688
sVKurokishi
p843
I689
sVReika
p844
I4071
sVYu-by
p845
I691
sVVakishim
p846
I692
sVKurohige
p847
I693
sVReiko
p848
I694
sVGrappler shiki
p849
I695
sVVegeta z2
p850
I696
sVMr.karate EX3
p851
I697
sVShang tsung
p852
I698
sVEpyon
p853
I699
sVShadowroo (pf 3)
p854
I3932
sVHeat man
p855
I701
sVZeorymer
p856
I702
sVMudman_n
p857
I703
sVIyo
p858
I4033
sVSpider-carnage
p859
I704
sVLeona xiii
p860
I705
sVAlice
p861
I706
sVCorona
p862
I707
sVFelden
p863
I3949
sVKuuga
p864
I4163
sVFatter Albert
p865
I4159
sVAquaman
p866
I708
sVKobun 43
p867
I4143
sVLancer
p868
I709
sVCustom experimental trf2 beatrice
p869
I710
sVNeco-arc
p870
I711
sVBrokken
p871
I712
sVHeart
p872
I713
sVYami_miko EX
p873
I714
sVChrysalis
p874
I715
sVHitosyura
p875
I716
sVYusha30
p876
I717
sVMr.ganon
p877
I718
sVD-rugal EX3
p878
I719
sVKou EX
p879
I720
sVR. lilith
p880
I721
sVAkiha EX
p881
I722
sVRouga zanma
p882
I723
sVRozwel
p883
I3902
sVPatchouli_k
p884
I725
sVBubblum
p885
I726
sVKyosuke shigure
p886
I2845
sVSonans
p887
I728
sVSentinel
p888
I3288
sVBai-hu EX
p889
I730
sVShishiwakamaru
p890
I731
sVGuerrero divino del dragn
p891
I732
sVSquidward
p892
I733
sVShinzero
p893
I734
sVOnodera ren
p894
I735
sVSuija
p895
I736
sVA-ko
p896
I737
sVGouken
p897
I4279
sVPopura
p898
I830
sVSumiremaru
p899
I739
sVAlissa
p900
I740
sVDeluxe may
p901
I741
sVMahvel ken
p902
I742
sVTina
p903
I743
sVFenri-lunaedge
p904
I745
sVSamchay ex
p905
I746
sVIrori EX3
p906
I747
sVMonami ogura
p907
I748
sVSion(coh)
p908
I749
sVGardevoir dx
p909
I750
sVDante M
p910
I751
sVCube
p911
I752
sVLee
p912
I753
sVLiu-kang
p913
I754
sVBenimaru EX
p914
I755
sVPikaman
p915
I4198
sVE.honda sf2
p916
I757
sVAltered Amiba
p917
I4001
sVRumia
p918
I758
sVZangeese
p919
I759
sVLiza
p920
I760
sVLeo
p921
I761
sVMarie EX
p922
I762
sVOboromaru
p923
I763
sVGogeta ssj4
p924
I764
sVAkashi_kaoru
p925
I765
sVThe real doom
p926
I766
sVCola Fe
p927
I767
sVChiko
p928
I727
sVDudley K
p929
I769
sVRemy
p930
I3992
sVYui_kutuna EX
p931
I771
sVAlien guts(blue_no9)
p932
I772
sVFalse valkyrie
p933
I773
sVSean matsuda
p934
I4201
sVMvc2 megaman
p935
I774
sVRacheal mc
p936
I775
sVSun god
p937
I776
sVYellow devil
p938
I4111
sVK EX
p939
I777
sVThing
p940
I778
sVJack turner ex
p941
I779
sVOmega Cloud Strife
p942
I4255
sVJulius emery
p943
I780
sVH_witch
p944
I4489
sVJyashinsai
p945
I781
sVSatuzinki
p946
I782
sVRobo-jam
p947
I1066
sVBuroli
p948
I784
sVReisen deadpool inaba
p949
I785
sVMiko EX
p950
I786
sVTamtam
p951
I787
sVReproduction gogeta
p952
I788
sVTakuma945
p953
I789
sVAyane wp
p954
I790
sVArima_meirin
p955
I4609
sVBig chicken
p956
I791
sVIchi
p957
I792
sVKyouki
p958
I793
sVCiel EX3
p959
I794
sVDream v
p960
I795
sVKung fu master
p961
I796
sVSetsuna
p962
I797
sVRindou
p963
I4338
sVC3po & r2d2
p964
I798
sVDurian
p965
I4637
sVByakuren hijiri
p966
I4301
sVMako
p967
I799
sVKousonsyou
p968
I4291
sVUrien
p969
I3984
sVOpirus element
p970
I801
sVHybrid
p971
I802
sVAndo
p972
I803
sVInsane hiryu
p973
I804
sVMiyuki EX
p974
I3966
sVSonya
p975
I805
sVDan smith, the tyrant
p976
I1987
sVGamera
p977
I4588
sVSorluska
p978
I808
sVYuna
p979
I809
sVMarvel Marrow
p980
I1232
sVAkari ichijo
p981
I4313
sVWhite len EX
p982
I1248
sVJuugo
p983
I4702
sVCapmurica
p984
I812
sVEmily barnet
p985
I813
sVChameleon
p986
I814
sVNeo dio
p987
I815
sVSonGohan
p988
I816
sVReisen_swr
p989
I3983
sVMycale
p990
I2306
sVSatsujinki EX3
p991
I817
sVIggy ex
p992
I818
sVShintaro
p993
I4317
sVMr.heart
p994
I820
sVMature CVS
p995
I821
sVKou EX3
p996
I1356
sVBonus kun EX2
p997
I823
sVKung fu girl
p998
I824
sVSppaman
p999
I825
sVKagami ex
p1000
I826
sVJazu EX3
p1001
I827
sVSodom
p1002
I4050
sVSuwako
p1003
I828
sVSion_tatari
p1004
I829
sVNamek gohan
p1005
I831
sVRocky
p1006
I832
sVRugal CVS
p1007
I833
sVBlack zero
p1008
I3912
sVKingbehinnmoth
p1009
I835
sVMohikan
p1010
I836
sVRedking
p1011
I837
sVPsychotic ryu
p1012
I838
sVPopeye the sailor
p1013
I839
sVKaisensei ken
p1014
I840
sVStan
p1015
I841
sVMagma-dragoon
p1016
I842
sVGundam epyon
p1017
I2528
sVKim kaphwan EX3
p1018
I843
sVJack lantern EX3
p1019
I844
sVMars people EX3
p1020
I845
sVCutman
p1021
I1384
sVZangeese EX2
p1022
I847
sVPractice Vegeta
p1023
I848
sVDarkwing duck
p1024
I849
sVCyberwarren
p1025
I850
sVHaruhi suzumiya EX
p1026
I851
sVRey mysterio
p1027
I852
sVBriaaaaaaaaaaaaaaaaan
p1028
I853
sVBarbatos_goetia
p1029
I854
sVKathumi orochi
p1030
I855
sVJay garrick
p1031
I856
sVFranko
p1032
I857
sVWhite Buffalo M1
p1033
I858
sVSquall JP
p1034
I859
sVHe-man
p1035
I4509
sVJack13
p1036
I860
sVBattle dome
p1037
I861
sVMakendo2
p1038
I862
sVEvil barney
p1039
I863
sVMegu asuhara
p1040
I864
sVMonkey.d.luffy
p1041
I865
sVKyko
p1042
I4663
sVMexican typhoon
p1043
I866
sVMashiro
p1044
I867
sVNanaya-kamen
p1045
I4316
sVHawk
p1046
I3278
sVDemiurgos
p1047
I1218
sVProject_f
p1048
I681
sVEiji EX3
p1049
I870
sVChichi EX3
p1050
I871
sVRaiya
p1051
I4247
sVShiranui mai
p1052
I4144
sVRouge unsou
p1053
I872
sVMadiesha
p1054
I4056
sVSoulgen
p1055
I873
sVShin eddie
p1056
I874
sVAsutorea
p1057
I875
sVMrheart
p1058
I876
sVAdon
p1059
I4364
sVRajaayuri
p1060
I877
sVCci jhun
p1061
I878
sVAdom
p1062
I4185
sVMai-ling EX
p1063
I879
sVSuper Skrull MVC
p1064
I880
sVRoad runner
p1065
I881
sVAndrew
p1066
I882
sVZantetsu ex
p1067
I883
sVBasilisk-s[0.98] EX3
p1068
I4170
sVShishimaru EX
p1069
I807
sVM-e-reptos
p1070
I4653
sVBrian griffin
p1071
I885
sVShikyoh
p1072
I3726
sVGrebam EX
p1073
I886
sVRelly
p1074
I435
sVDeath force
p1075
I888
sVCelesty
p1076
I889
sVNecoarc_abyss
p1077
I890
sVKanna
p1078
I891
sVJoker EX3
p1079
I892
sVAtomic dust amiba
p1080
I4412
sVDaisy dw
p1081
I893
sVLight
p1082
I894
sVHarman
p1083
I895
sVUzaku
p1084
I4608
sVJhons lee EX3
p1085
I896
sVNightmare the jujin lv3
p1086
I897
sVChaos hiryu
p1087
I898
sVKazuma EX
p1088
I899
sVRequiem giorno(amaai)
p1089
I900
sVKazu
p1090
I901
sVMamiya EX
p1091
I902
sVWif
p1092
I903
sVKung fu head
p1093
I904
sVCombo man
p1094
I905
sVKfmsp
p1095
I906
sVGeese Howard
p1096
I907
sVHeavy strike
p1097
I4542
sVBig bear
p1098
I909
sVW arcueid
p1099
I910
sVWild-dachon
p1100
I911
sVTsukuyo
p1101
I912
sVDio brando
p1102
I756
sVArchetype earth_r
p1103
I914
sVAkys
p1104
I915
sVUltraman tarou_a
p1105
I916
sVKaguya houraisan EX
p1106
I917
sVHiel_mk
p1107
I918
sVBriaaaaaaaaaaaaaaaaan EX3
p1108
I919
sVIngrid EX2
p1109
I4396
sVIngrid EX3
p1110
I920
sVSorami
p1111
I4128
sVRb2bob
p1112
I4355
sVTenko-abab
p1113
I922
sVHei_f
p1114
I923
sVPolnareff
p1115
I924
sVHikkoshi_baba
p1116
I925
sVCaptain kidd
p1117
I926
sVUltraman tiga_a
p1118
I4401
sVCafelier
p1119
I2273
sVShartel
p1120
I927
sVTerry bogard EX2
p1121
I928
sVOmni-psych chipp
p1122
I3896
sVChun li xi
p1123
I929
sVAlyssa ex
p1124
I930
sVJack-hamma ex
p1125
I931
sVDrunk rock lee
p1126
I932
sVExtra usapi-
p1127
I933
sVBroccalon
p1128
I4327
sVMaster ryu
p1129
I935
sVCharlie
p1130
I508
sVHarry EX3
p1131
I936
sVMomimomi
p1132
I937
sVDr.gero
p1133
I938
sVLarcen
p1134
I4348
sVDress cinderella mio
p1135
I921
sVAlucard RAI
p1136
I940
sVDan
p1137
I941
sVAtari dragon EX2
p1138
I4616
sVAndroid 18 EX3
p1139
I942
sVByrne
p1140
I4295
sVTsukushi_mio
p1141
I943
sVEfreet
p1142
I944
sVMahvel chun li
p1143
I945
sVBruce shotoman
p1144
I1374
sVPeppercat
p1145
I947
sVBaragon
p1146
I948
sVMaster zibaku rugal
p1147
I3936
sVReak.f
p1148
I949
sVMetalgear rex
p1149
I2777
sVYoko
p1150
I950
sVOrochi-takashi
p1151
I951
sVGustoff EX3
p1152
I952
sVWanda
p1153
I953
sVCrea-f
p1154
I322
sVOdie
p1155
I954
sVCyclops_cota
p1156
I955
sVNabeatu
p1157
I4591
sVBubbles jp
p1158
I4346
sVBeauty queen etna
p1159
I956
sVBison
p1160
I4574
sVKyosuke pj
p1161
I4410
sVOmega agk
p1162
I958
sVChomper
p1163
I4661
sVKakyoin noriaki EX3
p1164
I960
sVGagi_ex
p1165
I962
sVMillia tnt
p1166
I963
sVTony Chopper
p1167
I964
sVSahad
p1168
I965
sVAlexey zalazof
p1169
I966
sVBobby ologun
p1170
I967
sVPower kung fu man
p1171
I3922
sVKraidgief
p1172
I968
sVRyuhi SD
p1173
I970
sVHaggar ex
p1174
I971
sVMudman EX3
p1175
I972
sVBekkamu
p1176
I973
sVGouken sf4
p1177
I974
sVNenaikodareda
p1178
I975
sVOverlord laharl
p1179
I4325
sVShishin
p1180
I978
sVBinran
p1181
I979
sVBloo ex
p1182
I980
sVTao
p1183
I981
sVGeorge
p1184
I982
sVShin kazuma
p1185
I983
sVTak
p1186
I984
sVEiji mk
p1187
I985
sVLupin the 3rd
p1188
I4657
sVDragon rider
p1189
I986
sVMaster kaede
p1190
I987
sVKoneko EX
p1191
I988
sVNaruto kun hr
p1192
I989
sVSaber EX
p1193
I990
sVGuts
p1194
I991
sVScott pilgrim EX3
p1195
I992
sVKenoh EX2
p1196
I993
sVLf2 - davis
p1197
I994
sVSs6 shisyun-abab
p1198
I995
sVDuck king
p1199
I4007
sVRei
p1200
I996
sVMu 12
p1201
I997
sVMoriya b style
p1202
I998
sVYuuka kazami
p1203
I999
sVRider
p1204
I1000
sVGokussj4d
p1205
I1001
sVSf4 omni
p1206
I1002
sVSarashina EX
p1207
I1003
sVGavora
p1208
I1004
sVHayato MVC
p1209
I1005
sVKaguya houraisan EX3
p1210
I1006
sVA.b.a
p1211
I1007
sVFilea EX3
p1212
I1008
sVGalford
p1213
I1009
sVBlackmore
p1214
I1010
sVG project
p1215
I1011
sVCody(neoneo)
p1216
I1012
sVRoll
p1217
I1013
sVFeilong sfa
p1218
I1014
sVBlitztank-n
p1219
I1015
sVOyashirorika EX
p1220
I1016
sVKung fu rabbit
p1221
I1017
sVJustice ao
p1222
I1018
sVOmake
p1223
I1019
sVPein nzc
p1224
I1385
sVTessa
p1225
I1020
sVSkullman
p1226
I1021
sVGeki f22
p1227
I1022
sVDragon claw EX3
p1228
I1023
sVOmni-psych justice
p1229
I1024
sVMasked rider blade
p1230
I1025
sVSissy EX3
p1231
I4600
sVPaul phoenix EX
p1232
I1026
sVArcadboy
p1233
I2381
sVRyo fu
p1234
I1029
sVKilla and ren EX
p1235
I1030
sVHamster
p1236
I1031
sVDonatello DCAT
p1237
I1032
sVHol horse
p1238
I1033
sVHayate EX
p1239
I1034
sVZeus ex
p1240
I1035
sVKamishiro_kunagi
p1241
I1036
sVBlossom jp
p1242
I1037
sVKosanjou
p1243
I1038
sVDitto EX3
p1244
I1039
sVRemi
p1245
I1040
sVShingo
p1246
I1041
sVOrochimaru
p1247
I1042
sVDark cornian
p1248
I1043
sVAkane satomura EX2
p1249
I4120
sVMiyazato erika EX
p1250
I4095
sVGoryujin
p1251
I1044
sVWreck-it ralph
p1252
I1045
sVNeva
p1253
I1046
sVMisuzu EX
p1254
I1047
sVMiku_tt
p1255
I1048
sVG_cyclone
p1256
I1049
sVNeko&mech_m
p1257
I3898
sVNi_san
p1258
I1050
sVShin akuma
p1259
I1051
sVFujiwara no mokou
p1260
I1052
sVFps bison trooper EX
p1261
I4249
sVMatrix
p1262
I1054
sVChipp_arrange
p1263
I1055
sVZwei
p1264
I1056
sVAsterix
p1265
I1057
sVAntlar
p1266
I1058
sVKamiccolo
p1267
I4280
sVDan NGPC
p1268
I4176
sVShishimaru
p1269
I1060
sVPowergirl
p1270
I1061
sVSakashita
p1271
I1392
sVKain blade
p1272
I4706
sVSuper girl
p1273
I1063
sVBatman Normal
p1274
I3271
sVSpecialist
p1275
I1064
sVCirno
p1276
I1065
sVHisame shizumaru
p1277
I783
sVPiyokong
p1278
I4383
sVCaviar?
p1279
I1067
sVAthena x
p1280
I3410
sVDies
p1281
I1068
sVMomizi-e
p1282
I1069
sVChoi special
p1283
I1070
sVRera ex
p1284
I1071
sVPredalien
p1285
I1072
sVRugal.b
p1286
I1073
sVFeli
p1287
I1074
sVVise
p1288
I1075
sVGigigear
p1289
I1076
sVJoker_nanaya
p1290
I1077
sVKung fu men
p1291
I1078
sVBruno bucciarati
p1292
I1079
sVShirai_kuroko
p1293
I1080
sVShaft
p1294
I1081
sVA-green EX3
p1295
I2793
sVMaster kojiroh
p1296
I1083
sVGenteki dan
p1297
I1084
sVEve
p1298
I1085
sVKrauser
p1299
I4335
sVDark excellent takuma
p1300
I1086
sVYoumu konpaku EX
p1301
I1087
sVOnsokumaru
p1302
I1088
sVGoofy
p1303
I1089
sVLieselotte_achenbach
p1304
I1090
sVSonozaki_mion
p1305
I1091
sVApocalypse
p1306
I1092
sVGohan school
p1307
I1093
sVDuke
p1308
I1094
sVPsycho mkiii
p1309
I1095
sVChain combo yuyuko
p1310
I1096
sVBoss sagat
p1311
I1097
sVGambit MVC2
p1312
I1098
sVRed hulk
p1313
I4631
sVSissy ex
p1314
I1099
sVHame-terry
p1315
I2135
sVKimelemaru EX3
p1316
I1100
sVSanji 13
p1317
I1101
sVHisame_shizumaru_ph_ai
p1318
I1102
sVKatana EX3
p1319
I1103
sVDimlos EX
p1320
I1104
sVRyu plus
p1321
I1105
sVKy Kiske
p1322
I1106
sVKanon
p1323
I4449
sVChrysalis EX
p1324
I1107
sVLimiter cut broly
p1325
I3916
sVMedicine melancholy
p1326
I1739
sVPinkie pie
p1327
I1108
sVYawarakasensha
p1328
I4686
sVEri_hasumi
p1329
I1109
sVK9999
p1330
I1110
sVLayla
p1331
I1111
sVMaebara_keiichi
p1332
I1112
sVShin bison
p1333
I2081
sVKonngara
p1334
I1113
sVGod gundam
p1335
I1114
sVTarantula
p1336
I1115
sVSuper3 goku EX3
p1337
I3080
sVPizza
p1338
I1116
sVLucifer EX
p1339
I3078
sVGarnet crow
p1340
I1118
sVTristan
p1341
I1119
sVDark saber
p1342
I1120
sVFrieza
p1343
I1121
sVGray fullbuster
p1344
I4326
sVMousse by ?
p1345
I4116
sVMunch
p1346
I1122
sVSmall akuma
p1347
I1123
sVLavos core
p1348
I4354
sVFlandre scarlet
p1349
I1124
sVImit ultraman
p1350
I1125
sVDeluxe lin
p1351
I1126
sV2ban-tan
p1352
I2980
sVYoshiyuki takagi
p1353
I1127
sVDeath machine mb-59
p1354
I4547
sVBeelzebub
p1355
I1128
sVKon-el
p1356
I1129
sVGaia
p1357
I1130
sVWapiko
p1358
I1131
sVMahvel sean
p1359
I1132
sVSanada kojiroh
p1360
I969
sVElfin ix
p1361
I1134
sVTank
p1362
I1135
sVMahvel ryu
p1363
I1136
sVGetsufuma
p1364
I1137
sVTane
p1365
I4466
sVQuickman
p1366
I1138
sVBelmont trusdale
p1367
I602
sVWong_fei_h
p1368
I1139
sVDorothy
p1369
I4676
sVWild woody
p1370
I1140
sVDancing banana
p1371
I1141
sVKai EX3
p1372
I1142
sVDaimon EX2
p1373
I2558
sVYoung_rugal
p1374
I1143
sVShantae
p1375
I29
sVKasumi EX3
p1376
I4531
sVOld mechagodzilla
p1377
I1145
sVAkari kamigishi EX3
p1378
I1146
sVShin
p1379
I1147
sVShaq Diesel
p1380
I4069
sVGomora
p1381
I1148
sVJean_pau
p1382
I1149
sVKamijo toma EX
p1383
I3316
sVKing 95
p1384
I4537
sVShadow vegeta
p1385
I4035
sVGalactus
p1386
I1151
sVKeel
p1387
I1152
sVStorm eagle
p1388
I1153
sVUesugi kensin EX
p1389
I1154
sVG.vise
p1390
I1155
sVMrkarate
p1391
I1156
sVYamamoto-f-burai
p1392
I1157
sVGoku gt
p1393
I1158
sVCathey
p1394
I1159
sVRing man
p1395
I1160
sVFix-it felix
p1396
I1161
sVKid gohan EX3
p1397
I4145
sVAxearmor
p1398
I1162
sVDq5-son
p1399
I1163
sVBarney
p1400
I3394
sVOrochi-ev
p1401
I1165
sVHanayama EX3
p1402
I1166
sVSilver surfer EX
p1403
I1167
sVBurner man
p1404
I1168
sVAbubo
p1405
I3979
sVGohan fight money
p1406
I1169
sVEvil zodiac
p1407
I1170
sVSango EX
p1408
I1171
sVKongara
p1409
I1172
sVTyrant J
p1410
I3903
sVShaq
p1411
I4284
sVMasked rider kabuto
p1412
I1173
sVHitosyura EX3
p1413
I1174
sVNayu mizuhara
p1414
I1175
sVAbyss_sh
p1415
I3138
sVSon gohan EX3
p1416
I4349
sVSheen
p1417
I1177
sVKen & gang
p1418
I4107
sVKishimax
p1419
I1178
sVWolvenom
p1420
I1179
sVGodzilla EX
p1421
I1180
sVHover
p1422
I1181
sVLomias
p1423
I1182
sVRyo945
p1424
I1183
sVKangaroo
p1425
I4628
sVDan CVS
p1426
I1190
sVDark sakura
p1427
I1185
sVKeeper of k
p1428
I1186
sVPenta
p1429
I1187
sVRegin
p1430
I1188
sVIchigo EX
p1431
I4585
sVPerfecti ex
p1432
I3547
sVKing lion
p1433
I686
sVReal Shuma
p1434
I4322
sVEvil reiji oyama
p1435
I1191
sVGuy_cecil
p1436
I1192
sVTsunade EX3
p1437
I1193
sVBs kung fu man
p1438
I3578
sVTodo EX
p1439
I3079
sVRobo-ky EX
p1440
I1195
sVSlamdunk
p1441
I1196
sVRascal
p1442
I1197
sVKat
p1443
I1198
sVKraken
p1444
I1199
sVShinki
p1445
I1200
sVKoakuma_hsts
p1446
I3919
sVG. done
p1447
I1201
sVSimonkin2006
p1448
I1202
sVKula diana
p1449
I4718
sVSimonkin2005
p1450
I1203
sVPsylocke EX2
p1451
I1204
sVFurudo_erika EX3
p1452
I4667
sVBatsu EX2
p1453
I3661
sVScream
p1454
I1206
sVLeone abbacchio ex
p1455
I3951
sVRed snake
p1456
I1207
sVGerdon di yeah
p1457
I887
sVLuigi NGPC
p1458
I1209
sVAsh of blueblood
p1459
I1210
sVAngel
p1460
I1420
sVFortuna_suwako
p1461
I1211
sVMirai trunks
p1462
I1212
sVRaph EX2
p1463
I1213
sVMinakata moriya
p1464
I1214
sVMouri motonari
p1465
I1215
sVAokiji kuzan
p1466
I1216
sVM-lancer
p1467
I1217
sVAnother igniz EX2
p1468
I4451
sVDuane!
p1469
I4720
sVHomura EX
p1470
I1219
sVVarnage
p1471
I3751
sVJackal
p1472
I4439
sVKarman-cole
p1473
I1221
sVSoushihan k.s.k 12p color
p1474
I1222
sVMasta gambit
p1475
I1223
sVTizoc
p1476
I1224
sVKamek
p1477
I4695
sVDiamondeye
p1478
I4405
sVShuma MVC3
p1479
I1225
sVKanade
p1480
I1226
sVKoizumi itsuki
p1481
I1227
sVMvc2 iceman
p1482
I1229
sVDarkwing duck EX
p1483
I1231
sVGoodman EX
p1484
I3801
sVArrange_remilia
p1485
I1233
sVKen
p1486
I1234
sVSuperoverlord meep
p1487
I1235
sVDragon_warrior(dnf) +q
p1488
I1236
sVPocket terry
p1489
I1237
sVMinoriko aki
p1490
I1238
sVOwada nana
p1491
I1239
sVKillerbee
p1492
I1240
sVOrochi tenko
p1493
I1241
sVTBonne
p1494
I1242
sVGajeel
p1495
I4646
sVReimi
p1496
I1243
sVMech zangief
p1497
I1244
sVArrange_alice
p1498
I1245
sVSazabi EX3
p1499
I1246
sVMark sein
p1500
I1247
sVKyle dunamis
p1501
I3948
sVLelouch
p1502
I811
sVSugoi cirno
p1503
I1249
sVMiyako arrange abyss
p1504
I4413
sVCockle
p1505
I1251
sVEgith
p1506
I3444
sVLunasa
p1507
I1669
sVDinotank
p1508
I1252
sVFat boo
p1509
I4187
sVMf viga
p1510
I1254
sVEddie mvc
p1511
I1255
sVDragon waifu
p1512
I1256
sVPikachu EX2
p1513
I1257
sVRugal b.
p1514
I1258
sVMai_k
p1515
I1259
sVAngelia
p1516
I1260
sVNew age king
p1517
I1261
sVSpidermanu
p1518
I1262
sVMaster mecha sonic
p1519
I1790
sVRemilya scarlet
p1520
I2592
sVP-silver
p1521
I1263
sVZangief EX3
p1522
I1264
sVRick simpsons
p1523
I1265
sVErim
p1524
I1266
sVSakata gintoki
p1525
I4053
sVMariabell armitage
p1526
I1267
sVBionicles
p1527
I2429
sVMike Haggar
p1528
I3840
sVHonki-ultraman
p1529
I4712
sVBlue destiny 2
p1530
I1268
sVHeavy d! EX3
p1531
I1269
sVKurama
p1532
I1270
sVMegamami
p1533
I1271
sVSakuya ex
p1534
I1272
sVMeifang dhq
p1535
I1273
sVKyon_ak
p1536
I1274
sVAdelheid EX
p1537
I256
sVSonic mvc
p1538
I4359
sVMegaroman
p1539
I4435
sVPhantomsheet
p1540
I1276
sVHayao 12p color
p1541
I3256
sVTrunks EX3
p1542
I1277
sVKaonasi
p1543
I4442
sVThe deadly dragon
p1544
I3934
sVMissing iq gomes
p1545
I4480
sVTeam u zako
p1546
I4382
sVSounanda
p1547
I4308
sVLacerta Misty
p1548
I3341
sVAladdin
p1549
I1279
sVHanayama
p1550
I4555
sVYukkuri
p1551
I1281
sVReon
p1552
I1282
sVSpacemouse deluxe
p1553
I1283
sVTokinomiya kamui EX3
p1554
I1284
sVDuo lon
p1555
I1285
sVShinGouki
p1556
I4687
sVThe territorial mammoth
p1557
I4553
sVMoleman
p1558
I1286
sVMasked rider agito EX3
p1559
I1287
sVTokido saya
p1560
I1288
sVHimekawa kotone
p1561
I1289
sVSasuke Cosplay
p1562
I1290
sVBombman
p1563
I1291
sVKuroko EX2
p1564
I690
sVSuper-8
p1565
I2651
sVKotoe
p1566
I1292
sVGi-le-farg
p1567
I4173
sVBilly lee
p1568
I1293
sVKenshiro
p1569
I4571
sVGranzon
p1570
I1294
sVCpt. falcon
p1571
I1295
sVShantotto
p1572
I2749
sVDevo
p1573
I3926
sVBrainiac
p1574
I4270
sVThe manticore, the queen, and the dragon
p1575
I1296
sVMiles
p1576
I1297
sVHinata natumi
p1577
I1298
sVCinnamon
p1578
I432
sVZweizergain
p1579
I1300
sVMonster ball
p1580
I1301
sVRidley zm
p1581
I4626
sVSeven
p1582
I1302
sVMasked rider 1st
p1583
I1303
sVChiffon
p1584
I1304
sVNinja megazord
p1585
I4054
sVShar-makai EX3
p1586
I1306
sVSsj3 gotenks
p1587
I4242
sVShingo EX2
p1588
I2242
sVW.krauser
p1589
I1307
sVPentagon & black hole
p1590
I1308
sVMagma
p1591
I1309
sVLucifer
p1592
I1310
sVSaimon
p1593
I3933
sVArmored gohan
p1594
I1311
sVYueng soi leng
p1595
I1312
sVSaya EX
p1596
I1314
sVLeo EX2
p1597
I3293
sVGodzillaEX
p1598
I1315
sVTora
p1599
I4425
sVSuwako ai
p1600
I1317
sVArgento
p1601
I2155
sVWolverine_cota
p1602
I1318
sVIkumi tatikawa
p1603
I1319
sVShiva
p1604
I1320
sVSoul ninja mk2
p1605
I293
sVReal beavis
p1606
I1322
sVDeluxe chipp
p1607
I1323
sVJesse
p1608
I4677
sVTrapsatoko
p1609
I1324
sVRin natsume
p1610
I3907
sVAkainu sakazuki
p1611
I1325
sVMajin vegeta ssj6
p1612
I1326
sVCci saisyu
p1613
I4513
sVAccelerator EX3
p1614
I3889
sVDk
p1615
I1328
sVKazama
p1616
I1329
sVOmega_rugal
p1617
I1330
sVZ-ton 2nd
p1618
I1331
sVYuri945
p1619
I1332
sVRenamon
p1620
I1333
sVGreen lantern gg
p1621
I1334
sVGenpaku
p1622
I1335
sVJamian di corvus
p1623
I1336
sVBushou
p1624
I1337
sVSketch turner
p1625
I1338
sVChaoz_gf
p1626
I1339
sVArch mage alice
p1627
I1340
sVDuck king pne
p1628
I4649
sVEnja
p1629
I1342
sVHotaru
p1630
I1343
sVSuper hyper ultra mega awesome wtf barney
p1631
I1344
sVSamurai pizza cats
p1632
I1345
sVEvil ken ssf'2 plus
p1633
I1346
sVSasuke kun
p1634
I3968
sVNami
p1635
I1347
sVKamen rider kabuto
p1636
I1348
sVHotaride
p1637
I1349
sVStrider H
p1638
I1350
sVHaggar sf2
p1639
I1351
sVSad claps
p1640
I1352
sVSoujiro
p1641
I4252
sVB.jenet
p1642
I1353
sVMisaka
p1643
I4564
sVSilhouette
p1644
I641
sVMasked_dedede
p1645
I1354
sVA-rock
p1646
I4683
sVWulong
p1647
I1355
sVBuguu
p1648
I3946
sVShar-makai
p1649
I822
sVShinobu
p1650
I1357
sVTsugumi
p1651
I834
sVCody CFJ2
p1652
I1359
sVKimexemaru
p1653
I1360
sVKilyousuke ex
p1654
I1361
sVAwaken satsuki
p1655
I1362
sVD'
p1656
I1363
sVClayface
p1657
I1364
sVOmega goenitz
p1658
I1365
sVAlice's gensokyo
p1659
I1366
sVRila
p1660
I1367
sVRegin EX2
p1661
I4696
sVSatuzinki_nesmario
p1662
I4650
sVDeejay sfa
p1663
I1369
sVSailor venus EX
p1664
I4075
sVHaohmaru
p1665
I1370
sVDeadpool
p1666
I1371
sVInjya 1p
p1667
I1372
sVPerfect storm x
p1668
I1373
sVSuper buu
p1669
I946
sVMoraga
p1670
I1375
sVCv wakamoto
p1671
I1376
sVMayura
p1672
I1377
sVDonatello 0d
p1673
I1378
sVJohann EX3
p1674
I2772
sVMegaman fp
p1675
I1379
sVLabyrinth 1p
p1676
I1380
sVFlan Scarlet
p1677
I1381
sVRolf
p1678
I4682
sVVenomscorp
p1679
I1382
sVFaud
p1680
I3618
sVSs6 renfa EX2
p1681
I2696
sVRyuuoutan
p1682
I4203
sVJeice
p1683
I1386
sVKazuya akatsuki +q
p1684
I1387
sVKing kong
p1685
I2756
sVOssan
p1686
I4651
sVMatou sakura EX
p1687
I1388
sVHaohmaru 98
p1688
I1389
sVPocket Sakura
p1689
I1390
sVSasuke 0d
p1690
I1391
sVHulk
p1691
I2825
sVMictlan
p1692
I1393
sVMima
p1693
I1394
sV95ani
p1694
I1395
sVSatsuki vp EX3
p1695
I1396
sVAsura
p1696
I1397
sVYuri
p1697
I1398
sVMpccgenerals
p1698
I1399
sVCard hero
p1699
I1400
sVFreedom gundam
p1700
I1401
sVBlade rider
p1701
I4225
sVSuper #13
p1702
I1403
sVBatman 2
p1703
I1404
sVSnakeeyes
p1704
I1405
sVDongdong
p1705
I1406
sVIgnis
p1706
I1407
sVFire quacker
p1707
I3917
sVBlack adam
p1708
I1408
sVIgniz
p1709
I1409
sVRaiden EX2
p1710
I1410
sVAkane
p1711
I1411
sVKrang
p1712
I1412
sVAbobo
p1713
I1413
sVSlalingaru
p1714
I1150
sVFf1 tung fu rue
p1715
I4678
sVNamor
p1716
I4698
sVShanghai doll
p1717
I3908
sVSuneo
p1718
I1415
sVSuper vegeta ai-barbatos
p1719
I1416
sVKing of zero
p1720
I1417
sVMaverick zero
p1721
I1418
sVJoe F22
p1722
I1419
sVTenko
p1723
I2614
sVSnake eyes
p1724
I1454
sVVivi_ornitier
p1725
I1422
sVHighway star
p1726
I1423
sVCheapest kfm!!!
p1727
I1425
sVYukari Tanizaki
p1728
I1426
sVPheus_mor
p1729
I1427
sVExredking
p1730
I4714
sVMiduma
p1731
I1428
sVSilverbloome
p1732
I3549
sVTokiko
p1733
I2497
sVTetris
p1734
I1507
sVKasen EX
p1735
I1430
sVRobo-segalow
p1736
I1431
sVJyubei yagyu EX3
p1737
I1432
sVGrant
p1738
I1433
sVA-rei
p1739
I1434
sVViolent ryu
p1740
I3480
sVGod gundam EX
p1741
I4076
sVShen EX2
p1742
I1435
sVS-len
p1743
I1436
sVYamcha
p1744
I1437
sVMagatu
p1745
I1438
sVAsuta-san
p1746
I3730
sVDeath13
p1747
I1439
sVDee bee kaw
p1748
I1440
sVSniper
p1749
I1441
sVRamon 71113
p1750
I1442
sVVirtus
p1751
I4639
sVKonoha
p1752
I1443
sVPantyhose taro
p1753
I4140
sVDantalion_alice
p1754
I1444
sVQueen beryl
p1755
I1445
sVStickykeys
p1756
I1446
sVDeluxe ai
p1757
I1447
sVAlien_z-ton
p1758
I3924
sVGn-pioneer-r
p1759
I4223
sVAthena X2
p1760
I1448
sVTear
p1761
I1449
sVFred Krueger
p1762
I3937
sVYuki morikawa
p1763
I1450
sVAlucard
p1764
I1451
sVItachi
p1765
I4648
sVArashi EX
p1766
I1452
sVNeo EX
p1767
I1453
sVWashizuka
p1768
I2017
sVSatsujinki
p1769
I1455
sVUrban champion
p1770
I1456
sVSalamandra_fe
p1771
I1457
sVRamon EX3
p1772
I1458
sVXerxes
p1773
I1459
sVViewtiful joe
p1774
I1460
sVBob wilson EX2
p1775
I1461
sVMizuki EX2
p1776
I1462
sVYoko EX
p1777
I1463
sVRoll EX
p1778
I1464
sVImouto EX3
p1779
I1465
sVShikieiki yamaxanadu
p1780
I1466
sVEriol hiiragizawa
p1781
I1467
sVCurly brace EX3
p1782
I1468
sVAngel ryu
p1783
I4627
sVNega ryo
p1784
I4012
sVKencyan
p1785
I1469
sVNew rubber soul
p1786
I1470
sVUkitake
p1787
I4580
sVLa mascara
p1788
I1471
sVSephiroth EX3
p1789
I1472
sVBlubberman
p1790
I724
sVKane
p1791
I1473
sVKawajirikosaku EX3
p1792
I1474
sVSideswipe
p1793
I1475
sVMai maino
p1794
I3487
sVCurehappy
p1795
I1476
sVIkaruga satuki
p1796
I1477
sVAkari kamigishi
p1797
I1478
sVRasetsu
p1798
I3997
sVNeo dio EX3
p1799
I4459
sVPerfectakishimai
p1800
I1480
sVKitanaininjya
p1801
I1481
sV20 (dr. gero)
p1802
I1482
sVAmber lamps
p1803
I4549
sVRei-kugo
p1804
I1483
sVYamcha by tomur
p1805
I1484
sVJoker_shiki
p1806
I1485
sVChunli_a
p1807
I1486
sVRichard myer
p1808
I4018
sVSophitia
p1809
I1487
sVNero chaos
p1810
I1488
sVDrew
p1811
I1489
sVHoraizon ver1.02
p1812
I1490
sVSkelegon
p1813
I1491
sVNaya tatca nanafe
p1814
I1492
sVGaogaigar
p1815
I1493
sVTrue power sol
p1816
I1659
sVCleric
p1817
I1494
sVBowling ball
p1818
I1495
sVZangief
p1819
I1496
sVChen the weasel
p1820
I1497
sVYoshi EX2
p1821
I1498
sVBernkastel
p1822
I1499
sVSuper metroid
p1823
I1500
sVBagira_ex
p1824
I1501
sVTyrant EX
p1825
I1502
sVAsh 2
p1826
I1503
sVRalf 2k2
p1827
I4369
sVDead geese
p1828
I1504
sVSword impulse
p1829
I1505
sVCommon akuma
p1830
I1506
sVDabura EX3
p1831
I4629
sVAgito_of_the_dark
p1832
I4565
sVBroccalon EX3
p1833
I1508
sVMakoto EX3
p1834
I1509
sVPrincess
p1835
I1510
sVSuper soldier
p1836
I4352
sVChousokabe motochika
p1837
I1511
sVYet another igniz
p1838
I1512
sVNoob saibot mk2
p1839
I3436
sVUltraseven_a
p1840
I1513
sVTerumi
p1841
I1514
sVSawada
p1842
I4113
sVNecoarc
p1843
I1515
sVMore Evil Ryu
p1844
I1516
sVMr. increible
p1845
I4703
sVStimpy
p1846
I1517
sVQuicksilver
p1847
I1518
sVJaguar junichi
p1848
I1519
sVAbobo 0D
p1849
I1520
sVAbigail
p1850
I869
sVTrue k'
p1851
I1521
sVEvabeatrice
p1852
I3987
sVTrishula,doragon of the ice barrier
p1853
I1522
sVRon max
p1854
I1523
sVMoogle
p1855
I1524
sVFortress maximus
p1856
I1525
sVAllen o'neill
p1857
I1526
sVMvc2 cyclops
p1858
I1527
sVSeikimatu guile
p1859
I1528
sVKenbo
p1860
I1529
sVSailor uranus
p1861
I1530
sVKenshi
p1862
I1531
sVMr1 daz bones
p1863
I1532
sVKyoko_typea EX3
p1864
I1533
sVDragon claw
p1865
I4168
sVToyohime EX2
p1866
I1534
sVSaiki
p1867
I1535
sVShizuha EX3
p1868
I1536
sVRaph
p1869
I3760
sVSuper androide 17 hd
p1870
I1537
sVBalrog sf2
p1871
I1538
sVWonder woman
p1872
I1539
sVSyaoran
p1873
I4245
sVBlack widow
p1874
I1541
sVChintao FF
p1875
I1542
sVHamburglar
p1876
I1543
sVCreeper
p1877
I1544
sVBotan
p1878
I4635
sVDevil seaman
p1879
I1545
sVDark karin
p1880
I1546
sVKaede kasiwagi
p1881
I4357
sVSaku
p1882
I1548
sVAdvent cloud
p1883
I1549
sVZuityou no ryukoteam
p1884
I4151
sVCaptain commando
p1885
I1550
sVAlbus
p1886
I1551
sVWriggle-e
p1887
I3579
sVJazu
p1888
I1552
sVRiot
p1889
I1553
sVF.tarantula
p1890
I2075
sVHuey freeman
p1891
I3970
sVVoid
p1892
I1556
sVBobby
p1893
I1557
sVEagle-sabu
p1894
I3930
sVIkumi amasawa
p1895
I1558
sVKanon EX3
p1896
I2093
sVJin bros
p1897
I4552
sVMidknight
p1898
I1561
sVEx apollo
p1899
I1562
sVBlood
p1900
I1563
sVSaki EX2
p1901
I1564
sVBlack manta
p1902
I3935
sVRodimus prime
p1903
I1565
sVCarol
p1904
I1566
sVKen sf3
p1905
I1567
sVRion
p1906
I1568
sVMacheta
p1907
I1569
sVRoppen heimer EX FF
p1908
I1570
sVPiccolo EX3
p1909
I4597
sVMary EX3
p1910
I1571
sVC.dome
p1911
I4044
sVMichael
p1912
I2117
sVS.geist
p1913
I1572
sVBlack mask
p1914
I3995
sVSenna(coh)
p1915
I1573
sVTiki
p1916
I1574
sVMaherl
p1917
I1575
sVRutee
p1918
I1577
sVReimu-q
p1919
I1578
sVMs.archer
p1920
I4605
sVTenshi
p1921
I4099
sVElita one
p1922
I1580
sVScarlet devil
p1923
I1581
sVZeeky h. bomb
p1924
I1582
sVClark Steel XIII
p1925
I3892
sVVega mvc2
p1926
I1584
sVNanase
p1927
I4371
sVAnji
p1928
I1585
sVYoshinaka hinata
p1929
I3238
sVGundog
p1930
I1586
sVToss kong
p1931
I3506
sVEve silvan
p1932
I4088
sVJoseph joestar EX3
p1933
I1587
sVKazuya
p1934
I1588
sVJet-stingray
p1935
I1589
sVSakura haruno nzc
p1936
I1590
sVPsycho shredder[s] 3.0
p1937
I1591
sVKazami yuuka
p1938
I1592
sVFelix the cat EX3
p1939
I1593
sVGi gi
p1940
I1594
sVMvc2 captain america
p1941
I1595
sVYouhei 1p
p1942
I1596
sVRonove
p1943
I1597
sVShiena bee
p1944
I1598
sVRikku
p1945
I1599
sVInfant mutant
p1946
I1600
sVGeneshic gaogaiger
p1947
I1601
sVScarlet spider
p1948
I3971
sVRaval
p1949
I1602
sVSenel
p1950
I1603
sVHel'lauren
p1951
I1604
sVGutsman
p1952
I1605
sVKinoko
p1953
I1606
sVSolitaire
p1954
I1607
sVRockman x
p1955
I1608
sVFrieza EX3
p1956
I1609
sVTeam ryuko
p1957
I4019
sVZinsuke
p1958
I1611
sVBuu Hyper Dimension
p1959
I1612
sVBao
p1960
I1613
sVTokinomiya kamui
p1961
I1614
sVCvs blaze
p1962
I1615
sVJudith
p1963
I1616
sVPolon
p1964
I4183
sVThe pacifier
p1965
I4507
sVB.dosa
p1966
I1617
sVBasara
p1967
I1618
sVYumi
p1968
I1619
sVSuper mario EX3
p1969
I1620
sVVice EX3
p1970
I1621
sVAnna ex
p1971
I1622
sVMahvel elena
p1972
I1623
sVRugal bernstein EX3
p1973
I1624
sVPocket chunli
p1974
I1625
sV17th angel
p1975
I1626
sVWyvern
p1976
I1627
sVKoakuma_ac
p1977
I1628
sVThe joker EX3
p1978
I1629
sVTabasa
p1979
I4220
sVSatomi yajima
p1980
I1630
sVTsukishima koko
p1981
I1631
sVBattousai
p1982
I1632
sVMastr Hand
p1983
I729
sVYanpeko na hibikisan
p1984
I1633
sVCham cham
p1985
I4068
sVBalrog f
p1986
I1634
sVDrake
p1987
I1635
sVGeese EX3
p1988
I2529
sVViga
p1989
I1637
sVMr_shihan_ky
p1990
I1638
sVKaptain k.rool
p1991
I1639
sVSenna_ai
p1992
I1640
sVEbe
p1993
I1642
sVArthur EX
p1994
I1643
sVAngela EX3
p1995
I1644
sVProducer
p1996
I1645
sVOld
p1997
I2507
sVKirara
p1998
I1647
sVRiesz
p1999
I1648
sVDeluxe athena
p2000
I1649
sVGeese xi
p2001
I1650
sVGod yuri
p2002
I1651
sVLightning bd
p2003
I1652
sVIceman SP
p2004
I1653
sVNagato yuki
p2005
I1654
sVTloz link
p2006
I1655
sVMedusa
p2007
I1656
sVWorld-chang
p2008
I1657
sVCursor
p2009
I4516
sVLittle busters! ce
p2010
I4386
sVRuriko
p2011
I1660
sVShazzer EX3
p2012
I1661
sVTyrant_a
p2013
I1662
sVE. honda
p2014
I1663
sVCaptain america b
p2015
I1664
sVMari
p2016
I1665
sVEvil ranger
p2017
I1666
sVYellow-pipo
p2018
I470
sVSuper nightmare geese
p2019
I1668
sVM. bison
p2020
I3945
sVSupreme vegito
p2021
I1670
sVMeira
p2022
I1671
sVPocket tylor
p2023
I1672
sVMarx
p2024
I1673
sVBerserk
p2025
I1674
sVJin CVS TAG
p2026
I1675
sVCycloid omega EX
p2027
I1676
sVDana dee
p2028
I1677
sVSuave dude
p2029
I1678
sVHeat-genblem
p2030
I1679
sVMech-hisui EX
p2031
I1680
sVFamicom wars
p2032
I1681
sVHaru-chan
p2033
I1682
sVVeku
p2034
I4336
sVA-heart
p2035
I1684
sVHomer simpson
p2036
I4350
sVAirou ver2.11
p2037
I4544
sVStrider hien
p2038
I1685
sVRouwe_n
p2039
I3895
sVBenimaru 98
p2040
I2876
sVChen_ai EX3
p2041
I1687
sVKasumi wpr
p2042
I1688
sVNamihei
p2043
I1689
sVSkapon
p2044
I1690
sVAkuma
p2045
I1691
sVRoa EX3
p2046
I1692
sVSwordsman
p2047
I4138
sVKudora
p2048
I3626
sVWar EX2
p2049
I1693
sVEarl
p2050
I1694
sVRekka
p2051
I1695
sVKoopa clown car
p2052
I1696
sVThiele
p2053
I1698
sVLf2 - woody
p2054
I4468
sVM-monk
p2055
I4666
sVSs6 aisya
p2056
I1700
sVKanae EX3
p2057
I1701
sVFerroman
p2058
I1702
sVGozu
p2059
I1703
sVLittle nemo
p2060
I1704
sVSupreme goku
p2061
I1705
sVShermie
p2062
I1316
sVLord slug
p2063
I2974
sVNekonin ex
p2064
I1706
sVLoud demon
p2065
I3002
sVLeonardo
p2066
I1708
sVWakko
p2067
I1709
sVBatman EX3
p2068
I1710
sVRambo
p2069
I1711
sVAnpanman
p2070
I1712
sVRogue SP
p2071
I1713
sVRaiden
p2072
I1714
sVAsutorea EX3
p2073
I1715
sVStarfy
p2074
I1716
sVCid highwind
p2075
I3915
sVSatan(zayin)
p2076
I1717
sVCrocodile
p2077
I1718
sVAlter amiba
p2078
I1719
sVWatatsuki no toyohime
p2079
I4124
sVChili n pepper
p2080
I1720
sVBoo ssj
p2081
I4156
sVGg-wind
p2082
I1721
sVTiberius
p2083
I1722
sVSanic boom
p2084
I1723
sVCyber-woo
p2085
I1724
sVKingslime
p2086
I1725
sVMagnus
p2087
I4514
sVJun
p2088
I4334
sVItoko_nagiai
p2089
I1726
sVStorm_cota
p2090
I1727
sVPepe
p2091
I4117
sVAlbiole
p2092
I1728
sVMoses maddigan
p2093
I1729
sVDudley Puppy
p2094
I4167
sVYashiro
p2095
I1730
sVMasked rider agito
p2096
I1731
sVM_canon
p2097
I3910
sVD kanna
p2098
I3998
sVBaki-hanma
p2099
I1732
sVD4?roll?
p2100
I1424
sVJack frost
p2101
I4323
sVChouji
p2102
I3927
sVAoko_monk_style
p2103
I1734
sVEagle f22
p2104
I1735
sVMajin-etna
p2105
I1736
sVDark Stimpy
p2106
I1737
sVLilith
p2107
I1738
sVSunflower fairy
p2108
I3243
sVAstaroth
p2109
I3957
sVNess
p2110
I1740
sVBurnov
p2111
I1741
sVG-gonzales
p2112
I1742
sVKemular
p2113
I1743
sVSagat
p2114
I1744
sVSailor mercury EX2
p2115
I4254
sVGh-golden silver
p2116
I1745
sVSasquatch
p2117
I1746
sVShizuha
p2118
I1747
sVAmingo
p2119
I1748
sVBifrost
p2120
I1749
sVGoketuji
p2121
I1750
sVKyoko_typea
p2122
I1751
sVLf2 - freeze
p2123
I1753
sVKyoko_typek
p2124
I1754
sVFreedom
p2125
I4026
sVHakurou
p2126
I3972
sVMr.karate
p2127
I2697
sVIsaiah bradley
p2128
I1756
sVGeese howard EX2
p2129
I1757
sVB.jenet_n
p2130
I4086
sVWarlock
p2131
I770
sVTrue saber
p2132
I3954
sVZaku Cosplay
p2133
I4261
sVGod-gundam
p2134
I1759
sVDaimaoh
p2135
I3974
sVHarry
p2136
I1760
sVRinfa
p2137
I1761
sVKyoko_typey
p2138
I1762
sVStrike freedom nitori
p2139
I1763
sVGoenitz EX3
p2140
I1764
sVMr buu EX3
p2141
I4157
sVKawashima-san EX3
p2142
I1765
sVKawashima-san EX2
p2143
I4169
sVKenny mccormick
p2144
I1766
sVXeona
p2145
I1767
sVDeluxe kung fu man
p2146
I1768
sVBruce banner
p2147
I4619
sVFurude rika
p2148
I1770
sVBloodtide
p2149
I1771
sVPocket Ryu
p2150
I1772
sVSaito
p2151
I1773
sVCc iron clara
p2152
I1774
sVToro inoue
p2153
I1775
sVMaster juzo
p2154
I1776
sVThe freezing august
p2155
I1777
sVLf2 - rudolf
p2156
I1778
sVApocalypse EX2
p2157
I1779
sVKamui
p2158
I1780
sVClassic wagyan
p2159
I1781
sVEarthworm jim
p2160
I1782
sVTakano_miyo
p2161
I1783
sVXiaoyen
p2162
I1784
sVZantetsu
p2163
I1785
sVSymbiote thanos
p2164
I4504
sVCustom shinobi shou
p2165
I1787
sVQueen the spade
p2166
I4093
sVMinoriko(ai)
p2167
I1788
sVThe red dragon
p2168
I1028
sVPocket Ibuki
p2169
I321
sVRyuko2nd
p2170
I4331
sVMask the griffon EX3
p2171
I1791
sVLuke skywalker EX3
p2172
I1792
sVHina
p2173
I1793
sVKensou
p2174
I4281
sVBlob
p2175
I4347
sVSsj goku z2 ex
p2176
I1794
sVBloo
p2177
I3577
sVBrago
p2178
I1796
sVChiduru
p2179
I1797
sVThe tick
p2180
I1798
sVEvil dooby dummy
p2181
I1707
sVJake
p2182
I1799
sVAnnie murakami
p2183
I1800
sVZx
p2184
I1801
sVKaigen EX3
p2185
I913
sVRubber soul
p2186
I1802
sVAboras
p2187
I4391
sVLion
p2188
I3894
sVWario 64
p2189
I4392
sVYunfei
p2190
I4162
sVRodan
p2191
I3656
sVTung fu rue
p2192
I1806
sVRaphael 0d
p2193
I3665
sVBoss zeroko
p2194
I1808
sVArx-7
p2195
I1809
sVSubaru mikage
p2196
I1810
sVGengetu EX
p2197
I4135
sVOmegamon EX
p2198
I4692
sVSlimeknight
p2199
I1811
sVSymbiote onslaught
p2200
I1812
sVReas
p2201
I1813
sVAlex
p2202
I1814
sVGyan
p2203
I1815
sVNeo y&m
p2204
I1816
sVVoltorb
p2205
I1479
sVAkashima
p2206
I3847
sVNeco-misaka
p2207
I1818
sVElement
p2208
I1819
sVCorin
p2209
I1820
sVBirdie sfa
p2210
I1821
sVErisnomia
p2211
I1822
sVFernandeath
p2212
I1823
sVArigato usagi
p2213
I1824
sVRyu sf3
p2214
I1117
sVDio di musca
p2215
I1825
sVAnonym
p2216
I1826
sVDragon
p2217
I4361
sVPickle
p2218
I1827
sVAxel stone
p2219
I1828
sVMr_shihan
p2220
I1829
sVAvdul
p2221
I4390
sVShishio
p2222
I977
sVCammy NXC
p2223
I1830
sVDevilbat-schilt
p2224
I4123
sVEremes_guile
p2225
I1831
sVRobo-ky XX
p2226
I1832
sVRuckus
p2227
I1833
sVDesteny remilia
p2228
I1834
sVOnpu segawa
p2229
I405
sVRid hershel
p2230
I1835
sVJohnny cage
p2231
I1836
sVKamen rider joker
p2232
I1837
sVRobinmask
p2233
I1838
sVNf-kyo EX3
p2234
I1839
sVShadow sumou
p2235
I4055
sVNatsu EX2
p2236
I3950
sVYusha
p2237
I1841
sVJagi
p2238
I2926
sVGon the dinosaur
p2239
I3415
sVKishimax EX2
p2240
I1843
sVChar's z'gok
p2241
I1844
sVTaku
p2242
I4011
sVPocchi
p2243
I4613
sVLucifeller_ex
p2244
I1846
sVMagikarp
p2245
I1847
sVWolfgang Krauser
p2246
I1849
sVKishima_kouma
p2247
I1850
sVRock-man
p2248
I1851
sVIzayoi sakuya
p2249
I4109
sVDies irae
p2250
I1853
sVKid gohan ssj1
p2251
I1854
sVHyuuga hinata
p2252
I4360
sVSuper sonic EX3
p2253
I1855
sVTaki
p2254
I1856
sVNucoarc
p2255
I1858
sVSailor moon EX2
p2256
I1859
sVGeegus
p2257
I1860
sVFang 0d
p2258
I1861
sVSantaurus
p2259
I1862
sVJin kazama
p2260
I1863
sVElla
p2261
I1864
sVBraun
p2262
I1865
sVElle
p2263
I4543
sVMutron kun
p2264
I1866
sVLightning cb
p2265
I4239
sVBrazer
p2266
I1868
sVSuper3 goku EX
p2267
I1869
sVAchi cirno
p2268
I1870
sVAkiha
p2269
I1871
sVScott pilgrim
p2270
I1872
sVNagamine nozomi
p2271
I1873
sVAlvan EX
p2272
I4511
sVKung lao
p2273
I1875
sVZatracenie EX2
p2274
I1876
sVMasked rider ryuki(emanon)
p2275
I1877
sVAthena_96
p2276
I1878
sVDiba
p2277
I1879
sVPelecanus
p2278
I4589
sVCrawdo
p2279
I1880
sVWhite buffalo
p2280
I1881
sVOrione
p2281
I4389
sVVegalunker
p2282
I1882
sVAngus
p2283
I1883
sVMaggyo EX
p2284
I810
sVKeith wayne EX2
p2285
I3906
sVJhon
p2286
I1884
sVTarantulra_dfo
p2287
I4277
sVChibi vegito
p2288
I1885
sVPocket Dan
p2289
I1886
sVWolf
p2290
I1887
sVTorao onigawara
p2291
I1888
sVMawile
p2292
I1889
sVDebonea
p2293
I4550
sVGogeta mvc
p2294
I1891
sVAtomic r chelnov
p2295
I1892
sVTetsu yatogi
p2296
I4445
sVJagyuta EX2
p2297
I1893
sVReicubas
p2298
I1894
sVDonald mcdonald
p2299
I1895
sVR.lightning
p2300
I1896
sVHomero
p2301
I1897
sVCyber-peacock
p2302
I265
sVMetal sonic mk3
p2303
I1899
sVArchetype:earth
p2304
I4342
sVCursehead
p2305
I1900
sVOrochi ball
p2306
I1901
sVDaimon 98
p2307
I4029
sVJon arbuckle
p2308
I4399
sVFlen_d
p2309
I2677
sVD'raven
p2310
I1904
sVVita
p2311
I1905
sV98se
p2312
I1658
sVRina
p2313
I4700
sVOnslaught
p2314
I1907
sVAdam EX3
p2315
I1908
sVDark eternal champion
p2316
I1909
sVF.o.e._meso
p2317
I1910
sVOsiti
p2318
I1911
sVHiro-ex
p2319
I1912
sVYaridovich
p2320
I1913
sVDestoroyah ex
p2321
I1914
sVRyugen
p2322
I1915
sVTatsuo
p2323
I934
sVBattler ushiromiya
p2324
I1917
sVArrange_shiori
p2325
I1918
sVKyuketsuki_satsuki
p2326
I1919
sVJ.p.polnareff
p2327
I1920
sVRyu hayabusa x
p2328
I1921
sVGeneral
p2329
I1922
sVMo-mo-dainamaitu EX3
p2330
I1923
sVCaptain agent
p2331
I3967
sVLenja
p2332
I1924
sVRei chibi
p2333
I1925
sVChloe valens
p2334
I1926
sVGeese ex xi
p2335
I1927
sVSyuzo matsuoka
p2336
I4634
sVAladdin EX3
p2337
I1928
sVBarts EX3
p2338
I4100
sVKawashima-san
p2339
I1930
sVToguro 80%
p2340
I1931
sVSupernovice
p2341
I1867
sVSamus
p2342
I1932
sVLyndis
p2343
I1933
sVHibiki EX3
p2344
I4152
sVDally
p2345
I1934
sVSoy milk
p2346
I1935
sVHelion
p2347
I1936
sVArena
p2348
I1937
sVGaibon
p2349
I4000
sVSaki mitonoya
p2350
I2755
sVAmon
p2351
I1938
sVRikuo
p2352
I3897
sVDudley streets
p2353
I1939
sVHuman paladin
p2354
I1940
sVBloodia
p2355
I1941
sVMeth Blue Ranger
p2356
I1942
sVMaster lue
p2357
I1943
sVHijiri byakuren
p2358
I1944
sVShin marie
p2359
I1945
sVJonathon Morris
p2360
I1946
sVNumber muncher
p2361
I1947
sVAthena945
p2362
I1948
sVRoomi kof
p2363
I1949
sVFalco la pasione(nagiai)
p2364
I768
sVZabi
p2365
I1951
sVOtane
p2366
I4561
sVArina
p2367
I1952
sVBlack_widoraemon
p2368
I1953
sVClark
p2369
I4171
sVAgito of the dark
p2370
I1954
sVDio M
p2371
I1955
sVClara
p2372
I1956
sVEnja ex
p2373
I1957
sVLucy diclonius
p2374
I4200
sVBizarro
p2375
I4647
sVZappa
p2376
I1959
sVKfm iwbtg
p2377
I1960
sVHiryu
p2378
I1961
sVDio S
p2379
I1962
sVMr.mannequin
p2380
I1963
sVNaomi
p2381
I1964
sVGo_shin
p2382
I1965
sVTerry EX3
p2383
I659
sVWerleck EX3
p2384
I1966
sVMystia EX
p2385
I1967
sVSerika EX2
p2386
I4535
sVToy
p2387
I1969
sVKiyoko
p2388
I1970
sVManjimaru EX3
p2389
I1540
sVGill sf3
p2390
I1414
sVLihua
p2391
I1972
sVRyuken
p2392
I1973
sVBloodbane
p2393
I1974
sVBastion
p2394
I1975
sVMuhi EX
p2395
I4429
sVTom
p2396
I4150
sVYuyuko saigyouji
p2397
I1976
sVSaki
p2398
I1977
sVKouryu
p2399
I4594
sVLord.misyaguzi
p2400
I1978
sVRoast_uncle
p2401
I1979
sVSayia-f
p2402
I1980
sVS_youmu
p2403
I1981
sVElement ma
p2404
I1982
sVLabyrinth
p2405
I1983
sVClone koa
p2406
I1984
sVMercurius
p2407
I1985
sVKomachi_raoh
p2408
I1986
sVVegeta gt
p2409
I806
sVQ-mantha
p2410
I1988
sVSsfiix' rainbow
p2411
I1989
sVAiri
p2412
I1990
sVTwilight sparkle
p2413
I1991
sVNobuko(emanon)
p2414
I1992
sVShinobi
p2415
I1993
sVZ-akuma EX
p2416
I1994
sVDeluxe adon
p2417
I1995
sVAsahina mikuru EX
p2418
I868
sVBirdie
p2419
I1997
sVZangoose EX3
p2420
I1998
sVGrand superior ultimate man
p2421
I1999
sVAkari EX
p2422
I2000
sVDhalsim R
p2423
I2001
sVSmoker
p2424
I2002
sVNeo Sonic
p2425
I2003
sVShockwave
p2426
I2004
sVHisame shizumaru ex2
p2427
I2005
sVNikumaru
p2428
I2006
sVAnguirus
p2429
I4548
sVShigen EX3
p2430
I2007
sVModoi-san
p2431
I2008
sVLilith aensland
p2432
I2009
sVJohnny maximum
p2433
I4368
sVTin's fernandeath
p2434
I2011
sVKarma_0.85
p2435
I2012
sVLeon EX
p2436
I1082
sVSmall Ryu
p2437
I2013
sVVritra
p2438
I3691
sVVega geegus
p2439
I4539
sVPoison ivy
p2440
I2015
sVCci mr.big
p2441
I2016
sVIno
p2442
I4690
sVMictlan EX
p2443
I2018
sVJohn crawley
p2444
I4319
sVMary deiyon
p2445
I1755
sVKing EX2
p2446
I4275
sVKing EX3
p2447
I2021
sVTenma-sama
p2448
I2022
sVSasquatch 71113
p2449
I2023
sVFaud EX3
p2450
I2024
sVMinotaur
p2451
I2025
sVHiei EX
p2452
I2026
sVCommissioner gordon
p2453
I2027
sVKyouken wakamoto
p2454
I2028
sVRanma +
p2455
I3921
sVLegion
p2456
I2029
sVDante2
p2457
I2030
sVJuralian
p2458
I2031
sVStreet fighter is boring you idiots
p2459
I2032
sVZero ariel
p2460
I2033
sVYui_kutuna
p2461
I2034
sVVegeta EX3
p2462
I2035
sVP4 hero
p2463
I2036
sVArrange_unknown
p2464
I2037
sVKumi
p2465
I2038
sV!
p2466
I2039
sVYuki nagato
p2467
I2040
sVA-yuki
p2468
I2041
sVThunder-iku
p2469
I2042
sVMs. fanservice
p2470
I2043
sVDragon ken
p2471
I2044
sVJinmen
p2472
I4341
sVBonus
p2473
I2045
sVMegaman plus
p2474
I2046
sVOmega god ken
p2475
I2047
sVGreat s. man
p2476
I4679
sVAska EX2
p2477
I1176
sVSephiroth AK
p2478
I2049
sVGromit
p2479
I2050
sVCool
p2480
I2460
sVRyu DG
p2481
I2052
sVHanyuu
p2482
I4307
sVNew Nakoruru
p2483
I3781
sVNeo-dio
p2484
I2053
sVJu do man
p2485
I2054
sVSeikimatsukyu-seisya kenshirou
p2486
I4060
sVAnother agito
p2487
I2055
sVRick strowd EX3
p2488
I2056
sVKaede
p2489
I2057
sVSailor pluto
p2490
I2058
sVDon
p2491
I2059
sVCaramelman no.2
p2492
I4122
sVA-agito
p2493
I2296
sVAkuma shin
p2494
I3535
sVTony won
p2495
I2060
sVSantaurus EX3
p2496
I3893
sVNu-13 EX
p2497
I2061
sVReal chibi scex
p2498
I2062
sVS.o.g
p2499
I2063
sVHourai-car
p2500
I2064
sVTiria
p2501
I2065
sVUnyuho-l
p2502
I2066
sVBlack ranger
p2503
I2067
sVAka
p2504
I1278
sVSlarin
p2505
I2069
sVGouki sf3
p2506
I4191
sVEddie
p2507
I3471
sVNightwolf
p2508
I3772
sVRyu_a
p2509
I2070
sVLavia
p2510
I2071
sVPepe EX3
p2511
I2072
sVSailor mars EX
p2512
I2073
sVKrauser 98
p2513
I2074
sVChucky
p2514
I4486
sVDeath-stuff
p2515
I2076
sVDarthvader
p2516
I2077
sVSpin youmu EX
p2517
I1804
sVHotaru futaba
p2518
I2078
sVZero hotaru EX3
p2519
I2079
sVKill bill o-ren_ishii
p2520
I2014
sVUltimate sula
p2521
I4721
sVPeter griffin
p2522
I4146
sVOrder-sol
p2523
I957
sVTyrant marco
p2524
I4384
sVAzrael
p2525
I3498
sVSpiral mvc2
p2526
I2082
sVA-minagi
p2527
I2083
sVKyko waifu
p2528
I4527
sVLeonardo 0d
p2529
I2084
sVB.swordsman
p2530
I2085
sVCrashman
p2531
I2086
sVYumel
p2532
I2087
sVSensei ken
p2533
I2088
sVChaos satellite
p2534
I2089
sVDaos
p2535
I2090
sVKirara EX3
p2536
I2091
sVA Bison
p2537
I2092
sVMarona
p2538
I1559
sVKyo EX3
p2539
I2094
sVPoppy
p2540
I4274
sVBenimaru
p2541
I2095
sVSouthside jim
p2542
I4492
sVZerozuchi
p2543
I2096
sVJupiter
p2544
I4339
sVFuuma
p2545
I4601
sVMech-hisui
p2546
I2097
sVAnanzi
p2547
I2098
sVKamishiro_aya
p2548
I4282
sVHadou-ken
p2549
I2100
sVDark-baltan
p2550
I4064
sVSuper goku
p2551
I2102
sVHyouken
p2552
I2103
sVCho-kichiku masamune
p2553
I2104
sVYuuka
p2554
I2105
sVSailor moon EX
p2555
I2106
sVM.bison
p2556
I2107
sVSaya_g
p2557
I2108
sVDaimon 71113
p2558
I2109
sVTest a.i.
p2559
I2110
sVHagure metal king
p2560
I2111
sVDio v
p2561
I2112
sVVayeate
p2562
I2101
sVMr. big
p2563
I2114
sVRoppen heimer EX
p2564
I2115
sVGaits
p2565
I2116
sVJoe A
p2566
I1996
sVNecro
p2567
I2118
sVLen and w. len
p2568
I1576
sVKomachi
p2569
I2120
sVMajin Virginia
p2570
I2121
sVUltraman jack
p2571
I4378
sVSaizo ryo
p2572
I2122
sVTeam reimisen
p2573
I4579
sVTakuan_osho
p2574
I2123
sVSittara
p2575
I2124
sVCustom omk beatrice EX3
p2576
I2125
sVSion tatari EX
p2577
I4577
sVHakolen-sbs EX3
p2578
I2126
sVHakolen-sbs EX2
p2579
I2127
sVTeipa
p2580
I2128
sVGo badaa ba
p2581
I2129
sVRare nabeatu
p2582
I2130
sVBig zam
p2583
I2131
sVC-19
p2584
I2132
sVKazama kazuki EX3
p2585
I2133
sVKing godzilla
p2586
I4452
sVKurihan
p2587
I4556
sVEvil ryu ssf'2 plus
p2588
I4428
sVSonic 2 style sonic
p2589
I4404
sVDisc
p2590
I2136
sVAlex sf3
p2591
I2137
sVOswald
p2592
I2138
sVAxel
p2593
I2139
sVCci kula
p2594
I4419
sVElpizo
p2595
I2140
sV2k
p2596
I2141
sVCustom ssfiv oni
p2597
I2142
sVYouko
p2598
I2143
sVPunisher
p2599
I2144
sVFighter fly
p2600
I2145
sVJones ex
p2601
I2147
sVDandy j
p2602
I2148
sVGato z2
p2603
I2149
sVZein_dael
p2604
I2150
sVNinja turtles
p2605
I4211
sVSs6 sei-abab
p2606
I4248
sVRakugaki
p2607
I2151
sVMr.karateka
p2608
I2152
sVPsyqhical
p2609
I2153
sVZonu
p2610
I2154
sVJotaro kujo
p2611
I4214
sVPotemkin
p2612
I2156
sVSailor mars
p2613
I3890
sVDaisy EX3
p2614
I2157
sVGod alosson
p2615
I2158
sVCci mature
p2616
I2159
sVTatsuki
p2617
I2160
sVZero Marrow
p2618
I2161
sVGarlic jr
p2619
I2162
sVMiles edgeworth
p2620
I2163
sVHei meiling
p2621
I2781
sVKirikou EX3
p2622
I2164
sVDark Slayer
p2623
I2165
sVJason todd
p2624
I2166
sVMira
p2625
I2167
sVIchigo Kurosaki
p2626
I4709
sVKilla and ren
p2627
I2168
sVDantel
p2628
I4058
sVCharlotte ex
p2629
I2169
sVDios
p2630
I2170
sVTiger EX
p2631
I2171
sVSandrock
p2632
I2172
sVToki jj
p2633
I2173
sVDark chun-li
p2634
I2174
sVLf2 - louisx
p2635
I2175
sVSuika ibuki
p2636
I2176
sVVegeta ssj3
p2637
I2177
sVIsabeau
p2638
I2178
sVVegeta ssj5
p2639
I2179
sVPsychociel
p2640
I2180
sVMeta jade
p2641
I2181
sVSyobo-n
p2642
I2182
sVGhoston
p2643
I2183
sVYouhei
p2644
I3976
sVMetallo
p2645
I2184
sVTowa
p2646
I2185
sVNina
p2647
I2186
sVCutie honey
p2648
I4257
sVHuryou hatune
p2649
I2187
sVArale
p2650
I2188
sVAngela EX
p2651
I2189
sVNatsumi EX
p2652
I2190
sVChang
p2653
I2191
sVOmega red mvc2
p2654
I3101
sVSupreme gt vegeta
p2655
I4478
sVVenom MMV
p2656
I2194
sVHaohmaru CVS
p2657
I2195
sVSynn
p2658
I2196
sVCci kasumi
p2659
I2197
sVRyu SF4
p2660
I2198
sVGustab munchausen
p2661
I2199
sVRugal
p2662
I2200
sVHeavyarmscustom
p2663
I2201
sVYuri sakazaki EX3
p2664
I2202
sVAmakusa ex
p2665
I2203
sVMuscle power
p2666
I2204
sVCless alvein
p2667
I2205
sVMisuzu
p2668
I2051
sVMasked rider 555_z
p2669
I2207
sVEvil dan
p2670
I2208
sVMokou EX
p2671
I3938
sVRichter belmont
p2672
I2210
sVTanuki
p2673
I2211
sVOrchid
p2674
I2212
sVLynn 02
p2675
I2213
sVMissingno.
p2676
I2214
sVTails s2
p2677
I2215
sVYumemi
p2678
I2216
sVArabian moon
p2679
I2217
sVVeigue_lungberg
p2680
I2218
sVBubbles DG
p2681
I2219
sVDan hibiki
p2682
I2220
sVBlaze agent
p2683
I2221
sVUltraman dyna
p2684
I2222
sVKaede ngbc
p2685
I2223
sVAdon sfa
p2686
I2224
sVOhga
p2687
I2225
sVShishioh
p2688
I3445
sVStingray
p2689
I2226
sVMr.big
p2690
I4673
sVCell Hyper Dimension
p2691
I1579
sVBurter
p2692
I2068
sVC. shrd
p2693
I4197
sVIrori
p2694
I2229
sVYuri sakazaki EX2
p2695
I2230
sVDisrupter
p2696
I2231
sVGowcaizer
p2697
I2232
sVGuardian
p2698
I2233
sVWaddledee EX3
p2699
I2234
sVAstonishing Cyclops
p2700
I4674
sVLehyu EX3
p2701
I4014
sVKaeru(chrono)
p2702
I2235
sVPlastic man
p2703
I4206
sVZombie
p2704
I2227
sVJuggernaut mvc2
p2705
I2237
sVUmvc_redarcueid
p2706
I2238
sVChibi naruto
p2707
I2239
sVArrange_ayu
p2708
I3844
sVDirty kf man
p2709
I4417
sVIari
p2710
I2240
sVBerserker
p2711
I4415
sVMaster god ryu
p2712
I2241
sVOkubo kumi
p2713
I4710
sVSailor jupiter EX
p2714
I2243
sVVoltz
p2715
I2244
sVHulk ex
p2716
I2245
sVYugi(emanon)
p2717
I2246
sVAyu&misuzu&mizuka
p2718
I2247
sVArcher
p2719
I2248
sVBoring sdk mukurou
p2720
I1583
sVYuen-joe
p2721
I4215
sVGoku nex
p2722
I2250
sVCpt.falcon
p2723
I2251
sVShiiko yuzuki
p2724
I2252
sVMr.saikyo
p2725
I2253
sVMB-02
p2726
I2254
sVOni inomura
p2727
I2255
sVShiki vp
p2728
I700
sVJean pielle
p2729
I4133
sVPucca-toppo
p2730
I2257
sVHinata Shippuden
p2731
I2258
sVYuri EX2
p2732
I2259
sVSymbiote spider-man
p2733
I2260
sVAk man
p2734
I4685
sVDoomsday
p2735
I2916
sVGuevara
p2736
I2262
sVChonrei W
p2737
I4237
sVMageko
p2738
I2263
sVPossessed heita
p2739
I2264
sVRyu Master
p2740
I2265
sVHoly ken
p2741
I4112
sVRocket tank
p2742
I2266
sVColossus mvc2 ex
p2743
I2267
sVNrvnqsr chaos
p2744
I2268
sVWyler
p2745
I2269
sVFukumen senshi
p2746
I4532
sVSolid snake
p2747
I2270
sVIron_miyako
p2748
I4376
sVYuri lowell
p2749
I2271
sVCirnoJ
p2750
I2272
sVHaruno sakura
p2751
I4272
sVDis astranagant
p2752
I1313
sVArc vp
p2753
I2275
sVCrazy rugal
p2754
I2276
sVElongated man
p2755
I4680
sVA ninja
p2756
I2277
sVKnyacki
p2757
I2278
sVGoa
p2758
I2279
sVAkaitsuki EX
p2759
I2280
sVBattler
p2760
I2281
sVUmvc_suika
p2761
I2282
sVGriffon
p2762
I2283
sVBloodia EX2
p2763
I2284
sVSabretooth
p2764
I4210
sVAsagi EX3
p2765
I3565
sVSuper3 goku
p2766
I2288
sVRaidou
p2767
I4074
sVEvil ryu
p2768
I3237
sVLf2 - firen
p2769
I2289
sVYoshi
p2770
I2290
sVThin nen
p2771
I2291
sVAsuka
p2772
I2293
sVYukari ex
p2773
I2294
sVSoldier
p2774
I2295
sVIrriana
p2775
I2249
sVGustavo
p2776
I4034
sVKurahashi tokimi
p2777
I2297
sVAo-takagami
p2778
I2298
sVSoujiro EX3
p2779
I4633
sVHarpagos
p2780
I2300
sVValgar reinhart
p2781
I1253
sVMinis mahn
p2782
I4032
sVKim
p2783
I2301
sVDoom vega
p2784
I2302
sVMisaka mikoto
p2785
I2146
sVMyuu
p2786
I4523
sVToejam
p2787
I2304
sVYu asuka
p2788
I2305
sVSub-zero EX3
p2789
I4312
sVJill ex
p2790
I2307
sVCaptain marvel
p2791
I2308
sVGagi_fe
p2792
I2309
sVHatsune miku
p2793
I2310
sVFelix the cat
p2794
I4276
sVCyndaquil
p2795
I2311
sVDeath
p2796
I4612
sVBack beard
p2797
I2312
sVRuputna
p2798
I2313
sVBlockhead
p2799
I2314
sVArrange_marisa
p2800
I2315
sVShao kahn
p2801
I2316
sVVega
p2802
I2317
sVEvil ryu sf3
p2803
I2318
sVJagi sama
p2804
I2319
sVSaltdonald
p2805
I2320
sVLucifer EX3
p2806
I3633
sVChiel
p2807
I2321
sVDr.doom
p2808
I4554
sVEiki-judgment
p2809
I2322
sVAdon ca
p2810
I2323
sVUndead jason voorhees
p2811
I2324
sVCustom-bsreimu
p2812
I4059
sVSaiyaman
p2813
I3423
sVSaizo
p2814
I2757
sVMegaman EX2
p2815
I2328
sVShenlong
p2816
I4672
sVGillius
p2817
I846
sVMysty_monkstyle
p2818
I2209
sVWalkyrie EX2
p2819
I4602
sVStupid little drill tank
p2820
I2332
sVPocket Akuma
p2821
I2333
sVG akiha nightmare
p2822
I2334
sVTobikage
p2823
I2335
sVHirasawa_yui
p2824
I4155
sVExtrahighfairy
p2825
I2336
sVSakaki
p2826
I2337
sVRed skull
p2827
I2338
sVYagami iori
p2828
I2339
sVMad dog
p2829
I2340
sVCheddah gief
p2830
I1646
sVMr.big EX3
p2831
I2342
sVGodman
p2832
I2343
sVCody_a
p2833
I2549
sVNot so hyper commando team
p2834
I1916
sVZombies
p2835
I4431
sVMad grinder
p2836
I2344
sVAnother kung fu girl z
p2837
I2345
sVKarla
p2838
I2346
sVCrazy-shin
p2839
I4522
sVSilver surfer
p2840
I2347
sVGustab m.
p2841
I2348
sVKizaru borsalino
p2842
I2349
sVRatix
p2843
I2350
sVTurbo bonkers
p2844
I2351
sVTouko matsudaira
p2845
I2352
sVSilversamurai
p2846
I2353
sVNeco-arc chaos
p2847
I2354
sVRyougi_shiki
p2848
I2355
sVShin gouki ssf'2 plus
p2849
I2356
sVMecha dragon
p2850
I2906
sVIronfist ryu
p2851
I2357
sVBass
p2852
I2358
sVDaimon
p2853
I2359
sVOro
p2854
I4385
sVSieger EX2
p2855
I2360
sVDoragory
p2856
I4618
sVSekkimaru
p2857
I1971
sVKill bill uma-ex
p2858
I2361
sVGod tewi
p2859
I4519
sVS-yuuka
p2860
I4575
sVYuyuko & youmu
p2861
I2362
sVMagaki xi
p2862
I2363
sVKunagi
p2863
I4046
sVKyosuke
p2864
I2364
sVLink
p2865
I2935
sVPooh
p2866
I2365
sVSakuya.brando
p2867
I2366
sVMagic dunker EX
p2868
I2367
sVEtrigan
p2869
I2368
sVNash shadow
p2870
I2369
sVPatchouli_swr
p2871
I2370
sVAmi ex
p2872
I2371
sVShinshi
p2873
I4118
sVRydia of mist
p2874
I2372
sVHashi
p2875
I4148
sVUltraman agul
p2876
I2373
sVTwitch waifu chan-hd
p2877
I2374
sVUminin
p2878
I2375
sVDecade as kuuga
p2879
I2376
sVYagami_if
p2880
I2377
sVRx-78-2 gundam
p2881
I2378
sVThe Colonel
p2882
I4129
sVZako-dan
p2883
I3124
sVKirikou
p2884
I2380
sVFat albert
p2885
I509
sVRazor claws
p2886
I2382
sVDaimajin
p2887
I2383
sVDivekick kfm
p2888
I2384
sVIron man z
p2889
I2385
sVKagami EX2
p2890
I2386
sVNo.8
p2891
I2387
sVMokou fujiwara EX3
p2892
I2388
sVHulk mvc2
p2893
I4614
sVOrc
p2894
I2941
sVChun-li jj
p2895
I2389
sVRalf EX3
p2896
I1610
sVUesugi kensin EX G
p2897
I2391
sVYukkuriyukarin
p2898
I2392
sVPaul phoenix
p2899
I2393
sVGezorah
p2900
I2394
sVThe undertaker
p2901
I819
sVTourney pikachu
p2902
I2396
sVRoyal air king EX3
p2903
I3953
sVJuggy
p2904
I2397
sVKen mvc
p2905
I2398
sVYuri di aaaaaa ex
p2906
I4049
sVAlter wind
p2907
I2399
sVGliformoth EX3
p2908
I2400
sVAlice margatroid
p2909
I3963
sVFoz
p2910
I2402
sVAnimus EX3
p2911
I2403
sVMami
p2912
I2404
sVGreen ranger
p2913
I2405
sVEvil guire
p2914
I2406
sVAkatsuki
p2915
I2407
sVCci xiangfei
p2916
I3305
sVGameboy
p2917
I2409
sVHoly flandre
p2918
I2410
sVMiko hd
p2919
I2411
sVCho-kichiku toki
p2920
I2412
sVDeliza
p2921
I1059
sVAdon f22
p2922
I2414
sVUmvc_gouki
p2923
I2415
sVMaster marco
p2924
I2416
sVCarmilla
p2925
I3351
sVShen EX
p2926
I2418
sVZeldia 0D
p2927
I2419
sVKagura
p2928
I2420
sVUzume
p2929
I2421
sVBlack-rock_shooter
p2930
I2422
sVSimmon
p2931
I2423
sVHiziri
p2932
I2424
sVImouto
p2933
I2425
sVPepe-h
p2934
I3405
sVRaizen
p2935
I2427
sVUltraman 1st
p2936
I2428
sVAgent smith
p2937
I4246
sVHeihachi m
p2938
I2430
sVBrass
p2939
I2431
sVColonel sanders
p2940
I2432
sVTerry_ff3rb
p2941
I2433
sVMakoto mizoguchi
p2942
I2434
sVKing
p2943
I4426
sVJulius belmont
p2944
I2435
sVFighter
p2945
I4707
sVMaximune
p2946
I2436
sVZan-b EX
p2947
I2437
sVTurn-x
p2948
I2438
sVJin O
p2949
I2439
sVPiccoloco
p2950
I4578
sVDark arcueid mk2
p2951
I2440
sVForte cross rockman.exe
p2952
I4611
sVRolento
p2953
I2441
sVHonda tadakatsu
p2954
I2442
sVMask the griffon
p2955
I2443
sVAndroid 18
p2956
I2444
sVClark 98
p2957
I2445
sVLuigi
p2958
I4244
sVMc hisui
p2959
I3517
sVUtsuho reiuji
p2960
I3982
sVEyedol
p2961
I2448
sVEvil donald
p2962
I2449
sVAsuka EX2
p2963
I2450
sVMegamami EX2
p2964
I4131
sVPetshop
p2965
I2451
sVMay(ac)
p2966
I2452
sVYurung
p2967
I2867
sVKrusty
p2968
I2453
sVLf2 - louis
p2969
I3826
sVUmbreon
p2970
I2455
sVMattrex
p2971
I2456
sVMiyako(coh)
p2972
I2457
sVK' dempsey
p2973
I2458
sVAkane tendo
p2974
I4436
sVBurai_yamamoto
p2975
I4464
sVGen kiba
p2976
I2459
sVShiki Ryougi
p2977
I3548
sVDreamform sula
p2978
I4593
sVSuperman
p2979
I2461
sVMoonmillenniummon
p2980
I2462
sVGouki
p2981
I3108
sVMaria EX2
p2982
I2463
sVGuldin EX2
p2983
I2464
sVStrong guy
p2984
I2465
sVPeketo EX3
p2985
I4036
sVKensuke kudou
p2986
I2466
sVP3 heroine
p2987
I2467
sVSolitary-zero
p2988
I2468
sVIceclimber
p2989
I2469
sVCyrax umk3
p2990
I2471
sVHitsugaya
p2991
I2472
sVWar
p2992
I4660
sVYue EX3
p2993
I1027
sVGod vega
p2994
I2474
sVMusashi
p2995
I4021
sVGalford nrf
p2996
I2475
sVZankuro ex
p2997
I2476
sVIgniz scarlet
p2998
I2477
sVNoriko nijou
p2999
I2478
sVSion eltnam atlasia EX
p3000
I2479
sVCyber shredder
p3001
I4621
sVSparta_heika
p3002
I2480
sVAsborb
p3003
I2481
sVKyoko
p3004
I2482
sVGrebam
p3005
I2483
sVFordy-z
p3006
I2484
sVRogue
p3007
I2485
sVShin gouki EX2
p3008
I2486
sVJin chonrei
p3009
I2487
sVMorrigan nxc
p3010
I2488
sVPepito EX2
p3011
I2489
sVBaby bonnie hood EX3
p3012
I4189
sVLink tloz
p3013
I2491
sVAxel 'hawk' stone
p3014
I4645
sVRobo-mizuchi
p3015
I2492
sVKaguya houraisan
p3016
I2493
sVKim EX
p3017
I1383
sVUndeadhero
p3018
I2495
sVSagat f22
p3019
I2020
sVKirisima kyoko
p3020
I2963
sVZoma
p3021
I2498
sVHana akuma
p3022
I2499
sVCueca
p3023
I2500
sVKungfumithra
p3024
I2501
sVWing.0
p3025
I4380
sVSupergirl
p3026
I2502
sVSailor saturn
p3027
I2503
sVKing lion ngbc
p3028
I4003
sVFubuki
p3029
I2504
sVTron Bonne MVC2
p3030
I4705
sVMouri alice
p3031
I2505
sVKeiji
p3032
I2506
sVHotaru Futaba J
p3033
I2541
sVBeavis EX3
p3034
I2508
sVBeavis EX2
p3035
I2509
sVSaint kyo
p3036
I4285
sVShoujo genkai
p3037
I2511
sVMaster sakura
p3038
I2512
sVCvs sakura
p3039
I2513
sVRin_tohsaka
p3040
I3891
sVNegative shin
p3041
I4218
sVMaster hand
p3042
I2515
sVRobo-sol
p3043
I4105
sVMudman
p3044
I4165
sVOkina
p3045
I2516
sVKyo xi
p3046
I2517
sVGodzilla_ex
p3047
I2518
sVPikkon
p3048
I4726
sVCola
p3049
I2519
sVBlues hablam
p3050
I2520
sVToki 2
p3051
I2521
sVCci jhun EX3
p3052
I2522
sVYashiro nanakase EX3
p3053
I2523
sVArcueid
p3054
I2524
sVRei EX
p3055
I2525
sVA-green
p3056
I2526
sVDestoroyah_ex
p3057
I2527
sVBloodia EX3
p3058
I2285
sVUltraman tiga
p3059
I3899
sVGeese EX2
p3060
I3315
sVLee Cosplay
p3061
I4377
sVRocky balboa
p3062
I2530
sVTanya
p3063
I2531
sVDaniel
p3064
I2532
sVUltimate aizen
p3065
I2533
sVSlash
p3066
I2534
sVOda nobunaga EX
p3067
I2535
sVThe scyther
p3068
I4387
sVYue CC
p3069
I2536
sVIori 71113
p3070
I2537
sVTwelve EX3
p3071
I2538
sVIkki
p3072
I2539
sVRyu hell
p3073
I2540
sVJoshua bright
p3074
I4529
sVJohnny cage EX
p3075
I4582
sVKiriko
p3076
I2542
sVTwintail
p3077
I2543
sVLast adult goku
p3078
I2544
sVMysterious budo
p3079
I2545
sVChizuruxxx
p3080
I2546
sVCvs yun
p3081
I2547
sVReal Ryu
p3082
I2548
sVLuka
p3083
I1368
sVThalia
p3084
I2550
sVR.jackal
p3085
I3864
sVLambdadelta
p3086
I2551
sVRangle EX3
p3087
I2552
sVGenyew
p3088
I4108
sVRock(mkii)
p3089
I1845
sVEleicia
p3090
I3330
sV9
p3091
I2555
sVFangore
p3092
I2556
sVThe world-dio EX3
p3093
I2566
sVHakureimu
p3094
I2557
sVIbuki sf3
p3095
I744
sVMienshao
p3096
I4444
sVLemeza
p3097
I2559
sVMajic-pot
p3098
I4263
sVEliza EX
p3099
I2560
sVKongman
p3100
I2561
sVThierry henry
p3101
I2562
sVAmato
p3102
I2563
sVFullmoon_suika
p3103
I2564
sVMr burns
p3104
I4636
sVGreen lantern
p3105
I2565
sVMr. bear
p3106
I3273
sVMaster taekuk
p3107
I2567
sVUshio
p3108
I3678
sVRaphael
p3109
I4694
sVMr. bean
p3110
I2568
sVScopedog
p3111
I2569
sVThwomp
p3112
I2570
sVDark baltan
p3113
I2571
sVSkapokan
p3114
I2572
sVTotoro
p3115
I2573
sVW buffalo_n
p3116
I2574
sV009
p3117
I4161
sVHammer bro
p3118
I2575
sVHatate_himekaidou
p3119
I2576
sVDhaos RD
p3120
I2577
sVAtusi
p3121
I2578
sVKars
p3122
I2579
sVMedamaoyaji
p3123
I2580
sVSauri
p3124
I2581
sVGully
p3125
I4142
sVNeyufeulle
p3126
I2583
sVLasher
p3127
I2584
sVMystic gohan
p3128
I420
sVOchamaro
p3129
I4691
sVIronpatriot
p3130
I2586
sVF.o.e.
p3131
I4015
sVSol
p3132
I2587
sVWafu
p3133
I2588
sVRinrin
p3134
I2589
sVTen
p3135
I2590
sVRay mcdogall
p3136
I2591
sVMaster god ken
p3137
I4038
sVGiro
p3138
I2593
sVCrispy
p3139
I3307
sVHikaru EX3
p3140
I4351
sVOlof
p3141
I4381
sVArmgon
p3142
I2595
sVHol 'butt king' funtimes
p3143
I2984
sVEdonokiba
p3144
I2596
sVFang
p3145
I2597
sVNanaya shiki
p3146
I4207
sVCharizard
p3147
I2598
sVLenalee-mvc EX3
p3148
I2599
sVYashiro 2k2
p3149
I4725
sVAnother clone ash
p3150
I443
sVPredator
p3151
I2510
sVChipp zanuff h
p3152
I2602
sVK.m.mioh
p3153
I3996
sVTingle
p3154
I2604
sVKitaro EX3
p3155
I2605
sVGotenks ssj
p3156
I2606
sVAlvein
p3157
I4022
sVZeroko EX3
p3158
I2607
sVEvil ken
p3159
I1053
sVAya syameimaru
p3160
I2609
sVTam tam
p3161
I2610
sVSento kun
p3162
I2611
sVFelicia EX2
p3163
I2612
sVPuss in boots
p3164
I2613
sVTnok
p3165
I2615
sVKogasa_f
p3166
I3943
sVMaria EX
p3167
I3728
sVJurane
p3168
I4500
sVArcbeetle
p3169
I2617
sVAyumu kasuga EX
p3170
I4446
sVNero DMC4
p3171
I4622
sVNaitou
p3172
I2619
sVAbui
p3173
I2620
sVAstro
p3174
I2621
sVMike haggar EX3
p3175
I2622
sVOmega tiger woods
p3176
I2623
sVCarol stanzack
p3177
I3925
sVDon patch
p3178
I2624
sVAwakened torao
p3179
I2625
sVAioria de leo
p3180
I4180
sVMetagang
p3181
I4202
sVChipp
p3182
I2628
sVClassic batman
p3183
I2629
sVRip_saber
p3184
I2630
sVAlien mefilas
p3185
I2631
sVArmor jack
p3186
I4572
sVMarshal law
p3187
I2632
sVTsu-
p3188
I2633
sVMaster barnes
p3189
I2634
sVVebel
p3190
I2635
sVAndore jr
p3191
I2636
sVThor
p3192
I2637
sVGold warmachine
p3193
I2638
sVSarashina
p3194
I2639
sVUme_age18
p3195
I2640
sVLucario
p3196
I2641
sVOx
p3197
I2642
sVKanaka
p3198
I2643
sVSyllin
p3199
I2644
sVAcguy
p3200
I2645
sVMitsuji tanimati
p3201
I2646
sVNick commando EX
p3202
I2647
sVTin star
p3203
I2648
sVBlack rabite
p3204
I2649
sVChill penguin
p3205
I4343
sVAoko
p3206
I3096
sVTakiyasya
p3207
I4267
sVEdward elrick
p3208
I2650
sVMai_shiranui EX3
p3209
I4287
sVSteven seagal
p3210
I4615
sVJack in dia
p3211
I2652
sVShimako
p3212
I2653
sVWhispy woods
p3213
I2654
sVYawara
p3214
I2655
sVOmega Woods
p3215
I2656
sVMeiya
p3216
I2657
sVHugo EX
p3217
I3959
sVTallgeese
p3218
I4409
sVGekka suika
p3219
I2659
sVGhost rider
p3220
I4490
sVNico
p3221
I2660
sVMillia Rage
p3222
I3310
sVAndroid 16 ai-barbatos
p3223
I4668
sVAkira kogami
p3224
I2661
sVMariko konjou
p3225
I4562
sVJoe EX3
p3226
I2662
sVMr.satan EX3
p3227
I2663
sVNogami_aoi
p3228
I4204
sVRyu 98
p3229
I2664
sVJohn anderson
p3230
I3287
sVMeiya_striker
p3231
I2665
sVChildre inarabitta
p3232
I2666
sVHyper neo-kamek EX3
p3233
I2667
sVBlaze EX2
p3234
I2206
sVEx snow
p3235
I2668
sVAndy
p3236
I2669
sVEx adamas
p3237
I2670
sVG_orochi
p3238
I2671
sVSeth ex
p3239
I2672
sVBonegolem
p3240
I2673
sVTyssa willing
p3241
I2674
sVHyper neo-kamek
p3242
I2675
sVWiler
p3243
I2676
sVSailor mercury k
p3244
I412
sVKira
p3245
I3000
sVSankuro yorozu
p3246
I3942
sVYami yugi
p3247
I2679
sVLambda 11
p3248
I2680
sVTetsu yatoji
p3249
I2681
sVK'
p3250
I3244
sVCar navi EX
p3251
I2682
sVBomber man
p3252
I4655
sVSakura EX2
p3253
I2683
sVMisaka mikoto EX2
p3254
I2684
sVHol horse & boingo
p3255
I4505
sVTiblekun
p3256
I2685
sVBlack rugal
p3257
I2686
sVLin EX3
p3258
I2687
sVGodmars
p3259
I2688
sVDrdoom
p3260
I2689
sVModel z
p3261
I2690
sVNyamo EX
p3262
I2691
sVYusuke
p3263
I2692
sVChen-mao
p3264
I2693
sVFrankenstein
p3265
I2694
sVColossus
p3266
I2695
sVDark champion
p3267
I2228
sVMajor alan dutch schaefer
p3268
I2470
sVToguro 100%
p3269
I2698
sVBoggy
p3270
I4104
sVHiryu EX2
p3271
I2699
sVDonkey kong EX2
p3272
I2700
sVTu shou
p3273
I2048
sVParasite
p3274
I3964
sVLotus master
p3275
I2702
sVIggy
p3276
I4568
sVGaits z
p3277
I2703
sVJado
p3278
I4576
sVTrunks
p3279
I2704
sVBlodia-k
p3280
I2705
sVGlenn
p3281
I2706
sVD Chun-li
p3282
I3717
sVRoa
p3283
I4372
sVIzanagi
p3284
I2707
sVDr. doom mvc3
p3285
I2708
sVMia touma
p3286
I2709
sVLucifer 2
p3287
I2710
sVKaf ka
p3288
I2711
sVNecorsair
p3289
I2712
sVSaiyajin
p3290
I2713
sVYusuke urameshi
p3291
I2714
sVPower lyzer
p3292
I2715
sVV2ab
p3293
I2716
sVSylveon_var1
p3294
I2717
sVReptile mk2
p3295
I2718
sVCell junior
p3296
I4456
sVStarsavior
p3297
I4084
sVThe gandhara
p3298
I2720
sVHeika-ss
p3299
I2721
sVNeco
p3300
I4177
sVSalty goku
p3301
I2722
sVRyuuguu rena
p3302
I2723
sVMichael jordan
p3303
I2724
sVEnegori
p3304
I2725
sVParace
p3305
I2726
sVEcoco
p3306
I2727
sVFygar
p3307
I2728
sVBurnie
p3308
I2729
sVHal jordan
p3309
I2730
sVBloo xiii
p3310
I2731
sVSula
p3311
I2732
sVKyo_99xi
p3312
I2733
sVMeteor
p3313
I2734
sVBellyache
p3314
I3267
sVGeese_ff3rb
p3315
I2735
sVDai rai oh
p3316
I1803
sVRobin_mask
p3317
I2736
sVEva-03
p3318
I3182
sVLady deathstrike
p3319
I2737
sVTiger
p3320
I4181
sVBubble slime
p3321
I1250
sVLf2 - bat
p3322
I4356
sVRatking
p3323
I2740
sVBatgirl
p3324
I4501
sVWarlock-k
p3325
I4524
sVMr. fantastic
p3326
I4311
sVVulture
p3327
I2743
sVKill bill uma
p3328
I2744
sVMaximum maxime
p3329
I2325
sVKonata EX
p3330
I2745
sVChronoforce
p3331
I2746
sVCho-kichiku masamune EX3
p3332
I2747
sVCm punk
p3333
I2748
sVKarin CVS
p3334
I1327
sVLeopaldon
p3335
I4498
sVDante D4
p3336
I4078
sVRyu EX3
p3337
I2750
sVBenimaru EX3
p3338
I2751
sVBlue blood
p3339
I2752
sVWonder boy shion
p3340
I2753
sVSteel
p3341
I2754
sVBardock EX3
p3342
I4473
sVMobo
p3343
I4518
sVBou ken
p3344
I118
sVDeadpool EX
p3345
I2758
sVSerika
p3346
I2759
sVThawk sfa
p3347
I2760
sVAoshi
p3348
I2761
sVKung fu fiunn
p3349
I2762
sVTormentor jinmen
p3350
I2763
sVHyper kagami
p3351
I2764
sVLyzer
p3352
I2765
sVSyouzan matsuo
p3353
I2766
sVK-series
p3354
I2767
sVRen mizusaka
p3355
I2768
sVAura
p3356
I2769
sVKilyousuke
p3357
I2770
sVChaka EX3
p3358
I2771
sVClonekyo xi
p3359
I2742
sVKoneko
p3360
I2773
sVBoulma
p3361
I4370
sVJyubei yagyu
p3362
I2774
sVNighmare snake
p3363
I4041
sVThe red skull
p3364
I2775
sVDarkseid
p3365
I2776
sVStone_bonus
p3366
I4234
sVGeneral_l
p3367
I1667
sVJ'onn j'onnz
p3368
I2329
sVSpongebob
p3369
I4318
sVTwitch waifu chan-sd
p3370
I2779
sVElza kanagusuku
p3371
I2780
sVPiccolo
p3372
I4701
sVSenna
p3373
I2582
sVSakura kinomoto
p3374
I1429
sVPesoguin
p3375
I2782
sVStrawbelly jam
p3376
I2330
sVGrand master ryu
p3377
I2783
sVCustom ddv shadow master
p3378
I2784
sVChizuru 71113
p3379
I2785
sVKrillin
p3380
I421
sVFamardy
p3381
I2787
sVAlien borg
p3382
I4620
sVSara_cat EX
p3383
I2788
sVPapillon
p3384
I2789
sVDream bison
p3385
I2790
sVShion
p3386
I4711
sVAlcott
p3387
I2791
sVNacht_jaeger1.29
p3388
I2792
sVJeff howard
p3389
I4024
sVShizuha aki
p3390
I4434
sVDare devil
p3391
I4530
sVScene
p3392
I4675
sVHoujuu nue H
p3393
I2794
sVGuldin
p3394
I4269
sVPeketo
p3395
I3991
sVO_flan-var.2
p3396
I2795
sVYukino
p3397
I2796
sVLuise
p3398
I2797
sVKungFu Man
p3399
I4430
sVHatchetman
p3400
I1547
sVGuile machine
p3401
I2799
sVGoku ssj3 EX2
p3402
I2800
sVKuwabara
p3403
I1555
sVJuggernaut ex
p3404
I2802
sVJagi bike
p3405
I2803
sVThe dazzler
p3406
I3958
sVPulunis
p3407
I2804
sVRyu mvc1
p3408
I4487
sVNachi
p3409
I4092
sVMagaki EX2
p3410
I2805
sVChonshu EX3
p3411
I4469
sVMike tyson
p3412
I2806
sVRaphael EX
p3413
I2807
sVGarfield
p3414
I2808
sVMary
p3415
I2809
sVH-duolon
p3416
I2810
sVGoku ssj3
p3417
I4717
sVHan EX3
p3418
I2811
sVChie_rumiko
p3419
I2812
sVAkito(coh)
p3420
I2813
sVOuyang feng
p3421
I2814
sVAn ogre
p3422
I2815
sVMito_mashiro
p3423
I2816
sVRobo rock
p3424
I2817
sVKeine kamishirasawa(keln)
p3425
I2818
sVKlonoa
p3426
I2819
sVCheng_fu
p3427
I4485
sVAntimage
p3428
I2820
sVAzteca
p3429
I2821
sVKanoko hosokawa
p3430
I2822
sVLight yagami
p3431
I2823
sVGolden axe
p3432
I2824
sVSentry
p3433
I1697
sVGlaceon
p3434
I4681
sVH_gate_0350
p3435
I2826
sVAsha
p3436
I2827
sVMomiji inubashiri
p3437
I2828
sVGorilla
p3438
I4097
sVDante 4
p3439
I2830
sVToki hakurei
p3440
I2831
sVMazinger-z ex
p3441
I4136
sVYujiro-hanma
p3442
I2832
sVGohan saiya-jin ex
p3443
I2833
sVTrevor B
p3444
I2834
sVGeneral blue
p3445
I2835
sVKanae
p3446
I2836
sVFull armor ciel
p3447
I2837
sVShiki tohno iqs
p3448
I4344
sVSabu EX3
p3449
I2838
sVMajin vegeta EX3
p3450
I2839
sVAi
p3451
I2840
sVWreck-it ralph EX3
p3452
I2841
sVPicurin
p3453
I2842
sVSf4 vega
p3454
I2843
sVAl
p3455
I4087
sVForte.exe
p3456
I4208
sVHaruhi suzumiya
p3457
I4045
sVIria
p3458
I4332
sVUppercut
p3459
I2847
sVKyoshiro ex
p3460
I2341
sVD4 roll
p3461
I2849
sVImperfect cell
p3462
I2850
sVLf2 - henry
p3463
I2851
sVHwoarang
p3464
I2852
sVKen CVS
p3465
I2853
sVRip Saber
p3466
I2854
sVHourai-car EX2
p3467
I2855
sVChina kohaku
p3468
I3955
sVNanoha tsukikage
p3469
I2856
sVCyberdemon
p3470
I4471
sVGenma saotome
p3471
I2857
sVGertrud
p3472
I2858
sVAnastasia
p3473
I2860
sVSaya(p_ai)
p3474
I4231
sVBrimstone
p3475
I2861
sVTalonarten
p3476
I2862
sVExtramyon
p3477
I4114
sVTiger mm
p3478
I4688
sVOrochi akuma
p3479
I2864
sVMultiple man
p3480
I2865
sVNoroko EX3
p3481
I2866
sVKenoh
p3482
I3944
sVMamizou EX
p3483
I4559
sVNash
p3484
I3026
sVAyu tsukimiya
p3485
I2868
sVJet jaguar
p3486
I2869
sVFreddie mercury
p3487
I2618
sVMtguile
p3488
I2870
sVIceman cota
p3489
I2871
sVAndy bogard rb
p3490
I2872
sVKoyomi mizuhara
p3491
I2873
sVLizardman
p3492
I4461
sVSho ryu
p3493
I2874
sVNoa
p3494
I4604
sVZangief sf4
p3495
I2875
sVGoddman batman
p3496
I3152
sVKyoushirou senryou
p3497
I1686
sVCyborg superman
p3498
I2877
sVRyousan gata patchouli
p3499
I2878
sVZangief sf2
p3500
I4440
sVAmaterasu
p3501
I2879
sVKinyo roadshow
p3502
I4592
sVAnd 18
p3503
I2881
sVDixie kong
p3504
I4292
sVTora shou
p3505
I2882
sVCius
p3506
I2883
sVLord zedd
p3507
I2884
sVSlash-beast
p3508
I2885
sVAlpha candy
p3509
I2886
sVClown
p3510
I2887
sVVictor ortega
p3511
I2888
sVMugetu
p3512
I2889
sVTiti
p3513
I4101
sVWarakia
p3514
I4427
sVNitori(emanon)
p3515
I2890
sVGrimace
p3516
I2891
sVDurian EX3
p3517
I2892
sVYumina
p3518
I2893
sVDi gi charat
p3519
I2894
sVLeona
p3520
I2447
sVBig bear 0D
p3521
I2895
sVLeonardo EX
p3522
I2896
sVCharlotte
p3523
I2897
sVBully in the launderette
p3524
I2898
sVKyo
p3525
I2899
sVBaruganodon_ex
p3526
I2900
sVWyler xi ver
p3527
I2901
sVNazrin
p3528
I2902
sVMegaman.exe EX
p3529
I4079
sVBebum ryo
p3530
I2903
sVThe thing
p3531
I4082
sVBalrog_a
p3532
I2904
sVKenshin uesugi
p3533
I2905
sVThe mask of ero
p3534
I4043
sVHaruka
p3535
I2907
sVTakumi hattori
p3536
I2908
sVAchamo
p3537
I2909
sVYoma komatsu
p3538
I1636
sVCammy EX3
p3539
I4091
sVAlucard SOTN
p3540
I2910
sVRenji
p3541
I2911
sVRyoko kano EX2
p3542
I2912
sVVergil2
p3543
I2913
sVAssasincross
p3544
I2914
sVRax coswell
p3545
I4400
sVKureha EX3
p3546
I2915
sVDiggle
p3547
I2261
sVSerika_os
p3548
I2917
sVBlue eyes white karin
p3549
I4463
sVJack-hamma
p3550
I2918
sVGoenitz
p3551
I4299
sV(sman) EX3
p3552
I2919
sVVan platin
p3553
I2920
sVMecha-gorilla
p3554
I2921
sVUltimat goku
p3555
I2922
sVDown
p3556
I2923
sVKurorim
p3557
I2924
sVOnslaught 2
p3558
I2925
sVGundamexia
p3559
I3133
sVLeo bradlay
p3560
I2927
sVJessica
p3561
I2928
sVJam(ac)
p3562
I2929
sVGoku transformer
p3563
I2930
sVHonda asuka
p3564
I2931
sVNests-rugal
p3565
I2932
sVZan-b
p3566
I2933
sVSuper-japanese
p3567
I2934
sVArrange_misuzu
p3568
I4238
sVRock EX
p3569
I2936
sVOrsted
p3570
I3044
sVGhost kick
p3571
I2937
sVOrochi vega
p3572
I2938
sVGulpfer
p3573
I3904
sVChunli 3so
p3574
I2739
sVKyo-1
p3575
I2940
sVMiopinja
p3576
I4641
sVLina
p3577
I2942
sVIzzy blue
p3578
I2943
sVAndroid 16
p3579
I2944
sVCyborg_t-8p
p3580
I2945
sVBousou oni-chiduru K
p3581
I2946
sVGiant jackson
p3582
I1358
sVAnother suwako
p3583
I2331
sVSkiboots
p3584
I4595
sVImr-765-s_kisaragi
p3585
I2948
sVChibi nazrin
p3586
I2949
sVThe grandmapocalypse
p3587
I2950
sVToyotomi hideyoshi
p3588
I2951
sVMars people
p3589
I2952
sVTrunks ssj4
p3590
I2953
sVFrank archer
p3591
I2954
sVOmega god ryu
p3592
I2955
sVYui
p3593
I2956
sVGeneral bush
p3594
I2957
sVUltra ssj5 vegeta
p3595
I2958
sVYun
p3596
I2959
sVYue
p3597
I2960
sVTerry ex02
p3598
I2961
sVMr. game & watch plus
p3599
I4640
sVAmakusa
p3600
I2962
sVJames jerkenson
p3601
I4517
sVYukari
p3602
I4373
sVWave man
p3603
I1683
sVSpin youmu
p3604
I2965
sVHeavy rob
p3605
I2966
sVDeath13 EX3
p3606
I2967
sVFlan ex
p3607
I2969
sVAthena fake
p3608
I2970
sVKinopio
p3609
I4437
sVDhaos
p3610
I2971
sVSakura EX3
p3611
I2972
sVSayuri kurata
p3612
I4491
sVWu-ling
p3613
I2973
sVIshtar
p3614
I1402
sVKefka palazzo
p3615
I2975
sVThunder mask
p3616
I2976
sVZero Hotaru
p3617
I2977
sVGotenks gt
p3618
I2978
sVAlvin the chipmunk
p3619
I2979
sVSuzushina yuriko
p3620
I2292
sVConker
p3621
I2981
sVKusanagi EX
p3622
I976
sVSuper-Mario
p3623
I604
sVBlue ranger
p3624
I4557
sVP-ciel
p3625
I2985
sVShadow dio
p3626
I4061
sVAkari
p3627
I2987
sVHihumi
p3628
I2989
sVYoko yuki
p3629
I2990
sVNorimaro EX3
p3630
I2991
sVReika EX3
p3631
I2992
sVNimuge president
p3632
I4224
sVHisui
p3633
I2993
sVT-h-m-a
p3634
I2994
sVArrange_mishio
p3635
I2995
sVTerryman
p3636
I2996
sVQbee c.v.
p3637
I2997
sV2nd death star
p3638
I2998
sVStrider hiryu
p3639
I2999
sVEve EX3
p3640
I4540
sVBoring sdk shiina yuya
p3641
I3999
sVBerserker EX
p3642
I3001
sVScorpion CVW
p3643
I4126
sVKotone
p3644
I3659
sVCoil
p3645
I3003
sVYuri_96
p3646
I4632
sVDeath ogre
p3647
I3004
sVDeathscythe
p3648
I3005
sVSieger
p3649
I4296
sVEdward newgate
p3650
I3007
sVHazama
p3651
I3008
sVTeam nicktoon
p3652
I4457
sVBurnin' leo
p3653
I3010
sVMami tomoe ai
p3654
I3011
sVShiki_kageya
p3655
I3370
sVWildcat
p3656
I3012
sVKohaku K
p3657
I2798
sVJurarus
p3658
I4130
sVDrunken master
p3659
I3014
sVSpelunker
p3660
I3015
sVKarnov ex
p3661
I3016
sVPocket Felicia
p3662
I3017
sVPyro
p3663
I3018
sVPandon fe
p3664
I3019
sVDonaiya
p3665
I4558
sVKyoso(n-cube ai)
p3666
I3020
sVHol horse EX
p3667
I3021
sVInjya
p3668
I3022
sVNakoruru ex EX3
p3669
I3023
sVR-unagi
p3670
I3024
sVNaruto uzumaki
p3671
I4298
sVGuy
p3672
I3429
sVZero Cloud
p3673
I3027
sVHaruka_amami
p3674
I3028
sVTerry bogard
p3675
I3753
sVWolfgang krauser EX
p3676
I3030
sVAlbion
p3677
I3031
sVTao jun EX
p3678
I2192
sVShingetter1
p3679
I3032
sVBlizzard
p3680
I3033
sVKaname madoka
p3681
I3034
sVMurakumo-abk EX2
p3682
I3035
sVMorgiana EX2
p3683
I3036
sVMakoto nanaya
p3684
I1341
sVIbuki suika nightmare
p3685
I3037
sVZenith
p3686
I3038
sVMinmin
p3687
I3039
sVChris_gb
p3688
I3040
sVAracne de tarantula
p3689
I4699
sVNeko
p3690
I4016
sVScorponok
p3691
I4379
sVBaki-hanma ex
p3692
I3041
sVPielle
p3693
I3208
sVPerfect cell
p3694
I3042
sVRockman
p3695
I3043
sVZlorf rerpf
p3696
I1903
sVYoung Heihachi
p3697
I3045
sVYuki fujiwara
p3698
I3046
sVCassius bright
p3699
I3047
sVChibi kuroko
p3700
I2496
sVMasaki anzu EX3
p3701
I3049
sVCirno brando
p3702
I3587
sVCondor
p3703
I4528
sVYoriko-mvc EX3
p3704
I3050
sVAlex mercer
p3705
I4328
sVAgony
p3706
I4042
sVKaori
p3707
I3051
sVDiokles
p3708
I1852
sVCliff-tsunade-godaime
p3709
I3053
sVCchouou
p3710
I3054
sVByakuya kuchiki
p3711
I1898
sVYako_katsuragi
p3712
I4515
sVUltimate armor x
p3713
I3056
sVSonozaki_shion
p3714
I3057
sVOnslaught 1st
p3715
I3731
sVGato ex
p3716
I4226
sVRosie
p3717
I3058
sV94_flan
p3718
I3059
sVRyoko(mugen)
p3719
I3060
sVMaat
p3720
I4199
sVTukuyo
p3721
I3061
sVMetaknight
p3722
I3062
sVKusanagi
p3723
I3063
sVBeast
p3724
I3064
sVBloody flandre
p3725
I3065
sVAsamiya saki x
p3726
I3066
sVJo jo
p3727
I3067
sVPlatinum the trinity
p3728
I3068
sVJedah
p3729
I3069
sVHouoh EX
p3730
I3070
sVAgrias BC
p3731
I4229
sVRbff master geese
p3732
I3072
sVYacopu
p3733
I3073
sVShinjuro
p3734
I3074
sVJigglypuff EX2
p3735
I3174
sVPorky minch
p3736
I3076
sVRuili EX3
p3737
I1842
sVPocket Ken
p3738
I3077
sVMokoi
p3739
I1758
sVBaby commando
p3740
I939
sVT.hawk sf2
p3741
I3204
sVShin scrub ken
p3742
I4066
sVPateta
p3743
I3192
sVMudman ngbc
p3744
I3081
sVQ
p3745
I3082
sVKendo&kyudo
p3746
I3083
sVKoryu
p3747
I3084
sVNatsu
p3748
I3239
sVSakazaki ryo
p3749
I3986
sV250% b.weapon
p3750
I2986
sVRigby
p3751
I3087
sVKazama sogetsu EX3
p3752
I3088
sVShrek
p3753
I3089
sVScarlet dragon
p3754
I3090
sVAner rolange
p3755
I3091
sVRock of spirit
p3756
I3092
sVSuperbot
p3757
I4289
sVThe fabled sagileocorn
p3758
I3093
sVReptile
p3759
I3094
sVFamily dog
p3760
I3095
sVMai S
p3761
I3295
sVPerfectakishimai 2
p3762
I2982
sVCrystal
p3763
I3909
sVKira daidoji
p3764
I3097
sVBoring kagekiyo
p3765
I2594
sVKid trunks
p3766
I3099
sVSuperboy
p3767
I3100
sVRain mk2
p3768
I4121
sVLion magnus
p3769
I3102
sVRoza
p3770
I3103
sVShikamaru
p3771
I4587
sVShadow lady
p3772
I3104
sVAhojingod
p3773
I3105
sVFaust(ac)
p3774
I3106
sVHisui aa
p3775
I3107
sVMichelangelo 0d
p3776
I4472
sVRegina
p3777
I4503
sVYadamon
p3778
I3109
sVAkiba
p3779
I3110
sVAleti
p3780
I3111
sVGonzales
p3781
I3112
sVChange dragon
p3782
I2801
sVManami kusunoki
p3783
I3114
sVAya
p3784
I3115
sVSagat SF4
p3785
I4057
sVHoppy
p3786
I3116
sVBlaziken
p3787
I449
sVJa-koh
p3788
I3118
sVKagetsura
p3789
I3119
sVPhysalis
p3790
I3120
sVMongori
p3791
I3956
sVGuillotine gen
p3792
I3121
sVFreeman_n
p3793
I3122
sV1
p3794
I3123
sVMaxime
p3795
I4365
sVBlossom DG
p3796
I4102
sVToguro 30%
p3797
I4233
sVJyuzumaru
p3798
I3126
sVBoss gustab m.
p3799
I3127
sVYuiran
p3800
I4195
sVAsagi asagiri
p3801
I3128
sVRick
p3802
I3129
sVPrometheus
p3803
I3130
sVKusanagi EX3
p3804
I4205
sVSquall
p3805
I3131
sVWaha- EX3
p3806
I3132
sVMaster shake
p3807
I2303
sVGori
p3808
I3071
sVBristol-d
p3809
I3134
sVTabunne
p3810
I3135
sVSchlussel
p3811
I3136
sVSkywarp
p3812
I3137
sVSon goku
p3813
I1857
sVGenma human by jhfer
p3814
I3563
sVDan 0d
p3815
I3140
sVCloud strife
p3816
I3141
sVHasshie
p3817
I3142
sVSatsuki shindou
p3818
I3143
sVLittle busters!
p3819
I3144
sVReiji
p3820
I77
sVKitanaitaru
p3821
I3146
sVUdonge_a
p3822
I4610
sVGliz
p3823
I3148
sVSissy
p3824
I4230
sVEharu_ai
p3825
I4512
sVAdam
p3826
I3150
sVParagus
p3827
I3151
sVMagneto_cota
p3828
I3113
sVGaia EX3
p3829
I3153
sVHeihachi CVS
p3830
I3154
sVHawkman
p3831
I3155
sVEnlightened sun wu kong
p3832
I3156
sVAnakaris
p3833
I3157
sVRobin
p3834
I3158
sVSilver horns
p3835
I3988
sVShredder
p3836
I3159
sVSai
p3837
I3160
sVVp frey
p3838
I3161
sVLyndis EX
p3839
I3162
sVKonata
p3840
I3163
sVRazorclaws
p3841
I3164
sVCf-len
p3842
I3165
sVKakashi hatake
p3843
I3166
sVRydia EX3
p3844
I3167
sVRb2_geese
p3845
I3168
sVTeh ryu
p3846
I3169
sVViper
p3847
I3170
sVKill bill jhonny_mo
p3848
I3171
sVDemoniho
p3849
I3172
sVWraith
p3850
I4393
sVChrome dome EX
p3851
I2327
sVEko
p3852
I3075
sVEsmeralda
p3853
I3175
sVAner rolange EX3
p3854
I3176
sVTerry rogers
p3855
I3177
sVKaede_hioh
p3856
I4052
sVEva-05
p3857
I3178
sVNamazu
p3858
I4363
sVCapsule monster
p3859
I3180
sVHanzo EX
p3860
I3181
sVSeiya
p3861
I491
sVWolverine
p3862
I3183
sVBilly 'big bang' blitz
p3863
I3184
sVOriginal vega
p3864
I3185
sVCheng
p3865
I3186
sVGonzales s-r
p3866
I3187
sVG-adelheid
p3867
I3188
sVBlue mary
p3868
I3189
sVGyaban
p3869
I4590
sVMystic son gohan
p3870
I3191
sVSaya IX
p3871
I961
sVNagato yuki EX
p3872
I3125
sVSmoke mk2
p3873
I3193
sVPocket Morrigan
p3874
I4320
sVSilver samurai
p3875
I3194
sVAoc
p3876
I3195
sVA-lee
p3877
I3196
sVKaname
p3878
I3197
sVKohaku EX2
p3879
I3198
sVHyoga de cisne
p3880
I3199
sVNinja nwa
p3881
I3200
sVRock EX2
p3882
I3201
sVRock EX3
p3883
I3202
sVZabogar
p3884
I3611
sVG-akiha
p3885
I3203
sVPrince of all saiyans
p3886
I2859
sVGarmraid
p3887
I3205
sVMagneto mvc2
p3888
I3206
sVAselia
p3889
I3207
sVKongou
p3890
I44
sVMac os-x siam
p3891
I3209
sVFordy
p3892
I3210
sVHelion z
p3893
I3211
sVAssiette
p3894
I3212
sVKenpachi
p3895
I3213
sVSs6 ren
p3896
I3214
sVHarima
p3897
I4132
sVFernandeath 2
p3898
I3215
sVRobert945
p3899
I3216
sVPacman
p3900
I3217
sVIce EX3
p3901
I3218
sVYukari_swr
p3902
I4314
sVPikopiko EX3
p3903
I3219
sVAty
p3904
I2326
sVFinal peketo
p3905
I3221
sVZeldia
p3906
I4184
sVSenator
p3907
I3222
sVNanoha takamachi
p3908
I3223
sVRagna bloodedge
p3909
I2626
sVEcco
p3910
I4209
sVMasked rider 555(emanon)
p3911
I3787
sVAlien metron
p3912
I3225
sVFinal zone boss s1
p3913
I3226
sVShin mr. karate
p3914
I4039
sVZabel ex
p3915
I3227
sVRenna
p3916
I3228
sVGreat gohan
p3917
I4251
sVGehorsam
p3918
I3230
sVCyborg EX
p3919
I3231
sVKonan
p3920
I3232
sVKenshi 1p
p3921
I3233
sVInternational karateka
p3922
I3234
sVSpace warrior
p3923
I3235
sVCommode serika
p3924
I3236
sVKanzaki yoh
p3925
I2395
sVAiant
p3926
I3469
sVYuki kushinada
p3927
I4716
sVSonia rotd
p3928
I2988
sVMasamichi oyama
p3929
I3240
sVJohnny bravo
p3930
I3241
sVVixen
p3931
I3242
sVThe Sailor Man
p3932
I2274
sVDark ash
p3933
I3887
sVIkadevil
p3934
I3245
sVMasaru_takahara
p3935
I3246
sVShitan uzuki
p3936
I3247
sVSonic EX2
p3937
I3248
sVSonic EX3
p3938
I3249
sVGaisei
p3939
I3250
sVFreya diamond
p3940
I3251
sVSailor mars EX2
p3941
I3252
sVBinjyobrothers
p3942
I3253
sVDynamo
p3943
I3254
sVPekomaru
p3944
I3255
sVNicola zaza
p3945
I4624
sVNu-13
p3946
I3257
sVMizore s.
p3947
I3258
sVGalvatron
p3948
I3259
sVSaori - athena
p3949
I3260
sVJiraiya
p3950
I3261
sVEin
p3951
I3262
sVKrizalid N
p3952
I3263
sVScrooge mcduck
p3953
I4453
sVGeese 98
p3954
I3264
sVRalf 2k2 EX
p3955
I3048
sVIkkaku
p3956
I650
sVMaori
p3957
I3266
sVFrankenroid
p3958
I316
sVEmily
p3959
I3268
sVSuper man
p3960
I4477
sVC3reimu
p3961
I4008
sVR.king
p3962
I3269
sVShana
p3963
I3270
sVKenshin
p3964
I4534
sVMajin vegeta
p3965
I1144
sVHikaru
p3966
I493
sVAssassin
p3967
I1890
sVTakuma
p3968
I3697
sVAi momoyama
p3969
I3962
sVHashi EX3
p3970
I3274
sVJhons lee
p3971
I4418
sVBad mr frosty
p3972
I3952
sVUchiha sasuke
p3973
I3276
sVNanaya_s
p3974
I3277
sVMusashi akatsuki
p3975
I2964
sVKusaregedo EX
p3976
I3279
sVPoring
p3977
I3280
sVSimon Belmondo
p3978
I4521
sVOrochi head
p3979
I3282
sVDhaos PS
p3980
I3283
sVNeodio
p3981
I3284
sVCiel EX
p3982
I3285
sVGhetto Warmachine 420
p3983
I3286
sVShadowman cfas
p3984
I4358
sVDead vega
p3985
I2010
sVChaos
p3986
I2401
sVLancer EX2
p3987
I4438
sVSharaku
p3988
I2553
sVChaos Blanka
p3989
I3289
sVReisen-e
p3990
I3290
sVGouki sf
p3991
I3291
sVOshima
p3992
I4538
sVKy
p3993
I3292
sVGiron
p3994
I447
sVNobunaga
p3995
I3294
sVUmvc_sentinel
p3996
I4715
sVUme
p3997
I3296
sVDark donald
p3998
I4581
sVArcueid_brunestud
p3999
I3298
sVZero maverick hunter
p4000
I2585
sVNero
p4001
I2080
sVVenom
p4002
I3300
sVObstinate_tank
p4003
I4333
sVTatsuki Arisawa
p4004
I3301
sVAnother cirno
p4005
I3302
sVMeep140 s-type
p4006
I4497
sVDragon EX3
p4007
I3303
sVZinc
p4008
I3304
sVRyo-sakazaki
p4009
I2408
sVPeter
p4010
I3306
sVYoshitora
p4011
I4563
sVRage rock ex
p4012
I3308
sVWonder momo
p4013
I3309
sVLynn baker
p4014
I3797
sVGaap
p4015
I556
sV1.0
p4016
I3312
sVUltraseven
p4017
I3313
sVGundam zeta
p4018
I3314
sVStarship-kirby
p4019
I4455
sVJin EX
p4020
I4258
sVSanada_yukimura
p4021
I4083
sVTriceratops
p4022
I3317
sVNega peach
p4023
I601
sVVanilla h
p4024
I2880
sVJin CVS
p4025
I3320
sVShion EX3
p4026
I3321
sVNagaoka shiho
p4027
I3322
sVCharging chuck
p4028
I3323
sVKirby c
p4029
I3324
sVSasuke uchiha
p4030
I3325
sVMichelangelo
p4031
I3326
sVOrsted_w
p4032
I3327
sVMelty_magic_tenko
p4033
I3328
sVThe end
p4034
I3329
sVTyoukesin EX3
p4035
I4160
sVMaster chief
p4036
I1560
sVLian
p4037
I3331
sVSpider-man
p4038
I3332
sVDarkseid IS
p4039
I3333
sVKarin EX3
p4040
I3334
sVGogeta super saiyan 3
p4041
I3969
sVThe king
p4042
I3335
sVChiyo-chichi
p4043
I3336
sVDuane
p4044
I3337
sVYoung joseph
p4045
I3338
sVD4 reimu
p4046
I3339
sVMizuki takase
p4047
I3340
sVOld robo-ky
p4048
I2603
sVCactuar
p4049
I2829
sVGotenks ssj EX
p4050
I3342
sVReminya
p4051
I3343
sVComrade athena
p4052
I4063
sVMiffy
p4053
I3344
sVMega vegeta
p4054
I4194
sVSuave dude EX
p4055
I4713
sVCaptainAmerica
p4056
I4089
sVHyper rare akuma
p4057
I3346
sVKing 13
p4058
I3347
sVGaragaranda
p4059
I3348
sVRouga(coh)
p4060
I3349
sVSparkster
p4061
I3350
sVPisaci
p4062
I436
sVSimon belmont
p4063
I3352
sVWing zero
p4064
I3353
sVDbloodbane
p4065
I3354
sVPrincess silver
p4066
I3355
sVMima EX
p4067
I3356
sVAvdol ver 2001/01/30 by camrat
p4068
I4149
sVLion sora
p4069
I4584
sVRin rin
p4070
I3357
sVPsychopath kyo
p4071
I3179
sVMarvel spider-man
p4072
I4625
sVMai tokiha ex
p4073
I3358
sVBlack magician girl
p4074
I3359
sVFirestorm
p4075
I3360
sVSaten_level5
p4076
I3361
sVShiki EX2
p4077
I3362
sVUltrassjgoku
p4078
I3363
sVShimakaze
p4079
I3364
sVToki
p4080
I4127
sVLee_chen
p4081
I3365
sVCielo
p4082
I1874
sVOozura bebi
p4083
I3366
sVRhadamantis
p4084
I3367
sVRin EX
p4085
I3085
sVMamiya
p4086
I4395
sVMishio
p4087
I3368
sVRiggs
p4088
I3369
sVJinbei
p4089
I4606
sVShanoa
p4090
I2844
sVAlder(seraph)
p4091
I3371
sVPop
p4092
I3372
sVKaiba seto
p4093
I3373
sVRebecca
p4094
I4253
sVKunagi-f.o
p4095
I3374
sVDonald
p4096
I3375
sVLafiras
p4097
I3376
sVMarvin the martian
p4098
I4402
sVKintaro
p4099
I3377
sVP. chunli
p4100
I3378
sVDq5-daughter
p4101
I3379
sVOmni-psych super dizzy lv 3
p4102
I3380
sVBishop
p4103
I3381
sVRaidou EX
p4104
I4020
sVMichael jackson
p4105
I3382
sVJubilee
p4106
I3383
sVJay Flash
p4107
I3384
sVShura
p4108
I3385
sVByakuya
p4109
I3386
sVYuka takeuchi
p4110
I3387
sVVegeta
p4111
I3388
sVSumo
p4112
I4147
sVSsj5 goku
p4113
I2701
sVErile
p4114
I4443
sVAlien queen
p4115
I3391
sVSion tatari
p4116
I3392
sVSmoo
p4117
I3393
sVChizuru kagura
p4118
I1164
sVDonkey kong
p4119
I3395
sVSetsuna hsr
p4120
I2390
sVShimo EX3
p4121
I3396
sVZz_gundam
p4122
I3397
sVWonder momo EX
p4123
I3398
sVAnother igniz
p4124
I3399
sVGeki
p4125
I3400
sVHu-ama EX3
p4126
I3401
sVKrillin EX3
p4127
I3402
sVWaluigi
p4128
I4704
sVKitana
p4129
I3403
sVAmingo MVC2
p4130
I3404
sVDonatello
p4131
I2426
sVVanessa
p4132
I3406
sVUltraman
p4133
I3407
sVChun-li
p4134
I4080
sVGenkai_shihan
p4135
I3408
sVKanako yasaka EX3
p4136
I1275
sVAkaitsuki
p4137
I3409
sVCaptainamerica EX3
p4138
I2379
sVJill
p4139
I3411
sVSvc genjyuro
p4140
I4546
sVKazuya mishima
p4141
I4397
sVStefanie
p4142
I3229
sVSerio
p4143
I3412
sVSaki tsuzura
p4144
I3413
sVOmega EX
p4145
I4643
sVSayuri bernstein
p4146
I3414
sVRimururu
p4147
I3416
sVCar navi
p4148
I3417
sVZaku
p4149
I3418
sVKuando
p4150
I3419
sVAtatatatatatata
p4151
I3824
sVAnge EX
p4152
I3420
sVGelato
p4153
I4567
sVDee bee kaw EX3
p4154
I3421
sVRyoko EX
p4155
I3422
sVMilitsa_patchouli
p4156
I3220
sVLuke EX
p4157
I3424
sVPorygon-z EX2
p4158
I3425
sVBowser
p4159
I3426
sVBullseye
p4160
I3427
sVCyber shredder 2.1
p4161
I3428
sVE-terry 71113
p4162
I4315
sVZou
p4163
I3430
sVGrand_diable
p4164
I3431
sVSuperman hero
p4165
I4724
sVPeach toadstool EX3
p4166
I4375
sVShazam
p4167
I3432
sVSinclair
p4168
I3433
sVNekomo
p4169
I3434
sVPingu
p4170
I3435
sVShimo EX
p4171
I355
sVMicky13
p4172
I3437
sVDual koa(v0.5.2)
p4173
I3438
sVSuparfcmeirin ver.1.15
p4174
I3439
sVAndroid 16 EX3
p4175
I3440
sVKaede+z_n
p4176
I3441
sVNanase EX
p4177
I4243
sVTrigger
p4178
I3117
sVRaiden EX
p4179
I3442
sVMarisa EX
p4180
I4134
sVMonk EX3
p4181
I3443
sVAyako
p4182
I4192
sVBlack moth
p4183
I633
sVHugo andore jr. ff2
p4184
I3446
sVFcmeirin EX2
p4185
I3447
sVThouther
p4186
I4139
sVDeathmask
p4187
I3173
sVSnorlax EX2
p4188
I3055
sVCc medusa
p4189
I3448
sVAsagi kun
p4190
I3449
sVCustom getsufuma
p4191
I3450
sVJuggernaut
p4192
I4458
sVLeona ex
p4193
I3451
sVGlacial_girl
p4194
I3452
sVLelouch EX
p4195
I3453
sVJoachim
p4196
I3454
sVJimmy lee
p4197
I3455
sVIzumi konata
p4198
I3456
sVDark athena 2nd
p4199
I3457
sVRuquia ex
p4200
I3459
sVRandy m. green
p4201
I3460
sVZebura
p4202
I3461
sVDeluxe burter
p4203
I3462
sVDoppo orochi EX3
p4204
I3463
sVCyborg kung fu man
p4205
I4288
sVMissmarvel
p4206
I3464
sVRaine
p4207
I3465
sVAthena EX3
p4208
I3466
sVVh_mami EX
p4209
I3467
sVMaplestory mage
p4210
I3468
sVGodzilla
p4211
I4329
sVHisui EX
p4212
I2939
sVReika murasame EX
p4213
I4623
sVDevil jin
p4214
I1902
sVJuli
p4215
I3470
sVSubaru
p4216
I2193
sVM-griffon
p4217
I3472
sVChansey
p4218
I3473
sVIronman EX
p4219
I3474
sVMillia
p4220
I3475
sVLloyd irving
p4221
I3476
sVOrtega ex
p4222
I3477
sVSteely dan
p4223
I3729
sVYoukanman
p4224
I3478
sVHaoumaru
p4225
I3479
sVVoltage zero
p4226
I4669
sVThe world of arien
p4227
I3825
sVVirginia
p4228
I2601
sVDemitri EX3
p4229
I3481
sVLion-o
p4230
I4213
sVLiu yungmie
p4231
I3482
sVMandoraf-f
p4232
I3483
sVTouka
p4233
I3484
sVSailor mercury EX
p4234
I3486
sVG rugal
p4235
I3006
sVJecht EX
p4236
I3488
sVNukesaku EX2
p4237
I3489
sVAtsuko tomohara
p4238
I3490
sVRyu Evil
p4239
I3491
sVHeart-armardi
p4240
I3492
sVCaster
p4241
I3931
sVAxl
p4242
I3493
sVRistar
p4243
I4570
sVSanae_x
p4244
I3224
sVRancid
p4245
I3494
sVSs3youmu
p4246
I3495
sVKim sueil
p4247
I3496
sVHoujuu nue
p4248
I4216
sVS-tomy
p4249
I3497
sVPocket Tessa
p4250
I4654
sVFujibayashi suzu
p4251
I3499
sVTrouble man
p4252
I4303
sVMasked rider hibiki(emanon)
p4253
I3500
sVOmanyte
p4254
I4309
sVHugo sf3
p4255
I3502
sVShogun EX3
p4256
I3503
sVNico robin
p4257
I3504
sVGuile_a
p4258
I3505
sVAura 2nd revival
p4259
I4271
sVJean grey
p4260
I1184
sVIsao jinrai
p4261
I3507
sVAndy_xiii
p4262
I3508
sVBarbie
p4263
I4030
sVPuri*princess
p4264
I3511
sVGhiaccio
p4265
I201
sVK_reimu
p4266
I527
sVLili
p4267
I3513
sVBubsy bobcat
p4268
I3514
sVCless ndx
p4269
I3515
sVMoriya ex
p4270
I2446
sVRobo-mukai
p4271
I4125
sVKy and sol
p4272
I3516
sVDark magician girl
p4273
I4048
sVKhan EX3
p4274
I4222
sVL.c.kiso
p4275
I3518
sVGer
p4276
I4697
sVAsellus EX
p4277
I3519
sVBig volfogg
p4278
I3520
sVHeidern_ex
p4279
I3521
sVKrayce
p4280
I2778
sVMr satan
p4281
I3522
sVHinako 2k3
p4282
I3523
sVSpider girl
p4283
I3524
sVDogma
p4284
I4283
sVF91
p4285
I3525
sV7th heaven ciel
p4286
I3526
sVSsj three broli
p4287
I3527
sVKana-chan dhq EX3
p4288
I1752
sVHan baedal
p4289
I3529
sVHuman bo
p4290
I3530
sVGen
p4291
I3531
sVJotaro
p4292
I3532
sVGel
p4293
I3533
sVJuri pf
p4294
I3534
sVBootleg
p4295
I1789
sVSenna vp
p4296
I3536
sVI-no(ac)
p4297
I3537
sVTorozo
p4298
I3538
sVSannomiya_shiho
p4299
I3539
sVAn ordinary sonic the hedgehog
p4300
I3540
sVMario 119
p4301
I3541
sVRasetsumaru
p4302
I3542
sVYamame
p4303
I3543
sVStg-zero-
p4304
I3544
sVRaptorking-petshop
p4305
I3545
sVFootee
p4306
I3546
sVMurasa EX
p4307
I3754
sVAkuma SF4
p4308
I3965
sVGoku EX3
p4309
I4340
sVCci hinako
p4310
I1848
sVKam'lanaut
p4311
I3550
sVFuhashitei
p4312
I3985
sVSuika_ibuki
p4313
I3551
sVVega Mask
p4314
I3552
sVMorrigan EX
p4315
I3553
sVFire_fairy
p4316
I4103
sVAna
p4317
I4196
sVFusagiko
p4318
I3554
sVNouka
p4319
I3555
sVSsj vegeto
p4320
I3556
sVShotoborg mk. ii
p4321
I2786
sVS.sinclair
p4322
I3558
sVGelonimon
p4323
I3559
sVGiorno giovanna
p4324
I3560
sVGill hero
p4325
I3561
sVTenkochan EX
p4326
I3562
sVHyper omega chaos hiryu
p4327
I3139
sVLf2 - julian
p4328
I3564
sVHaizilyo
p4329
I1906
sVSatori EX
p4330
I3566
sVElirin
p4331
I3567
sVDoruge
p4332
I3568
sVAcirno_3.5
p4333
I3569
sVOoze-o
p4334
I3570
sVTia langray
p4335
I4526
sVJubei
p4336
I3571
sVRudra-suija
p4337
I4406
sVShanghai
p4338
I3572
sVRobo rock type-2
p4339
I3573
sVMaster krauser
p4340
I3574
sVUltimate cap
p4341
I4297
sVGoku z2 EX3
p4342
I3575
sVKirakira
p4343
I3576
sVLety
p4344
I1795
sVNeji Cosplay
p4345
I1194
sVAnti.guile.zangief
p4346
I2019
sVJin kisaragi
p4347
I3580
sVArthas
p4348
I4644
sVPokita
p4349
I3581
sVD-rugal
p4350
I3582
sVUtsuho_b
p4351
I3583
sVBrahms
p4352
I3584
sVXstranger
p4353
I3585
sVLobo
p4354
I3586
sVKang rotd
p4355
I4484
sVUmvc_hulk
p4356
I3588
sVSora com
p4357
I3589
sVShaolon
p4358
I3590
sVSakura Kasugano
p4359
I3591
sVAe86
p4360
I4304
sVNayuta
p4361
I3592
sVKanna_kouryu
p4362
I3843
sVMech rugal
p4363
I3593
sVGemini
p4364
I3594
sVCapt Commando
p4365
I3595
sVYoko asagiri
p4366
I3596
sVPiccolo sb
p4367
I3597
sVUnzan&ichirin
p4368
I3598
sVRachel alucard
p4369
I3599
sVCliff-zabuza-nzc
p4370
I3600
sVNaitou ex
p4371
I3601
sVNecochaosblackg666mk2
p4372
I3602
sVMary 2k2
p4373
I4408
sVSailor mercury
p4374
I3603
sVFlygon
p4375
I3604
sVTenshi baiken
p4376
I3605
sVHugo andore jr.
p4377
I3606
sVFungi
p4378
I3607
sVThe creepy clock
p4379
I1769
sVShin EX
p4380
I3608
sVNina EX
p4381
I4293
sVMurakumo-abk
p4382
I3610
sVKim kap hwan
p4383
I220
sVDooby dummy
p4384
I3612
sVGeki de oso
p4385
I3613
sVSub-zero EX
p4386
I3147
sVNightmare-gamera_ex
p4387
I3614
sVShiratama20
p4388
I3615
sVGohan ssj4
p4389
I4671
sVHibiki
p4390
I3616
sVDee jay
p4391
I3617
sVExocist(dnf)
p4392
I4545
sVBoggy b
p4393
I3619
sVHoly strider
p4394
I3620
sVRyoga hibiki
p4395
I3621
sVZankuro
p4396
I3622
sVMichael_roa_valdamjong
p4397
I3623
sVSachiel
p4398
I3624
sVDesperado+
p4399
I3625
sVWeiss dhq
p4400
I2287
sVVenom scorpion
p4401
I3627
sVAvalanche
p4402
I3628
sVAvdol
p4403
I3905
sVKobuta
p4404
I3629
sVMaxim kischine
p4405
I3630
sVStern
p4406
I3631
sVRed arremer
p4407
I3632
sVZangoose
p4408
I3149
sVSlash EX
p4409
I3634
sVAoi_amatu
p4410
I3635
sVNagae iku
p4411
I1133
sVAnnie hamilton
p4412
I3636
sVGigant
p4413
I3637
sVKazama sogetsu
p4414
I3638
sVGohan ssj5
p4415
I3639
sVOrochi yuyuko
p4416
I3640
sVSuper skrull
p4417
I3641
sVMarcia
p4418
I3642
sVAndy_ff3rb
p4419
I3643
sVYtp robotnik
p4420
I4617
sVGuerrilla
p4421
I3644
sVSquall EX2
p4422
I3645
sVSon goku EX3
p4423
I3646
sVZao-long
p4424
I3647
sVSs6 renfa
p4425
I4541
sVSatsuki
p4426
I3648
sVBad megaman
p4427
I3649
sVDr.gero EX3
p4428
I3650
sVLucky 71113
p4429
I3651
sVWangchang EX
p4430
I3652
sVLf2 - firzen
p4431
I3653
sVNucrear cirno EX
p4432
I4300
sVReptile EX3
p4433
I3654
sVReptile EX2
p4434
I3655
sVKaori&shiori EX
p4435
I2490
sVNameless 02
p4436
I4110
sVChibiko
p4437
I3657
sVMega weapon
p4438
I3658
sVLipsyncher
p4439
I4658
sVMina EX2
p4440
I3660
sVTitan the great
p4441
I1205
sVM.bison sf2ww
p4442
I3662
sVMario
p4443
I3850
sVBaiken(ac)
p4444
I3663
sVRyoko(fhd)
p4445
I3664
sVIshida uryu
p4446
I1817
sVBroken
p4447
I4137
sVChuu
p4448
I1807
sVFilz-rout
p4449
I3510
sVDiablo
p4450
I4642
sVTerry 02
p4451
I3666
sVBikeman
p4452
I3667
sVKraft
p4453
I3668
sVMash figaro
p4454
I3669
sVGet in the robot you idiot
p4455
I3670
sVQ-bee ex
p4456
I3853
sVAngry video game nerd
p4457
I3671
sVMisty
p4458
I3672
sVNess EX3
p4459
I3389
sVGoku ssj 3
p4460
I4573
sVIngrid
p4461
I3086
sVZoffy
p4462
I3674
sVHyper commando team
p4463
I3675
sVDeath adder
p4464
I3676
sVDet. garret laurel
p4465
I4262
sVShampoo
p4466
I3677
sVSanosuke
p4467
I4510
sVSnow
p4468
I3679
sVWild.o.yashiro
p4469
I3680
sVGaia EX2
p4470
I3681
sVAbyss EX
p4471
I3682
sVK' EX3
p4472
I3683
sVAsuras
p4473
I3684
sVWolvie
p4474
I3685
sVSupreme gogeta
p4475
I4115
sVBlack demonica
p4476
I3686
sVLuise EX2
p4477
I3687
sVElement kofm
p4478
I3688
sVMageko EX
p4479
I3689
sVBirdie EX3
p4480
I3690
sVChaka
p4481
I3994
sVNanmushi
p4482
I3901
sVDawn
p4483
I3692
sVBokosuka wars
p4484
I3693
sVWashizuka xi
p4485
I3694
sVC.commando
p4486
I3695
sVSailor jupiter k
p4487
I3696
sVShen xi
p4488
I4416
sVMaggyo IX
p4489
I3698
sVSaizo_hattori
p4490
I3528
sVHachune miku
p4491
I3699
sVSimple
p4492
I3700
sVNoel vermillion
p4493
I3701
sVEtomo shuko
p4494
I3702
sVKamille
p4495
I3703
sVZaku EX3
p4496
I3704
sVKokesz
p4497
I3705
sVDink smallwood
p4498
I2719
sVWarewarenocolibri
p4499
I3706
sVBlack tiger
p4500
I3707
sVEternal little girl
p4501
I4652
sVOshawott
p4502
I3708
sVGikoneko
p4503
I3961
sVGiratina
p4504
I3709
sVKathryne_keyron
p4505
I4174
sVPerfect cell EX3
p4506
I3710
sVDarkman
p4507
I3711
sVAoba
p4508
I4154
sVSeyren_windsor
p4509
I4070
sVChintao
p4510
I3712
sVUltra super3 goku
p4511
I2286
sVForte
p4512
I3713
sVNf-kyo
p4513
I3714
sVKana orikura
p4514
I4212
sVBarts
p4515
I3715
sVKisume EX
p4516
I3716
sVWong fei hung
p4517
I4241
sVAbyss form 1
p4518
I3718
sVTengu man
p4519
I3719
sVWooden_doll
p4520
I3720
sVExistence-less
p4521
I3721
sVDoppo orochi
p4522
I4447
sVHinata wakaba
p4523
I3722
sVMukai EX3
p4524
I3723
sVKazama kazuki
p4525
I2454
sVUnlucky glauber
p4526
I3724
sVShin meep140
p4527
I3725
sVMr.karate EX2
p4528
I4723
sVDinozord EX
p4529
I3727
sVMiko
p4530
I2846
sVAgumon
p4531
I2983
sVEvil ryu ssf'2 plus EX3
p4532
I3145
sVCelsius
p4533
I4407
sVSavage hulk
p4534
I4569
sVMora_g
p4535
I1554
sVHauzer
p4536
I3732
sVHeaddy
p4537
I3733
sVSuper gotenks
p4538
I3734
sVMeirin EX
p4539
I3735
sVShinji_san
p4540
I3736
sVYakui-san
p4541
I3737
sVWaki-miko
p4542
I3738
sVAmon EX2
p4543
I3739
sVHoly akuma
p4544
I4441
sVSkaxl roa
p4545
I3740
sVSasuke storm
p4546
I3741
sVKiruo_v1.18
p4547
I3742
sVAika toarcreat
p4548
I3743
sVCco
p4549
I3744
sVOozaru
p4550
I3745
sVLiu kang
p4551
I3981
sVRyu XIII
p4552
I3746
sVErza scarlet
p4553
I3747
sVDrill asamin
p4554
I3748
sVApe man
p4555
I3749
sVNaomi EX2
p4556
I3750
sVSaint-of-silver
p4557
I3752
sVMuaythaiman
p4558
I4448
sVJohnny
p4559
I3501
sVPulse-k
p4560
I4403
sVWhite buffalo EX3
p4561
I4433
sVGod ken
p4562
I4256
sVRoll MVC
p4563
I4023
sVGeese mk ii
p4564
I884
sVVorgasm
p4565
I3052
sVPocket joker
p4566
I3756
sVKeion chan
p4567
I3757
sVTalon
p4568
I3758
sVCless-f
p4569
I3759
sVGreen lantern js
p4570
I4560
sVSayo chan
p4571
I3761
sVZatanna EX3
p4572
I3762
sVHu-ama
p4573
I3763
sVStinko man - 20x6
p4574
I3764
sVHeitasupermode
p4575
I3765
sVVergil EX3
p4576
I3766
sVInvader remi
p4577
I3767
sVEric cartman
p4578
I3768
sVGregorius:nmky
p4579
I3769
sVCarnage MMV
p4580
I3770
sVKoishi_b
p4581
I4002
sVSakuya_izayoi
p4582
I738
sVJuan
p4583
I3771
sVA-utsuho
p4584
I1220
sVOmega red
p4585
I4017
sVSwordman (waifu)
p4586
I3773
sVHellboy
p4587
I3774
sVSandman
p4588
I3775
sVMakendo
p4589
I3776
sVRyo(mkii)
p4590
I4062
sVKamen rider kaixa
p4591
I3777
sVMukuro EX G
p4592
I1230
sVAkatuki zetu
p4593
I3779
sVSailor moon k
p4594
I3780
sVKubikiri basara KOF
p4595
I4520
sVKagami
p4596
I3782
sVFrostman
p4597
I3783
sVTrainheartnet
p4598
I3784
sVKanorin
p4599
I3785
sVAlexa
p4600
I3786
sVSanosuke EX3
p4601
I2134
sVPrinny
p4602
I3788
sVEtomo shuko EX3
p4603
I4031
sVGallon EX2
p4604
I4302
sVGhetto warmachine
p4605
I3789
sVAmy
p4606
I4186
sVDark phoenix
p4607
I3790
sVSeth SF4
p4608
I3791
sVEvil Ryu SF4
p4609
I571
sVH_yujiro
p4610
I3793
sVYouki-so-suika
p4611
I3794
sVCook kawasaki
p4612
I3795
sVThe world-dio
p4613
I3796
sVRemilia
p4614
I2119
sVRob lucci
p4615
I3798
sVKenji
p4616
I3799
sVEva-01
p4617
I3800
sVEuphoria the everlasting
p4618
I3345
sVEl stinger
p4619
I3802
sVS.p.o. ryu
p4620
I2968
sVGreen arrow
p4621
I3804
sVRario
p4622
I4232
sVEva-00
p4623
I3805
sVAdel-haaaaai
p4624
I3806
sVLeviathan
p4625
I3807
sVWonder Woman Reloaded
p4626
I3808
sVKaname madoka EX
p4627
I3809
sVRockula
p4628
I2848
sVSailor venus
p4629
I3810
sVNucrear cirno
p4630
I3923
sVRavange
p4631
I3811
sVYagumo_ex
p4632
I3812
sVJenny
p4633
I3813
sVKungfugirl uzuki
p4634
I3814
sVSakura 98
p4635
I3815
sVPoison qyc
p4636
I3816
sVBuggy
p4637
I3817
sVRamda EX3
p4638
I4250
sVAnother blood q
p4639
I3818
sVLuke skywalker
p4640
I3819
sVKirin
p4641
I3820
sVNeji
p4642
I3275
sVCaptain_heart
p4643
I3821
sVIkemen
p4644
I3822
sVShaq fu EX3
p4645
I3823
sVRevlius
p4646
I3778
sVRugal EX3
p4647
I3265
sVSanada kojiroh s-style
p4648
I3485
sVRajaamaki
p4649
I3827
sVGhost nappa EX
p4650
I3828
sVOtane oume
p4651
I4227
sVAtari dragon
p4652
I3990
sVRyo
p4653
I3829
sVKrillin UB22
p4654
I3830
sVVertigo
p4655
I3929
sVEleking
p4656
I4188
sVBang EX2
p4657
I3831
sVElque
p4658
I3832
sVCable
p4659
I3833
sVLf2 - john
p4660
I3834
sVShinji_san EX
p4661
I3835
sVJulian solo poseidon
p4662
I4047
sVMiyabi
p4663
I3836
sVShaky jake
p4664
I4596
sVHeavyarms
p4665
I3837
sVCc iron ryuji
p4666
I4598
sVNick commando EX FF
p4667
I3838
sVUltron
p4668
I3839
sVBristol weller
p4669
I1641
sVAbsolute_white_len
p4670
I3841
sVRyu
p4671
I3842
sVSundown-kid
p4672
I3190
sVShingo & momoko
p4673
I2494
sVKenshi ex
p4674
I4235
sVGiant Ultraman
p4675
I586
sVReject no. 253
p4676
I3845
sVSub-zero mk2
p4677
I2947
sVAsh crimson
p4678
I3846
sVKoi reika
p4679
I2473
sVGanjou dan
p4680
I3848
sVShirakawa kotori
p4681
I2678
sVMarin
p4682
I3849
sVAlpaca
p4683
I3390
sVButt-head
p4684
I3851
sVMomo-kirby
p4685
I3852
sVEva-02 EX3
p4686
I4040
sVAlt(hana-ai)
p4687
I3855
sVAi EX2
p4688
I3977
sVPill
p4689
I1805
sVZangief cfj
p4690
I3856
sVMaria
p4691
I3857
sVKratos
p4692
I4599
sVWhite len k
p4693
I3858
sVSho nuff
p4694
I3859
sVDemitri maximoff
p4695
I3860
sVAce
p4696
I3861
sVNaruto kun
p4697
I3862
sVBlizzard EX3
p4698
I3013
sVCode-holder
p4699
I4506
sVKouma kishima
p4700
I582
sVBlue colonel
p4701
I3865
sVGades
p4702
I3866
sVTain-ren
p4703
I3867
sVKarin
p4704
I3868
sVHammerin' harry
p4705
I3869
sVTestament
p4706
I3870
sVJuda-(nericya)
p4707
I3871
sVKamui tenrou
p4708
I3609
sVTamara EX2
p4709
I2113
sVBoring vigilante EX3
p4710
I4353
sVFake okami
p4711
I4366
sVSakon
p4712
I2658
sVWell
p4713
I3803
sVArturo
p4714
I3872
sVErmac
p4715
I3873
sVRyoko
p4716
I3874
sVPrivate
p4717
I3875
sVAnother blood k
p4718
I3876
sVWarachia
p4719
I3877
sVOpera elmer
p4720
I3878
sVGatocyu
p4721
I3879
sVIk borodin
p4722
I4470
sVSue-zo
p4723
I3880
sVGoku ssj5
p4724
I3881
sVFulgore
p4725
I3882
sVSpera
p4726
I3883
sVAgeha
p4727
I3884
sVDaiyousei EX
p4728
I3885
sa(dp4729
I0
g2
sI1
g3
sI2
g4
sI3
g5
sI4
g6
sI5
g7
sI6
g8
sI7
g9
sI8
g10
sI9
g11
sI10
g12
sI11
g13
sI12
g14
sI13
g15
sI14
g17
sI15
g18
sI16
g19
sI17
g20
sI18
g21
sI19
g22
sI20
g23
sI21
g24
sI22
g25
sI23
g26
sI24
g27
sI25
g28
sI26
g29
sI27
g30
sI28
g691
sI29
g1375
sI30
g31
sI31
g32
sI32
g33
sI33
g35
sI34
g36
sI35
g37
sI36
g38
sI37
g39
sI38
g40
sI39
g41
sI40
g42
sI41
g43
sI42
g45
sI43
g46
sI44
g3890
sI45
g49
sI46
g50
sI47
g51
sI48
g52
sI49
g53
sI50
g54
sI51
g55
sI52
g58
sI53
g61
sI54
g62
sI55
g64
sI56
g65
sI57
g66
sI58
g67
sI59
g68
sI60
g69
sI61
g70
sI62
g71
sI63
g72
sI64
g73
sI65
g74
sI66
g75
sI67
g76
sI68
g77
sI69
g78
sI70
g79
sI71
g80
sI72
g81
sI73
g82
sI74
g736
sI75
g84
sI76
g86
sI77
g3820
sI78
g87
sI79
g90
sI80
g91
sI81
g94
sI82
g96
sI83
g97
sI84
g99
sI85
g100
sI86
g103
sI87
g104
sI88
g105
sI89
g106
sI90
g107
sI91
g109
sI92
g110
sI93
g111
sI94
g112
sI95
g113
sI96
g115
sI97
g116
sI98
g117
sI99
g119
sI100
g120
sI101
g121
sI102
g123
sI103
g124
sI104
g125
sI105
g126
sI106
g127
sI107
g128
sI108
g129
sI109
g130
sI110
g131
sI111
g132
sI112
g133
sI113
g135
sI114
g136
sI115
g137
sI116
g138
sI117
g140
sI118
g3344
sI119
g141
sI120
g142
sI121
g143
sI122
g144
sI123
g145
sI124
g146
sI125
g148
sI126
g149
sI127
g150
sI128
g151
sI129
g152
sI130
g153
sI131
g154
sI132
g155
sI133
g157
sI134
g159
sI135
g160
sI136
g161
sI137
g162
sI138
g163
sI139
g165
sI140
g166
sI141
g167
sI142
g168
sI143
g477
sI144
g170
sI145
g172
sI146
g173
sI147
g174
sI148
g177
sI149
g178
sI150
g179
sI151
g180
sI152
g181
sI153
g182
sI154
g183
sI155
g184
sI156
g185
sI157
g186
sI158
g187
sI159
g188
sI160
g189
sI161
g190
sI162
g191
sI163
g194
sI164
g195
sI165
g196
sI166
g197
sI167
g198
sI168
g199
sI169
g200
sI170
g202
sI171
g203
sI172
g204
sI173
g205
sI174
g206
sI175
g207
sI176
g208
sI177
g209
sI178
g210
sI179
g211
sI180
g212
sI181
g213
sI182
g214
sI183
g215
sI184
g216
sI185
g217
sI186
g218
sI187
g219
sI188
g220
sI189
g221
sI190
g222
sI191
g223
sI192
g224
sI193
g225
sI194
g226
sI195
g228
sI196
g229
sI197
g231
sI198
g232
sI199
g233
sI200
g234
sI201
g4265
sI202
g236
sI203
g237
sI204
g238
sI205
g239
sI206
g240
sI207
g241
sI208
g243
sI209
g244
sI210
g247
sI211
g248
sI212
g250
sI213
g251
sI214
g252
sI215
g253
sI216
g254
sI217
g255
sI218
g257
sI219
g258
sI220
g4383
sI221
g260
sI222
g261
sI223
g262
sI224
g263
sI225
g265
sI226
g266
sI227
g267
sI228
g268
sI229
g269
sI230
g270
sI231
g272
sI232
g273
sI233
g274
sI234
g275
sI235
g276
sI236
g278
sI237
g279
sI238
g280
sI239
g281
sI240
g282
sI241
g284
sI242
g285
sI243
g286
sI244
g287
sI245
g288
sI246
g290
sI247
g291
sI248
g294
sI249
g295
sI250
g296
sI251
g297
sI252
g299
sI253
g300
sI254
g301
sI255
g302
sI256
g1537
sI257
g304
sI258
g305
sI259
g306
sI260
g307
sI261
g308
sI262
g309
sI263
g310
sI264
g314
sI265
g2302
sI266
g317
sI267
g318
sI268
g320
sI269
g321
sI270
g322
sI271
g324
sI272
g326
sI273
g327
sI274
g328
sI275
g329
sI276
g331
sI277
g334
sI278
g336
sI279
g337
sI280
g338
sI281
g339
sI282
g340
sI283
g341
sI284
g342
sI285
g343
sI286
g344
sI287
g345
sI288
g347
sI289
g348
sI290
g349
sI291
g350
sI292
g351
sI293
g1605
sI294
g352
sI295
g353
sI296
g355
sI297
g357
sI298
g358
sI299
g359
sI300
g360
sI301
g361
sI302
g362
sI303
g363
sI304
g364
sI305
g365
sI306
g366
sI307
g367
sI308
g368
sI309
g369
sI310
g370
sI311
g371
sI312
g372
sI313
g373
sI314
g374
sI315
g375
sI316
g3958
sI317
g378
sI318
g379
sI319
g380
sI320
g382
sI321
g2169
sI322
g1154
sI323
g384
sI324
g386
sI325
g387
sI326
g390
sI327
g393
sI328
g394
sI329
g395
sI330
g396
sI331
g397
sI332
g398
sI333
g399
sI334
g400
sI335
g401
sI336
g402
sI337
g403
sI338
g404
sI339
g405
sI340
g406
sI341
g408
sI342
g409
sI343
g410
sI344
g411
sI345
g412
sI346
g413
sI347
g414
sI348
g415
sI349
g416
sI350
g417
sI351
g420
sI352
g421
sI353
g422
sI354
g424
sI355
g4171
sI356
g427
sI357
g428
sI358
g552
sI359
g433
sI360
g434
sI361
g435
sI362
g436
sI363
g440
sI364
g441
sI365
g442
sI366
g443
sI367
g444
sI368
g445
sI369
g447
sI370
g448
sI371
g449
sI372
g450
sI373
g451
sI374
g452
sI375
g453
sI376
g454
sI377
g455
sI378
g456
sI379
g457
sI380
g459
sI381
g460
sI382
g461
sI383
g463
sI384
g464
sI385
g466
sI386
g467
sI387
g468
sI388
g469
sI389
g470
sI390
g472
sI391
g473
sI392
g474
sI393
g475
sI394
g476
sI395
g478
sI396
g479
sI397
g481
sI398
g482
sI399
g484
sI400
g486
sI401
g487
sI402
g489
sI403
g490
sI404
g491
sI405
g2229
sI406
g493
sI407
g494
sI408
g495
sI409
g497
sI410
g498
sI411
g499
sI412
g3244
sI413
g503
sI414
g504
sI415
g505
sI416
g508
sI417
g510
sI418
g511
sI419
g512
sI420
g3128
sI421
g3380
sI422
g515
sI423
g516
sI424
g517
sI425
g519
sI426
g520
sI427
g521
sI428
g522
sI429
g523
sI430
g524
sI431
g525
sI432
g1578
sI433
g528
sI434
g529
sI435
g1074
sI436
g4062
sI437
g531
sI438
g532
sI439
g535
sI440
g536
sI441
g537
sI442
g606
sI443
g3150
sI444
g540
sI445
g542
sI446
g544
sI447
g3994
sI448
g547
sI449
g3787
sI450
g549
sI451
g550
sI452
g430
sI453
g554
sI454
g555
sI455
g556
sI456
g560
sI457
g561
sI458
g562
sI459
g564
sI460
g565
sI461
g567
sI462
g568
sI463
g569
sI464
g570
sI465
g571
sI466
g572
sI467
g573
sI468
g575
sI469
g576
sI470
g2018
sI471
g577
sI472
g578
sI473
g580
sI474
g581
sI475
g583
sI476
g584
sI477
g586
sI478
g587
sI479
g589
sI480
g590
sI481
g591
sI482
g592
sI483
g593
sI484
g594
sI485
g595
sI486
g596
sI487
g599
sI488
g600
sI489
g601
sI490
g602
sI491
g3861
sI492
g605
sI493
g3966
sI494
g607
sI495
g611
sI496
g612
sI497
g614
sI498
g615
sI499
g616
sI500
g617
sI501
g618
sI502
g643
sI503
g622
sI504
g623
sI505
g624
sI506
g625
sI507
g626
sI508
g1130
sI509
g2885
sI510
g629
sI511
g630
sI512
g631
sI513
g632
sI514
g633
sI515
g634
sI516
g635
sI517
g636
sI518
g637
sI519
g638
sI520
g639
sI521
g641
sI522
g642
sI523
g462
sI524
g644
sI525
g769
sI526
g645
sI527
g4266
sI528
g647
sI529
g648
sI530
g649
sI531
g650
sI532
g651
sI533
g653
sI534
g654
sI535
g655
sI536
g656
sI537
g657
sI538
g658
sI539
g659
sI540
g660
sI541
g661
sI542
g662
sI543
g664
sI544
g666
sI545
g667
sI546
g668
sI547
g670
sI548
g671
sI549
g672
sI550
g673
sI551
g674
sI552
g675
sI553
g676
sI554
g677
sI555
g678
sI556
g4015
sI557
g680
sI558
g681
sI559
g682
sI560
g683
sI561
g684
sI562
g685
sI563
g686
sI564
g688
sI565
g689
sI566
g426
sI567
g692
sI568
g693
sI569
g695
sI570
g696
sI571
g4609
sI572
g698
sI573
g699
sI574
g700
sI575
g701
sI576
g702
sI577
g703
sI578
g704
sI579
g705
sI580
g707
sI581
g708
sI582
g4700
sI583
g710
sI584
g711
sI585
g712
sI586
g4675
sI587
g714
sI588
g715
sI589
g717
sI590
g722
sI591
g723
sI592
g724
sI593
g726
sI594
g727
sI595
g729
sI596
g730
sI597
g731
sI598
g732
sI599
g733
sI600
g734
sI601
g4023
sI602
g1367
sI603
g737
sI604
g3623
sI605
g739
sI606
g741
sI607
g743
sI608
g744
sI609
g745
sI610
g746
sI611
g747
sI612
g748
sI613
g749
sI614
g750
sI615
g751
sI616
g752
sI617
g753
sI618
g755
sI619
g756
sI620
g757
sI621
g758
sI622
g759
sI623
g760
sI624
g761
sI625
g763
sI626
g235
sI627
g765
sI628
g767
sI629
g768
sI630
g770
sI631
g771
sI632
g772
sI633
g4183
sI634
g774
sI635
g775
sI636
g777
sI637
g778
sI638
g779
sI639
g781
sI640
g782
sI641
g1644
sI642
g786
sI643
g788
sI644
g789
sI645
g790
sI646
g791
sI647
g792
sI648
g793
sI649
g794
sI650
g3956
sI651
g796
sI652
g797
sI653
g799
sI654
g800
sI655
g802
sI656
g803
sI657
g805
sI658
g806
sI659
g2383
sI660
g808
sI661
g809
sI662
g810
sI663
g811
sI664
g812
sI665
g813
sI666
g815
sI667
g816
sI668
g818
sI669
g819
sI670
g820
sI671
g821
sI672
g822
sI673
g823
sI674
g827
sI675
g828
sI676
g829
sI677
g830
sI678
g831
sI679
g833
sI680
g834
sI681
g1048
sI682
g836
sI683
g837
sI684
g838
sI685
g839
sI686
g1433
sI687
g840
sI688
g842
sI689
g843
sI690
g1564
sI691
g845
sI692
g846
sI693
g847
sI694
g848
sI695
g849
sI696
g850
sI697
g851
sI698
g852
sI699
g853
sI700
g2728
sI701
g855
sI702
g856
sI703
g857
sI704
g859
sI705
g860
sI706
g861
sI707
g862
sI708
g866
sI709
g868
sI710
g869
sI711
g870
sI712
g871
sI713
g872
sI714
g873
sI715
g874
sI716
g875
sI717
g876
sI718
g877
sI719
g878
sI720
g879
sI721
g880
sI722
g881
sI723
g882
sI724
g1790
sI725
g884
sI726
g885
sI727
g928
sI728
g887
sI729
g1983
sI730
g889
sI731
g890
sI732
g891
sI733
g892
sI734
g893
sI735
g894
sI736
g895
sI737
g896
sI738
g4582
sI739
g899
sI740
g900
sI741
g901
sI742
g902
sI743
g903
sI744
g3095
sI745
g904
sI746
g905
sI747
g906
sI748
g907
sI749
g908
sI750
g909
sI751
g910
sI752
g911
sI753
g912
sI754
g913
sI755
g914
sI756
g1102
sI757
g916
sI758
g918
sI759
g919
sI760
g920
sI761
g921
sI762
g922
sI763
g923
sI764
g924
sI765
g925
sI766
g926
sI767
g927
sI768
g2364
sI769
g929
sI770
g2131
sI771
g931
sI772
g932
sI773
g933
sI774
g935
sI775
g936
sI776
g937
sI777
g939
sI778
g940
sI779
g941
sI780
g943
sI781
g945
sI782
g946
sI783
g1277
sI784
g948
sI785
g949
sI786
g950
sI787
g951
sI788
g952
sI789
g953
sI790
g954
sI791
g956
sI792
g957
sI793
g958
sI794
g959
sI795
g960
sI796
g961
sI797
g962
sI798
g964
sI799
g967
sI800
g533
sI801
g970
sI802
g971
sI803
g972
sI804
g973
sI805
g975
sI806
g2409
sI807
g1069
sI808
g978
sI809
g979
sI810
g2284
sI811
g1502
sI812
g984
sI813
g985
sI814
g986
sI815
g987
sI816
g988
sI817
g991
sI818
g992
sI819
g2901
sI820
g994
sI821
g995
sI822
g1649
sI823
g997
sI824
g998
sI825
g999
sI826
g1000
sI827
g1001
sI828
g1003
sI829
g1004
sI830
g898
sI831
g1005
sI832
g1006
sI833
g1007
sI834
g1651
sI835
g1009
sI836
g1010
sI837
g1011
sI838
g1012
sI839
g1013
sI840
g1014
sI841
g1015
sI842
g1016
sI843
g1018
sI844
g1019
sI845
g1020
sI846
g2817
sI847
g1022
sI848
g1023
sI849
g1024
sI850
g1025
sI851
g1026
sI852
g1027
sI853
g1028
sI854
g1029
sI855
g1030
sI856
g1031
sI857
g1032
sI858
g1033
sI859
g1034
sI860
g1036
sI861
g1037
sI862
g1038
sI863
g1039
sI864
g1040
sI865
g1041
sI866
g1043
sI867
g1044
sI868
g2418
sI869
g1850
sI870
g1049
sI871
g1050
sI872
g1053
sI873
g1055
sI874
g1056
sI875
g1057
sI876
g1058
sI877
g1060
sI878
g1061
sI879
g1063
sI880
g1064
sI881
g1065
sI882
g1066
sI883
g1067
sI884
g4564
sI885
g1071
sI886
g1073
sI887
g1457
sI888
g1075
sI889
g1076
sI890
g1077
sI891
g1078
sI892
g1079
sI893
g1081
sI894
g1082
sI895
g1083
sI896
g1085
sI897
g1086
sI898
g1087
sI899
g1088
sI900
g1089
sI901
g1090
sI902
g1091
sI903
g1092
sI904
g1093
sI905
g1094
sI906
g1095
sI907
g1096
sI908
g169
sI909
g1098
sI910
g1099
sI911
g1100
sI912
g1101
sI913
g2185
sI914
g1103
sI915
g1104
sI916
g1105
sI917
g1106
sI918
g1107
sI919
g1108
sI920
g1110
sI921
g1135
sI922
g1113
sI923
g1114
sI924
g1115
sI925
g1116
sI926
g1117
sI927
g1120
sI928
g1121
sI929
g1123
sI930
g1124
sI931
g1125
sI932
g1126
sI933
g1127
sI934
g2323
sI935
g1129
sI936
g1131
sI937
g1132
sI938
g1133
sI939
g3740
sI940
g1136
sI941
g1137
sI942
g1139
sI943
g1141
sI944
g1142
sI945
g1143
sI946
g1669
sI947
g1145
sI948
g1146
sI949
g1148
sI950
g1150
sI951
g1151
sI952
g1152
sI953
g1153
sI954
g1155
sI955
g1156
sI956
g1159
sI957
g2523
sI958
g1162
sI959
g640
sI960
g1164
sI961
g3871
sI962
g1165
sI963
g1166
sI964
g1167
sI965
g1168
sI966
g1169
sI967
g1170
sI968
g1172
sI969
g1360
sI970
g1173
sI971
g1174
sI972
g1175
sI973
g1176
sI974
g1177
sI975
g1178
sI976
g3622
sI977
g2222
sI978
g1180
sI979
g1181
sI980
g1182
sI981
g1183
sI982
g1184
sI983
g1185
sI984
g1186
sI985
g1187
sI986
g1189
sI987
g1190
sI988
g1191
sI989
g1192
sI990
g1193
sI991
g1194
sI992
g1195
sI993
g1196
sI994
g1197
sI995
g1198
sI996
g1200
sI997
g1201
sI998
g1202
sI999
g1203
sI1000
g1204
sI1001
g1205
sI1002
g1206
sI1003
g1207
sI1004
g1208
sI1005
g1209
sI1006
g1210
sI1007
g1211
sI1008
g1212
sI1009
g1213
sI1010
g1214
sI1011
g1215
sI1012
g1216
sI1013
g1217
sI1014
g1218
sI1015
g1219
sI1016
g1220
sI1017
g1221
sI1018
g1222
sI1019
g1223
sI1020
g1225
sI1021
g1226
sI1022
g1227
sI1023
g1228
sI1024
g1229
sI1025
g1230
sI1026
g1232
sI1027
g2993
sI1028
g2168
sI1029
g1234
sI1030
g1235
sI1031
g1236
sI1032
g1237
sI1033
g1238
sI1034
g1239
sI1035
g1240
sI1036
g1241
sI1037
g1242
sI1038
g1243
sI1039
g1244
sI1040
g1245
sI1041
g1246
sI1042
g1247
sI1043
g1248
sI1044
g1251
sI1045
g1252
sI1046
g1253
sI1047
g1254
sI1048
g1255
sI1049
g1256
sI1050
g1258
sI1051
g1259
sI1052
g1260
sI1053
g3159
sI1054
g1262
sI1055
g1263
sI1056
g1264
sI1057
g1265
sI1058
g1266
sI1059
g2921
sI1060
g1269
sI1061
g1270
sI1062
g835
sI1063
g1273
sI1064
g1275
sI1065
g1276
sI1066
g947
sI1067
g1279
sI1068
g1281
sI1069
g1282
sI1070
g1283
sI1071
g1284
sI1072
g1285
sI1073
g1286
sI1074
g1287
sI1075
g1288
sI1076
g1289
sI1077
g1290
sI1078
g1291
sI1079
g1292
sI1080
g1293
sI1081
g1294
sI1082
g2436
sI1083
g1296
sI1084
g1297
sI1085
g1298
sI1086
g1300
sI1087
g1301
sI1088
g1302
sI1089
g1303
sI1090
g1304
sI1091
g1305
sI1092
g1306
sI1093
g1307
sI1094
g1308
sI1095
g1309
sI1096
g1310
sI1097
g1311
sI1098
g1312
sI1099
g1314
sI1100
g1316
sI1101
g1317
sI1102
g1318
sI1103
g1319
sI1104
g1320
sI1105
g1321
sI1106
g1322
sI1107
g1324
sI1108
g1327
sI1109
g1329
sI1110
g1330
sI1111
g1331
sI1112
g1332
sI1113
g1334
sI1114
g1335
sI1115
g1336
sI1116
g1338
sI1117
g2214
sI1118
g1340
sI1119
g1341
sI1120
g1342
sI1121
g1343
sI1122
g1346
sI1123
g1347
sI1124
g1349
sI1125
g1350
sI1126
g1351
sI1127
g1353
sI1128
g1355
sI1129
g1356
sI1130
g1357
sI1131
g1358
sI1132
g1359
sI1133
g4411
sI1134
g1361
sI1135
g1362
sI1136
g1363
sI1137
g1364
sI1138
g1366
sI1139
g1368
sI1140
g1370
sI1141
g1371
sI1142
g1372
sI1143
g1374
sI1144
g3965
sI1145
g1377
sI1146
g1378
sI1147
g1379
sI1148
g1381
sI1149
g1382
sI1150
g1714
sI1151
g1386
sI1152
g1387
sI1153
g1388
sI1154
g1389
sI1155
g1390
sI1156
g1391
sI1157
g1392
sI1158
g1393
sI1159
g1394
sI1160
g1395
sI1161
g1396
sI1162
g1398
sI1163
g1399
sI1164
g4118
sI1165
g1401
sI1166
g1402
sI1167
g1403
sI1168
g1404
sI1169
g1406
sI1170
g1407
sI1171
g1408
sI1172
g1409
sI1173
g1412
sI1174
g1413
sI1175
g1414
sI1176
g2477
sI1177
g1417
sI1178
g1419
sI1179
g1420
sI1180
g1421
sI1181
g1422
sI1182
g1423
sI1183
g1424
sI1184
g4260
sI1185
g1427
sI1186
g1428
sI1187
g1429
sI1188
g1430
sI1189
g89
sI1190
g1426
sI1191
g1435
sI1192
g1436
sI1193
g1437
sI1194
g4345
sI1195
g1440
sI1196
g1441
sI1197
g1442
sI1198
g1443
sI1199
g1444
sI1200
g1445
sI1201
g1447
sI1202
g1448
sI1203
g1450
sI1204
g1451
sI1205
g4441
sI1206
g1454
sI1207
g1456
sI1208
g354
sI1209
g1458
sI1210
g1459
sI1211
g1461
sI1212
g1462
sI1213
g1463
sI1214
g1464
sI1215
g1465
sI1216
g1466
sI1217
g1467
sI1218
g1047
sI1219
g1470
sI1220
g4584
sI1221
g1473
sI1222
g1474
sI1223
g1475
sI1224
g1476
sI1225
g1479
sI1226
g1480
sI1227
g1481
sI1228
g514
sI1229
g1482
sI1230
g4592
sI1231
g1483
sI1232
g980
sI1233
g1485
sI1234
g1486
sI1235
g1487
sI1236
g1488
sI1237
g1489
sI1238
g1490
sI1239
g1491
sI1240
g1492
sI1241
g1493
sI1242
g1494
sI1243
g1496
sI1244
g1497
sI1245
g1498
sI1246
g1499
sI1247
g1500
sI1248
g982
sI1249
g1503
sI1250
g3321
sI1251
g1505
sI1252
g1508
sI1253
g2781
sI1254
g1510
sI1255
g1511
sI1256
g1512
sI1257
g1513
sI1258
g1514
sI1259
g1515
sI1260
g1516
sI1261
g1517
sI1262
g1518
sI1263
g1521
sI1264
g1522
sI1265
g1523
sI1266
g1524
sI1267
g1526
sI1268
g1530
sI1269
g1531
sI1270
g1532
sI1271
g1533
sI1272
g1534
sI1273
g1535
sI1274
g1536
sI1275
g4136
sI1276
g1540
sI1277
g1542
sI1278
g2504
sI1279
g1549
sI1280
g381
sI1281
g1551
sI1282
g1552
sI1283
g1553
sI1284
g1554
sI1285
g1555
sI1286
g1558
sI1287
g1559
sI1288
g1560
sI1289
g1561
sI1290
g1562
sI1291
g1563
sI1292
g1566
sI1293
g1568
sI1294
g1570
sI1295
g1571
sI1296
g1575
sI1297
g1576
sI1298
g1577
sI1299
g527
sI1300
g1579
sI1301
g1580
sI1302
g1582
sI1303
g1583
sI1304
g1584
sI1305
g147
sI1306
g1586
sI1307
g1589
sI1308
g1590
sI1309
g1591
sI1310
g1592
sI1311
g1594
sI1312
g1595
sI1313
g2752
sI1314
g1596
sI1315
g1598
sI1316
g2062
sI1317
g1600
sI1318
g1602
sI1319
g1603
sI1320
g1604
sI1321
g713
sI1322
g1606
sI1323
g1607
sI1324
g1609
sI1325
g1611
sI1326
g1612
sI1327
g3334
sI1328
g1615
sI1329
g1616
sI1330
g1617
sI1331
g1618
sI1332
g1619
sI1333
g1620
sI1334
g1621
sI1335
g1622
sI1336
g1623
sI1337
g1624
sI1338
g1625
sI1339
g1626
sI1340
g1627
sI1341
g3684
sI1342
g1629
sI1343
g1630
sI1344
g1631
sI1345
g1632
sI1346
g1633
sI1347
g1635
sI1348
g1636
sI1349
g1637
sI1350
g1638
sI1351
g1639
sI1352
g1640
sI1353
g1642
sI1354
g1645
sI1355
g1647
sI1356
g996
sI1357
g1650
sI1358
g3582
sI1359
g1652
sI1360
g1653
sI1361
g1654
sI1362
g1655
sI1363
g1656
sI1364
g1657
sI1365
g1658
sI1366
g1659
sI1367
g1660
sI1368
g3083
sI1369
g1663
sI1370
g1665
sI1371
g1666
sI1372
g1667
sI1373
g1668
sI1374
g1144
sI1375
g1670
sI1376
g1671
sI1377
g1672
sI1378
g1673
sI1379
g1675
sI1380
g1676
sI1381
g1677
sI1382
g1679
sI1383
g3017
sI1384
g1021
sI1385
g1224
sI1386
g1683
sI1387
g1684
sI1388
g1687
sI1389
g1688
sI1390
g1689
sI1391
g1690
sI1392
g1271
sI1393
g1692
sI1394
g1693
sI1395
g1694
sI1396
g1695
sI1397
g1696
sI1398
g1697
sI1399
g1698
sI1400
g1699
sI1401
g1700
sI1402
g3614
sI1403
g1702
sI1404
g1703
sI1405
g1704
sI1406
g1705
sI1407
g1706
sI1408
g1708
sI1409
g1709
sI1410
g1710
sI1411
g1711
sI1412
g1712
sI1413
g1713
sI1414
g2390
sI1415
g1718
sI1416
g1719
sI1417
g1720
sI1418
g1721
sI1419
g1722
sI1420
g1460
sI1421
g85
sI1422
g1725
sI1423
g1726
sI1424
g2100
sI1425
g1727
sI1426
g1728
sI1427
g1729
sI1428
g1731
sI1429
g3374
sI1430
g1735
sI1431
g1736
sI1432
g1737
sI1433
g1738
sI1434
g1739
sI1435
g1742
sI1436
g1743
sI1437
g1744
sI1438
g1745
sI1439
g1747
sI1440
g1748
sI1441
g1749
sI1442
g1750
sI1443
g1752
sI1444
g1754
sI1445
g1755
sI1446
g1756
sI1447
g1757
sI1448
g1760
sI1449
g1761
sI1450
g1763
sI1451
g1764
sI1452
g1766
sI1453
g1767
sI1454
g1724
sI1455
g1769
sI1456
g1770
sI1457
g1771
sI1458
g1772
sI1459
g1773
sI1460
g1774
sI1461
g1775
sI1462
g1776
sI1463
g1777
sI1464
g1778
sI1465
g1779
sI1466
g1780
sI1467
g1781
sI1468
g1782
sI1469
g1785
sI1470
g1786
sI1471
g1788
sI1472
g1789
sI1473
g1791
sI1474
g1792
sI1475
g1793
sI1476
g1795
sI1477
g1796
sI1478
g1797
sI1479
g2205
sI1480
g1800
sI1481
g1801
sI1482
g1802
sI1483
g1804
sI1484
g1805
sI1485
g1806
sI1486
g1807
sI1487
g1809
sI1488
g1810
sI1489
g1811
sI1490
g1812
sI1491
g1813
sI1492
g1814
sI1493
g1815
sI1494
g1817
sI1495
g1818
sI1496
g1819
sI1497
g1820
sI1498
g1821
sI1499
g1822
sI1500
g1823
sI1501
g1824
sI1502
g1825
sI1503
g1826
sI1504
g1828
sI1505
g1829
sI1506
g1830
sI1507
g1734
sI1508
g1833
sI1509
g1834
sI1510
g1835
sI1511
g1837
sI1512
g1838
sI1513
g1840
sI1514
g1841
sI1515
g1843
sI1516
g1844
sI1517
g1846
sI1518
g1847
sI1519
g1848
sI1520
g1849
sI1521
g1851
sI1522
g1853
sI1523
g1854
sI1524
g1855
sI1525
g1856
sI1526
g1857
sI1527
g1858
sI1528
g1859
sI1529
g1860
sI1530
g1861
sI1531
g1862
sI1532
g1863
sI1533
g1864
sI1534
g1866
sI1535
g1867
sI1536
g1868
sI1537
g1870
sI1538
g1871
sI1539
g1872
sI1540
g2389
sI1541
g1874
sI1542
g1875
sI1543
g1876
sI1544
g1877
sI1545
g1879
sI1546
g1880
sI1547
g3400
sI1548
g1882
sI1549
g1883
sI1550
g1885
sI1551
g1886
sI1552
g1888
sI1553
g1889
sI1554
g4535
sI1555
g3403
sI1556
g1892
sI1557
g1893
sI1558
g1895
sI1559
g2538
sI1560
g4036
sI1561
g1898
sI1562
g1899
sI1563
g1900
sI1564
g1901
sI1565
g1903
sI1566
g1904
sI1567
g1905
sI1568
g1906
sI1569
g1907
sI1570
g1908
sI1571
g1910
sI1572
g1913
sI1573
g1915
sI1574
g1916
sI1575
g1917
sI1576
g2568
sI1577
g1918
sI1578
g1919
sI1579
g2691
sI1580
g1922
sI1581
g1923
sI1582
g1924
sI1583
g2720
sI1584
g1926
sI1585
g1928
sI1586
g1930
sI1587
g1933
sI1588
g1934
sI1589
g1935
sI1590
g1936
sI1591
g1937
sI1592
g1938
sI1593
g1939
sI1594
g1940
sI1595
g1941
sI1596
g1942
sI1597
g1943
sI1598
g1944
sI1599
g1945
sI1600
g1946
sI1601
g1947
sI1602
g1949
sI1603
g1950
sI1604
g1951
sI1605
g1952
sI1606
g1953
sI1607
g1954
sI1608
g1955
sI1609
g1956
sI1610
g2896
sI1611
g1958
sI1612
g1959
sI1613
g1960
sI1614
g1961
sI1615
g1962
sI1616
g1963
sI1617
g1966
sI1618
g1967
sI1619
g1968
sI1620
g1969
sI1621
g1970
sI1622
g1971
sI1623
g1972
sI1624
g1973
sI1625
g1974
sI1626
g1975
sI1627
g1976
sI1628
g1977
sI1629
g1978
sI1630
g1980
sI1631
g1981
sI1632
g1982
sI1633
g1984
sI1634
g1986
sI1635
g1987
sI1636
g3538
sI1637
g1989
sI1638
g1990
sI1639
g1991
sI1640
g1992
sI1641
g4669
sI1642
g1993
sI1643
g1994
sI1644
g1995
sI1645
g1996
sI1646
g2830
sI1647
g1998
sI1648
g1999
sI1649
g2000
sI1650
g2001
sI1651
g2002
sI1652
g2003
sI1653
g2004
sI1654
g2005
sI1655
g2006
sI1656
g2007
sI1657
g2008
sI1658
g2312
sI1659
g1816
sI1660
g2011
sI1661
g2012
sI1662
g2013
sI1663
g2014
sI1664
g2015
sI1665
g2016
sI1666
g2017
sI1667
g3367
sI1668
g2019
sI1669
g1507
sI1670
g2021
sI1671
g2022
sI1672
g2023
sI1673
g2024
sI1674
g2025
sI1675
g2026
sI1676
g2027
sI1677
g2028
sI1678
g2029
sI1679
g2030
sI1680
g2031
sI1681
g2032
sI1682
g2033
sI1683
g3603
sI1684
g2035
sI1685
g2038
sI1686
g3497
sI1687
g2041
sI1688
g2042
sI1689
g2043
sI1690
g2044
sI1691
g2045
sI1692
g2046
sI1693
g2049
sI1694
g2050
sI1695
g2051
sI1696
g2052
sI1697
g3433
sI1698
g2053
sI1699
g824
sI1700
g2056
sI1701
g2057
sI1702
g2058
sI1703
g2059
sI1704
g2060
sI1705
g2061
sI1706
g2064
sI1707
g2181
sI1708
g2066
sI1709
g2067
sI1710
g2068
sI1711
g2069
sI1712
g2070
sI1713
g2071
sI1714
g2072
sI1715
g2073
sI1716
g2074
sI1717
g2076
sI1718
g2077
sI1719
g2078
sI1720
g2080
sI1721
g2082
sI1722
g2083
sI1723
g2084
sI1724
g2085
sI1725
g2086
sI1726
g2089
sI1727
g2090
sI1728
g2092
sI1729
g2093
sI1730
g2095
sI1731
g2096
sI1732
g2099
sI1733
g419
sI1734
g2103
sI1735
g2104
sI1736
g2105
sI1737
g2106
sI1738
g2107
sI1739
g1326
sI1740
g2110
sI1741
g2111
sI1742
g2112
sI1743
g2113
sI1744
g2114
sI1745
g2116
sI1746
g2117
sI1747
g2118
sI1748
g2119
sI1749
g2120
sI1750
g2121
sI1751
g2122
sI1752
g4288
sI1753
g2123
sI1754
g2124
sI1755
g2445
sI1756
g2128
sI1757
g2129
sI1758
g3739
sI1759
g2134
sI1760
g2136
sI1761
g2137
sI1762
g2138
sI1763
g2139
sI1764
g2140
sI1765
g2142
sI1766
g2144
sI1767
g2145
sI1768
g2146
sI1769
g4379
sI1770
g2148
sI1771
g2149
sI1772
g2150
sI1773
g2151
sI1774
g2152
sI1775
g2153
sI1776
g2154
sI1777
g2155
sI1778
g2156
sI1779
g2157
sI1780
g2158
sI1781
g2159
sI1782
g2160
sI1783
g2161
sI1784
g2162
sI1785
g2163
sI1786
g245
sI1787
g2165
sI1788
g2167
sI1789
g4295
sI1790
g1519
sI1791
g2171
sI1792
g2172
sI1793
g2173
sI1794
g2176
sI1795
g4344
sI1796
g2178
sI1797
g2179
sI1798
g2180
sI1799
g2182
sI1800
g2183
sI1801
g2184
sI1802
g2186
sI1803
g3316
sI1804
g2517
sI1805
g4689
sI1806
g2192
sI1807
g4448
sI1808
g2194
sI1809
g2195
sI1810
g2196
sI1811
g2199
sI1812
g2200
sI1813
g2201
sI1814
g2202
sI1815
g2203
sI1816
g2204
sI1817
g4446
sI1818
g2207
sI1819
g2208
sI1820
g2209
sI1821
g2210
sI1822
g2211
sI1823
g2212
sI1824
g2213
sI1825
g2215
sI1826
g2216
sI1827
g2218
sI1828
g2219
sI1829
g2220
sI1830
g2223
sI1831
g2225
sI1832
g2226
sI1833
g2227
sI1834
g2228
sI1835
g2230
sI1836
g2231
sI1837
g2232
sI1838
g2233
sI1839
g2234
sI1840
g425
sI1841
g2237
sI1842
g3737
sI1843
g2240
sI1844
g2241
sI1845
g3089
sI1846
g2244
sI1847
g2245
sI1848
g4310
sI1849
g2246
sI1850
g2247
sI1851
g2248
sI1852
g3708
sI1853
g2250
sI1854
g2251
sI1855
g2253
sI1856
g2254
sI1857
g3813
sI1858
g2255
sI1859
g2256
sI1860
g2257
sI1861
g2258
sI1862
g2259
sI1863
g2260
sI1864
g2261
sI1865
g2262
sI1866
g2264
sI1867
g2341
sI1868
g2266
sI1869
g2267
sI1870
g2268
sI1871
g2269
sI1872
g2270
sI1873
g2271
sI1874
g4082
sI1875
g2273
sI1876
g2274
sI1877
g2275
sI1878
g2276
sI1879
g2277
sI1880
g2279
sI1881
g2280
sI1882
g2282
sI1883
g2283
sI1884
g2286
sI1885
g2288
sI1886
g2289
sI1887
g2290
sI1888
g2291
sI1889
g2292
sI1890
g3967
sI1891
g2294
sI1892
g2295
sI1893
g2297
sI1894
g2298
sI1895
g2299
sI1896
g2300
sI1897
g2301
sI1898
g3711
sI1899
g2303
sI1900
g2305
sI1901
g2306
sI1902
g4214
sI1903
g3696
sI1904
g2310
sI1905
g2311
sI1906
g4329
sI1907
g2314
sI1908
g2315
sI1909
g2316
sI1910
g2317
sI1911
g2318
sI1912
g2319
sI1913
g2320
sI1914
g2321
sI1915
g2322
sI1916
g2834
sI1917
g2324
sI1918
g2325
sI1919
g2326
sI1920
g2327
sI1921
g2328
sI1922
g2329
sI1923
g2330
sI1924
g2332
sI1925
g2333
sI1926
g2334
sI1927
g2335
sI1928
g2337
sI1929
g539
sI1930
g2339
sI1931
g2340
sI1932
g2342
sI1933
g2343
sI1934
g2345
sI1935
g2346
sI1936
g2347
sI1937
g2348
sI1938
g2351
sI1939
g2353
sI1940
g2354
sI1941
g2355
sI1942
g2356
sI1943
g2357
sI1944
g2358
sI1945
g2359
sI1946
g2360
sI1947
g2361
sI1948
g2362
sI1949
g2363
sI1950
g694
sI1951
g2365
sI1952
g2367
sI1953
g2368
sI1954
g2370
sI1955
g2371
sI1956
g2372
sI1957
g2373
sI1958
g762
sI1959
g2376
sI1960
g2377
sI1961
g2378
sI1962
g2379
sI1963
g2380
sI1964
g2381
sI1965
g2382
sI1966
g2384
sI1967
g2385
sI1968
g825
sI1969
g2387
sI1970
g2388
sI1971
g2857
sI1972
g2391
sI1973
g2392
sI1974
g2393
sI1975
g2394
sI1976
g2397
sI1977
g2398
sI1978
g2400
sI1979
g2401
sI1980
g2402
sI1981
g2403
sI1982
g2404
sI1983
g2405
sI1984
g2406
sI1985
g2407
sI1986
g2408
sI1987
g976
sI1988
g2410
sI1989
g2411
sI1990
g2412
sI1991
g2413
sI1992
g2414
sI1993
g2415
sI1994
g2416
sI1995
g2417
sI1996
g2566
sI1997
g2419
sI1998
g2420
sI1999
g2421
sI2000
g2422
sI2001
g2423
sI2002
g2424
sI2003
g2425
sI2004
g2426
sI2005
g2427
sI2006
g2428
sI2007
g2430
sI2008
g2431
sI2009
g2432
sI2010
g3985
sI2011
g2434
sI2012
g2435
sI2013
g2437
sI2014
g2520
sI2015
g2440
sI2016
g2441
sI2017
g1768
sI2018
g2443
sI2019
g4346
sI2020
g3019
sI2021
g2447
sI2022
g2448
sI2023
g2449
sI2024
g2450
sI2025
g2451
sI2026
g2452
sI2027
g2453
sI2028
g2454
sI2029
g2456
sI2030
g2457
sI2031
g2458
sI2032
g2459
sI2033
g2460
sI2034
g2461
sI2035
g2462
sI2036
g2463
sI2037
g2464
sI2038
g2465
sI2039
g2466
sI2040
g2467
sI2041
g2468
sI2042
g2469
sI2043
g2470
sI2044
g2471
sI2045
g2473
sI2046
g2474
sI2047
g2475
sI2048
g3273
sI2049
g2478
sI2050
g2479
sI2051
g2668
sI2052
g2481
sI2053
g2484
sI2054
g2485
sI2055
g2487
sI2056
g2488
sI2057
g2489
sI2058
g2490
sI2059
g2491
sI2060
g2495
sI2061
g2497
sI2062
g2498
sI2063
g2499
sI2064
g2500
sI2065
g2501
sI2066
g2502
sI2067
g2503
sI2068
g2692
sI2069
g2505
sI2070
g2509
sI2071
g2510
sI2072
g2511
sI2073
g2512
sI2074
g2513
sI2075
g1890
sI2076
g2515
sI2077
g2516
sI2078
g2518
sI2079
g2519
sI2080
g4001
sI2081
g1333
sI2082
g2526
sI2083
g2527
sI2084
g2529
sI2085
g2530
sI2086
g2531
sI2087
g2532
sI2088
g2533
sI2089
g2534
sI2090
g2535
sI2091
g2536
sI2092
g2537
sI2093
g1896
sI2094
g2539
sI2095
g2541
sI2096
g2543
sI2097
g2546
sI2098
g2547
sI2099
g256
sI2100
g2549
sI2101
g2562
sI2102
g2551
sI2103
g2552
sI2104
g2553
sI2105
g2554
sI2106
g2555
sI2107
g2556
sI2108
g2557
sI2109
g2558
sI2110
g2559
sI2111
g2560
sI2112
g2561
sI2113
g4709
sI2114
g2563
sI2115
g2564
sI2116
g2565
sI2117
g1912
sI2118
g2567
sI2119
g4614
sI2120
g2569
sI2121
g2570
sI2122
g2572
sI2123
g2574
sI2124
g2575
sI2125
g2576
sI2126
g2578
sI2127
g2579
sI2128
g2580
sI2129
g2581
sI2130
g2582
sI2131
g2583
sI2132
g2584
sI2133
g2585
sI2134
g4601
sI2135
g1315
sI2136
g2590
sI2137
g2591
sI2138
g2592
sI2139
g2593
sI2140
g2595
sI2141
g2596
sI2142
g2597
sI2143
g2598
sI2144
g2599
sI2145
g2600
sI2146
g2785
sI2147
g2601
sI2148
g2602
sI2149
g2603
sI2150
g2604
sI2151
g2607
sI2152
g2608
sI2153
g2609
sI2154
g2610
sI2155
g1601
sI2156
g2612
sI2157
g2614
sI2158
g2615
sI2159
g2616
sI2160
g2617
sI2161
g2618
sI2162
g2619
sI2163
g2620
sI2164
g2622
sI2165
g2623
sI2166
g2624
sI2167
g2625
sI2168
g2627
sI2169
g2629
sI2170
g2630
sI2171
g2631
sI2172
g2632
sI2173
g2633
sI2174
g2634
sI2175
g2635
sI2176
g2636
sI2177
g2637
sI2178
g2638
sI2179
g2639
sI2180
g2640
sI2181
g2641
sI2182
g2642
sI2183
g2643
sI2184
g2645
sI2185
g2646
sI2186
g2647
sI2187
g2649
sI2188
g2650
sI2189
g2651
sI2190
g2652
sI2191
g2653
sI2192
g3678
sI2193
g4216
sI2194
g2656
sI2195
g2657
sI2196
g2658
sI2197
g2659
sI2198
g2660
sI2199
g2661
sI2200
g2662
sI2201
g2663
sI2202
g2664
sI2203
g2665
sI2204
g2666
sI2205
g2667
sI2206
g3234
sI2207
g2669
sI2208
g2670
sI2209
g2818
sI2210
g2672
sI2211
g2673
sI2212
g2674
sI2213
g2675
sI2214
g2676
sI2215
g2677
sI2216
g2678
sI2217
g2679
sI2218
g2680
sI2219
g2681
sI2220
g2682
sI2221
g2683
sI2222
g2684
sI2223
g2685
sI2224
g2686
sI2225
g2687
sI2226
g2689
sI2227
g2704
sI2228
g3267
sI2229
g2694
sI2230
g2695
sI2231
g2696
sI2232
g2697
sI2233
g2698
sI2234
g2699
sI2235
g2702
sI2236
g483
sI2237
g2705
sI2238
g2706
sI2239
g2707
sI2240
g2710
sI2241
g2712
sI2242
g1588
sI2243
g2714
sI2244
g2715
sI2245
g2716
sI2246
g2717
sI2247
g2718
sI2248
g2719
sI2249
g2775
sI2250
g2722
sI2251
g2723
sI2252
g2724
sI2253
g2725
sI2254
g2726
sI2255
g2727
sI2256
g807
sI2257
g2730
sI2258
g2731
sI2259
g2732
sI2260
g2733
sI2261
g3547
sI2262
g2736
sI2263
g2738
sI2264
g2739
sI2265
g2740
sI2266
g2742
sI2267
g2743
sI2268
g2744
sI2269
g2745
sI2270
g2747
sI2271
g2749
sI2272
g2750
sI2273
g1119
sI2274
g3932
sI2275
g2753
sI2276
g2754
sI2277
g2756
sI2278
g2757
sI2279
g2758
sI2280
g2759
sI2281
g2760
sI2282
g2761
sI2283
g2762
sI2284
g2763
sI2285
g3058
sI2286
g4511
sI2287
g4400
sI2288
g2766
sI2289
g2769
sI2290
g2770
sI2291
g2771
sI2292
g3620
sI2293
g2772
sI2294
g2773
sI2295
g2774
sI2296
g2493
sI2297
g2777
sI2298
g2778
sI2299
g754
sI2300
g2780
sI2301
g2783
sI2302
g2784
sI2303
g3807
sI2304
g2787
sI2305
g2788
sI2306
g990
sI2307
g2790
sI2308
g2791
sI2309
g2792
sI2310
g2793
sI2311
g2795
sI2312
g2797
sI2313
g2798
sI2314
g2799
sI2315
g2800
sI2316
g2801
sI2317
g2802
sI2318
g2803
sI2319
g2804
sI2320
g2805
sI2321
g2807
sI2322
g2809
sI2323
g2810
sI2324
g2811
sI2325
g3329
sI2326
g3904
sI2327
g3851
sI2328
g2815
sI2329
g3368
sI2330
g3376
sI2331
g3583
sI2332
g2820
sI2333
g2821
sI2334
g2822
sI2335
g2823
sI2336
g2825
sI2337
g2826
sI2338
g2827
sI2339
g2828
sI2340
g2829
sI2341
g3460
sI2342
g2831
sI2343
g2832
sI2344
g2836
sI2345
g2837
sI2346
g2838
sI2347
g2840
sI2348
g2841
sI2349
g2842
sI2350
g2843
sI2351
g2844
sI2352
g2845
sI2353
g2846
sI2354
g2847
sI2355
g2848
sI2356
g2849
sI2357
g2851
sI2358
g2852
sI2359
g2853
sI2360
g2855
sI2361
g2858
sI2362
g2861
sI2363
g2862
sI2364
g2864
sI2365
g2866
sI2366
g2867
sI2367
g2868
sI2368
g2869
sI2369
g2870
sI2370
g2871
sI2371
g2872
sI2372
g2874
sI2373
g2876
sI2374
g2877
sI2375
g2878
sI2376
g2879
sI2377
g2880
sI2378
g2881
sI2379
g4138
sI2380
g2884
sI2381
g1233
sI2382
g2886
sI2383
g2887
sI2384
g2888
sI2385
g2889
sI2386
g2890
sI2387
g2891
sI2388
g2892
sI2389
g2895
sI2390
g4120
sI2391
g2897
sI2392
g2898
sI2393
g2899
sI2394
g2900
sI2395
g3925
sI2396
g2902
sI2397
g2904
sI2398
g2905
sI2399
g2907
sI2400
g2908
sI2401
g3986
sI2402
g2910
sI2403
g2911
sI2404
g2912
sI2405
g2913
sI2406
g2914
sI2407
g2915
sI2408
g4009
sI2409
g2917
sI2410
g2918
sI2411
g2919
sI2412
g2920
sI2413
g784
sI2414
g2922
sI2415
g2923
sI2416
g2924
sI2417
g63
sI2418
g2926
sI2419
g2927
sI2420
g2928
sI2421
g2929
sI2422
g2930
sI2423
g2931
sI2424
g2932
sI2425
g2933
sI2426
g4131
sI2427
g2935
sI2428
g2936
sI2429
g1527
sI2430
g2938
sI2431
g2939
sI2432
g2940
sI2433
g2941
sI2434
g2942
sI2435
g2944
sI2436
g2946
sI2437
g2947
sI2438
g2948
sI2439
g2949
sI2440
g2951
sI2441
g2953
sI2442
g2954
sI2443
g2955
sI2444
g2956
sI2445
g2957
sI2446
g4270
sI2447
g3520
sI2448
g2961
sI2449
g2962
sI2450
g2963
sI2451
g2965
sI2452
g2966
sI2453
g2968
sI2454
g4525
sI2455
g2970
sI2456
g2971
sI2457
g2972
sI2458
g2973
sI2459
g2976
sI2460
g2480
sI2461
g2979
sI2462
g2980
sI2463
g2982
sI2464
g2983
sI2465
g2984
sI2466
g2986
sI2467
g2987
sI2468
g2988
sI2469
g2989
sI2470
g3268
sI2471
g2990
sI2472
g2991
sI2473
g4679
sI2474
g2994
sI2475
g2996
sI2476
g2997
sI2477
g2998
sI2478
g2999
sI2479
g3000
sI2480
g3002
sI2481
g3003
sI2482
g3004
sI2483
g3005
sI2484
g3006
sI2485
g3007
sI2486
g3008
sI2487
g3009
sI2488
g3010
sI2489
g3011
sI2490
g4435
sI2491
g3013
sI2492
g3015
sI2493
g3016
sI2494
g4673
sI2495
g3018
sI2496
g3700
sI2497
g1733
sI2498
g3021
sI2499
g3022
sI2500
g3023
sI2501
g3024
sI2502
g3026
sI2503
g3027
sI2504
g3029
sI2505
g3031
sI2506
g3032
sI2507
g1997
sI2508
g3034
sI2509
g3035
sI2510
g3151
sI2511
g3037
sI2512
g3038
sI2513
g3039
sI2514
g776
sI2515
g3042
sI2516
g3045
sI2517
g3046
sI2518
g3047
sI2519
g3049
sI2520
g3050
sI2521
g3051
sI2522
g3052
sI2523
g3053
sI2524
g3054
sI2525
g3055
sI2526
g3056
sI2527
g3057
sI2528
g1017
sI2529
g1988
sI2530
g3062
sI2531
g3063
sI2532
g3064
sI2533
g3065
sI2534
g3066
sI2535
g3067
sI2536
g3069
sI2537
g3070
sI2538
g3071
sI2539
g3072
sI2540
g3073
sI2541
g3033
sI2542
g3076
sI2543
g3077
sI2544
g3078
sI2545
g3079
sI2546
g3080
sI2547
g3081
sI2548
g3082
sI2549
g2833
sI2550
g3084
sI2551
g3086
sI2552
g3087
sI2553
g3988
sI2554
g298
sI2555
g3091
sI2556
g3092
sI2557
g3094
sI2558
g1373
sI2559
g3097
sI2560
g3099
sI2561
g3100
sI2562
g3101
sI2563
g3102
sI2564
g3103
sI2565
g3105
sI2566
g3093
sI2567
g3107
sI2568
g3110
sI2569
g3111
sI2570
g3112
sI2571
g3113
sI2572
g3114
sI2573
g3115
sI2574
g3116
sI2575
g3118
sI2576
g3119
sI2577
g3120
sI2578
g3121
sI2579
g3122
sI2580
g3123
sI2581
g3124
sI2582
g3373
sI2583
g3126
sI2584
g3127
sI2585
g4000
sI2586
g3130
sI2587
g3132
sI2588
g3133
sI2589
g3134
sI2590
g3135
sI2591
g3136
sI2592
g1520
sI2593
g3138
sI2594
g3765
sI2595
g3142
sI2596
g3144
sI2597
g3145
sI2598
g3147
sI2599
g3148
sI2600
g563
sI2601
g4228
sI2602
g3152
sI2603
g4048
sI2604
g3154
sI2605
g3155
sI2606
g3156
sI2607
g3158
sI2608
g610
sI2609
g3160
sI2610
g3161
sI2611
g3162
sI2612
g3163
sI2613
g3164
sI2614
g1723
sI2615
g3165
sI2616
g652
sI2617
g3169
sI2618
g3487
sI2619
g3172
sI2620
g3173
sI2621
g3174
sI2622
g3175
sI2623
g3176
sI2624
g3178
sI2625
g3179
sI2626
g3909
sI2627
g740
sI2628
g3182
sI2629
g3183
sI2630
g3184
sI2631
g3185
sI2632
g3187
sI2633
g3188
sI2634
g3189
sI2635
g3190
sI2636
g3191
sI2637
g3192
sI2638
g3193
sI2639
g3194
sI2640
g3195
sI2641
g3196
sI2642
g3197
sI2643
g3198
sI2644
g3199
sI2645
g3200
sI2646
g3201
sI2647
g3202
sI2648
g3203
sI2649
g3204
sI2650
g3208
sI2651
g1565
sI2652
g3211
sI2653
g3212
sI2654
g3213
sI2655
g3214
sI2656
g3215
sI2657
g3216
sI2658
g4712
sI2659
g3219
sI2660
g3221
sI2661
g3224
sI2662
g3226
sI2663
g3227
sI2664
g3229
sI2665
g3231
sI2666
g3232
sI2667
g3233
sI2668
g3235
sI2669
g3236
sI2670
g3237
sI2671
g3238
sI2672
g3239
sI2673
g3240
sI2674
g3241
sI2675
g3242
sI2676
g3243
sI2677
g2309
sI2678
g4681
sI2679
g3247
sI2680
g3248
sI2681
g3249
sI2682
g3251
sI2683
g3253
sI2684
g3254
sI2685
g3256
sI2686
g3257
sI2687
g3258
sI2688
g3259
sI2689
g3260
sI2690
g3261
sI2691
g3262
sI2692
g3263
sI2693
g3264
sI2694
g3265
sI2695
g3266
sI2696
g1681
sI2697
g2127
sI2698
g3269
sI2699
g3271
sI2700
g3272
sI2701
g4113
sI2702
g3275
sI2703
g3277
sI2704
g3279
sI2705
g3280
sI2706
g3281
sI2707
g3284
sI2708
g3285
sI2709
g3286
sI2710
g3287
sI2711
g3288
sI2712
g3289
sI2713
g3290
sI2714
g3291
sI2715
g3292
sI2716
g3293
sI2717
g3294
sI2718
g3295
sI2719
g4498
sI2720
g3298
sI2721
g3299
sI2722
g3301
sI2723
g3302
sI2724
g3303
sI2725
g3304
sI2726
g3305
sI2727
g3306
sI2728
g3307
sI2729
g3308
sI2730
g3309
sI2731
g3310
sI2732
g3311
sI2733
g3312
sI2734
g3313
sI2735
g3315
sI2736
g3317
sI2737
g3319
sI2738
g330
sI2739
g3574
sI2740
g3323
sI2741
g496
sI2742
g3359
sI2743
g3327
sI2744
g3328
sI2745
g3330
sI2746
g3331
sI2747
g3332
sI2748
g3333
sI2749
g1572
sI2750
g3337
sI2751
g3338
sI2752
g3339
sI2753
g3340
sI2754
g3341
sI2755
g2350
sI2756
g1685
sI2757
g2814
sI2758
g3345
sI2759
g3346
sI2760
g3347
sI2761
g3348
sI2762
g3349
sI2763
g3350
sI2764
g3351
sI2765
g3352
sI2766
g3353
sI2767
g3354
sI2768
g3355
sI2769
g3356
sI2770
g3357
sI2771
g3358
sI2772
g1674
sI2773
g3360
sI2774
g3362
sI2775
g3364
sI2776
g3365
sI2777
g1149
sI2778
g4280
sI2779
g3370
sI2780
g3371
sI2781
g2621
sI2782
g3375
sI2783
g3377
sI2784
g3378
sI2785
g3379
sI2786
g4321
sI2787
g3381
sI2788
g3383
sI2789
g3384
sI2790
g3385
sI2791
g3387
sI2792
g3388
sI2793
g1295
sI2794
g3393
sI2795
g3396
sI2796
g3397
sI2797
g3398
sI2798
g3657
sI2799
g3401
sI2800
g3402
sI2801
g3782
sI2802
g3404
sI2803
g3405
sI2804
g3407
sI2805
g3410
sI2806
g3412
sI2807
g3413
sI2808
g3414
sI2809
g3415
sI2810
g3416
sI2811
g3418
sI2812
g3419
sI2813
g3420
sI2814
g3421
sI2815
g3422
sI2816
g3423
sI2817
g3424
sI2818
g3425
sI2819
g3426
sI2820
g3428
sI2821
g3429
sI2822
g3430
sI2823
g3431
sI2824
g3432
sI2825
g1691
sI2826
g3435
sI2827
g3436
sI2828
g3437
sI2829
g4049
sI2830
g3439
sI2831
g3440
sI2832
g3442
sI2833
g3443
sI2834
g3444
sI2835
g3445
sI2836
g3446
sI2837
g3447
sI2838
g3449
sI2839
g3450
sI2840
g3451
sI2841
g3452
sI2842
g3453
sI2843
g3454
sI2844
g4090
sI2845
g886
sI2846
g4530
sI2847
g3459
sI2848
g4628
sI2849
g3461
sI2850
g3462
sI2851
g3463
sI2852
g3464
sI2853
g3465
sI2854
g3466
sI2855
g3467
sI2856
g3469
sI2857
g3471
sI2858
g3472
sI2859
g3886
sI2860
g3473
sI2861
g3475
sI2862
g3476
sI2863
g582
sI2864
g3479
sI2865
g3480
sI2866
g3481
sI2867
g2967
sI2868
g3485
sI2869
g3486
sI2870
g3488
sI2871
g3489
sI2872
g3490
sI2873
g3491
sI2874
g3493
sI2875
g3495
sI2876
g2040
sI2877
g3498
sI2878
g3499
sI2879
g3501
sI2880
g4024
sI2881
g3503
sI2882
g3505
sI2883
g3506
sI2884
g3507
sI2885
g3508
sI2886
g3509
sI2887
g3510
sI2888
g3511
sI2889
g3512
sI2890
g3515
sI2891
g3516
sI2892
g3517
sI2893
g3518
sI2894
g3519
sI2895
g3521
sI2896
g3522
sI2897
g3523
sI2898
g3524
sI2899
g3525
sI2900
g3526
sI2901
g3527
sI2902
g3528
sI2903
g3530
sI2904
g3532
sI2905
g3533
sI2906
g2850
sI2907
g3535
sI2908
g3536
sI2909
g3537
sI2910
g3540
sI2911
g3541
sI2912
g3542
sI2913
g3543
sI2914
g3544
sI2915
g3546
sI2916
g2735
sI2917
g3548
sI2918
g3550
sI2919
g3552
sI2920
g3553
sI2921
g3554
sI2922
g3555
sI2923
g3556
sI2924
g3557
sI2925
g3558
sI2926
g2238
sI2927
g3560
sI2928
g3561
sI2929
g3562
sI2930
g3563
sI2931
g3564
sI2932
g3565
sI2933
g3566
sI2934
g3567
sI2935
g2865
sI2936
g3569
sI2937
g3571
sI2938
g3572
sI2939
g4212
sI2940
g3575
sI2941
g2894
sI2942
g3577
sI2943
g3578
sI2944
g3579
sI2945
g3580
sI2946
g3581
sI2947
g4677
sI2948
g3585
sI2949
g3586
sI2950
g3587
sI2951
g3588
sI2952
g3589
sI2953
g3590
sI2954
g3591
sI2955
g3592
sI2956
g3593
sI2957
g3594
sI2958
g3595
sI2959
g3596
sI2960
g3597
sI2961
g3598
sI2962
g3600
sI2963
g3020
sI2964
g3975
sI2965
g3604
sI2966
g3605
sI2967
g3606
sI2968
g4620
sI2969
g3607
sI2970
g3608
sI2971
g3610
sI2972
g3611
sI2973
g3613
sI2974
g2063
sI2975
g3615
sI2976
g3616
sI2977
g3617
sI2978
g3618
sI2979
g3619
sI2980
g1352
sI2981
g3621
sI2982
g3762
sI2983
g4531
sI2984
g3143
sI2985
g3625
sI2986
g3750
sI2987
g3627
sI2988
g3928
sI2989
g3628
sI2990
g3629
sI2991
g3630
sI2992
g3631
sI2993
g3633
sI2994
g3634
sI2995
g3635
sI2996
g3636
sI2997
g3637
sI2998
g3638
sI2999
g3639
sI3000
g3245
sI3001
g3642
sI3002
g2065
sI3003
g3645
sI3004
g3647
sI3005
g3648
sI3006
g4235
sI3007
g3650
sI3008
g3651
sI3009
g34
sI3010
g3653
sI3011
g3654
sI3012
g3656
sI3013
g4698
sI3014
g3659
sI3015
g3660
sI3016
g3661
sI3017
g3662
sI3018
g3663
sI3019
g3664
sI3020
g3666
sI3021
g3667
sI3022
g3668
sI3023
g3669
sI3024
g3670
sI3025
g289
sI3026
g3484
sI3027
g3673
sI3028
g3674
sI3029
g158
sI3030
g3676
sI3031
g3677
sI3032
g3679
sI3033
g3680
sI3034
g3681
sI3035
g3682
sI3036
g3683
sI3037
g3685
sI3038
g3686
sI3039
g3687
sI3040
g3688
sI3041
g3692
sI3042
g3694
sI3043
g3695
sI3044
g3570
sI3045
g3697
sI3046
g3698
sI3047
g3699
sI3048
g3955
sI3049
g3701
sI3050
g3704
sI3051
g3707
sI3052
g4565
sI3053
g3709
sI3054
g3710
sI3055
g4188
sI3056
g3713
sI3057
g3714
sI3058
g3717
sI3059
g3718
sI3060
g3719
sI3061
g3721
sI3062
g3722
sI3063
g3723
sI3064
g3724
sI3065
g3725
sI3066
g3726
sI3067
g3727
sI3068
g3728
sI3069
g3729
sI3070
g3730
sI3071
g3808
sI3072
g3732
sI3073
g3733
sI3074
g3734
sI3075
g3852
sI3076
g3736
sI3077
g3738
sI3078
g1339
sI3079
g1439
sI3080
g1337
sI3081
g3744
sI3082
g3745
sI3083
g3746
sI3084
g3747
sI3085
g4085
sI3086
g4461
sI3087
g3751
sI3088
g3752
sI3089
g3753
sI3090
g3754
sI3091
g3755
sI3092
g3756
sI3093
g3758
sI3094
g3759
sI3095
g3760
sI3096
g3206
sI3097
g3764
sI3098
g432
sI3099
g3766
sI3100
g3767
sI3101
g2654
sI3102
g3769
sI3103
g3770
sI3104
g3772
sI3105
g3773
sI3106
g3774
sI3107
g3775
sI3108
g2981
sI3109
g3778
sI3110
g3779
sI3111
g3780
sI3112
g3781
sI3113
g3828
sI3114
g3783
sI3115
g3784
sI3116
g3786
sI3117
g4178
sI3118
g3788
sI3119
g3789
sI3120
g3790
sI3121
g3792
sI3122
g3793
sI3123
g3794
sI3124
g2883
sI3125
g3872
sI3126
g3798
sI3127
g3799
sI3128
g3801
sI3129
g3802
sI3130
g3803
sI3131
g3805
sI3132
g3806
sI3133
g3559
sI3134
g3809
sI3135
g3810
sI3136
g3811
sI3137
g3812
sI3138
g1415
sI3139
g4327
sI3140
g3815
sI3141
g3816
sI3142
g3817
sI3143
g3818
sI3144
g3819
sI3145
g4532
sI3146
g3821
sI3147
g4386
sI3148
g3823
sI3149
g4408
sI3150
g3826
sI3151
g3827
sI3152
g3496
sI3153
g3829
sI3154
g3830
sI3155
g3831
sI3156
g3832
sI3157
g3833
sI3158
g3834
sI3159
g3836
sI3160
g3837
sI3161
g3838
sI3162
g3839
sI3163
g3840
sI3164
g3841
sI3165
g3842
sI3166
g3843
sI3167
g3844
sI3168
g3845
sI3169
g3846
sI3170
g3847
sI3171
g3848
sI3172
g3849
sI3173
g4187
sI3174
g3735
sI3175
g3853
sI3176
g3854
sI3177
g3855
sI3178
g3857
sI3179
g4071
sI3180
g3859
sI3181
g3860
sI3182
g3318
sI3183
g3862
sI3184
g3863
sI3185
g3864
sI3186
g3865
sI3187
g3866
sI3188
g3867
sI3189
g3868
sI3190
g4672
sI3191
g3870
sI3192
g3743
sI3193
g3873
sI3194
g3875
sI3195
g3876
sI3196
g3877
sI3197
g3878
sI3198
g3879
sI3199
g3880
sI3200
g3881
sI3201
g3882
sI3202
g3883
sI3203
g3885
sI3204
g3741
sI3205
g3887
sI3206
g3888
sI3207
g3889
sI3208
g3693
sI3209
g3891
sI3210
g3892
sI3211
g3893
sI3212
g3894
sI3213
g3895
sI3214
g3896
sI3215
g3898
sI3216
g3899
sI3217
g3900
sI3218
g3901
sI3219
g3903
sI3220
g4156
sI3221
g3905
sI3222
g3907
sI3223
g3908
sI3224
g4244
sI3225
g3912
sI3226
g3913
sI3227
g3915
sI3228
g3916
sI3229
g4142
sI3230
g3918
sI3231
g3919
sI3232
g3920
sI3233
g3921
sI3234
g3922
sI3235
g3923
sI3236
g3924
sI3237
g2768
sI3238
g1929
sI3239
g3748
sI3240
g3929
sI3241
g3930
sI3242
g3931
sI3243
g2108
sI3244
g3250
sI3245
g3934
sI3246
g3935
sI3247
g3936
sI3248
g3937
sI3249
g3938
sI3250
g3939
sI3251
g3940
sI3252
g3941
sI3253
g3942
sI3254
g3943
sI3255
g3944
sI3256
g1541
sI3257
g3946
sI3258
g3947
sI3259
g3948
sI3260
g3949
sI3261
g3950
sI3262
g3951
sI3263
g3952
sI3264
g3954
sI3265
g4647
sI3266
g3957
sI3267
g3314
sI3268
g3959
sI3269
g3962
sI3270
g3963
sI3271
g1274
sI3272
g418
sI3273
g3106
sI3274
g3970
sI3275
g4642
sI3276
g3973
sI3277
g3974
sI3278
g1046
sI3279
g3976
sI3280
g3977
sI3281
g465
sI3282
g3979
sI3283
g3980
sI3284
g3981
sI3285
g3982
sI3286
g3983
sI3287
g3230
sI3288
g888
sI3289
g3989
sI3290
g3990
sI3291
g3991
sI3292
g3993
sI3293
g1597
sI3294
g3995
sI3295
g3761
sI3296
g3997
sI3297
g574
sI3298
g3999
sI3299
g585
sI3300
g4002
sI3301
g4004
sI3302
g4005
sI3303
g4007
sI3304
g4008
sI3305
g2916
sI3306
g4010
sI3307
g3139
sI3308
g4012
sI3309
g4013
sI3310
g3222
sI3311
g679
sI3312
g4016
sI3313
g4017
sI3314
g4018
sI3315
g3060
sI3316
g1383
sI3317
g4022
sI3318
g735
sI3319
g93
sI3320
g4025
sI3321
g4026
sI3322
g4027
sI3323
g4028
sI3324
g4029
sI3325
g4030
sI3326
g4031
sI3327
g4032
sI3328
g4033
sI3329
g4034
sI3330
g3090
sI3331
g4037
sI3332
g4038
sI3333
g4039
sI3334
g4040
sI3335
g4042
sI3336
g4043
sI3337
g4044
sI3338
g4045
sI3339
g4046
sI3340
g4047
sI3341
g1548
sI3342
g4050
sI3343
g4051
sI3344
g4053
sI3345
g4618
sI3346
g4057
sI3347
g4058
sI3348
g4059
sI3349
g4060
sI3350
g4061
sI3351
g2925
sI3352
g4063
sI3353
g4064
sI3354
g4065
sI3355
g4066
sI3356
g4067
sI3357
g4070
sI3358
g4073
sI3359
g4074
sI3360
g4075
sI3361
g4076
sI3362
g4077
sI3363
g4078
sI3364
g4079
sI3365
g4081
sI3366
g4083
sI3367
g4084
sI3368
g4087
sI3369
g4088
sI3370
g3655
sI3371
g4091
sI3372
g4092
sI3373
g4093
sI3374
g4095
sI3375
g4096
sI3376
g4097
sI3377
g4099
sI3378
g4100
sI3379
g4101
sI3380
g4102
sI3381
g4103
sI3382
g4105
sI3383
g4106
sI3384
g4107
sI3385
g4108
sI3386
g4109
sI3387
g4110
sI3388
g4111
sI3389
g4459
sI3390
g4683
sI3391
g4115
sI3392
g4116
sI3393
g4117
sI3394
g1400
sI3395
g4119
sI3396
g4121
sI3397
g4122
sI3398
g4123
sI3399
g4124
sI3400
g4125
sI3401
g4126
sI3402
g4127
sI3403
g4129
sI3404
g4130
sI3405
g2934
sI3406
g4132
sI3407
g4133
sI3408
g4135
sI3409
g4137
sI3410
g1280
sI3411
g4139
sI3412
g4143
sI3413
g4144
sI3414
g4146
sI3415
g2239
sI3416
g4147
sI3417
g4148
sI3418
g4149
sI3419
g4150
sI3420
g4152
sI3421
g4154
sI3422
g4155
sI3423
g2813
sI3424
g4157
sI3425
g4158
sI3426
g4159
sI3427
g4160
sI3428
g4161
sI3429
g3672
sI3430
g4163
sI3431
g4164
sI3432
g4167
sI3433
g4168
sI3434
g4169
sI3435
g4170
sI3436
g1839
sI3437
g4172
sI3438
g4173
sI3439
g4174
sI3440
g4175
sI3441
g4176
sI3442
g4179
sI3443
g4181
sI3444
g1506
sI3445
g2688
sI3446
g4184
sI3447
g4185
sI3448
g4189
sI3449
g4190
sI3450
g4191
sI3451
g4193
sI3452
g4194
sI3453
g4195
sI3454
g4196
sI3455
g4197
sI3456
g4198
sI3457
g4199
sI3458
g720
sI3459
g4200
sI3460
g4201
sI3461
g4202
sI3462
g4203
sI3463
g4204
sI3464
g4206
sI3465
g4207
sI3466
g4208
sI3467
g4209
sI3468
g4210
sI3469
g3926
sI3470
g4215
sI3471
g2507
sI3472
g4217
sI3473
g4218
sI3474
g4219
sI3475
g4220
sI3476
g4221
sI3477
g4222
sI3478
g4224
sI3479
g4225
sI3480
g1740
sI3481
g4229
sI3482
g4231
sI3483
g4232
sI3484
g4233
sI3485
g4648
sI3486
g4234
sI3487
g1794
sI3488
g4236
sI3489
g4237
sI3490
g4238
sI3491
g4239
sI3492
g4240
sI3493
g4242
sI3494
g4245
sI3495
g4246
sI3496
g4247
sI3497
g4249
sI3498
g2525
sI3499
g4251
sI3500
g4253
sI3501
g4559
sI3502
g4255
sI3503
g4256
sI3504
g4257
sI3505
g4258
sI3506
g1931
sI3507
g4261
sI3508
g4262
sI3509
g538
sI3510
g4449
sI3511
g4264
sI3512
g646
sI3513
g4267
sI3514
g4268
sI3515
g4269
sI3516
g4272
sI3517
g2959
sI3518
g4275
sI3519
g4277
sI3520
g4278
sI3521
g4279
sI3522
g4281
sI3523
g4282
sI3524
g4283
sI3525
g4285
sI3526
g4286
sI3527
g4287
sI3528
g4490
sI3529
g4289
sI3530
g4290
sI3531
g4291
sI3532
g4292
sI3533
g4293
sI3534
g4294
sI3535
g2494
sI3536
g4296
sI3537
g4297
sI3538
g4298
sI3539
g4299
sI3540
g4300
sI3541
g4301
sI3542
g4302
sI3543
g4303
sI3544
g4304
sI3545
g4305
sI3546
g4306
sI3547
g1432
sI3548
g2977
sI3549
g1732
sI3550
g4311
sI3551
g4313
sI3552
g4314
sI3553
g4315
sI3554
g4318
sI3555
g4319
sI3556
g4320
sI3557
g192
sI3558
g4322
sI3559
g4323
sI3560
g4324
sI3561
g4325
sI3562
g4326
sI3563
g3814
sI3564
g4328
sI3565
g2765
sI3566
g4330
sI3567
g4331
sI3568
g4332
sI3569
g4333
sI3570
g4334
sI3571
g4336
sI3572
g4338
sI3573
g4339
sI3574
g4340
sI3575
g4342
sI3576
g4343
sI3577
g2177
sI3578
g1438
sI3579
g1887
sI3580
g4347
sI3581
g4349
sI3582
g4350
sI3583
g4351
sI3584
g4352
sI3585
g4353
sI3586
g4354
sI3587
g3702
sI3588
g4356
sI3589
g4357
sI3590
g4358
sI3591
g4359
sI3592
g4361
sI3593
g4363
sI3594
g4364
sI3595
g4365
sI3596
g4366
sI3597
g4367
sI3598
g4368
sI3599
g4369
sI3600
g4370
sI3601
g4371
sI3602
g4372
sI3603
g4374
sI3604
g4375
sI3605
g4376
sI3606
g4377
sI3607
g4378
sI3608
g4380
sI3609
g4708
sI3610
g4382
sI3611
g3884
sI3612
g4384
sI3613
g4385
sI3614
g4387
sI3615
g4388
sI3616
g4390
sI3617
g4391
sI3618
g1680
sI3619
g4393
sI3620
g4394
sI3621
g4395
sI3622
g4396
sI3623
g4397
sI3624
g4398
sI3625
g4399
sI3626
g2048
sI3627
g4401
sI3628
g4402
sI3629
g4404
sI3630
g4405
sI3631
g4406
sI3632
g4407
sI3633
g2806
sI3634
g4409
sI3635
g4410
sI3636
g4412
sI3637
g4413
sI3638
g4414
sI3639
g4415
sI3640
g4416
sI3641
g4417
sI3642
g4418
sI3643
g4419
sI3644
g4421
sI3645
g4422
sI3646
g4423
sI3647
g4424
sI3648
g4426
sI3649
g4427
sI3650
g4428
sI3651
g4429
sI3652
g4430
sI3653
g4431
sI3654
g4433
sI3655
g4434
sI3656
g2191
sI3657
g4437
sI3658
g4438
sI3659
g3644
sI3660
g4440
sI3661
g1453
sI3662
g4442
sI3663
g4444
sI3664
g4445
sI3665
g2193
sI3666
g4451
sI3667
g4452
sI3668
g4453
sI3669
g4454
sI3670
g4455
sI3671
g4457
sI3672
g4458
sI3673
g742
sI3674
g4462
sI3675
g4463
sI3676
g4464
sI3677
g4466
sI3678
g3108
sI3679
g4468
sI3680
g4469
sI3681
g4470
sI3682
g4471
sI3683
g4472
sI3684
g4473
sI3685
g4474
sI3686
g4476
sI3687
g4477
sI3688
g4478
sI3689
g4479
sI3690
g4480
sI3691
g2438
sI3692
g4483
sI3693
g4484
sI3694
g4485
sI3695
g4486
sI3696
g4487
sI3697
g3968
sI3698
g4489
sI3699
g4491
sI3700
g4492
sI3701
g4493
sI3702
g4494
sI3703
g4495
sI3704
g4496
sI3705
g4497
sI3706
g4499
sI3707
g4500
sI3708
g4502
sI3709
g4504
sI3710
g4506
sI3711
g4507
sI3712
g4510
sI3713
g4512
sI3714
g4513
sI3715
g4515
sI3716
g4516
sI3717
g3282
sI3718
g4518
sI3719
g4519
sI3720
g4520
sI3721
g4521
sI3722
g4523
sI3723
g4524
sI3724
g4526
sI3725
g4527
sI3726
g1072
sI3727
g4529
sI3728
g3167
sI3729
g4223
sI3730
g1746
sI3731
g3715
sI3732
g4536
sI3733
g4537
sI3734
g4538
sI3735
g4539
sI3736
g4540
sI3737
g4541
sI3738
g4542
sI3739
g4543
sI3740
g4545
sI3741
g4546
sI3742
g4547
sI3743
g4548
sI3744
g4549
sI3745
g4550
sI3746
g4552
sI3747
g4553
sI3748
g4554
sI3749
g4555
sI3750
g4556
sI3751
g1471
sI3752
g4557
sI3753
g3675
sI3754
g4307
sI3755
g492
sI3756
g4566
sI3757
g4567
sI3758
g4568
sI3759
g4569
sI3760
g1869
sI3761
g4571
sI3762
g4572
sI3763
g4573
sI3764
g4574
sI3765
g4575
sI3766
g4576
sI3767
g4577
sI3768
g4578
sI3769
g4579
sI3770
g4580
sI3771
g4583
sI3772
g2508
sI3773
g4586
sI3774
g4587
sI3775
g4588
sI3776
g4589
sI3777
g4591
sI3778
g4646
sI3779
g4593
sI3780
g4594
sI3781
g2483
sI3782
g4596
sI3783
g4597
sI3784
g4598
sI3785
g4599
sI3786
g4600
sI3787
g3911
sI3788
g4602
sI3789
g4605
sI3790
g4607
sI3791
g4608
sI3792
g697
sI3793
g4610
sI3794
g4611
sI3795
g4612
sI3796
g4613
sI3797
g4014
sI3798
g4615
sI3799
g4616
sI3800
g4617
sI3801
g1484
sI3802
g4619
sI3803
g4713
sI3804
g4621
sI3805
g4623
sI3806
g4624
sI3807
g4625
sI3808
g4626
sI3809
g4627
sI3810
g4629
sI3811
g4631
sI3812
g4632
sI3813
g4633
sI3814
g4634
sI3815
g4635
sI3816
g4636
sI3817
g4637
sI3818
g4639
sI3819
g4640
sI3820
g4641
sI3821
g4643
sI3822
g4644
sI3823
g4645
sI3824
g4151
sI3825
g4227
sI3826
g2969
sI3827
g4649
sI3828
g4650
sI3829
g4653
sI3830
g4654
sI3831
g4657
sI3832
g4658
sI3833
g4659
sI3834
g4660
sI3835
g4661
sI3836
g4663
sI3837
g4665
sI3838
g4667
sI3839
g4668
sI3840
g1528
sI3841
g4670
sI3842
g4671
sI3843
g4362
sI3844
g2708
sI3845
g4676
sI3846
g4678
sI3847
g2206
sI3848
g4680
sI3849
g4682
sI3850
g4443
sI3851
g4684
sI3852
g4685
sI3853
g4456
sI3854
g709
sI3855
g4687
sI3856
g4690
sI3857
g4691
sI3858
g4693
sI3859
g4694
sI3860
g4695
sI3861
g4696
sI3862
g4697
sI3863
g60
sI3864
g3085
sI3865
g4701
sI3866
g4702
sI3867
g4703
sI3868
g4704
sI3869
g4705
sI3870
g4706
sI3871
g4707
sI3872
g4714
sI3873
g4715
sI3874
g4716
sI3875
g4717
sI3876
g4718
sI3877
g4719
sI3878
g4720
sI3879
g4721
sI3880
g4723
sI3881
g4724
sI3882
g4725
sI3883
g4726
sI3884
g4727
sI3885
g4728
sI3886
g114
sI3887
g3933
sI3888
g423
sI3889
g1614
sI3890
g2613
sI3891
g3040
sI3892
g1925
sI3893
g2496
sI3894
g2188
sI3895
g2039
sI3896
g1122
sI3897
g2352
sI3898
g1257
sI3899
g3059
sI3900
g558
sI3901
g4482
sI3902
g883
sI3903
g1410
sI3904
g3573
sI3905
g4403
sI3906
g2285
sI3907
g1610
sI3908
g1717
sI3909
g3763
sI3910
g2097
sI3911
g663
sI3912
g1008
sI3913
g313
sI3914
g175
sI3915
g2075
sI3916
g1325
sI3917
g1707
sI3918
g227
sI3919
g1446
sI3920
g795
sI3921
g2455
sI3922
g1171
sI3923
g4630
sI3924
g1758
sI3925
g3177
sI3926
g1573
sI3927
g2102
sI3928
g376
sI3929
g4655
sI3930
g1894
sI3931
g4241
sI3932
g854
sI3933
g1593
sI3934
g1544
sI3935
g1902
sI3936
g1147
sI3937
g1762
sI3938
g2671
sI3939
g388
sI3940
g383
sI3941
g389
sI3942
g3246
sI3943
g3166
sI3944
g3482
sI3945
g2020
sI3946
g1648
sI3947
g608
sI3948
g1501
sI3949
g863
sI3950
g2236
sI3951
g1455
sI3952
g3972
sI3953
g2903
sI3954
g2132
sI3955
g3468
sI3956
g3791
sI3957
g2109
sI3958
g3406
sI3959
g3217
sI3960
g446
sI3961
g4503
sI3962
g3969
sI3963
g2909
sI3964
g3274
sI3965
g4308
sI3966
g974
sI3967
g2331
sI3968
g1634
sI3969
g4041
sI3970
g1891
sI3971
g1948
sI3972
g2126
sI3973
g122
sI3974
g2135
sI3975
g551
sI3976
g2644
sI3977
g4688
sI3978
g59
sI3979
g1405
sI3980
g534
sI3981
g4551
sI3982
g2960
sI3983
g989
sI3984
g969
sI3985
g4312
sI3986
g3749
sI3987
g1852
sI3988
g3835
sI3989
g303
sI3990
g4652
sI3991
g3395
sI3992
g930
sI3993
g619
sI3994
g4481
sI3995
g1914
sI3996
g3153
sI3997
g1798
sI3998
g2098
sI3999
g3641
sI4000
g2349
sI4001
g917
sI4002
g4581
sI4003
g3028
sI4004
g259
sI4005
g603
sI4006
g439
sI4007
g1199
sI4008
g3961
sI4009
g566
sI4010
g392
sI4011
g2242
sI4012
g1784
sI4013
g543
sI4014
g2701
sI4015
g3131
sI4016
g3690
sI4017
g4585
sI4018
g1808
sI4019
g1957
sI4020
g4104
sI4021
g2995
sI4022
g3157
sI4023
g4563
sI4024
g3389
sI4025
g804
sI4026
g2125
sI4027
g553
sI4028
g738
sI4029
g2307
sI4030
g4263
sI4031
g4603
sI4032
g2782
sI4033
g858
sI4034
g2776
sI4035
g1385
sI4036
g2985
sI4037
g171
sI4038
g3137
sI4039
g3914
sI4040
g4686
sI4041
g3363
sI4042
g3706
sI4043
g3534
sI4044
g1911
sI4045
g3457
sI4046
g2863
sI4047
g4662
sI4048
g4273
sI4049
g2906
sI4050
g1002
sI4051
g559
sI4052
g3856
sI4053
g1525
sI4054
g1585
sI4055
g2235
sI4056
g1054
sI4057
g3785
sI4058
g2628
sI4059
g2812
sI4060
g2486
sI4061
g3626
sI4062
g4590
sI4063
g4052
sI4064
g2550
sI4065
g44
sI4066
g3742
sI4067
g480
sI4068
g1985
sI4069
g1380
sI4070
g4509
sI4071
g844
sI4072
g526
sI4073
g814
sI4074
g2767
sI4075
g1664
sI4076
g1741
sI4077
g628
sI4078
g3336
sI4079
g3529
sI4080
g4134
sI4081
g541
sI4082
g3531
sI4083
g4021
sI4084
g3297
sI4085
g438
sI4086
g2130
sI4087
g3455
sI4088
g1932
sI4089
g4056
sI4090
g356
sI4091
g3539
sI4092
g3409
sI4093
g2166
sI4094
g431
sI4095
g1250
sI4096
g801
sI4097
g3438
sI4098
g500
sI4099
g1921
sI4100
g2338
sI4101
g3513
sI4102
g3796
sI4103
g4316
sI4104
g3270
sI4105
g3043
sI4106
g391
sI4107
g1418
sI4108
g3088
sI4109
g2249
sI4110
g4436
sI4111
g938
sI4112
g2741
sI4113
g1842
sI4114
g3477
sI4115
g4475
sI4116
g1345
sI4117
g2091
sI4118
g2873
sI4119
g621
sI4120
g1249
sI4121
g3768
sI4122
g2492
sI4123
g2224
sI4124
g2079
sI4125
g4271
sI4126
g3643
sI4127
g4080
sI4128
g1111
sI4129
g2882
sI4130
g3658
sI4131
g2964
sI4132
g3897
sI4133
g2729
sI4134
g4180
sI4135
g2197
sI4136
g3441
sI4137
g4447
sI4138
g2047
sI4139
g4186
sI4140
g1753
sI4141
g485
sI4142
g3125
sI4143
g867
sI4144
g1052
sI4145
g1397
sI4146
g2522
sI4147
g4112
sI4148
g2875
sI4149
g4068
sI4150
g2396
sI4151
g1884
sI4152
g2344
sI4153
g506
sI4154
g4508
sI4155
g2824
sI4156
g2081
sI4157
g2141
sI4158
g83
sI4159
g865
sI4160
g4035
sI4161
g3117
sI4162
g2190
sI4163
g864
sI4164
g488
sI4165
g3044
sI4166
g108
sI4167
g2094
sI4168
g1865
sI4169
g2143
sI4170
g1068
sI4171
g2369
sI4172
g798
sI4173
g1567
sI4174
g4505
sI4175
g193
sI4176
g1268
sI4177
g3300
sI4178
g56
sI4179
g98
sI4180
g3180
sI4181
g3320
sI4182
g95
sI4183
g1964
sI4184
g3906
sI4185
g1062
sI4186
g4606
sI4187
g1509
sI4188
g4656
sI4189
g3012
sI4190
g725
sI4191
g2506
sI4192
g4182
sI4193
g665
sI4194
g4054
sI4195
g3800
sI4196
g4317
sI4197
g2693
sI4198
g915
sI4199
g3720
sI4200
g2374
sI4201
g934
sI4202
g3181
sI4203
g1682
sI4204
g3228
sI4205
g3804
sI4206
g2703
sI4207
g3146
sI4208
g3456
sI4209
g3910
sI4210
g2764
sI4211
g2605
sI4212
g4514
sI4213
g4230
sI4214
g2611
sI4215
g2721
sI4216
g4248
sI4217
g773
sI4218
g3041
sI4219
g718
sI4220
g1979
sI4221
g249
sI4222
g4274
sI4223
g1759
sI4224
g3632
sI4225
g1701
sI4226
g3716
sI4227
g4651
sI4228
g312
sI4229
g3731
sI4230
g3824
sI4231
g3474
sI4232
g4622
sI4233
g3797
sI4234
g3366
sI4235
g4674
sI4236
g283
sI4237
g2737
sI4238
g3568
sI4239
g2265
sI4240
g507
sI4241
g4517
sI4242
g1587
sI4243
g4177
sI4244
g2958
sI4245
g1873
sI4246
g2937
sI4247
g1051
sI4248
g2606
sI4249
g1261
sI4250
g4638
sI4251
g3917
sI4252
g1641
sI4253
g4094
sI4254
g2115
sI4255
g942
sI4256
g4562
sI4257
g2648
sI4258
g4020
sI4259
g785
sI4260
g546
sI4261
g2133
sI4262
g4465
sI4263
g3098
sI4264
g787
sI4265
g598
sI4266
g783
sI4267
g3207
sI4268
g156
sI4269
g3394
sI4270
g1574
sI4271
g4259
sI4272
g2751
sI4273
g57
sI4274
g2540
sI4275
g2446
sI4276
g2794
sI4277
g2287
sI4278
g164
sI4279
g897
sI4280
g1267
sI4281
g2174
sI4282
g2548
sI4283
g4284
sI4284
g1411
sI4285
g3036
sI4286
g47
sI4287
g3209
sI4288
g4205
sI4289
g3757
sI4290
g609
sI4291
g968
sI4292
g3504
sI4293
g4381
sI4294
g264
sI4295
g1140
sI4296
g3649
sI4297
g4341
sI4298
g3671
sI4299
g3551
sI4300
g4432
sI4301
g966
sI4302
g4604
sI4303
g4252
sI4304
g4360
sI4305
g817
sI4306
g728
sI4307
g2482
sI4308
g1547
sI4309
g4254
sI4310
g721
sI4311
g3326
sI4312
g2789
sI4313
g981
sI4314
g3902
sI4315
g4162
sI4316
g1045
sI4317
g993
sI4318
g3369
sI4319
g2444
sI4320
g3874
sI4321
g471
sI4322
g1434
sI4323
g2101
sI4324
g201
sI4325
g1179
sI4326
g1344
sI4327
g1128
sI4328
g3705
sI4329
g4211
sI4330
g16
sI4331
g2170
sI4332
g3458
sI4333
g4003
sI4334
g2088
sI4335
g1299
sI4336
g2034
sI4337
g518
sI4338
g963
sI4339
g2544
sI4340
g4309
sI4341
g2472
sI4342
g2304
sI4343
g3205
sI4344
g3448
sI4345
g669
sI4346
g1158
sI4347
g2175
sI4348
g1134
sI4349
g1416
sI4350
g2036
sI4351
g3140
sI4352
g1836
sI4353
g4710
sI4354
g1348
sI4355
g1112
sI4356
g3322
sI4357
g1881
sI4358
g3984
sI4359
g1538
sI4360
g2252
sI4361
g2217
sI4362
g597
sI4363
g3858
sI4364
g1059
sI4365
g3795
sI4366
g4711
sI4367
g548
sI4368
g2433
sI4369
g1827
sI4370
g3361
sI4371
g1927
sI4372
g3283
sI4373
g3602
sI4374
g139
sI4375
g4166
sI4376
g2748
sI4377
g3061
sI4378
g2571
sI4379
g3691
sI4380
g3025
sI4381
g3141
sI4382
g1546
sI4383
g1278
sI4384
g2524
sI4385
g2854
sI4386
g2010
sI4387
g3068
sI4388
g292
sI4389
g2281
sI4390
g2221
sI4391
g2187
sI4392
g2189
sI4393
g3850
sI4394
g271
sI4395
g4086
sI4396
g1109
sI4397
g4141
sI4398
g385
sI4399
g2308
sI4400
g3545
sI4401
g1118
sI4402
g4098
sI4403
g4560
sI4404
g2589
sI4405
g1478
sI4406
g4337
sI4407
g4533
sI4408
g4373
sI4409
g3218
sI4410
g1161
sI4411
g706
sI4412
g1080
sI4413
g1504
sI4414
g335
sI4415
g2711
sI4416
g4488
sI4417
g2709
sI4418
g3971
sI4419
g2594
sI4420
g579
sI4421
g92
sI4422
g311
sI4423
g832
sI4424
g102
sI4425
g1599
sI4426
g2943
sI4427
g3514
sI4428
g2588
sI4429
g2395
sI4430
g3399
sI4431
g2835
sI4432
g407
sI4433
g4561
sI4434
g3390
sI4435
g1539
sI4436
g2974
sI4437
g3609
sI4438
g3987
sI4439
g1472
sI4440
g3500
sI4441
g4544
sI4442
g1543
sI4443
g4114
sI4444
g3096
sI4445
g2296
sI4446
g3170
sI4447
g4522
sI4448
g4558
sI4449
g1323
sI4450
g687
sI4451
g1468
sI4452
g2586
sI4453
g3953
sI4454
g764
sI4455
g4019
sI4456
g3296
sI4457
g3652
sI4458
g4192
sI4459
g1799
sI4460
g502
sI4461
g3492
sI4462
g501
sI4463
g3549
sI4464
g2975
sI4465
g588
sI4466
g1365
sI4467
g613
sI4468
g2054
sI4469
g3411
sI4470
g4722
sI4471
g3470
sI4472
g3776
sI4473
g3342
sI4474
g513
sI4475
g377
sI4476
g332
sI4477
g3960
sI4478
g2655
sI4479
g88
sI4480
g1545
sI4481
g719
sI4482
g118
sI4483
g458
sI4484
g4355
sI4485
g3427
sI4486
g2514
sI4487
g3408
sI4488
g319
sI4489
g944
sI4490
g3220
sI4491
g3612
sI4492
g2542
sI4493
g230
sI4494
g246
sI4495
g277
sI4496
g627
sI4497
g4006
sI4498
g3335
sI4499
g826
sI4500
g3168
sI4501
g3324
sI4502
g293
sI4503
g3777
sI4504
g2164
sI4505
g3255
sI4506
g4699
sI4507
g1965
sI4508
g48
sI4509
g1035
sI4510
g4467
sI4511
g2272
sI4512
g3825
sI4513
g1613
sI4514
g2087
sI4515
g3712
sI4516
g2009
sI4517
g3601
sI4518
g3343
sI4519
g2859
sI4520
g4595
sI4521
g3978
sI4522
g2839
sI4523
g2786
sI4524
g3325
sI4525
g604
sI4526
g4335
sI4527
g2528
sI4528
g3703
sI4529
g3074
sI4530
g3391
sI4531
g1376
sI4532
g2746
sI4533
g509
sI4534
g3964
sI4535
g2386
sI4536
g346
sI4537
g1384
sI4538
g3992
sI4539
g2439
sI4540
g3640
sI4541
g4425
sI4542
g1097
sI4543
g2263
sI4544
g2037
sI4545
g4392
sI4546
g4140
sI4547
g1354
sI4548
g2429
sI4549
g1803
sI4550
g2293
sI4551
g690
sI4552
g1897
sI4553
g1557
sI4554
g2808
sI4555
g1550
sI4556
g2587
sI4557
g3624
sI4558
g3665
sI4559
g3483
sI4560
g4570
sI4561
g2366
sI4562
g3225
sI4563
g4011
sI4564
g1643
sI4565
g1832
sI4566
g242
sI4567
g4153
sI4568
g3276
sI4569
g4534
sI4570
g4243
sI4571
g1569
sI4572
g3186
sI4573
g4460
sI4574
g1160
sI4575
g2860
sI4576
g3278
sI4577
g2577
sI4578
g2950
sI4579
g2573
sI4580
g1787
sI4581
g3998
sI4582
g3075
sI4583
g841
sI4584
g4069
sI4585
g1431
sI4586
g437
sI4587
g3771
sI4588
g977
sI4589
g2278
sI4590
g3869
sI4591
g1157
sI4592
g3502
sI4593
g2978
sI4594
g2399
sI4595
g3584
sI4596
g4664
sI4597
g1909
sI4598
g4666
sI4599
g4692
sI4600
g1231
sI4601
g2545
sI4602
g2819
sI4603
g780
sI4604
g3494
sI4605
g1920
sI4606
g4089
sI4607
g557
sI4608
g1084
sI4609
g955
sI4610
g3822
sI4611
g2952
sI4612
g2796
sI4613
g2243
sI4614
g2893
sI4615
g3210
sI4616
g1138
sI4617
g4420
sI4618
g2856
sI4619
g2147
sI4620
g3382
sI4621
g3001
sI4622
g3171
sI4623
g4213
sI4624
g3945
sI4625
g4072
sI4626
g1581
sI4627
g1783
sI4628
g1425
sI4629
g1831
sI4630
g333
sI4631
g1313
sI4632
g3646
sI4633
g2779
sI4634
g2336
sI4635
g1878
sI4636
g3104
sI4637
g965
sI4638
g716
sI4639
g1751
sI4640
g3599
sI4641
g3576
sI4642
g4450
sI4643
g4145
sI4644
g4348
sI4645
g3014
sI4646
g1495
sI4647
g2375
sI4648
g1765
sI4649
g1628
sI4650
g1662
sI4651
g1686
sI4652
g4501
sI4653
g1070
sI4654
g4250
sI4655
g3252
sI4656
g620
sI4657
g1188
sI4658
g4439
sI4659
g766
sI4660
g2992
sI4661
g1163
sI4662
g134
sI4663
g1042
sI4664
g530
sI4665
g429
sI4666
g2055
sI4667
g1452
sI4668
g3223
sI4669
g4226
sI4670
g176
sI4671
g4389
sI4672
g2816
sI4673
g2690
sI4674
g2700
sI4675
g3392
sI4676
g1369
sI4677
g1608
sI4678
g1715
sI4679
g2476
sI4680
g2755
sI4681
g3434
sI4682
g1678
sI4683
g1646
sI4684
g325
sI4685
g2734
sI4686
g1328
sI4687
g1556
sI4688
g3478
sI4689
g545
sI4690
g2442
sI4691
g3129
sI4692
g2198
sI4693
g316
sI4694
g3109
sI4695
g1477
sI4696
g1661
sI4697
g4276
sI4698
g1716
sI4699
g3689
sI4700
g2313
sI4701
g3372
sI4702
g983
sI4703
g1845
sI4704
g4128
sI4705
g3030
sI4706
g1272
sI4707
g2945
sI4708
g101
sI4709
g2626
sI4710
g2713
sI4711
g3386
sI4712
g1529
sI4713
g4055
sI4714
g1730
sI4715
g3996
sI4716
g3927
sI4717
g3417
sI4718
g1449
sI4719
g323
sI4720
g1469
sI4721
g2521
sI4722
g315
sI4723
g4528
sI4724
g4165
sI4725
g3149
sI4726
g3048
sa.