(lp0
(dp1
VKasumi 98
p2
I0
sVGadisii
p3
I1
sVT. kawk
p4
I2
sVScopedog-rsc
p5
I3
sVLf2 - deep
p6
I4
sVLucky colt
p7
I5
sVFf mai shiranui
p8
I6
sVArmor Guts
p9
I7
sVHaohmaru EX
p10
I8
sVS.sinclair EX
p11
I9
sVIka musume
p12
I10
sVChar's z'gok
p13
I1844
sVScarecrow
p14
I12
sVSheep the royal
p15
I13
sVBuntaro EX
p16
I442
sVRyo
p17
I3829
sVBlack joker
p18
I14
sVMulan
p19
I15
sVSailor moon EX
p20
I2106
sVSledge
p21
I16
sVGuy mk ii
p22
I17
sVClaus
p23
I18
sVUltraman jack_a
p24
I19
sVHeavyarms custom
p25
I20
sVBlack polnareff
p26
I21
sVRonald
p27
I22
sVShigen
p28
I23
sVDhaos ND3
p29
I24
sVAzami
p30
I25
sVAruru(yuka)
p31
I27
sVKitsune
p32
I4873
sVBaltan
p33
I30
sVSheng long
p34
I31
sVWonderman
p35
I32
sVMordecai
p36
I3009
sVMakaryudo
p37
I4879
sVUzumaki naruto
p38
I4748
sVBonobono
p39
I34
sVWolfgang Krauser
p40
I1849
sVFakir
p41
I36
sVBlade
p42
I37
sVPocket Gouki
p43
I38
sVAoi matsubara
p44
I39
sVHiei
p45
I40
sVRoadsign
p46
I41
sVKeiji
p47
I2506
sVXenophage
p48
I42
sVThanoseid
p49
I43
sVDark karin EX2
p50
I4863
sVObsidian
p51
I4508
sVSammo-hacka
p52
I45
sVSakura Cosplay
p53
I4777
sVMister king
p54
I46
sVGoku ssj5 EX
p55
I4740
sVSion tatari EX2
p56
I47
sVKen EX3
p57
I255
sVPsyduck
p58
I49
sVSatsuki yumiduka
p59
I50
sVItachi uchiha nzc
p60
I51
sVThe batman
p61
I4178
sVEvil q
p62
I4273
sVMech zangief
p63
I1244
sVForte.exe
p64
I4208
sVRyuko
p65
I5014
sVBroli
p66
I3978
sVProfessor x
p67
I3863
sVThe mask
p68
I53
sVPeeking lord pirate
p69
I4946
sVPaul
p70
I54
sVRubette EX2
p71
I55
sVChar's zaku
p72
I56
sVDies irae
p73
I1853
sVBenimaru945
p74
I58
sVArrange_alice
p75
I1245
sVCrazy mukuro
p76
I60
sVShiki
p77
I61
sVKid gohan ssj1
p78
I1854
sVSatoko
p79
I63
sVChinese gouki
p80
I64
sVRiesbyfe stridberg
p81
I65
sVKinniku suguru
p82
I66
sVGen shougo
p83
I67
sVBloodrayne
p84
I68
sVKenpachi
p85
I3213
sVShizuka
p86
I70
sVTaki
p87
I1856
sVGideon
p88
I72
sVSegalow
p89
I73
sVSuper vegeta EX3
p90
I4158
sVRotom
p91
I75
sVShadow geist
p92
I1421
sVGrievous
p93
I76
sVReiji
p94
I77
sVDeath adder
p95
I3676
sVKohaku
p96
I78
sVZeus
p97
I4479
sVMokou fujiwara
p98
I1189
sVKim XIII
p99
I79
sVKung fu man neo
p100
I80
sVSyakoya
p101
I4421
sVLeo FM
p102
I81
sVGolrio
p103
I4182
sVDan mk ii
p104
I4864
sVDormammu-r
p105
I82
sVRamparudo
p106
I83
sVAkiko EX
p107
I4179
sVSachiko
p108
I84
sVShiki tohno
p109
I85
sVMech gouki
p110
I4708
sVSquirtle
p111
I4424
sVGanondorf
p112
I86
sVBc-sakura
p113
I87
sVEx-kyo
p114
I88
sVXiayu
p115
I89
sVEx-kyo(jin-typea)
p116
I90
sVLf2 - louis
p117
I3826
sVAltered Amiba
p118
I4001
sVHulk 2099
p119
I4166
sVG_orochi
p120
I2671
sVHato sabure
p121
I91
sVYuka
p122
I92
sVAtomos
p123
I93
sVAzure
p124
I94
sVValdoll
p125
I95
sVHonda ex
p126
I96
sVHancock EX
p127
I97
sVCustom sd luffy
p128
I98
sVSion tatari
p129
I3392
sVRanma saotome EX2
p130
I99
sVCaptain caveman
p131
I100
sVAkane inuwaka
p132
I101
sVShadow agent
p133
I3973
sVThe moon
p134
I102
sVElisabeth
p135
I103
sVGodzilla_ex
p136
I2518
sVSanada yukimura
p137
I4953
sVMike Tyson IWBTG
p138
I105
sVFff
p139
I106
sVRadel
p140
I107
sVBaby bonnie hood
p141
I108
sVYatteyaru-death
p142
I109
sVArchangel
p143
I110
sVGohan  grande normale
p144
I111
sVJet
p145
I112
sVKon
p146
I4662
sVMagic dunker EX FF
p147
I113
sVMadoka kaname_ai
p148
I115
sVKana-chan dhq
p149
I116
sVBraun
p150
I1865
sVArima_miyako
p151
I117
sVBou ken
p152
I118
sVToki 2
p153
I2521
sVBoon
p154
I119
sVM-gato
p155
I120
sVD.hibiki
p156
I121
sVAlessi
p157
I122
sVKou
p158
I123
sVKeion chan
p159
I3757
sVAlsa
p160
I124
sVNirvana
p161
I125
sVMiyako yoshika
p162
I126
sVZeppeli ex
p163
I127
sVCvs shiva
p164
I128
sVBoxer
p165
I3792
sVSailor jupiter EX2
p166
I129
sVSorluska EX2
p167
I130
sVDuck king EX2
p168
I4960
sVKarina toyota
p169
I131
sVA-green
p170
I2526
sVBack beard
p171
I2312
sVNarukana EX3
p172
I133
sVOgre
p173
I3029
sVApplejack
p174
I134
sVToro inoue
p175
I1775
sVMichaelangelo
p176
I135
sVSailor chibi moon
p177
I136
sVRaptor
p178
I137
sVLeon c
p179
I138
sVSquall EX2
p180
I3645
sVRyoko kano EX2
p181
I2912
sVHarley quinn
p182
I4278
sVCci shermie
p183
I139
sVHoimislime
p184
I140
sVShadow x
p185
I141
sVPaprika
p186
I142
sVKain
p187
I908
sVTurf EX3
p188
I144
sVKool aid man
p189
I4037
sVDooj mustachio
p190
I145
sVVega 2
p191
I4792
sV95
p192
I3914
sVRenna
p193
I3228
sVGouki x
p194
I148
sVMery
p195
I149
sVGuy CVS
p196
I150
sVKatakura kojuro
p197
I151
sVWalkure
p198
I152
sVButtercup DG
p199
I153
sVDeadpool mvc3
p200
I154
sVPrizm-star
p201
I155
sVMu 12
p202
I997
sVHitosyura ex
p203
I157
sVTas_ken
p204
I4786
sVPopeye
p205
I158
sVMarona(beta)
p206
I159
sVGundam rx-78 gp02a
p207
I160
sVZatracenie EX2
p208
I1876
sVDevilch
p209
I162
sVFireman EX3
p210
I3557
sVMotaro
p211
I4175
sVWasp
p212
I163
sVTokiko EX2
p213
I164
sVMasked rider ryuki(emanon)
p214
I1877
sVEx keine
p215
I166
sVPresea combatir
p216
I167
sVBilly kane ffsp
p217
I168
sVRuby heart mvc3
p218
I169
sVKonan
p219
I3232
sVDiba
p220
I1879
sVUroboros
p221
I170
sVRoyal air king
p222
I362
sVRyo EX3
p223
I4917
sVMargaretha_solin
p224
I171
sVMasaki anzu
p225
I172
sVMiduma EX3
p226
I173
sVRera EX3
p227
I174
sVShadow EX3
p228
I175
sVEagle
p229
I176
sVKuma CVS
p230
I177
sVSpace warrior
p231
I3235
sVShiori misaka
p232
I178
sVKai
p233
I179
sVApollo
p234
I180
sVMami EX
p235
I181
sVBebum ryo
p236
I2903
sVRokurouta
p237
I182
sVMokou EX H
p238
I183
sVMiranda
p239
I185
sVIronman
p240
I186
sVKay
p241
I187
sVRock volnutt
p242
I188
sVSub-zero
p243
I189
sVMongori EX
p244
I190
sVWily
p245
I191
sVMarian
p246
I192
sVShadow kouma
p247
I194
sVNoel
p248
I3918
sVEharu EX3
p249
I196
sVDokuo_ver1.39
p250
I4493
sVAkai maho
p251
I4734
sVSa-x
p252
I197
sVCatwoman EX
p253
I198
sVReal gloria
p254
I199
sVOjisama-chaos
p255
I4994
sVCarlos
p256
I200
sVHibiki-san
p257
I626
sVPerfect cell
p258
I3042
sVNanaya toki
p259
I202
sVCloud (3d)
p260
I203
sVIdaten
p261
I204
sVMulchi fe
p262
I205
sVDhalsims
p263
I206
sVAoba EX2
p264
I207
sVDeluxe lucia fernandez
p265
I4566
sVBobby mk ii
p266
I208
sVBlack widow EX
p267
I209
sVMomasusta
p268
I4494
sVSpy larue e
p269
I210
sVPerson-lichkeit
p270
I211
sVKensou EX3
p271
I4221
sVEdward elrick
p272
I2650
sVIrene
p273
I212
sVArrange_godzilla
p274
I213
sVUltraman_a
p275
I214
sVBilly kane
p276
I215
sVVixen
p277
I3242
sVTamao mitsurugi
p278
I216
sVHiguresan
p279
I217
sVAngela belti
p280
I218
sVElektra
p281
I219
sVKen X
p282
I4004
sVMomo-len_ver1.39
p283
I221
sVMade multi
p284
I222
sVRock howard EX2
p285
I223
sVGen sfa
p286
I224
sVMawile
p287
I1889
sVShuma
p288
I225
sVMain Man Knuckles
p289
I226
sVSalty Goku GT
p290
I227
sVNakoruru EX2
p291
I228
sVNakoruru EX3
p292
I229
sVKlaus garcia
p293
I230
sVP tabasa
p294
I4394
sVGaira
p295
I231
sV'gou no ken' kenshirou
p296
I232
sVWarachia
p297
I3877
sVVidel fight money
p298
I233
sVRoy wilson
p299
I234
sVHerb
p300
I235
sVEl_yukari
p301
I4495
sVKyo 98
p302
I236
sVDiyaa man
p303
I237
sVKiller whale
p304
I238
sVOgre akuma
p305
I239
sVKotiya sanae
p306
I240
sVMike macho haggar
p307
I74
sVDora
p308
I4236
sVEmerald
p309
I242
sVTensi
p310
I243
sVRaoh sai
p311
I244
sVF.killerbee
p312
I245
sVBrunestud arcueid
p313
I246
sVToron
p314
I247
sVMugen de saikyou no lemirya
p315
I4388
sVKasumi ex
p316
I4502
sVDitto
p317
I248
sVAnthony hawk
p318
I249
sVKliff
p319
I250
sVSandrock
p320
I2172
sVGundamexia
p321
I3133
sVSeth
p322
I252
sVKung fu man v-ism
p323
I253
sVRyofu
p324
I254
sVBroly
p325
I48
sVIceman
p326
I3989
sVWeregarurumon
p327
I257
sVFangore
p328
I2556
sVJamm
p329
I259
sVNameless
p330
I260
sVDuke nukem
p331
I261
sVTamika
p332
I4755
sVBuront
p333
I262
sVCustom ssfiv abel
p334
I263
sVKirigamine kiriko
p335
I4228
sVGohan zeta
p336
I3913
sVKikyo_ex
p337
I264
sVSmall ryu EX3
p338
I4722
sVShikamaru nara
p339
I4693
sVWind-se
p340
I266
sVSuper vegetto ag
p341
I267
sVYoshimitsu
p342
I4488
sVDerp
p343
I268
sVShandera-k
p344
I269
sV<> ( 0)<>/2
p345
I270
sVDizzy
p346
I4719
sVWarlock-k
p347
I4524
sVRainbow
p348
I4684
sVCheep-chomp
p349
I272
sVUm-krizalid-2k1
p350
I273
sVTiger EX
p351
I2171
sVMaxima EX3
p352
I274
sVOotani reimu
p353
I275
sVVaisaga
p354
I276
sVCursehead
p355
I1900
sVBsb ridley
p356
I277
sVGen
p357
I3531
sVStevareno
p358
I278
sVBilly two moons (jp)
p359
I279
sVTenkochan EX
p360
I3562
sVBrocken
p361
I280
sVScorpion EX2
p362
I281
sVScorpion EX3
p363
I282
sVSyo hayate EX
p364
I283
sVElisabeth EX3
p365
I284
sVPlok
p366
I285
sVAzusa
p367
I286
sVN.boss
p368
I287
sVBra 18
p369
I4536
sVDeidara nzc
p370
I288
sVHyperbattlecyborg
p371
I289
sVHydron
p372
I290
sVPsychociel
p373
I2180
sVWashizuka b style
p374
I291
sVKatana
p375
I292
sVSylveon_var1
p376
I2717
sVDhaos
p377
I2971
sVChun-lee dark bolt
p378
I294
sVMelusine
p379
I295
sVGertrud
p380
I2858
sVMajin boo EX3
p381
I296
sVHiedano akyu
p382
I297
sVKinu_ex
p383
I298
sVUmvc_youmu
p384
I299
sVKing ghidorah
p385
I300
sVMiyuki
p386
I301
sVImagine breaker
p387
I4955
sVGoku z2
p388
I302
sVAisha
p389
I304
sVGaits z
p390
I2703
sVShizumaru ex
p391
I305
sVBirdie EX3
p392
I3690
sVRei ayanami
p393
I307
sVMai 2k2
p394
I308
sVSuzuki megumi
p395
I309
sVRozaly
p396
I310
sVUnkoman
p397
I311
sVMaori
p398
I3266
sVRimle
p399
I313
sVJackie Drunken Fist
p400
I314
sVMature
p401
I315
sVFrankenroid
p402
I316
sVKiki de appendix
p403
I317
sVEvil homer
p404
I318
sVCyborg_d-9f
p405
I319
sVEl stinger
p406
I3802
sVHanayama
p407
I4555
sVCheatman
p408
I320
sVChan
p409
I3940
sVRaoh
p410
I323
sVNair
p411
I4398
sVNail
p412
I324
sVSoma cruz ex
p413
I325
sVDeluxe tetsu yatogi
p414
I3939
sVSpacemouse deluxe
p415
I1283
sVGaira EX2
p416
I326
sVTruck
p417
I4106
sVSilversamurai mvc2
p418
I4010
sVDark baltan
p419
I2571
sVTeoc reisen
p420
I328
sVStoneaxe
p421
I329
sVBekkamu2
p422
I330
sVTokinomiya kamui EX3
p423
I1284
sVCci kim
p424
I332
sVBridget
p425
I333
sVDark eternal champion
p426
I1909
sVDuo lon
p427
I1285
sVCammy
p428
I336
sVTotoro
p429
I2573
sVGod_gundom
p430
I338
sVJin saotome
p431
I339
sVKill bill gogo
p432
I340
sVMayor of earth
p433
I4432
sVRikard
p434
I341
sVGaisei
p435
I3250
sVGoat_b
p436
I342
sVRalf
p437
I343
sVRugagaga!!
p438
I344
sVJudgment EX3
p439
I345
sVSonic
p440
I346
sVYumeji kurokouchi
p441
I347
sVYuiren
p442
I348
sVBimmy Lee
p443
I349
sVSeth EX3
p444
I350
sVKizaru borsalino
p445
I2349
sVMirror cube square
p446
I351
sVVile EX3
p447
I352
sVAthena asamiya
p448
I3888
sVHatate_himekaidou
p449
I2576
sVGochack bigbomb
p450
I4738
sVGohan saiya-jin ex
p451
I2833
sVHomura & friends
p452
I354
sVG silver
p453
I356
sVNegative shin
p454
I4218
sVJudgment
p455
I357
sVPhobos(yanagi_ai)
p456
I4665
sVZuepia
p457
I4094
sVKen IV
p458
I4931
sVLilly kane
p459
I359
sVLady aozaki
p460
I360
sVThe flash
p461
I361
sVSoujiro EX3
p462
I4633
sVBroly lssj3
p463
I4586
sVKnucks
p464
I4923
sVKyle the squirtle
p465
I4820
sVE Ken
p466
I4006
sVStorm-owl
p467
I363
sVFurudo_erika
p468
I364
sVDonkeykongjr EX
p469
I365
sVGuile cvs2
p470
I366
sVNise athena
p471
I367
sVVanillaIce
p472
I368
sVK joker
p473
I3960
sVMakoto sawatari
p474
I369
sVSpelenker
p475
I4957
sVUltraman dyna_a
p476
I371
sVNatasha
p477
I372
sVRyugen
p478
I1915
sVLegion EX3
p479
I375
sVA-unagi
p480
I376
sVA-kain
p481
I377
sVFinn and jake
p482
I378
sVKazami yuka_ns
p483
I379
sVDead kung fu man EX3
p484
I4483
sVMiroku
p485
I380
sVWarmachine MVC2
p486
I381
sVYoumu konpaku
p487
I382
sVDouble_sword
p488
I4965
sVOrochi(rance)
p489
I383
sVGloria EX3
p490
I384
sVSimon Belmondo
p491
I4521
sVSonson
p492
I385
sVVenom GG
p493
I386
sVHeavyarms
p494
I3837
sVAlex_a
p495
I387
sVCody EX
p496
I388
sVLililen
p497
I389
sVOverlord
p498
I4321
sVBender
p499
I390
sVLf2 - dennis
p500
I391
sVMs.valliere
p501
I392
sVJotaro kujo
p502
I4214
sVZoma ga
p503
I4822
sVStake
p504
I394
sVDhaos PS
p505
I3283
sV98
p506
I143
sVShocker
p507
I395
sVBishop
p508
I3381
sVNeodio
p509
I3284
sVKyoko_sakura EX
p510
I4067
sVJunichi
p511
I397
sVCharlie EX3
p512
I398
sVIvonne
p513
I399
sVGiron
p514
I447
sVDiggle
p515
I2261
sVBaki-hanma EX3
p516
I400
sVEddie DD
p517
I401
sVBane
p518
I4164
sVBlackheart
p519
I402
sVBang
p520
I403
sVHokutomaru
p521
I404
sVCpt. falcon
p522
I1295
sVEgg chamber
p523
I406
sVAsh
p524
I407
sVOmega
p525
I408
sVKoishi_b EX3
p526
I409
sVLf2 - woody
p527
I4468
sVThouther 2
p528
I410
sVKnight
p529
I411
sVRadish ssj4
p530
I4756
sVGold lightan
p531
I4462
sVLucy
p532
I4460
sVCecil_damon
p533
I413
sVUltraman tarou
p534
I414
sVQb
p535
I415
sVPikopiko
p536
I4153
sVCaptain america
p537
I4240
sVWalkyrie
p538
I416
sVRei chibi
p539
I1925
sVRosemary
p540
I4945
sVEve EX3
p541
I4540
sVRugal b. EX
p542
I417
sVCobra
p543
I418
sVTumbleweed
p544
I419
sVRasputin
p545
I4474
sVGuldo
p546
I1228
sVFaydal
p547
I422
sVMetal mario
p548
I423
sVRoomi
p549
I424
sVChameleon DS
p550
I4337
sVOmega_rugal EX
p551
I425
sVThirteen
p552
I4964
sVNarukana
p553
I426
sVReisen-e
p554
I3290
sVStraight cougar
p555
I428
sVAcid
p556
I429
sVDevil_daigo EX
p557
I430
sVMaster ken
p558
I4072
sVSorami
p559
I4128
sVSilkheart
p560
I4899
sVNeff
p561
I433
sVMini zeroko
p562
I434
sVHybrid form sula
p563
I4664
sVAnny
p564
I4924
sVWild.o.yashiro
p565
I3680
sVRughadjeen
p566
I437
sVKung flappy man
p567
I438
sVBriaaaaaaaaaaaaaaaaan ex
p568
I3980
sVClark steel
p569
I439
sVBarbarccia
p570
I440
sVLex luthor
p571
I441
sVAnne
p572
I4860
sVBarts EX3
p573
I4100
sVServbot
p574
I444
sVMike bison
p575
I4081
sVWally West
p576
I445
sVRuquia ex
p577
I3459
sVLi xiangfei
p578
I446
sVBurai yamamoto
p579
I4689
sVUltra ssj5 vegeta
p580
I2958
sVBig
p581
I4260
sVYamazaki 71113
p582
I448
sVSailor venus k
p583
I4367
sVSodom sfa
p584
I450
sVCharlotte Aulin
p585
I451
sVNanaya shiki
p586
I4207
sVFlonne
p587
I358
sVAnimus
p588
I4027
sVEcoco EX3
p589
I453
sVOyashirorika
p590
I454
sVDaiyousei_hsts
p591
I455
sVLt.kurosawa EX
p592
I4051
sVPepsi man
p593
I456
sVGorimaru jr
p594
I457
sVGardevoir EX3
p595
I458
sVYui
p596
I2956
sVYashiro 2k2
p597
I4725
sVGigapowier loves dark ruler
p598
I459
sVFelicueid
p599
I460
sVNana diclonius
p600
I4009
sVDate masamune_ch
p601
I461
sVRen idagawa
p602
I462
sVKszsk-shuko
p603
I463
sVErmac mk2
p604
I464
sVYuusuke
p605
I466
sVRosa_obsn
p606
I4893
sVLegendary super saiyan akuma
p607
I467
sVDark donald
p608
I4581
sVNaruto kun
p609
I3862
sVLyndis
p610
I1933
sVX
p611
I469
sVViolent dan
p612
I471
sVAoko 7thmoonstyle
p613
I472
sVTsubaki yayoi
p614
I4420
sVBatista
p615
I474
sVWild ken ex
p616
I475
sVShiki nanaya
p617
I476
sVAccelerator
p618
I3299
sVYou are already dead
p619
I477
sVYuki ex EX3
p620
I478
sVFire sonic
p621
I4465
sVRyoko asakura
p622
I479
sVJabu
p623
I480
sVSakuya izayoi EX3
p624
I481
sVElirin EX3
p625
I482
sVRin
p626
I483
sVKarai EX2
p627
I484
sVLegendary super saiyan
p628
I485
sVSailor venus EX2
p629
I486
sVEvil kung fu man mkii
p630
I4362
sVMiu_kurosaki
p631
I4265
sVJoe higashi
p632
I487
sVSaishu
p633
I488
sVOtane
p634
I4561
sVNishiura baseball`s
p635
I489
sVDarth vader
p636
I490
sVLin EX
p637
I4525
sVMaster toadman
p638
I492
sVM-griffon
p639
I3472
sVHikaru
p640
I493
sVYashiro EX2
p641
I494
sVDoge
p642
I3947
sVSakura EX3
p643
I2972
sVTheskiver
p644
I4290
sVSonic EX3
p645
I3249
sVKaioh-retsu
p646
I495
sVMr. buu
p647
I496
sVZorororonoa
p648
I4467
sVGn-pioneer
p649
I497
sVBlack_k'
p650
I498
sVNatsuka fuou
p651
I499
sVCocodrilo
p652
I4869
sVMissingnumber
p653
I500
sVUfo
p654
I501
sVThe joker
p655
I3993
sVFliz
p656
I4656
sVTatsuki Arisawa
p657
I3301
sVSheeva
p658
I503
sVKamui EX3
p659
I504
sVRasho-zero
p660
I505
sVLee f22
p661
I506
sVMilan flare
p662
I507
sVPulseman
p663
I4496
sVMeep140 s-type
p664
I4497
sVHayato
p665
I510
sVJyashinsai
p666
I781
sVDrew 0D
p667
I512
sVCyborg t-8p
p668
I513
sVDragon EX3
p669
I3303
sVSuika
p670
I515
sVTarnished ryu
p671
I516
sVKnuckles custom
p672
I517
sVChonshu ex
p673
I518
sVTios
p674
I519
sVGulool ja ja
p675
I520
sVChrome dome
p676
I959
sVKoopa troopa djhr
p677
I521
sVTheThing
p678
I4835
sVDragon EX
p679
I522
sVAkiha tohno EX
p680
I523
sVTakuma 2002
p681
I524
sVG-adelhell
p682
I4753
sVAgent p
p683
I526
sVK_reimu
p684
I527
sVNeku sakuraba
p685
I528
sVYaminavenom
p686
I4956
sVBlack magician girl
p687
I3359
sVS-kishima_kouma
p688
I529
sVGoten gt nex
p689
I4804
sVHong krizalid
p690
I530
sVBasilisk-s[0.98]
p691
I531
sVTretista-kelverian
p692
I532
sVHauzer
p693
I3732
sVTamamo-no-mae
p694
I533
sVDemitri
p695
I534
sVCruelty blood arcueid
p696
I535
sVZidane
p697
I536
sVMaster lue
p698
I1943
sVRage rock ex
p699
I3308
sVGundam zeta
p700
I3314
sVChiester410
p701
I538
sVSaki-mvc
p702
I540
sVKatsura kotonoha
p703
I541
sVGadis
p704
I542
sVRyuken
p705
I1973
sVT ninja
p706
I3911
sVKohaku vp EX3
p707
I543
sVSakuya_swr
p708
I4193
sVKimala the bouncer
p709
I544
sVAnge EX3
p710
I545
sVCell junior
p711
I4456
sVLf2 - louisx
p712
I2175
sVWhip
p713
I546
sVS-tomy
p714
I3497
sVLoud Demon M1
p715
I4345
sVKim hoon EX FF
p716
I547
sVDokuganp
p717
I548
sVDespero
p718
I549
sVTakuma945 EX3
p719
I550
sVVergil
p720
I551
sVDoraemon
p721
I553
sVZangief sf4
p722
I2875
sVPeach mizuki
p723
I554
sVCondor heads
p724
I555
sVGaap
p725
I556
sVFlan-b
p726
I557
sVNumber muncher
p727
I1947
sVUmvc_redarcueid
p728
I2238
sVShaoran lee
p729
I560
sVRyo 98
p730
I561
sVAstro
p731
I2621
sVTf2 - sniper
p732
I563
sVBlue suede goo
p733
I4450
sVRugal bernstein
p734
I564
sVRobert nbc
p735
I565
sVChaves
p736
I4551
sVDao-long
p737
I28
sVBattle mahoro EX
p738
I567
sVSuperpez
p739
I568
sVLio convoy
p740
I569
sVKatima
p741
I570
sVEvil Ryu SF4
p742
I571
sVZodd
p743
I572
sVGray fly
p744
I573
sVWatern
p745
I574
sVKyle broflovski
p746
I575
sVMarrow
p747
I576
sVRaidou EX
p748
I4020
sVZabi
p749
I1951
sVYusuke urameshi
p750
I2714
sVRockman x EX2
p751
I578
sVKasai
p752
I579
sVMephisto
p753
I4411
sVJazz EX3
p754
I581
sVKomepo
p755
I3854
sVFire heart
p756
I583
sVGalivan
p757
I584
sVR.mika
p758
I585
sVSoul ninja mk2
p759
I293
sVKnuckles EX3
p760
I587
sVDonovan
p761
I588
sVYang
p762
I4638
sVPan transform
p763
I589
sVDirtyfat
p764
I4219
sVDialog
p765
I4481
sVCurfue
p766
I4310
sVEarth-suika
p767
I590
sVZoro roronoa
p768
I591
sVMaxima ex
p769
I592
sVSolisr8000
p770
I4190
sVOmanyte EX3
p771
I593
sVReal zeroko
p772
I594
sVReimu hakurei EX
p773
I4306
sVRai ex
p774
I595
sVAku-amakusa
p775
I596
sVYukari yakumo
p776
I597
sVAnother kyo
p777
I598
sVDorniar ex
p778
I599
sVZatracenie
p779
I600
sVNega peach
p780
I601
sVBelmont trusdale
p781
I602
sVCless
p782
I603
sVAl azif
p783
I4028
sVMax eagle
p784
I605
sVMetagang
p785
I4202
sVAyane_ikuse EX
p786
I606
sVRighteous ken
p787
I607
sVXehrnyth
p788
I608
sVRenamon Dv2
p789
I609
sVSaku EX2
p790
I610
sVMongul
p791
I611
sVThe kung fu man
p792
I612
sVSamwell han
p793
I613
sVMarco EX
p794
I4802
sVRyuho
p795
I615
sVTerry rogers
p796
I3177
sVSpiral
p797
I616
sVDevil daimajin
p798
I617
sVNanaya_reaver
p799
I618
sVYurika kirishima
p800
I619
sVFranky CM
p801
I4767
sVArmor lord
p802
I4983
sVBig bomberder
p803
I620
sVProfessor farnsworth
p804
I621
sVThe atom
p805
I622
sVNagaoka shiho
p806
I3322
sVD EX
p807
I624
sVBizarro
p808
I4647
sVElectro
p809
I4993
sVHimegami aisa
p810
I625
sVRobert garcia EX2
p811
I4454
sVZappa
p812
I1959
sVJill roberts
p813
I4659
sVDracula
p814
I628
sVShinsaku maekawa
p815
I629
sV250% b.weapon
p816
I2986
sVKaku
p817
I525
sVB-cirno
p818
I630
sVSnoopy
p819
I631
sVJames
p820
I632
sVFiona mayfield
p821
I4217
sVAlakazam
p822
I634
sVAkainu sakazuki
p823
I1325
sVPateta
p824
I3192
sVGoku
p825
I636
sVHonedge
p826
I637
sVMo-mo-
p827
I638
sVMajin vegeta ssj6
p828
I1326
sVZankuro EX2
p829
I639
sVRin EX2
p830
I640
sVDio S
p831
I1962
sVKyoudou senna
p832
I4259
sVJoe higashi EX3
p833
I642
sV(sman)
p834
I4264
sVRouwe EX3
p835
I643
sVItoko
p836
I644
sVFenice
p837
I645
sVHinako shijo
p838
I646
sVFaust
p839
I647
sVUltraman gaia
p840
I648
sVDemonica
p841
I4954
sVCaptain ginyu
p842
I649
sVZeid
p843
I4941
sVLugia
p844
I3920
sVDiablo_skeleton EX3
p845
I651
sVGreen lantern lucario
p846
I4172
sVLayzner_tyanko ai
p847
I653
sVNu 13
p848
I654
sVTyoukesin EX3
p849
I4160
sVSarashina
p850
I2639
sVMina
p851
I656
sVKazama
p852
I1329
sVClown
p853
I2887
sVKasumi todo
p854
I658
sVCap.com
p855
I4930
sVMokey d. luffy
p856
I660
sVBiscuit-oliva
p857
I661
sVRio hinayama
p858
I662
sVCondor EX
p859
I664
sVMiacis
p860
I665
sVMint
p861
I4073
sVOmega_rugal
p862
I1330
sVUme_age18
p863
I2640
sVTao jun
p864
I4305
sVCaptain atlantis
p865
I4476
sVDaigo ken
p866
I669
sVMagatu
p867
I1438
sVPogo
p868
I670
sVLuke cage
p869
I671
sVSpitfire_m
p870
I672
sVThe blob
p871
I4891
sVOx
p872
I2642
sVChintao
p873
I3712
sVSerika EX2
p874
I4535
sVMoyomoto
p875
I4499
sVF_gills
p876
I674
sVKubikiri basara EX
p877
I675
sVKarate kenji dhq
p878
I676
sVCaster_extra
p879
I4847
sVGet in the robot you idiot
p880
I3670
sVIroha
p881
I677
sVW.nut
p882
I678
sVFreedom -meteor-
p883
I4423
sVChiyo-chichi
p884
I3336
sVKen MVC3
p885
I679
sVG rugal CVS
p886
I511
sVUkyo tachibana EX3
p887
I1062
sVNinja EX3
p888
I682
sVSaber
p889
I683
sVMai-ling
p890
I684
sVGundam double zeta
p891
I685
sVTrident
p892
I4796
sVShin gouki
p893
I687
sVDiglett
p894
I4583
sVWing
p895
I688
sVZeroko
p896
I4859
sVRyoko(fhd)
p897
I3664
sVKurokishi
p898
I689
sVReika
p899
I4071
sVGai
p900
I4948
sVYu-by
p901
I691
sVVakishim
p902
I692
sVBushou
p903
I1337
sVReiko
p904
I694
sVGrappler shiki
p905
I695
sVVegeta z2
p906
I696
sVMr.karate EX3
p907
I697
sVShang tsung
p908
I698
sVEpyon
p909
I699
sVSuperkouji
p910
I5001
sVAstranalent
p911
I4817
sVGotenks ssj EX
p912
I3342
sVHeat man
p913
I701
sVZeorymer
p914
I702
sVMudman_n
p915
I703
sVIyo
p916
I4033
sVSpider-carnage
p917
I704
sVLeona xiii
p918
I705
sVAlice
p919
I706
sVCorona
p920
I707
sVKuuga
p921
I4163
sVFatter Albert
p922
I4159
sVAquaman
p923
I708
sVKobun 43
p924
I4143
sVUltraman tiga
p925
I3899
sVVegeta ssj3
p926
I2177
sVLancer
p927
I709
sVCustom experimental trf2 beatrice
p928
I710
sVNeco-arc
p929
I711
sVBrokken
p930
I712
sVHeart
p931
I713
sVYami_miko EX
p932
I714
sVChrysalis
p933
I715
sVHitosyura
p934
I716
sVYusha30
p935
I717
sVScolipede
p936
I4972
sVMr.ganon
p937
I718
sVD-rugal EX3
p938
I719
sVR. lilith
p939
I721
sVAkiha EX
p940
I722
sVRouga zanma
p941
I723
sVRozwel
p942
I3902
sVPatchouli_k
p943
I725
sVFlea
p944
I4982
sVBubblum
p945
I726
sVKyosuke shigure
p946
I2845
sVSonans
p947
I728
sVWing gundam zero custom
p948
I4745
sVSentinel
p949
I3288
sVBai-hu EX
p950
I730
sVShishiwakamaru
p951
I731
sVGuerrero divino del dragn
p952
I732
sVSquidward
p953
I733
sVShinzero
p954
I734
sVOnodera ren
p955
I735
sVSuija
p956
I736
sVA-ko
p957
I737
sVGouken
p958
I4279
sVTrainheartnet
p959
I3784
sVPopura
p960
I830
sVSumiremaru
p961
I739
sVAlissa
p962
I740
sVDeluxe may
p963
I741
sVMahvel ken
p964
I742
sVTina
p965
I743
sVFenri-lunaedge
p966
I745
sVSamchay ex
p967
I746
sVIrori EX3
p968
I747
sVMonami ogura
p969
I748
sVSion(coh)
p970
I749
sVGardevoir dx
p971
I750
sVDante M
p972
I751
sVCube
p973
I752
sVWyler xi ver
p974
I2901
sVLee
p975
I753
sVLiu-kang
p976
I754
sVBenimaru EX
p977
I755
sVPikaman
p978
I4198
sVE.honda sf2
p979
I757
sVMr.satan EX3
p980
I2663
sVRumia
p981
I758
sVUltraman tiga_a
p982
I4401
sVLiza
p983
I760
sVDaffy duck
p984
I4787
sVShampoo
p985
I3677
sVAlucard RAI
p986
I940
sVOboromaru
p987
I763
sVGogeta ssj4
p988
I764
sVBardock EX3
p989
I4473
sVAkashi_kaoru
p990
I765
sVKohaku K
p991
I2798
sVSirohime
p992
I4743
sVThe real doom
p993
I766
sVCola Fe
p994
I767
sVChiko
p995
I727
sVDudley K
p996
I769
sVRemy
p997
I3992
sVYui_kutuna EX
p998
I771
sVAlien guts(blue_no9)
p999
I772
sVFalse valkyrie
p1000
I773
sVSean matsuda
p1001
I4201
sVHotaride
p1002
I1349
sVRacheal mc
p1003
I775
sVSun god
p1004
I776
sVS_youmu
p1005
I1981
sVK EX
p1006
I777
sVCaptain marvell
p1007
I4889
sVRemi
p1008
I1040
sVJack turner ex
p1009
I779
sVOmega Cloud Strife
p1010
I4255
sVJulius emery
p1011
I780
sVH_witch
p1012
I4489
sVKain blade
p1013
I4706
sVBonobono EX3
p1014
I4810
sVRobo-jam
p1015
I1066
sVBuroli
p1016
I784
sVRugal.b
p1017
I1073
sVMiko EX
p1018
I786
sVTamtam
p1019
I787
sVReproduction gogeta
p1020
I788
sVTakuma945
p1021
I789
sVAyane wp
p1022
I790
sVBig chicken
p1023
I791
sVIchi
p1024
I792
sVKyouki
p1025
I793
sVCiel EX3
p1026
I794
sVDream v
p1027
I795
sVKung fu master
p1028
I796
sVSetsuna
p1029
I797
sVRindou
p1030
I4338
sVC3po & r2d2
p1031
I798
sVDurian
p1032
I4637
sVByakuren hijiri
p1033
I4301
sVMako
p1034
I799
sVKousonsyou
p1035
I4291
sVKunio kun
p1036
I4968
sVUrien
p1037
I3984
sVOrochimaru EX3
p1038
I4980
sVOpirus element
p1039
I801
sVHybrid
p1040
I802
sVRan yakumo
p1041
I4728
sVInsane hiryu
p1042
I804
sVMiyuki EX
p1043
I3966
sVSonya
p1044
I805
sVVegeta gt
p1045
I806
sVGamera
p1046
I4588
sVSorluska
p1047
I808
sVYuna
p1048
I809
sVMarvel Marrow
p1049
I1232
sVShimakaze
p1050
I3364
sVWhite len EX
p1051
I1248
sVToki
p1052
I4127
sVCapmurica
p1053
I812
sVEmily barnet
p1054
I813
sVChameleon
p1055
I814
sVMaster barnes
p1056
I2634
sVNeo dio
p1057
I815
sVKenpachi zaraki
p1058
I4966
sVSonGohan
p1059
I816
sVReisen_swr
p1060
I3983
sVSatsujinki EX3
p1061
I817
sVIggy ex
p1062
I818
sVEx-malin
p1063
I4814
sVMr.heart
p1064
I820
sVMature CVS
p1065
I821
sVShar-makai
p1066
I822
sVBonus kun EX2
p1067
I823
sVKung fu girl
p1068
I824
sVSppaman
p1069
I825
sVKagami ex
p1070
I826
sVJazu EX3
p1071
I827
sVSodom
p1072
I4050
sVSuwako
p1073
I828
sVSion_tatari
p1074
I829
sVNamek gohan
p1075
I831
sVRocky
p1076
I832
sVRugal CVS
p1077
I833
sVBlack zero
p1078
I3912
sVKingbehinnmoth
p1079
I835
sVMohikan
p1080
I836
sVRedking
p1081
I837
sVPsychotic ryu
p1082
I838
sVPopeye the sailor
p1083
I839
sVMaster god ken
p1084
I4038
sVStan
p1085
I841
sVMagma-dragoon
p1086
I842
sVGundam epyon
p1087
I2528
sVKim kaphwan EX3
p1088
I843
sVJack lantern EX3
p1089
I844
sVEric cartman
p1090
I3768
sVMars people EX3
p1091
I845
sVCutman
p1092
I1384
sVHyper neo-kamek EX3
p1093
I2667
sVPractice Vegeta
p1094
I848
sVDarkwing duck
p1095
I849
sVReptos
p1096
I4757
sVCyberwarren
p1097
I850
sVNobuko(emanon)
p1098
I1992
sVRey mysterio
p1099
I852
sVBriaaaaaaaaaaaaaaaaan
p1100
I853
sVBarbatos_goetia
p1101
I854
sVKathumi orochi
p1102
I855
sVJay garrick
p1103
I856
sVFranko
p1104
I857
sVWhite Buffalo M1
p1105
I858
sVSquall JP
p1106
I859
sVHe-man
p1107
I4509
sVEx snow
p1108
I2668
sVBattle dome
p1109
I861
sVMike EX2
p1110
I4772
sVZ-akuma EX
p1111
I1994
sVEvil barney
p1112
I863
sVMegu asuhara
p1113
I864
sVMonkey.d.luffy
p1114
I865
sVKyko
p1115
I4663
sVJinbei
p1116
I4606
sVMashiro
p1117
I867
sVNanaya-kamen
p1118
I4316
sVCustom-bsreimu
p1119
I4059
sVDemiurgos
p1120
I1218
sVProject_f
p1121
I681
sVEiji EX3
p1122
I870
sVSeth ex
p1123
I2672
sVRaiya
p1124
I4247
sVShiranui mai
p1125
I4144
sVRouge unsou
p1126
I872
sVMadiesha
p1127
I4056
sVNeco chaos
p1128
I4809
sVSoulgen
p1129
I873
sVShin eddie
p1130
I874
sVAsutorea
p1131
I875
sVMiki sayaka
p1132
I4866
sVMrheart
p1133
I876
sVAdon
p1134
I4364
sVRajaayuri
p1135
I877
sVCci jhun
p1136
I878
sVAdom
p1137
I4185
sVMai-ling EX
p1138
I879
sVSuper Skrull MVC
p1139
I880
sVGrand superior ultimate man
p1140
I1999
sVAndrew
p1141
I882
sVZantetsu ex
p1142
I883
sVTyssa willing
p1143
I2674
sVKhan ex
p1144
I4729
sVM-e-reptos
p1145
I4653
sVBrian griffin
p1146
I885
sVGrebam EX
p1147
I886
sVDeath force
p1148
I888
sVRila
p1149
I1367
sVNecoarc_abyss
p1150
I890
sVKanna
p1151
I891
sVJoker EX3
p1152
I892
sVAtomic dust amiba
p1153
I4412
sVDaisy dw
p1154
I893
sVHarman
p1155
I895
sVUzaku
p1156
I4608
sVJhons lee EX3
p1157
I896
sVNightmare the jujin lv3
p1158
I897
sVChaos hiryu
p1159
I898
sVKazuma EX
p1160
I899
sVRequiem giorno(amaai)
p1161
I900
sVKazu
p1162
I901
sVMamiya EX
p1163
I902
sVWif
p1164
I903
sVKung fu head
p1165
I904
sVCombo man
p1166
I905
sVKfmsp
p1167
I906
sVGeese Howard
p1168
I907
sVHeavy strike
p1169
I4542
sVBig bear
p1170
I909
sVW arcueid
p1171
I910
sVWild-dachon
p1172
I911
sVTsukuyo
p1173
I912
sVDio brando
p1174
I756
sVArchetype earth_r
p1175
I914
sVAkys
p1176
I915
sVShin vega
p1177
I4844
sVUltraman tarou_a
p1178
I916
sVKaguya houraisan EX
p1179
I917
sVHiel_mk
p1180
I918
sVBriaaaaaaaaaaaaaaaaan EX3
p1181
I919
sVIngrid EX2
p1182
I4396
sVIngrid EX3
p1183
I920
sVDress cinderella mio
p1184
I921
sVNobunaga
p1185
I3294
sVRb2bob
p1186
I4355
sVTenko-abab
p1187
I922
sVAdamas
p1188
I4921
sVPolnareff
p1189
I924
sVHikkoshi_baba
p1190
I925
sVCaptain kidd
p1191
I926
sVZangeese
p1192
I759
sVShartel
p1193
I927
sVTerry bogard EX2
p1194
I928
sVOmni-psych chipp
p1195
I3896
sVModoi-san
p1196
I2008
sVAlyssa ex
p1197
I930
sVJack-hamma ex
p1198
I931
sVDrunk rock lee
p1199
I932
sVExtra usapi-
p1200
I933
sVBroccalon
p1201
I4327
sVDeadpool
p1202
I1371
sVLeo
p1203
I761
sVHarry EX3
p1204
I936
sVMomimomi
p1205
I937
sVJessica
p1206
I2928
sVDr.gero
p1207
I938
sVLarcen
p1208
I4348
sVMarie EX
p1209
I762
sVDan
p1210
I941
sVAtari dragon EX2
p1211
I4616
sVAndroid 18 EX3
p1212
I942
sVDr.minerva
p1213
I4754
sVTsukushi_mio
p1214
I943
sVEfreet
p1215
I944
sVMahvel chun li
p1216
I945
sVBruce shotoman
p1217
I1374
sVBaragon
p1218
I948
sVMaster zibaku rugal
p1219
I3936
sVReak.f
p1220
I949
sVHihumi
p1221
I2989
sVGatotyuman
p1222
I4987
sVYoko
p1223
I950
sVOrochi-takashi
p1224
I951
sVGustoff EX3
p1225
I952
sVWanda
p1226
I953
sVBlack rugal
p1227
I2686
sVCyclops_cota
p1228
I955
sVBubbles jp
p1229
I4346
sVBeauty queen etna
p1230
I956
sVBison
p1231
I4574
sVKyosuke pj
p1232
I4410
sVOmega agk
p1233
I958
sVChomper
p1234
I4661
sVKakyoin noriaki EX3
p1235
I960
sVGagi_ex
p1236
I962
sVMillia tnt
p1237
I963
sVTony Chopper
p1238
I964
sVSahad
p1239
I965
sVAlexey zalazof
p1240
I966
sVBobby ologun
p1241
I967
sVKarma_0.85
p1242
I2012
sVKraidgief
p1243
I968
sVRyuhi SD
p1244
I970
sVHaggar ex
p1245
I971
sVSmoo
p1246
I3393
sVBekkamu
p1247
I973
sVGouken sf4
p1248
I974
sVNenaikodareda
p1249
I975
sVUltraseven
p1250
I3313
sVOverlord laharl
p1251
I4325
sVShishin
p1252
I978
sVBinran
p1253
I979
sVLabyrinth 1p
p1254
I1380
sVTao
p1255
I981
sVGeorge
p1256
I982
sVShin kazuma
p1257
I983
sVTak
p1258
I984
sVYusuke
p1259
I2692
sVLupin the 3rd
p1260
I4657
sVDragon rider
p1261
I986
sVMaster kaede
p1262
I987
sVKoneko EX
p1263
I988
sVNaruto kun hr
p1264
I989
sVSaber EX
p1265
I990
sVGuts
p1266
I991
sVScott pilgrim EX3
p1267
I992
sVKenoh EX2
p1268
I993
sVLf2 - davis
p1269
I994
sVSs6 shisyun-abab
p1270
I995
sVDuck king
p1271
I4007
sVRei
p1272
I996
sVNanoha takamachi EX3
p1273
I156
sVMoriya b style
p1274
I998
sVPyron
p1275
I4880
sVTeam nicktoon
p1276
I4457
sVYuuka kazami
p1277
I999
sVRider
p1278
I1000
sVGokussj4d
p1279
I1001
sVSf4 omni
p1280
I1002
sVSarashina EX
p1281
I1003
sVGavora
p1282
I1004
sVTylor
p1283
I4806
sVKaguya houraisan EX3
p1284
I1006
sVA.b.a
p1285
I1007
sVFilea EX3
p1286
I1008
sVGeki
p1287
I3400
sVBlackmore
p1288
I1010
sVG project
p1289
I1011
sVShin golem
p1290
I4760
sVHu-ama EX3
p1291
I3401
sVBarney
p1292
I3394
sVFeilong sfa
p1293
I1014
sVBlitztank-n
p1294
I1015
sVOyashirorika EX
p1295
I1016
sVKung fu rabbit
p1296
I1017
sVJustice ao
p1297
I1018
sVOmake
p1298
I1019
sVRyuuoutan
p1299
I4203
sVTessa
p1300
I1020
sVSkullman
p1301
I1021
sVGeki f22
p1302
I1022
sVDragon claw EX3
p1303
I1023
sVOmni-psych justice
p1304
I1024
sVMasked rider blade
p1305
I1025
sVSissy EX3
p1306
I4600
sVPaul phoenix EX
p1307
I1026
sVFirebrand
p1308
I4922
sVLayban
p1309
I4886
sVRyo fu
p1310
I1029
sVKilla and ren EX
p1311
I1030
sVSimon B
p1312
I4795
sVHamster
p1313
I1031
sVDonatello DCAT
p1314
I1032
sVHol horse
p1315
I1033
sVHayate EX
p1316
I1034
sVZeus ex
p1317
I1035
sVKamishiro_kunagi
p1318
I1036
sVBlossom jp
p1319
I1037
sVKosanjou
p1320
I1038
sVDitto EX3
p1321
I1039
sVThing
p1322
I778
sVShingo
p1323
I1041
sVKlonoa
p1324
I2819
sVOrochimaru
p1325
I1042
sVDark cornian
p1326
I1043
sVMiyazato erika EX
p1327
I4095
sVGoryujin
p1328
I1044
sVWreck-it ralph
p1329
I1045
sVNeva
p1330
I1046
sVYang K
p1331
I4867
sVMisuzu EX
p1332
I1047
sVMiku_tt
p1333
I1048
sVG_cyclone
p1334
I1049
sVNeko&mech_m
p1335
I3898
sVNi_san
p1336
I1050
sVAlucard EX3
p1337
I4861
sVWeiss guitly gear
p1338
I4791
sVFujiwara no mokou
p1339
I1052
sVRugal EX3
p1340
I3265
sVFps bison trooper EX
p1341
I4249
sVMatrix
p1342
I1054
sVChipp_arrange
p1343
I1055
sVZwei
p1344
I1056
sVJustice
p1345
I4766
sVAsterix
p1346
I1057
sVAntlar
p1347
I1058
sVAzrael
p1348
I3498
sVDan NGPC
p1349
I4176
sVShishimaru
p1350
I1060
sVPowergirl
p1351
I1061
sVHulk
p1352
I2825
sVSatuzinki
p1353
I782
sVMictlan
p1354
I1393
sVBatman Normal
p1355
I3271
sVSpecialist
p1356
I1064
sVCirno
p1357
I1065
sVHisame shizumaru
p1358
I783
sVPiyokong
p1359
I4383
sVCaviar?
p1360
I1067
sVAthena x
p1361
I3410
sVDies
p1362
I1068
sVMomizi-e
p1363
I1069
sVChoi special
p1364
I1070
sVSilverbloome
p1365
I3549
sVRera ex
p1366
I1071
sVPredalien
p1367
I1072
sVReisen deadpool inaba
p1368
I785
sVFeli
p1369
I1074
sVVise
p1370
I1075
sVGigigear
p1371
I1076
sVJoker_nanaya
p1372
I1077
sVKung fu men
p1373
I1078
sVBruno bucciarati
p1374
I1079
sVShirai_kuroko
p1375
I1080
sVShaft
p1376
I1081
sVA-green EX3
p1377
I2793
sVMaster kojiroh
p1378
I1083
sVAthena type_h
p1379
I4969
sVGenteki dan
p1380
I1084
sVEve
p1381
I1085
sVKrauser
p1382
I4335
sVDark excellent takuma
p1383
I1086
sVYoumu konpaku EX
p1384
I1087
sVOnsokumaru
p1385
I1088
sVGoofy
p1386
I1089
sVSonozaki_mion
p1387
I1091
sVThe grandmapocalypse
p1388
I2950
sVApocalypse
p1389
I1092
sVBlodia-k
p1390
I2705
sVLei-lei
p1391
I4832
sVDuke
p1392
I1094
sVSerio
p1393
I3412
sVSvc genjyuro
p1394
I4546
sVChain combo yuyuko
p1395
I1096
sVBoss sagat
p1396
I1097
sVGlenn
p1397
I2706
sVRed hulk
p1398
I4631
sVSissy ex
p1399
I1099
sVHame-terry
p1400
I2135
sVKimelemaru EX3
p1401
I1100
sVStreet fighter is boring you idiots
p1402
I2032
sVHisame_shizumaru_ph_ai
p1403
I1102
sVKatana EX3
p1404
I1103
sVNighmare snake
p1405
I4041
sVDimlos EX
p1406
I1104
sVRyu plus
p1407
I1105
sVDr. doom mvc3
p1408
I2708
sVKanon
p1409
I4449
sVLimiter cut broly
p1410
I3916
sVPinkie pie
p1411
I1108
sVYawarakasensha
p1412
I4686
sVEri_hasumi
p1413
I1109
sVCar navi
p1414
I3417
sVLayla
p1415
I1111
sVMaebara_keiichi
p1416
I1112
sVKonngara
p1417
I1113
sVM-e-warlock
p1418
I4330
sVTarantula
p1419
I1115
sVPizza
p1420
I1116
sVLucifer EX
p1421
I3078
sVGarnet crow
p1422
I1118
sVTristan
p1423
I1119
sVDark saber
p1424
I1120
sVFrieza
p1425
I1121
sVGray fullbuster
p1426
I4326
sVPanter-flauclaws
p1427
I4989
sVMousse by ?
p1428
I4116
sVMunch
p1429
I1122
sVSmall akuma
p1430
I1123
sVLavos core
p1431
I4354
sVFlandre scarlet
p1432
I1124
sV1
p1433
I3123
sVDeluxe lin
p1434
I1126
sV2ban-tan
p1435
I2980
sVYoshiyuki takagi
p1436
I1127
sVDeath machine mb-59
p1437
I4547
sVBeelzebub
p1438
I1128
sVKon-el
p1439
I1129
sVGaia
p1440
I1130
sVWapiko
p1441
I1131
sVMahvel sean
p1442
I1132
sVSanada kojiroh
p1443
I969
sVElfin ix
p1444
I1134
sVTank
p1445
I1135
sVMahvel ryu
p1446
I1136
sVGetsufuma
p1447
I1137
sVDeathscythe
p1448
I3005
sVTane
p1449
I4466
sVQuickman
p1450
I1138
sVExocist(dnf)
p1451
I4545
sVReptile mk2
p1452
I2718
sVWild woody
p1453
I1140
sVDancing banana
p1454
I1141
sVKai EX3
p1455
I1142
sVYukihime
p1456
I4732
sVYoung_rugal
p1457
I1143
sVShantae
p1458
I29
sVKasumi EX3
p1459
I4531
sVOld mechagodzilla
p1460
I1145
sVThe gandhara
p1461
I2720
sVShin
p1462
I1147
sVGomora
p1463
I1148
sVJean_pau
p1464
I1149
sVKamijo toma EX
p1465
I3316
sVKing 95
p1466
I4537
sVShadow vegeta
p1467
I4035
sVGalactus
p1468
I1151
sVPorygon-z EX2
p1469
I3425
sVStorm eagle
p1470
I1153
sVUesugi kensin EX
p1471
I1154
sVG.vise
p1472
I1155
sVMrkarate
p1473
I1156
sVYamamoto-f-burai
p1474
I1157
sVBowser
p1475
I3426
sVCathey
p1476
I1159
sVRing man
p1477
I1160
sVFix-it felix
p1478
I1161
sVKid gohan EX3
p1479
I4145
sVAxearmor
p1480
I1162
sVDq5-son
p1481
I1163
sVChizuru kagura
p1482
I1164
sVOrochi-ev
p1483
I1165
sVSilver surfer EX
p1484
I1167
sVBurner man
p1485
I1168
sVAbubo
p1486
I3979
sVGohan fight money
p1487
I1169
sVEvil zodiac
p1488
I1170
sVSango EX
p1489
I1171
sVKongara
p1490
I1172
sVTyrant J
p1491
I3903
sVSalty goku
p1492
I2722
sVMasked rider kabuto
p1493
I1173
sVHitosyura EX3
p1494
I1174
sVNayu mizuhara
p1495
I1175
sVKakarotto [goku] ssj7
p1496
I5021
sVSheen
p1497
I1177
sVKen & gang
p1498
I4107
sVKishimax
p1499
I1178
sVWolvenom
p1500
I1179
sVGodzilla EX
p1501
I1180
sVHover
p1502
I1181
sVLomias
p1503
I1182
sVRyo945
p1504
I1183
sVTrunks
p1505
I2704
sVKangaroo
p1506
I4628
sVDark sakura
p1507
I1185
sVKeeper of k
p1508
I1186
sVPenta
p1509
I1187
sVRegin
p1510
I1188
sVIchigo EX
p1511
I4585
sVPatchouli
p1512
I4865
sVHibiki
p1513
I3616
sVPerfecti ex
p1514
I3547
sVDan CVS
p1515
I1190
sVReal Shuma
p1516
I4322
sVEvil reiji oyama
p1517
I1191
sVGuy_cecil
p1518
I1192
sVChibiko
p1519
I3657
sVTsunade EX3
p1520
I1193
sVBs kung fu man
p1521
I3578
sVTodo EX
p1522
I3079
sVRobo-ky EX
p1523
I1195
sVSlamdunk
p1524
I1196
sVEcoco
p1525
I2727
sVKat
p1526
I1198
sVKraken
p1527
I1199
sVShinki
p1528
I1200
sVKoakuma_hsts
p1529
I3919
sVG. done
p1530
I1201
sVSimonkin2006
p1531
I1202
sVKula diana
p1532
I4718
sVSimonkin2005
p1533
I1203
sVPsylocke EX2
p1534
I1204
sVFurudo_erika EX3
p1535
I4667
sVBatsu EX2
p1536
I3661
sVScream
p1537
I1206
sVShura
p1538
I3385
sVSinclair
p1539
I3433
sVRed snake
p1540
I1207
sVGerdon di yeah
p1541
I887
sVLuigi NGPC
p1542
I1209
sVJu do man
p1543
I2054
sVSnake man
p1544
I4823
sVFortuna_suwako
p1545
I1211
sVMirai trunks
p1546
I1212
sVRaph EX2
p1547
I1213
sVMinakata moriya
p1548
I1214
sVMouri motonari
p1549
I1215
sVAokiji kuzan
p1550
I1216
sVM-lancer
p1551
I1217
sVAnother igniz EX2
p1552
I4451
sVDuane!
p1553
I4720
sVVarnage
p1554
I3751
sVJackal
p1555
I4439
sVMicky13
p1556
I3437
sVKarman-cole
p1557
I1221
sVSoushihan k.s.k 12p color
p1558
I1222
sVMasta gambit
p1559
I1223
sVTizoc
p1560
I1224
sVKamek
p1561
I4695
sVDiamondeye
p1562
I4405
sVShuma MVC3
p1563
I1225
sVKanade
p1564
I1226
sVSailor pluto
p1565
I2058
sVSasuke ex
p1566
I4912
sVKoizumi itsuki
p1567
I1227
sVMvc2 iceman
p1568
I1229
sVDonald
p1569
I3375
sVDarkwing duck EX
p1570
I1231
sVIronhide
p1571
I4904
sVIroquois pliskin
p1572
I4908
sVInfinity mijinion
p1573
I4752
sVGoodman EX
p1574
I3801
sVArrange_remilia
p1575
I1233
sVKen
p1576
I1234
sVSuperoverlord meep
p1577
I1235
sVDragon_warrior(dnf) +q
p1578
I1236
sVPocket terry
p1579
I1237
sVMinoriko aki
p1580
I1238
sVOwada nana
p1581
I1239
sVKillerbee
p1582
I1240
sVAlien baltan 6th
p1583
I4843
sVTBonne
p1584
I1242
sVGajeel
p1585
I4646
sVReimi
p1586
I1243
sVD4 kirby
p1587
I52
sVLion(coh)
p1588
I59
sVLady deathstrike
p1589
I2737
sVLizardbuckler attack!
p1590
I4996
sVKiruo_v1.18
p1591
I3742
sVMark sein
p1592
I1247
sVKyle dunamis
p1593
I3948
sVLelouch
p1594
I811
sVSugoi cirno
p1595
I1249
sVBubble slime
p1596
I1250
sVBlue ranger
p1597
I4557
sVCockle
p1598
I1251
sVAyako
p1599
I4192
sVDinotank
p1600
I1252
sVSkullomania
p1601
I680
sVFat boo
p1602
I4187
sVMf viga
p1603
I1254
sVEddie mvc
p1604
I1255
sVDragon waifu
p1605
I1256
sVLicht
p1606
I4890
sVElement kofm
p1607
I3688
sVPikachu EX2
p1608
I1257
sVRugal b.
p1609
I1258
sVMai_k
p1610
I1259
sVAngelia
p1611
I1260
sVNew age king
p1612
I1261
sVFcmeirin EX2
p1613
I3447
sVRidley zm
p1614
I4626
sVS.o.g
p1615
I2063
sVZangief EX3
p1616
I1264
sVRick simpsons
p1617
I1265
sVErim
p1618
I1266
sVMariabell armitage
p1619
I1267
sVNick commando EX
p1620
I2647
sVBlue destiny 2
p1621
I1268
sVHeavy d! EX3
p1622
I1269
sVKurama
p1623
I1270
sVMegamami
p1624
I1271
sVSakuya ex
p1625
I1272
sVMeifang dhq
p1626
I1273
sVKyon_ak
p1627
I1274
sVAdelheid EX
p1628
I256
sVSupreme gogeta v1.5
p1629
I4778
sVMegaroman
p1630
I4435
sVTaki EX3
p1631
I4906
sVPhantomsheet
p1632
I1276
sVTrunks EX3
p1633
I1277
sVThe deadly dragon
p1634
I3934
sVMissing iq gomes
p1635
I4480
sVHarry
p1636
I1760
sVHiman zellode
p1637
I4751
sVTeam u zako
p1638
I4382
sVSounanda
p1639
I4308
sVLacerta Misty
p1640
I3341
sVLeona ex
p1641
I3451
sVYu-lan
p1642
I1280
sVDudley EX3
p1643
I4937
sVReon
p1644
I1282
sVCandyman
p1645
I3941
sVUltraman gaia_a
p1646
I331
sVZangief maskered
p1647
I335
sVAlucard SOTN
p1648
I2910
sVShinGouki
p1649
I4687
sVThe territorial mammoth
p1650
I4553
sVMoleman
p1651
I1286
sVMasked rider agito EX3
p1652
I1287
sVTokido saya
p1653
I1288
sVHimekawa kotone
p1654
I1289
sVSasuke Cosplay
p1655
I1290
sVBombman
p1656
I1291
sVKuroko EX2
p1657
I690
sVKotoe
p1658
I1292
sVGi-le-farg
p1659
I4173
sVD4 reimu
p1660
I3339
sVA-rei
p1661
I1434
sVKenshiro
p1662
I4571
sVVebel
p1663
I2635
sVAkuma SF4
p1664
I3965
sVGranzon
p1665
I1294
sVPatrick
p1666
I3755
sVLeopaldon
p1667
I4498
sVDevo
p1668
I3926
sVBrainiac
p1669
I4270
sVMiles
p1670
I1297
sVHinata natumi
p1671
I1298
sVThe mythical dacentrurian
p1672
I1299
sVZweizergain
p1673
I1300
sVMonster ball
p1674
I1301
sVOhaou
p1675
I3900
sVSeven
p1676
I1302
sVBenimaru EX3
p1677
I2751
sVNega joe
p1678
I4940
sVChiffon
p1679
I1304
sVNinja megazord
p1680
I4054
sVYorihime watatsuki
p1681
I4763
sVShar-makai EX3
p1682
I1306
sVSsj3 gotenks
p1683
I4242
sVW.krauser
p1684
I1307
sVPentagon & black hole
p1685
I1308
sVMagma
p1686
I1309
sVShen EX2
p1687
I1435
sVSaimon
p1688
I3933
sVArmored gohan
p1689
I1311
sVYueng soi leng
p1690
I1312
sVKrauser 98
p1691
I2074
sVAn ordinary sonic the hedgehog
p1692
I3540
sVGodzillaEX
p1693
I1315
sVTora
p1694
I4425
sVSuwako ai
p1695
I1317
sVBatman beyond
p1696
I4782
sVShiva
p1697
I1320
sVWinggod kanna
p1698
I1321
sVDarthvader
p1699
I2077
sVDeluxe chipp
p1700
I1323
sVMobo
p1701
I4518
sVTrapsatoko
p1702
I1324
sVRin natsume
p1703
I3907
sVTomoko
p1704
I635
sVOrochi iori EX
p1705
I4603
sVCci saisyu
p1706
I4513
sVAccelerator EX3
p1707
I3889
sVDk
p1708
I1328
sVDavid bell
p1709
I657
sVStarship-kirby
p1710
I4455
sVZ gundam
p1711
I666
sVZ-ton 2nd
p1712
I1331
sVYuri945
p1713
I1332
sVRenamon
p1714
I1333
sVDeath13
p1715
I1439
sVGenpaku
p1716
I1335
sVJamian di corvus
p1717
I1336
sVKurohige
p1718
I693
sVSketch turner
p1719
I1338
sVChaoz_gf
p1720
I1339
sVArch mage alice
p1721
I1340
sVDuck king pne
p1722
I4649
sVEnja
p1723
I1342
sVHotaru
p1724
I1343
sVSuper hyper ultra mega awesome wtf barney
p1725
I1344
sVSamurai pizza cats
p1726
I1345
sVSasuke kun
p1727
I3968
sVNami
p1728
I1347
sVKamen rider kabuto
p1729
I1348
sVMvc2 megaman
p1730
I774
sVStrider H
p1731
I1350
sVHaggar sf2
p1732
I1351
sVSad claps
p1733
I1352
sVSoujiro
p1734
I4252
sVB.jenet
p1735
I1353
sVMisaka
p1736
I4564
sVSilhouette
p1737
I641
sVMasked_dedede
p1738
I1354
sVWulong
p1739
I1355
sVBuguu
p1740
I3946
sVKou EX3
p1741
I1356
sVShinobu
p1742
I1357
sVTsugumi
p1743
I834
sVKing lion
p1744
I686
sVCody CFJ2
p1745
I1359
sVKimexemaru
p1746
I1360
sVKilyousuke ex
p1747
I1361
sVAwaken satsuki
p1748
I1362
sVD'
p1749
I1363
sVPsychic psycho
p1750
I4913
sVHaruhi suzumiya
p1751
I4045
sVGreat gohan
p1752
I4251
sVDantalion_alice
p1753
I1444
sVOmega goenitz
p1754
I1365
sVAlice's gensokyo
p1755
I1366
sVCelesty
p1756
I889
sVLuka
p1757
I1368
sVSatuzinki_nesmario
p1758
I4650
sVDeejay sfa
p1759
I1369
sVSailor venus EX
p1760
I4075
sVBarom1
p1761
I4918
sVIzzy blue
p1762
I2943
sVHaohmaru
p1763
I1370
sVMaster ryu
p1764
I935
sVInjya 1p
p1765
I1372
sVPerfect storm x
p1766
I1373
sVLieselotte_achenbach
p1767
I1090
sVMoraga
p1768
I1375
sVCv wakamoto
p1769
I1376
sVDonatello 0d
p1770
I1378
sVMegaman fp
p1771
I1379
sVBloo ex
p1772
I980
sVFlan Scarlet
p1773
I1381
sVRolf
p1774
I4682
sVVenomscorp
p1775
I1382
sVWangchang
p1776
I5011
sVRoll
p1777
I1013
sVPein nzc
p1778
I1385
sVJeice
p1779
I1386
sVKazuya akatsuki +q
p1780
I1387
sVMurasa EX
p1781
I3754
sVOssan
p1782
I4651
sVMatou sakura EX
p1783
I1388
sVKid trunks
p1784
I3099
sVHaohmaru 98
p1785
I1389
sVPocket Sakura
p1786
I1390
sVSasuke 0d
p1787
I1391
sVSakashita
p1788
I1392
sVSuper girl
p1789
I1063
sVMima
p1790
I1394
sV95ani
p1791
I1395
sVSatsuki vp EX3
p1792
I1396
sVAsura
p1793
I1397
sVYuri
p1794
I1398
sVMpccgenerals
p1795
I1399
sVCard hero
p1796
I1400
sVFreedom gundam
p1797
I1401
sVBlade rider
p1798
I4225
sVDarkseid
p1799
I2776
sVBatman 2
p1800
I1404
sVSnakeeyes
p1801
I1405
sVMetalgear rex
p1802
I2777
sVIgnis
p1803
I1407
sVFire quacker
p1804
I3917
sVRobocop
p1805
I4845
sVBlack adam
p1806
I1408
sVIgniz
p1807
I1409
sVRaiden EX2
p1808
I1410
sVAkane
p1809
I1411
sVKrang
p1810
I1412
sVOrtega ex
p1811
I3477
sVSlalingaru
p1812
I1150
sVFf1 tung fu rue
p1813
I4678
sVNamor
p1814
I4698
sVCarmilla
p1815
I3351
sVSuneo
p1816
I1415
sVSuper vegeta ai-barbatos
p1817
I1416
sVArashi EX
p1818
I1452
sVYuyuko saigyouji
p1819
I1976
sVMaverick zero
p1820
I1418
sVGatanothor
p1821
I4949
sVJoe F22
p1822
I1419
sVAngel
p1823
I1420
sVJet jaguar
p1824
I2869
sVWashizuka
p1825
I2017
sVVivi_ornitier
p1826
I1422
sVHighway star
p1827
I1423
sVMr. bear
p1828
I3273
sVCheapest kfm!!!
p1829
I1425
sVYukari Tanizaki
p1830
I1426
sVPheus_mor
p1831
I1427
sVBenimaru 98
p1832
I2876
sVMiduma
p1833
I1428
sVSakura kinomoto
p1834
I1429
sVKasen EX
p1835
I1430
sVRobo-segalow
p1836
I1431
sVSuperarabian
p1837
I5005
sVJyubei yagyu EX3
p1838
I1432
sVBark
p1839
I5017
sVGrant
p1840
I1433
sVDc_reimu
p1841
I5006
sVBilly lee
p1842
I1293
sVViolent ryu
p1843
I3480
sVLucifer
p1844
I1310
sVS-len
p1845
I1436
sVYamcha
p1846
I1437
sVIkumi tatikawa
p1847
I1319
sVAsuta-san
p1848
I3730
sVSolid snake EX
p1849
I4905
sVGreen lantern gg
p1850
I1334
sVDee bee kaw
p1851
I1440
sVSniper
p1852
I1441
sVRamon 71113
p1853
I1442
sVVirtus
p1854
I4639
sVKonoha
p1855
I1443
sVPantyhose taro
p1856
I4140
sVClayface
p1857
I1364
sVQueen beryl
p1858
I1445
sVStickykeys
p1859
I1446
sVDeluxe ai
p1860
I1447
sVAlien_z-ton
p1861
I3924
sVAthena X2
p1862
I1448
sVViewtiful joe
p1863
I1460
sVFred Krueger
p1864
I3937
sVYuki morikawa
p1865
I1450
sVAlucard
p1866
I1451
sVItachi
p1867
I4648
sVKing of zero
p1868
I1417
sVNeo EX
p1869
I1453
sVSnake eyes
p1870
I1454
sVSatsujinki
p1871
I1455
sVUrban champion
p1872
I1456
sVSalamandra_fe
p1873
I1457
sVRamon EX3
p1874
I1458
sVXerxes
p1875
I1459
sVTear
p1876
I1449
sVYuri di aaaaaaa
p1877
I4837
sVGrand master ryu
p1878
I2783
sVYoko EX
p1879
I1463
sVRoll EX
p1880
I1464
sVBob wilson EX2
p1881
I1461
sVCaptain ameriken
p1882
I5009
sVShikieiki yamaxanadu
p1883
I1466
sVEriol hiiragizawa
p1884
I1467
sVCurly brace EX3
p1885
I1468
sVChizuru 71113
p1886
I2785
sVAnanzi
p1887
I2098
sVKencyan
p1888
I1469
sVNew rubber soul
p1889
I1470
sVUkitake
p1890
I4580
sVLa mascara
p1891
I1471
sVSephiroth EX3
p1892
I1472
sVPrivate
p1893
I3875
sVKane
p1894
I1473
sVKawajirikosaku EX3
p1895
I1474
sVSideswipe
p1896
I1475
sVMai maino
p1897
I3487
sVSerika
p1898
I2759
sVIkaruga satuki
p1899
I1477
sVImouto EX3
p1900
I1465
sVAkari kamigishi
p1901
I1478
sVRasetsu
p1902
I3997
sVNeo dio EX3
p1903
I4459
sVPerfectakishimai
p1904
I1480
sVKiyoko
p1905
I1970
sVKitanaininjya
p1906
I1481
sV20 (dr. gero)
p1907
I1482
sVAmber lamps
p1908
I4549
sVRei-kugo
p1909
I1483
sVYamcha by tomur
p1910
I1484
sVJoker_shiki
p1911
I1485
sVChunli_a
p1912
I1486
sVRichard myer
p1913
I4018
sVPapillon
p1914
I2789
sVNero chaos
p1915
I1488
sVDrew
p1916
I1489
sVHoraizon ver1.02
p1917
I1490
sVMimic
p1918
I4842
sVSkelegon
p1919
I1491
sVNaya tatca nanafe
p1920
I1492
sVKouma kishima
p1921
I582
sVGaogaigar
p1922
I1493
sVCleric
p1923
I1494
sVBowling ball
p1924
I1495
sVZangief
p1925
I1496
sVChen the weasel
p1926
I1497
sVDream bison
p1927
I2790
sVSuper metroid
p1928
I1500
sVBagira_ex
p1929
I1501
sVTyrant EX
p1930
I1502
sVAsh 2
p1931
I1503
sVRalf 2k2
p1932
I4369
sVDead geese
p1933
I1504
sVSword impulse
p1934
I1505
sVCommon akuma
p1935
I1506
sVRin EX
p1936
I3085
sVDabura EX3
p1937
I4629
sVRoast_uncle
p1938
I1979
sVAgito_of_the_dark
p1939
I4565
sVBroccalon EX3
p1940
I1508
sVMakoto EX3
p1941
I1509
sVPrincess
p1942
I1510
sVSuper soldier
p1943
I4352
sVChousokabe motochika
p1944
I1511
sVYet another igniz
p1945
I1512
sVBleyze
p1946
I4959
sVNoob saibot mk2
p1947
I3436
sVUltraseven_a
p1948
I1513
sVJean grey
p1949
I1184
sVTerumi
p1950
I1514
sVSawada
p1951
I4113
sVNecoarc
p1952
I1515
sVMore Evil Ryu
p1953
I1516
sVMr. increible
p1954
I4703
sVStimpy
p1955
I1517
sVQuicksilver
p1956
I1518
sVJaguar junichi
p1957
I1519
sVJohnny cage
p1958
I1836
sVDr.manhattan
p1959
I4826
sVAbigail
p1960
I869
sVM.bison
p1961
I2107
sVEvabeatrice
p1962
I3987
sVTrishula,doragon of the ice barrier
p1963
I1522
sVRon max
p1964
I1523
sVMoogle
p1965
I1524
sVFortress maximus
p1966
I1525
sVAllen o'neill
p1967
I1526
sVZebura
p1968
I3461
sVMvc2 cyclops
p1969
I1527
sVSeikimatu guile
p1970
I1528
sVKenbo
p1971
I1529
sVSailor uranus
p1972
I1530
sVKenshi
p1973
I1531
sVMr1 daz bones
p1974
I1532
sVBad mr frosty
p1975
I3952
sVWolverine_cota
p1976
I1318
sVDragon claw
p1977
I4168
sVToyohime EX2
p1978
I1534
sVSaiki
p1979
I1535
sVShizuha EX3
p1980
I1536
sVWaki-miko
p1981
I3738
sVSuper androide 17 hd
p1982
I1537
sVBalrog sf2
p1983
I1538
sVWonder woman
p1984
I1539
sVSyaoran
p1985
I4245
sVBlack widow
p1986
I1541
sVMasked rider hibiki(emanon)
p1987
I3500
sVChintao FF
p1988
I1542
sVHamburglar
p1989
I1543
sVCreeper
p1990
I1544
sVBotan
p1991
I4635
sVDevil seaman
p1992
I1545
sVGenerals
p1993
I4933
sVMr satan
p1994
I3522
sVDark karin
p1995
I1546
sVMega tigerzord
p1996
I4881
sVSaku
p1997
I1548
sVGiant katamari of random characters
p1998
I4902
sVCaptain commando
p1999
I1550
sVAlbus
p2000
I1551
sVTusk soldier
p2001
I4749
sVUbu
p2002
I4742
sVJazu
p2003
I1552
sVRiot
p2004
I1553
sVChucky
p2005
I4486
sVHuey freeman
p2006
I3970
sVVoid
p2007
I1556
sVBobby
p2008
I1557
sVEagle-sabu
p2009
I3930
sVIkumi amasawa
p2010
I1558
sVKanon EX3
p2011
I2093
sVJin bros
p2012
I4552
sVMidknight
p2013
I1561
sVBlood
p2014
I1563
sVBlack manta
p2015
I3935
sVGod vega
p2016
I2474
sVRodimus prime
p2017
I1565
sVCarol
p2018
I1566
sVLei lei
p2019
I4812
sVRion
p2020
I1568
sVMacheta
p2021
I1569
sVRoppen heimer EX FF
p2022
I1570
sVPiccolo EX3
p2023
I4597
sVGoku ssj 3
p2024
I4573
sVMary EX3
p2025
I1571
sVC.dome
p2026
I4044
sVMichael
p2027
I2117
sVS.geist
p2028
I1572
sVNico robin
p2029
I3504
sVBlack mask
p2030
I3995
sVSenna(coh)
p2031
I1573
sVKanji
p2032
I4730
sVTiki
p2033
I1574
sVG-gonzales2
p2034
I4790
sVMaherl
p2035
I1575
sVRutee
p2036
I1577
sVSuper sayajin 4
p2037
I4811
sVMs.archer
p2038
I4605
sVTenshi
p2039
I4099
sVElita one
p2040
I1580
sVScarlet devil
p2041
I1581
sVZeeky h. bomb
p2042
I1582
sVBoring sdk mukurou
p2043
I1583
sVVega mvc2
p2044
I1584
sVGuile_a
p2045
I3505
sVNachi
p2046
I4092
sVAnji
p2047
I1585
sVYoshinaka hinata
p2048
I3238
sVGundog
p2049
I1586
sVEve silvan
p2050
I4088
sVJoseph joestar EX3
p2051
I1587
sVAmerican idiot
p2052
I4785
sVJet-stingray
p2053
I1589
sVSakura haruno nzc
p2054
I1590
sVPsycho shredder[s] 3.0
p2055
I1591
sVKazami yuuka
p2056
I1592
sVFelix the cat EX3
p2057
I1593
sVGi gi
p2058
I1594
sVMvc2 captain america
p2059
I1595
sVYouhei 1p
p2060
I1596
sVRonove
p2061
I1597
sVShiena bee
p2062
I1598
sVMike tyson
p2063
I2806
sVInfant mutant
p2064
I1600
sVGeneshic gaogaiger
p2065
I1601
sVScarlet spider
p2066
I3971
sVAndy_xiii
p2067
I3508
sVSenel
p2068
I1603
sVHel'lauren
p2069
I1604
sVGutsman
p2070
I1605
sVKinoko
p2071
I1606
sVSolitaire
p2072
I1607
sVRockman x
p2073
I1608
sVFrieza EX3
p2074
I1609
sVTeam ryuko
p2075
I4019
sVZinsuke
p2076
I1611
sVBuu Hyper Dimension
p2077
I1612
sVTakuan_osho
p2078
I2123
sVTokinomiya kamui
p2079
I1614
sVJudith
p2080
I1616
sVSon of sun
p2081
I4831
sVThe pacifier
p2082
I4507
sVB.dosa
p2083
I1617
sVGonzales s-r
p2084
I3187
sVBasara
p2085
I1618
sVArrange_mishio
p2086
I2995
sVYumi
p2087
I1619
sVSuper mario EX3
p2088
I1620
sVSittara
p2089
I2124
sVHouoh
p2090
I4735
sVAnna ex
p2091
I1622
sVMahvel elena
p2092
I1623
sVRugal bernstein EX3
p2093
I1624
sVKim EX
p2094
I1383
sV17th angel
p2095
I1626
sVWyvern
p2096
I1627
sVKoakuma_ac
p2097
I1628
sVThe joker EX3
p2098
I1629
sVTabasa
p2099
I4220
sVSatomi yajima
p2100
I1630
sVBattousai
p2101
I1632
sVMastr Hand
p2102
I729
sVYanpeko na hibikisan
p2103
I1633
sVBalrog f
p2104
I1634
sVDrake
p2105
I1635
sVOrsted_w
p2106
I3327
sVJhons lee
p2107
I4418
sVCharlotte
p2108
I2897
sVYoma komatsu
p2109
I1636
sVViga
p2110
I1637
sVMr_shihan_ky
p2111
I1638
sVKaptain k.rool
p2112
I1639
sVSenna_ai
p2113
I1640
sVEbe
p2114
I1642
sVArthur EX
p2115
I1643
sVAngela EX3
p2116
I1644
sVProducer
p2117
I1645
sVOld
p2118
I2507
sVSuper buu
p2119
I946
sVRiesz
p2120
I1648
sVDeluxe athena
p2121
I1649
sVGeese xi
p2122
I1650
sVGod yuri
p2123
I1651
sVLightning bd
p2124
I1652
sVBig zam
p2125
I2131
sVTloz link
p2126
I1655
sVMedusa
p2127
I1656
sVWorld-chang
p2128
I1657
sVCursor
p2129
I4516
sVLittle busters! ce
p2130
I4386
sVCvs yun
p2131
I2547
sVShazzer EX3
p2132
I1661
sVTyrant_a
p2133
I1662
sVE. honda
p2134
I1663
sVCaptain america b
p2135
I1664
sVMari
p2136
I1665
sVEvil ranger
p2137
I1666
sVYellow-pipo
p2138
I470
sVSuper nightmare geese
p2139
I1668
sVM. bison
p2140
I3945
sVSupreme vegito
p2141
I1670
sV1.0
p2142
I3312
sVMeira
p2143
I1671
sVPocket tylor
p2144
I1672
sVMarx
p2145
I1673
sVBerserk
p2146
I1674
sVJin CVS TAG
p2147
I1675
sVCycloid omega EX
p2148
I1676
sVDana dee
p2149
I1677
sVSuave dude
p2150
I1678
sVHeat-genblem
p2151
I1679
sVMech-hisui EX
p2152
I1680
sVFamicom wars
p2153
I1681
sVHaru-chan
p2154
I1682
sVVeku
p2155
I4336
sVA-heart
p2156
I1684
sVDark magician girl
p2157
I4048
sVAirou ver2.11
p2158
I4544
sVStrider hien
p2159
I1685
sVKyoushirou senryou
p2160
I1686
sVVanilla h
p2161
I2880
sVKasumi wpr
p2162
I1688
sVNamihei
p2163
I1689
sVGolden axe
p2164
I2824
sVSkapon
p2165
I1690
sVAkuma
p2166
I1691
sVRoa EX3
p2167
I1692
sVWar EX2
p2168
I1693
sVEarl
p2169
I1694
sVSteven seagal
p2170
I4615
sVKoopa clown car
p2171
I1696
sVThiele
p2172
I1698
sVPeijin-san
p2173
I1699
sVM-monk
p2174
I4666
sVSs6 aisya
p2175
I1700
sVKanae EX3
p2176
I1701
sVVavaa
p2177
I5018
sVFerroman
p2178
I1702
sVGozu
p2179
I1703
sVLittle nemo
p2180
I1704
sVSupreme goku
p2181
I1705
sVLord slug
p2182
I2974
sVNekonin ex
p2183
I1706
sVRock
p2184
I4774
sVJyuzumaru
p2185
I3126
sVLeonardo
p2186
I1708
sVAkatsuki-abk
p2187
I4951
sVMomiji inubashiri
p2188
I2828
sVBatman EX3
p2189
I1710
sVRambo
p2190
I1711
sVAnpanman
p2191
I1712
sVRogue SP
p2192
I1713
sVHeidern_ex
p2193
I3521
sVAsutorea EX3
p2194
I1715
sVStarfy
p2195
I1716
sVCid highwind
p2196
I3915
sVElpizo
p2197
I2140
sVCrocodile
p2198
I1718
sVAlter amiba
p2199
I1719
sVWatatsuki no toyohime
p2200
I4124
sVChili n pepper
p2201
I1720
sV2k
p2202
I2141
sVGg-wind
p2203
I1721
sVTiberius
p2204
I1722
sVSanic boom
p2205
I1723
sVCyber-woo
p2206
I1724
sVToguro 30%
p2207
I4233
sVMagnus
p2208
I4514
sVItoko_nagiai
p2209
I1726
sVStorm_cota
p2210
I1727
sVPepe
p2211
I4117
sVAlbiole
p2212
I1728
sVMoses maddigan
p2213
I1729
sVDudley Puppy
p2214
I4167
sVYashiro
p2215
I1730
sVMasked rider agito
p2216
I1731
sVM_canon
p2217
I3910
sVD kanna
p2218
I3998
sVBaki-hanma
p2219
I1732
sVD4?roll?
p2220
I1424
sVJack frost
p2221
I4323
sVEleicia
p2222
I3330
sVChouji
p2223
I3927
sVAoko_monk_style
p2224
I1734
sVEagle f22
p2225
I1735
sVMajin-etna
p2226
I1736
sVDark Stimpy
p2227
I1737
sVLilith
p2228
I1738
sVSunflower fairy
p2229
I3243
sVAstaroth
p2230
I3957
sVNess
p2231
I1740
sVCharlotte m
p2232
I4857
sVG-gonzales
p2233
I1742
sVKemular
p2234
I1743
sVSagat
p2235
I1744
sVSailor mercury EX2
p2236
I4254
sVGh-golden silver
p2237
I1745
sVSasquatch
p2238
I1746
sVShizuha
p2239
I1747
sVAmingo
p2240
I1748
sVBifrost
p2241
I1749
sVGoketuji
p2242
I1750
sVKyoko_typea
p2243
I1751
sVLf2 - freeze
p2244
I1753
sVKyoko_typek
p2245
I1754
sVHakurou
p2246
I3972
sVPotemkin
p2247
I2156
sVIsaiah bradley
p2248
I1756
sVGeese howard EX2
p2249
I1757
sVB.jenet_n
p2250
I4086
sVWarlock
p2251
I770
sVTrue saber
p2252
I3954
sVZaku Cosplay
p2253
I4261
sVGod-gundam
p2254
I1759
sVDaimaoh
p2255
I3974
sVTetris
p2256
I1507
sVRinfa
p2257
I1761
sVKyoko_typey
p2258
I1762
sVStrike freedom nitori
p2259
I1763
sVGoenitz EX3
p2260
I1764
sVMr buu EX3
p2261
I4157
sVKawashima-san EX3
p2262
I1765
sVKawashima-san EX2
p2263
I4169
sVKenny mccormick
p2264
I1766
sVXeona
p2265
I1767
sVDeluxe kung fu man
p2266
I1768
sVNanoha xp
p2267
I4780
sVBruce banner
p2268
I4619
sVRyu NXC
p2269
I4764
sVFurude rika
p2270
I1770
sVBulbasaur
p2271
I4856
sVSaito
p2272
I1773
sVHayato MVC
p2273
I1005
sVAi
p2274
I2840
sVSubaru
p2275
I2193
sVMaster juzo
p2276
I1776
sVThe freezing august
p2277
I1777
sVGiano
p2278
I4801
sVApocalypse EX2
p2279
I1779
sVKamui
p2280
I1780
sVClassic wagyan
p2281
I1781
sVEarthworm jim
p2282
I1782
sVTakano_miyo
p2283
I1783
sVXiaoyen
p2284
I1784
sVZantetsu
p2285
I1785
sVCharles
p2286
I4883
sVSymbiote thanos
p2287
I4504
sVCustom shinobi shou
p2288
I1787
sVKohaku iqs
p2289
I4878
sVMinoriko(ai)
p2290
I1788
sVThe red dragon
p2291
I1028
sVPocket Ibuki
p2292
I321
sVAnti.guile.zangief
p2293
I2019
sVMask the griffon EX3
p2294
I1791
sVLuke skywalker EX3
p2295
I1792
sVHina
p2296
I1793
sVKensou
p2297
I4281
sVBlob
p2298
I4347
sVSwordman (waifu)
p2299
I3773
sVSsj goku z2 ex
p2300
I1794
sVBloo
p2301
I3577
sVBrago
p2302
I1796
sVChiduru
p2303
I1797
sVThe tick
p2304
I1798
sVJake
p2305
I1799
sVAnnie murakami
p2306
I1800
sVZx
p2307
I1801
sVKaigen EX3
p2308
I913
sVRubber soul
p2309
I1802
sVAboras
p2310
I4391
sVLion
p2311
I3894
sVWario 64
p2312
I4392
sVYunfei
p2313
I4162
sVRodan
p2314
I3656
sVTung fu rue
p2315
I1806
sVRaphael 0d
p2316
I3665
sVBoss zeroko
p2317
I1808
sVArx-7
p2318
I1809
sVSubaru mikage
p2319
I1810
sVGengetu EX
p2320
I4135
sVOmegamon EX
p2321
I4692
sVSlimeknight
p2322
I1811
sVSymbiote onslaught
p2323
I1812
sVReas
p2324
I1813
sVRasetsumaru
p2325
I3542
sVAlex
p2326
I1814
sVGyan
p2327
I1815
sVLasher
p2328
I2584
sVVoltorb
p2329
I1479
sVNeco-misaka
p2330
I1818
sVElement
p2331
I1819
sVCorin
p2332
I1820
sVBirdie sfa
p2333
I1821
sVErisnomia
p2334
I1822
sVFernandeath
p2335
I1823
sVArigato usagi
p2336
I1824
sVDio di musca
p2337
I1825
sVAnonym
p2338
I1826
sVRaptorking-petshop
p2339
I3545
sVPickle
p2340
I1827
sVAxel stone
p2341
I1828
sVMr_shihan
p2342
I1829
sVAvdul
p2343
I4390
sVMary
p2344
I2809
sVGodslayer shin meep140
p2345
I4895
sVCammy NXC
p2346
I1830
sVDevilbat-schilt
p2347
I4123
sVRobo-ky XX
p2348
I1832
sVDopefish
p2349
I4958
sVRuckus
p2350
I1833
sVDesteny remilia
p2351
I1834
sVHolhorse asb
p2352
I4935
sVOnpu segawa
p2353
I405
sVRid hershel
p2354
I1835
sVHoly god earth
p2355
I4992
sVAbobo 0D
p2356
I1520
sVKamen rider joker
p2357
I1837
sVRobinmask
p2358
I1838
sVNf-kyo EX3
p2359
I1839
sVShadow sumou
p2360
I4055
sVFalco la pasione(nagiai)
p2361
I768
sVNatsu EX2
p2362
I3950
sVAnother blood k
p2363
I3876
sVSpera
p2364
I3883
sVOrochimaru nzc
p2365
I4868
sVReiko mikami
p2366
I4926
sVKishimax EX2
p2367
I1843
sVSkeletor dx
p2368
I11
sVTaku
p2369
I4011
sVPocchi
p2370
I4613
sVLucifeller_ex
p2371
I1846
sVUnknown
p2372
I4776
sVKamishiro_aya
p2373
I4282
sVFirestar
p2374
I35
sVMira
p2375
I2167
sVRock-man
p2376
I1851
sVIzayoi sakuya
p2377
I4109
sVDeidara
p2378
I4927
sVKuanyinshen_nagiai
p2379
I57
sVDongdong'
p2380
I62
sVHyuuga hinata
p2381
I4360
sVSuper sonic EX3
p2382
I1855
sVChippzanuff
p2383
I71
sVSon goku
p2384
I1857
sVNucoarc
p2385
I1858
sVMaria EX
p2386
I3728
sVTrist
p2387
I4762
sVGeegus
p2388
I1860
sVFang 0d
p2389
I1861
sVSantaurus
p2390
I1862
sVJin kazama
p2391
I1863
sVZelos(you-ki_ai)
p2392
I4898
sVElla
p2393
I1864
sVNorimaro MVC3
p2394
I4374
sVElle
p2395
I4543
sVMutron kun
p2396
I1866
sVLightning cb
p2397
I4239
sVBrazer
p2398
I1868
sVSuper3 goku EX
p2399
I1869
sVAchi cirno
p2400
I1870
sVAkiha
p2401
I1871
sVScott pilgrim
p2402
I1872
sVNagamine nozomi
p2403
I1873
sVAlvan EX
p2404
I4511
sVKung lao
p2405
I1875
sVAmiba EX
p2406
I161
sVMiyako
p2407
I165
sVAthena_96
p2408
I1878
sVRyo EX2
p2409
I4324
sVPelecanus
p2410
I4589
sVWhite buffalo
p2411
I1881
sVOrione
p2412
I4389
sVVegalunker
p2413
I1882
sVAngus
p2414
I1883
sVMaggyo EX
p2415
I810
sVDios
p2416
I2170
sVUltimate aizen
p2417
I2533
sVJhon
p2418
I1884
sVChibi vegito
p2419
I1885
sVPocket Dan
p2420
I1886
sVWolf
p2421
I1887
sVTorao onigawara
p2422
I1888
sVDeath EX3
p2423
I4294
sVAgent smith
p2424
I4246
sVDebonea
p2425
I4550
sVWonder Woman Reloaded
p2426
I3808
sVGogeta mvc
p2427
I1891
sVAtomic r chelnov
p2428
I1892
sVTetsu yatogi
p2429
I4445
sVJagyuta EX2
p2430
I1893
sVReicubas
p2431
I1894
sVDonald mcdonald
p2432
I1895
sVR.lightning
p2433
I1896
sVHomero
p2434
I1897
sVCyber-peacock
p2435
I265
sVMetal sonic mk3
p2436
I1899
sVArchetype:earth
p2437
I4342
sVHugo dc
p2438
I4630
sVDaimon 98
p2439
I4029
sVJon arbuckle
p2440
I4399
sVS_aqn
p2441
I5020
sVD'raven
p2442
I1904
sVVita
p2443
I1905
sV98se
p2444
I1658
sVRina
p2445
I4700
sVOnslaught
p2446
I1907
sVAdam EX3
p2447
I1908
sVSai EX2
p2448
I334
sVF.o.e._meso
p2449
I1910
sVOsiti
p2450
I1911
sVHiro-ex
p2451
I1912
sVYaridovich
p2452
I1913
sVDestoroyah ex
p2453
I1914
sVRobo
p2454
I374
sVTatsuo
p2455
I934
sVBattler ushiromiya
p2456
I1917
sVIsabeau
p2457
I2178
sVKyuketsuki_satsuki
p2458
I1919
sVSsj vegeto
p2459
I3556
sVRyu hayabusa x
p2460
I1921
sVGeneral
p2461
I1922
sVMo-mo-dainamaitu EX3
p2462
I1923
sVCaptain agent
p2463
I3967
sVKyoko_typea EX3
p2464
I1533
sVLenja
p2465
I1924
sVDiablo_skeleton
p2466
I4825
sVMeta jade
p2467
I2181
sVGeese ex xi
p2468
I1927
sVSyuzo matsuoka
p2469
I4634
sVAladdin EX3
p2470
I1928
sVRemy sf3
p2471
I1929
sVSyobo-n
p2472
I2182
sVToguro 80%
p2473
I1931
sVSupernovice
p2474
I1867
sVSamus
p2475
I1932
sVGlacius
p2476
I468
sVHibiki EX3
p2477
I4152
sVDally
p2478
I1934
sVSoy milk
p2479
I1935
sVHelion
p2480
I1936
sVGill hero
p2481
I3561
sVArena
p2482
I1937
sVGaibon
p2483
I4000
sVAmon
p2484
I1938
sVDemitri EX3
p2485
I3481
sVCharlie
p2486
I508
sVKen master
p2487
I4991
sVHuman paladin
p2488
I1940
sVBloodia
p2489
I1941
sVMagneto_cota
p2490
I3113
sVMeth Blue Ranger
p2491
I1942
sVSeravy
p2492
I537
sVHijiri byakuren
p2493
I1944
sVShin marie
p2494
I1945
sVJonathon Morris
p2495
I1946
sVKisarah-n
p2496
I558
sVAthena945
p2497
I1948
sVRoomi kof
p2498
I1949
sVIncredible power kyo
p2499
I1950
sVGargoyle
p2500
I577
sVArima_meirin
p2501
I4609
sVArina
p2502
I1952
sVBlack_widoraemon
p2503
I1953
sVClark
p2504
I4171
sVAgito of the dark
p2505
I1954
sVDio M
p2506
I1955
sVKongman EX3
p2507
I614
sVEnja ex
p2508
I1957
sVLucy diclonius
p2509
I4200
sVCammy_a
p2510
I1958
sVDokuro chan
p2511
I627
sVMiffy
p2512
I3344
sVKfm iwbtg
p2513
I1960
sVSatori EX
p2514
I3566
sVPupazz
p2515
I4266
sVMr.mannequin
p2516
I1963
sVNaomi
p2517
I1964
sVGo_shin
p2518
I1965
sVVegeta ultra ssj
p2519
I4808
sVTerry EX3
p2520
I659
sVGod gundam EX
p2521
I4076
sVMystia EX
p2522
I1967
sVMakoto(*zenkai*)
p2523
I1968
sVToy
p2524
I1969
sVHanayama EX3
p2525
I1166
sVManjimaru EX3
p2526
I1540
sVGill sf3
p2527
I1414
sVLihua
p2528
I1972
sVKousaku
p2529
I663
sVBloodbane
p2530
I1974
sVSuicider raoh
p2531
I4788
sVBastion
p2532
I1975
sVIron lantern
p2533
I3098
sVMuhi EX
p2534
I4429
sVTom
p2535
I4150
sVLeone abbacchio ex
p2536
I3951
sVSaki
p2537
I1977
sVSub-zero CVW
p2538
I4818
sVLord.misyaguzi
p2539
I1978
sVMurakumo-abk EX2
p2540
I3035
sVFelden
p2541
I3949
sVSayia-f
p2542
I1980
sVYellow devil
p2543
I4111
sVElement ma
p2544
I1982
sVLabyrinth
p2545
I1983
sVClone koa
p2546
I1984
sVMercurius
p2547
I1985
sVKomachi_raoh
p2548
I1986
sVDan smith, the tyrant
p2549
I1987
sVQ-mantha
p2550
I1988
sVSsfiix' rainbow
p2551
I1989
sVHammerin' harry
p2552
I3869
sVAiri
p2553
I1990
sVTwilight sparkle
p2554
I1991
sVHaruhi suzumiya EX
p2555
I851
sVSaisyu_ex
p2556
I5000
sVShinobi
p2557
I1993
sVMakendo2
p2558
I862
sVDeluxe adon
p2559
I1995
sVAsahina mikuru EX
p2560
I868
sVT.hawk sf2
p2561
I3204
sVBirdie
p2562
I1997
sVZangoose EX3
p2563
I1998
sVRoad runner
p2564
I881
sVAkari EX
p2565
I2000
sVDhalsim R
p2566
I2001
sVSmoker
p2567
I2002
sVAnother clone ash
p2568
I443
sVNeo Sonic
p2569
I2003
sVShockwave
p2570
I2004
sVAmaterasu
p2571
I2879
sVNikumaru
p2572
I2006
sVAnguirus
p2573
I4548
sVShigen EX3
p2574
I2007
sVKinyo roadshow
p2575
I4592
sVChun li xi
p2576
I929
sVGoku z2 EX3
p2577
I3575
sVLilith aensland
p2578
I2009
sVJohnny maximum
p2579
I4368
sVPower kung fu man
p2580
I3922
sVSmall Ryu
p2581
I2013
sVGekka suika
p2582
I2659
sVVega geegus
p2583
I4539
sVPoison ivy
p2584
I2015
sVThe creepy clock
p2585
I1769
sVCci mr.big
p2586
I2016
sVIno
p2587
I4690
sVMictlan EX
p2588
I2018
sVJohn crawley
p2589
I4319
sVMary deiyon
p2590
I1755
sVKing EX2
p2591
I4275
sVKing EX3
p2592
I2021
sVTenma-sama
p2593
I2022
sVSasquatch 71113
p2594
I2023
sVFaud EX3
p2595
I2024
sVMinotaur
p2596
I2025
sVSlug wanzer
p2597
I4853
sVCommissioner gordon
p2598
I2027
sVKyouken wakamoto
p2599
I2028
sVWarcueid t
p2600
I4871
sVRanma +
p2601
I3921
sVLegion
p2602
I2029
sVAmakusa ex
p2603
I2203
sVJuralian
p2604
I2031
sVErile
p2605
I4443
sVSanji 13
p2606
I1101
sVZero ariel
p2607
I2033
sVAdvent cloud
p2608
I1549
sVYui_kutuna
p2609
I2034
sVVegeta EX3
p2610
I2035
sVP4 hero
p2611
I2036
sVArrange_unknown
p2612
I2037
sVKumi
p2613
I2038
sV!
p2614
I2039
sVYuki nagato
p2615
I2040
sVA-yuki
p2616
I2041
sVThunder-iku
p2617
I2042
sVMs. fanservice
p2618
I2043
sVDragon ken
p2619
I2044
sVBonus
p2620
I2045
sVNakoruru EX
p2621
I4978
sVMegaman plus
p2622
I2046
sVOmega god ken
p2623
I2047
sVGreat s. man
p2624
I4679
sVAska EX2
p2625
I1176
sVSephiroth AK
p2626
I2049
sVGromit
p2627
I2050
sVRyu DG
p2628
I2052
sVHanyuu
p2629
I4307
sVSatsuki
p2630
I3648
sVNeo-dio
p2631
I2053
sVAsh of blueblood
p2632
I1210
sVSeikimatsukyu-seisya kenshirou
p2633
I4060
sVSlash-beast
p2634
I2885
sVRick strowd EX3
p2635
I2056
sVRx-78-2 gundam
p2636
I2378
sVKaede
p2637
I2057
sVGon the dinosaur
p2638
I3415
sVDon
p2639
I2059
sVCaramelman no.2
p2640
I4122
sVAkuma shin
p2641
I3535
sVTony won
p2642
I2060
sVSantaurus EX3
p2643
I3893
sVNu-13 EX
p2644
I2061
sVReal chibi scex
p2645
I2062
sVP-silver
p2646
I1263
sVHourai-car
p2647
I2064
sVTiria
p2648
I2065
sVUnyuho-l
p2649
I2066
sVBlack ranger
p2650
I2067
sVAka
p2651
I1278
sVSlarin
p2652
I2069
sVGouki sf3
p2653
I4191
sVEddie
p2654
I3471
sVNina EX
p2655
I4293
sVRyu_a
p2656
I2070
sVLavia
p2657
I2071
sVKanako yasaka
p2658
I4950
sVPepe EX3
p2659
I2072
sVSailor mars EX
p2660
I2073
sVSamus aran
p2661
I4984
sVSaya EX
p2662
I1314
sVF.tarantula
p2663
I2075
sVDeath-stuff
p2664
I2076
sVReal beavis
p2665
I1322
sVHotaru futaba
p2666
I2078
sVKill bill o-ren_ishii
p2667
I2014
sVUltimate sula
p2668
I4721
sVPeter griffin
p2669
I4146
sVOrder-sol
p2670
I957
sVTyrant marco
p2671
I4384
sVShin bison
p2672
I2081
sVSpiral mvc2
p2673
I2082
sVKyko waifu
p2674
I4527
sVOrchid
p2675
I2212
sVLeonardo 0d
p2676
I2084
sVB.swordsman
p2677
I2085
sVCrashman
p2678
I2086
sVYumel
p2679
I2087
sVDurian EX3
p2680
I2892
sVChaos satellite
p2681
I2089
sVDaos
p2682
I2090
sVKirara EX3
p2683
I2091
sVA Bison
p2684
I2092
sVMarona
p2685
I1559
sVKyo EX3
p2686
I2094
sVPoppy
p2687
I4274
sVAtlas
p2688
I5003
sVBenimaru
p2689
I2095
sVSouthside jim
p2690
I4492
sVZerozuchi
p2691
I2096
sVDi gi charat
p2692
I2894
sVMech rugal
p2693
I3593
sVFuuma
p2694
I4601
sVMech-hisui
p2695
I2097
sVNega ryo
p2696
I4012
sVRare Sophitia
p2697
I2099
sVHadou-ken
p2698
I2100
sVDark-baltan
p2699
I4064
sVD4 reimu EX3
p2700
I668
sVHachune miku
p2701
I3699
sVHyouken
p2702
I2103
sVMorilen
p2703
I4731
sVSchlussel
p2704
I3136
sVYuuka
p2705
I2105
sVKensou ex
p2706
I4739
sVFubuki sakuragasaki
p2707
I4934
sVTrue k'
p2708
I1521
sVSaya_g
p2709
I2108
sVDaimon 71113
p2710
I2109
sVTest a.i.
p2711
I2110
sVArabian moon
p2712
I2217
sVHagure metal king
p2713
I2111
sVDio v
p2714
I2112
sVVayeate
p2715
I2101
sVMr. big
p2716
I2114
sVRoppen heimer EX
p2717
I2115
sVCapt Commando
p2718
I3595
sVJoe A
p2719
I1996
sVNecro
p2720
I2118
sVLen and w. len
p2721
I1576
sVLightning
p2722
I4911
sVKomachi
p2723
I2120
sVUnyuho
p2724
I4840
sVMajin Virginia
p2725
I2121
sVUltraman jack
p2726
I4378
sVSaizo ryo
p2727
I2122
sVBao
p2728
I1613
sVVice EX3
p2729
I1621
sVCustom omk beatrice EX3
p2730
I2125
sVKen sf3
p2731
I1567
sVHakolen-sbs EX3
p2732
I2126
sVHakolen-sbs EX2
p2733
I2127
sVTeipa
p2734
I2128
sVGo badaa ba
p2735
I2129
sVRare nabeatu
p2736
I2130
sVNagato yuki
p2737
I1654
sVC-19
p2738
I2132
sVKazama kazuki EX3
p2739
I2133
sVKing godzilla
p2740
I4452
sVKurihan
p2741
I4556
sVEvil ryu ssf'2 plus
p2742
I4428
sVSonic 2 style sonic
p2743
I4404
sVDisc
p2744
I2136
sVOswald
p2745
I2138
sVAdon sfa
p2746
I2224
sVTamara
p2747
I4799
sVCci kula
p2748
I4419
sVSatan(zayin)
p2749
I1717
sVBoo ssj
p2750
I4156
sVCustom ssfiv oni
p2751
I2142
sVYouko
p2752
I2143
sVPunisher
p2753
I2144
sVFighter fly
p2754
I2145
sVKiller majinga
p2755
I5012
sVJones ex
p2756
I2147
sVDandy j
p2757
I2148
sVGato z2
p2758
I2149
sVKamek EX3
p2759
I4747
sVNinja turtles
p2760
I4211
sVSs6 sei-abab
p2761
I4248
sVRakugaki
p2762
I2151
sVMr.karateka
p2763
I2152
sVPsyqhical
p2764
I2153
sVZonu
p2765
I2154
sVBeatrice
p2766
I4727
sVArgento
p2767
I2155
sVCham cham
p2768
I4068
sVSailor mars
p2769
I3890
sVDaisy EX3
p2770
I2157
sVGod alosson
p2771
I2158
sVCci mature
p2772
I2159
sVTatsuki
p2773
I2160
sVSuper goku
p2774
I2102
sVGarlic jr
p2775
I2162
sVMiles edgeworth
p2776
I2163
sVHei meiling
p2777
I2781
sVKirikou EX3
p2778
I2164
sVDark Slayer
p2779
I2165
sVJason todd
p2780
I2166
sVKishima_kouma
p2781
I1850
sVIchigo Kurosaki
p2782
I4709
sVTenshi baiken
p2783
I3605
sVDantel
p2784
I4058
sVCharlotte ex
p2785
I2169
sVPrinny P
p2786
I4995
sVRare akuma
p2787
I4986
sVKeith wayne EX2
p2788
I3906
sVShermie
p2789
I1316
sVShishio
p2790
I977
sVToki jj
p2791
I2173
sVDark chun-li
p2792
I2174
sVA-minagi
p2793
I2083
sVSuika ibuki
p2794
I2176
sVGeese CVS
p2795
I146
sVArrange_shiori
p2796
I1918
sVVegeta ssj5
p2797
I2179
sVEx apollo
p2798
I1562
sVChloe valens
p2799
I1926
sVKawashima-san
p2800
I1930
sVGhoston
p2801
I2183
sVYouhei
p2802
I3976
sVMetallo
p2803
I2184
sVTowa
p2804
I2185
sVNina
p2805
I2186
sVCutie honey
p2806
I4257
sVHuryou hatune
p2807
I2187
sVFungi
p2808
I3607
sVAngela EX
p2809
I2189
sVNatsumi EX
p2810
I2190
sVChang
p2811
I2191
sVOmega red mvc2
p2812
I3101
sVSupreme gt vegeta
p2813
I4478
sVVenom MMV
p2814
I2194
sVHaohmaru CVS
p2815
I2195
sVMagikarp
p2816
I1847
sVCci kasumi
p2817
I2197
sVRyu SF4
p2818
I2198
sVGustab munchausen
p2819
I2199
sVRugal
p2820
I2200
sVEd
p2821
I4985
sVHeavyarmscustom
p2822
I2201
sVDisrupter
p2823
I2231
sVDante2
p2824
I2030
sVMuscle power
p2825
I2204
sVYagumo_ex
p2826
I3812
sVCless alvein
p2827
I2205
sVMisuzu
p2828
I2051
sVMasked rider 555_z
p2829
I2207
sVEvil dan
p2830
I2208
sVMokou EX
p2831
I3938
sVRichter belmont
p2832
I2210
sVTanuki
p2833
I2211
sVGod Boss Orochi
p2834
I5007
sVTrue power sol
p2835
I1659
sVTormentor jinmen
p2836
I2763
sVLynn 02
p2837
I2213
sVMissingno.
p2838
I2214
sVTails s2
p2839
I2215
sVYumemi
p2840
I2216
sVHugo
p2841
I4836
sVShiny diamond
p2842
I4805
sVVeigue_lungberg
p2843
I2218
sVBubbles DG
p2844
I2219
sVDan hibiki
p2845
I2220
sVBlaze agent
p2846
I2221
sVUltraman dyna
p2847
I2222
sVKaede ngbc
p2848
I2223
sVAxel
p2849
I2139
sVOhga
p2850
I2225
sVStingray
p2851
I2226
sVPlastic man
p2852
I4206
sVCell Hyper Dimension
p2853
I1579
sVBurter
p2854
I2068
sVC. shrd
p2855
I4197
sVVergil2
p2856
I2913
sVYuri sakazaki EX2
p2857
I2230
sVYuri sakazaki EX3
p2858
I2202
sVGowcaizer
p2859
I2232
sVGuardian
p2860
I2233
sVWaddledee EX3
p2861
I2234
sVAstonishing Cyclops
p2862
I4674
sVLehyu EX3
p2863
I4014
sVKaeru(chrono)
p2864
I2235
sVMr.big
p2865
I4673
sVZombie
p2866
I2227
sVPocket Cloud
p2867
I4839
sVJuggernaut mvc2
p2868
I2237
sVMike Haggar
p2869
I3840
sVChibi naruto
p2870
I2239
sVDirty kf man
p2871
I4417
sVIari
p2872
I2240
sVBerserker
p2873
I4415
sVAssasincross
p2874
I2914
sVOkubo kumi
p2875
I4710
sVNega peach EX3
p2876
I2236
sVVoltz
p2877
I2244
sVHulk ex
p2878
I2245
sVYugi(emanon)
p2879
I2246
sVAyu&misuzu&mizuka
p2880
I2247
sVArcher
p2881
I2248
sVClark Steel XIII
p2882
I3892
sVYuen-joe
p2883
I4215
sVJp Polnareff
p2884
I4758
sVCpt.falcon
p2885
I2251
sVShiiko yuzuki
p2886
I2252
sVSimon belmont
p2887
I3352
sVMr.saikyo
p2888
I2253
sVMB-02
p2889
I2254
sVOni inomura
p2890
I2255
sVShiki vp
p2891
I700
sVJean pielle
p2892
I4133
sVPucca-toppo
p2893
I2257
sVHinata Shippuden
p2894
I2258
sVYuri EX2
p2895
I2259
sVSymbiote spider-man
p2896
I2260
sVDoomsday
p2897
I2916
sVGuevara
p2898
I2262
sVChonrei W
p2899
I4237
sVKagami EX3
p2900
I4885
sVPossessed heita
p2901
I2264
sVRyu Master
p2902
I2265
sVHoly ken
p2903
I4112
sVRocket tank
p2904
I2266
sVSfcs_chunli
p2905
I4970
sVDark ash
p2906
I3887
sVColossus mvc2 ex
p2907
I2267
sVNrvnqsr chaos
p2908
I2268
sVWyler
p2909
I2269
sVFukumen senshi
p2910
I4532
sVSolid snake
p2911
I2270
sVIron_miyako
p2912
I4376
sVYuri lowell
p2913
I2271
sVCirnoJ
p2914
I2272
sVCafelier
p2915
I2273
sVThe Sailor Man
p2916
I2274
sVDracula EX2
p2917
I4919
sVSonic mvc
p2918
I4359
sVArc vp
p2919
I2275
sVCrazy rugal
p2920
I2276
sVElongated man
p2921
I4680
sVGod mouri
p2922
I4975
sVA ninja
p2923
I2277
sVKnyacki
p2924
I2278
sVGoa
p2925
I2279
sVAkaitsuki EX
p2926
I2280
sVFlan
p2927
I4870
sVBattler
p2928
I2281
sVUmvc_suika
p2929
I2282
sVGriffon
p2930
I2283
sVBloodia EX2
p2931
I2284
sVSabretooth
p2932
I4210
sVAsagi EX3
p2933
I3565
sVWeiss dhq
p2934
I2287
sVSuper3 goku
p2935
I2288
sVRaidou
p2936
I4074
sVEvil ryu
p2937
I3237
sVLf2 - firen
p2938
I2289
sVThin nen
p2939
I2291
sVAsuka
p2940
I2293
sVYukari ex
p2941
I2294
sVSoldier
p2942
I2295
sVA-agito
p2943
I2296
sVKurahashi tokimi
p2944
I2297
sVAo-takagami
p2945
I2298
sVSpiderman
p2946
I2299
sVHarpagos
p2947
I2300
sVUltimat goku
p2948
I2922
sVKim
p2949
I2301
sVDoom vega
p2950
I2302
sVMisaka mikoto
p2951
I2146
sVMyuu
p2952
I4523
sVToejam
p2953
I2304
sVYu asuka
p2954
I2305
sVWarewarenocolibri
p2955
I3706
sVSub-zero EX3
p2956
I4312
sVJill ex
p2957
I2307
sVCaptain marvel
p2958
I2308
sVGagi_fe
p2959
I2309
sVMaxim kischine
p2960
I3630
sVFelix the cat
p2961
I4276
sVCyndaquil
p2962
I2311
sVDeath
p2963
I4612
sVAkane satomura EX2
p2964
I4120
sVRuputna
p2965
I2313
sVStern
p2966
I3631
sVBlockhead
p2967
I2314
sVArrange_marisa
p2968
I2315
sVRed arremer
p2969
I3632
sVUltron
p2970
I3839
sVVega
p2971
I2317
sVEvil ryu sf3
p2972
I2318
sVJagi sama
p2973
I2319
sVSaltdonald
p2974
I2320
sVChiel
p2975
I2321
sVDr.doom
p2976
I4554
sVEiki-judgment
p2977
I2322
sVAdon ca
p2978
I2323
sVUndead jason voorhees
p2979
I2324
sVMaximum maxime
p2980
I2325
sVSaiyaman
p2981
I3423
sVRyu
p2982
I3842
sVSaizo
p2983
I2757
sVMegaman EX2
p2984
I2328
sVGillius
p2985
I846
sVDudley streets
p2986
I1939
sVMysty_monkstyle
p2987
I2209
sVWalkyrie EX2
p2988
I4602
sVStupid little drill tank
p2989
I2332
sVPocket Akuma
p2990
I2333
sVGoku ssj3 EX2
p2991
I2800
sVTobikage
p2992
I2335
sVHirasawa_yui
p2993
I4155
sVExtrahighfairy
p2994
I2336
sVSakaki
p2995
I2337
sVRed skull
p2996
I2338
sVYagami iori
p2997
I2339
sVMad dog
p2998
I2340
sVCheddah gief
p2999
I1646
sVMr.big EX3
p3000
I2342
sVGodman
p3001
I2343
sVNot so hyper commando team
p3002
I1916
sVZombies
p3003
I4431
sVKazama sogetsu
p3004
I3638
sVKarla
p3005
I2346
sVShizuha aki
p3006
I4434
sVCrazy-shin
p3007
I4522
sVSilver surfer
p3008
I2347
sVGustab m.
p3009
I2348
sVMakishi masao
p3010
I2256
sVSuper big bird
p3011
I4769
sVRatix
p3012
I2350
sVTurbo bonkers
p3013
I2351
sVCody(neoneo)
p3014
I1012
sVAntman 64
p3015
I4988
sVNeco-arc chaos
p3016
I2354
sVRyougi_shiki
p3017
I2355
sVKotonoha katsura
p3018
I370
sVIronfist ryu
p3019
I2357
sVBass
p3020
I2358
sVDaimon
p3021
I2359
sVSuper-japanese
p3022
I2934
sVSieger EX2
p3023
I2360
sVDoragory
p3024
I4618
sVSekkimaru
p3025
I1971
sVKill bill uma-ex
p3026
I2361
sVGod tewi
p3027
I4519
sVKim kap hwan
p3028
I220
sVS-yuuka
p3029
I4575
sVYuyuko & youmu
p3030
I2362
sVMagaki xi
p3031
I2363
sVKunagi
p3032
I4046
sVKyosuke
p3033
I2364
sVArrange_misuzu
p3034
I4238
sVPooh
p3035
I2365
sVSakuya.brando
p3036
I2366
sVMagic dunker EX
p3037
I2367
sVEtrigan
p3038
I2368
sVNash shadow
p3039
I2369
sVPatchouli_swr
p3040
I2370
sVAmi ex
p3041
I2371
sVShinshi
p3042
I4118
sVClub ace
p3043
I4963
sVRydia of mist
p3044
I2372
sVSon goku EX3
p3045
I3646
sVUltraman agul
p3046
I2373
sVTwitch waifu chan-hd
p3047
I2374
sVNyoki
p3048
I3512
sVUminin
p3049
I2375
sVDecade as kuuga
p3050
I2376
sVJon talbain
p3051
I3886
sVThe Colonel
p3052
I4129
sVMaxime
p3053
I4365
sVKirikou
p3054
I2380
sVFat albert
p3055
I509
sVRazor claws
p3056
I2382
sVMageko
p3057
I2263
sVDaimajin
p3058
I2383
sVDivekick kfm
p3059
I2384
sVIron man z
p3060
I2385
sVKagami EX2
p3061
I2386
sVMokou fujiwara EX3
p3062
I2388
sVMiopinja
p3063
I4641
sVChun-li jj
p3064
I2389
sVRalf EX3
p3065
I1610
sVSheana
p3066
I4852
sVUesugi kensin EX G
p3067
I2391
sVYukkuriyukarin
p3068
I2392
sVPaul phoenix
p3069
I2393
sVGezorah
p3070
I2394
sVThe undertaker
p3071
I819
sVKobuta
p3072
I3629
sVTourney pikachu
p3073
I2396
sVAndroid 16
p3074
I2944
sVRoyal air king EX3
p3075
I3953
sVJuggy
p3076
I2397
sVKen mvc
p3077
I2398
sVYuri di aaaaaa ex
p3078
I4049
sVCyborg_t-8p
p3079
I2945
sVAlter wind
p3080
I2399
sVKongou
p3081
I44
sVGliformoth EX3
p3082
I2400
sVElque
p3083
I3832
sVAlice margatroid
p3084
I3963
sVWerleck EX3
p3085
I1966
sVAnimus EX3
p3086
I2403
sVMami
p3087
I2404
sVReptile EX3
p3088
I3654
sVEvil guire
p3089
I2406
sVAkatsuki
p3090
I2407
sVCci xiangfei
p3091
I3305
sVRock EX2
p3092
I3201
sVGameboy
p3093
I2409
sVHoly flandre
p3094
I2410
sVMiko hd
p3095
I2411
sVCho-kichiku toki
p3096
I2412
sVDeliza
p3097
I1059
sVUmvc_gouki
p3098
I2415
sVMaster marco
p3099
I2416
sVSyoh
p3100
I2417
sVShen EX
p3101
I2418
sVZeldia 0D
p3102
I2419
sVKagura
p3103
I2420
sVUzume
p3104
I2421
sVBlack-rock_shooter
p3105
I2422
sVSimmon
p3106
I2423
sVHiziri
p3107
I2424
sVImouto
p3108
I2425
sVPepe-h
p3109
I3405
sVKing_leo
p3110
I4779
sVRaizen
p3111
I2427
sVUltraman 1st
p3112
I2428
sVBionicles
p3113
I2429
sVHeihachi m
p3114
I2430
sVBrass
p3115
I2431
sVColonel sanders
p3116
I2432
sVTerry_ff3rb
p3117
I2433
sVMakoto mizoguchi
p3118
I2434
sVKing
p3119
I4426
sVJulius belmont
p3120
I2435
sVFighter
p3121
I4707
sVSakata gintoki
p3122
I4053
sVEvil ken
p3123
I1053
sVLipsyncher
p3124
I4658
sVTurn-x
p3125
I2438
sVJin O
p3126
I2439
sVPiccoloco
p3127
I4578
sVDark arcueid mk2
p3128
I2440
sVForte cross rockman.exe
p3129
I4611
sVMina EX2
p3130
I3660
sVHonda tadakatsu
p3131
I2442
sVMask the griffon
p3132
I2443
sVOmega god ryu
p3133
I2955
sVClark 98
p3134
I2445
sVKubikiri basara KOF
p3135
I4520
sVLuigi
p3136
I4244
sVMc hisui
p3137
I3517
sVEyedol
p3138
I2448
sVEvil donald
p3139
I2449
sVHaruno sakura
p3140
I4272
sVMegamami EX2
p3141
I4131
sVPetshop
p3142
I2451
sVMay(ac)
p3143
I2452
sVThe guy
p3144
I4744
sVKrusty
p3145
I2453
sVShin meep140
p3146
I3725
sVUmbreon
p3147
I2455
sVMattrex
p3148
I2456
sVMiyako(coh)
p3149
I2457
sVK' dempsey
p3150
I2458
sVAkane tendo
p3151
I4436
sVBurai_yamamoto
p3152
I4464
sVGen kiba
p3153
I2459
sVGenma human by jhfer
p3154
I3563
sVCool
p3155
I2460
sVDreamform sula
p3156
I4593
sVSuperman
p3157
I2461
sVMoonmillenniummon
p3158
I2462
sVMaria EX2
p3159
I2463
sVSasuke
p3160
I4736
sVGuldin EX2
p3161
I2464
sVOrochi tenko
p3162
I1241
sVStrong guy
p3163
I2465
sVK' EX3
p3164
I3683
sVKensuke kudou
p3165
I2466
sVP3 heroine
p3166
I2467
sVMr.karate ssf'2 plus
p3167
I4997
sVIceclimber
p3168
I2469
sVMajor alan dutch schaefer
p3169
I2470
sVCyrax umk3
p3170
I2471
sVHitsugaya
p3171
I2472
sVWar
p3172
I4660
sVYue EX3
p3173
I1027
sVSaki EX2
p3174
I1564
sVMusashi
p3175
I4021
sVGalford nrf
p3176
I2475
sVZankuro ex
p3177
I2476
sVIgniz scarlet
p3178
I2477
sVNoriko nijou
p3179
I2478
sVSailor moon EX2
p3180
I1859
sVWashizuka xi
p3181
I3694
sVSion eltnam atlasia EX
p3182
I2479
sVYusha
p3183
I1841
sVYoshitora
p3184
I4563
sVDoruge
p3185
I3568
sVAsborb
p3186
I2481
sVKyoko
p3187
I2482
sVFordy-z
p3188
I2484
sVRogue
p3189
I2485
sVShin gouki EX2
p3190
I2486
sVJin chonrei
p3191
I2487
sVMorrigan nxc
p3192
I2488
sVPepito EX2
p3193
I2489
sVWreck-it ralph EX3
p3194
I2841
sVBaby bonnie hood EX3
p3195
I4189
sVLink tloz
p3196
I2491
sVAxel 'hawk' stone
p3197
I4645
sVRobo-mizuchi
p3198
I2492
sVKaguya houraisan
p3199
I2493
sVPocket chunli
p3200
I1625
sV94_flan
p3201
I3059
sVUndeadhero
p3202
I2495
sVOrochi
p3203
I4781
sVSagat f22
p3204
I2020
sVSauri
p3205
I2581
sVZoma
p3206
I2498
sVUdonge_a
p3207
I4610
sVHana akuma
p3208
I2499
sVCueca
p3209
I2500
sVKenshiro 64
p3210
I4910
sVKungfumithra
p3211
I2501
sVWing.0
p3212
I4380
sVSupergirl
p3213
I2502
sVSailor saturn
p3214
I2503
sVKing lion ngbc
p3215
I4003
sVFubuki
p3216
I2504
sVTron Bonne MVC2
p3217
I4705
sVMouri alice
p3218
I2505
sVSatsuki yumiduka EX
p3219
I4065
sVHotaru Futaba J
p3220
I2541
sVBeavis EX3
p3221
I2508
sVBeavis EX2
p3222
I2509
sVSaint kyo
p3223
I4285
sVShoujo genkai
p3224
I2511
sVGarner
p3225
I4914
sVMaster sakura
p3226
I2512
sVLiu yungmie
p3227
I3482
sVMichael jackson
p3228
I3382
sVCvs sakura
p3229
I2513
sVRin_tohsaka
p3230
I3891
sVWaha- EX3
p3231
I3132
sVMaster hand
p3232
I2515
sVRobo-sol
p3233
I4105
sVMudman
p3234
I4165
sVOkina
p3235
I2516
sVKyo xi
p3236
I2517
sVOyashiro_chie
p3237
I104
sVPikkon
p3238
I4726
sVCola
p3239
I2519
sVKotone
p3240
I3659
sVAngry video game nerd
p3241
I3671
sVJinmen
p3242
I4341
sVCci jhun EX3
p3243
I2522
sVYashiro nanakase EX3
p3244
I2523
sVArcueid
p3245
I2524
sVMisty
p3246
I3672
sVRemilia scarlet
p3247
I132
sVBloodia EX3
p3248
I2285
sVMukai
p3249
I4286
sVElena_n
p3250
I147
sVLee Cosplay
p3251
I4377
sVRocky balboa
p3252
I2530
sVTanya
p3253
I2531
sVDaniel
p3254
I2532
sVGrebam
p3255
I2483
sVSlash
p3256
I2534
sVOda nobunaga EX
p3257
I2535
sVThe scyther
p3258
I4387
sVYue CC
p3259
I2536
sVIori 71113
p3260
I2537
sVTwelve EX3
p3261
I2538
sVIkki
p3262
I2539
sVRyu hell
p3263
I2540
sVJoshua bright
p3264
I4529
sVJohnny cage EX
p3265
I4582
sVKiriko
p3266
I2542
sVTwintail
p3267
I2543
sVLast adult goku
p3268
I2544
sVJames jerkenson
p3269
I4517
sVMysterious budo
p3270
I2545
sVChizuruxxx
p3271
I2546
sVChiyo mihama EX
p3272
I4005
sVZoffy
p3273
I3674
sVReal Ryu
p3274
I2548
sVCody_a
p3275
I2549
sVThalia
p3276
I2550
sVLambdadelta
p3277
I2551
sVRangle EX3
p3278
I2552
sVNick commando EX FF
p3279
I3838
sVGenyew
p3280
I4108
sVRock(mkii)
p3281
I1845
sVScarlet dragon EX3
p3282
I2554
sV9
p3283
I2555
sVUmvc_aya
p3284
I258
sVHakureimu
p3285
I2557
sVIbuki sf3
p3286
I744
sVMienshao
p3287
I4444
sVExistence-less
p3288
I3721
sVLemeza
p3289
I2559
sVMajic-pot
p3290
I4263
sVThunder mask
p3291
I2976
sVKongman
p3292
I2561
sVThierry henry
p3293
I2562
sVAmato
p3294
I2563
sVFullmoon_suika
p3295
I2564
sVMr burns
p3296
I4636
sVGreen lantern
p3297
I2565
sVThe world-dio EX3
p3298
I2566
sVMaster taekuk
p3299
I2567
sVSanosuke
p3300
I4510
sVRaphael
p3301
I4694
sVMr. bean
p3302
I2568
sVScopedog
p3303
I2569
sVThwomp
p3304
I2570
sVDlanor a. knox
p3305
I327
sVSkapokan
p3306
I2572
sVClawbear
p3307
I337
sVW buffalo_n
p3308
I2574
sV009
p3309
I4161
sVHammer bro
p3310
I2575
sVSynn
p3311
I2196
sVAtusi
p3312
I2578
sVMr.karate EX2
p3313
I4723
sVKars
p3314
I2579
sVMedamaoyaji
p3315
I2580
sVNabeatu
p3316
I4591
sVGully
p3317
I4142
sVNeyufeulle
p3318
I2583
sVAkira
p3319
I303
sVMystic gohan
p3320
I420
sVOchamaro
p3321
I4691
sVIronpatriot
p3322
I2586
sVSol
p3323
I2587
sVIris
p3324
I4990
sVWafu
p3325
I2588
sVRinrin
p3326
I2589
sVAkira kogami
p3327
I2661
sVRay mcdogall
p3328
I2591
sVRemilya scarlet
p3329
I2592
sVGiro
p3330
I2593
sVHikaru EX3
p3331
I4351
sVCarol stanzack
p3332
I3925
sVTrap master makoto
p3333
I4855
sVArmgon
p3334
I2595
sVHol 'butt king' funtimes
p3335
I2984
sVEdonokiba
p3336
I2596
sVFang
p3337
I2597
sVShingo 98
p3338
I4793
sVCharizard
p3339
I2598
sVLenalee-mvc EX3
p3340
I2599
sVMasako(emanon)
p3341
I2600
sVAk man
p3342
I4685
sVPredator
p3343
I2510
sVChipp zanuff h
p3344
I2602
sVK.m.mioh
p3345
I3996
sVMora_g
p3346
I1554
sVTingle
p3347
I2604
sVKitaro EX3
p3348
I2605
sVGotenks ssj
p3349
I2606
sVTien
p3350
I3928
sVZeroko EX3
p3351
I2607
sVE nagamori
p3352
I2608
sVSpawn CVG
p3353
I4872
sVTam tam
p3354
I2610
sVEmily
p3355
I3268
sVSento kun
p3356
I2611
sVFelicia EX2
p3357
I2612
sVPuss in boots
p3358
I2613
sVTnok
p3359
I2615
sVKogasa_f
p3360
I3943
sVRorschach
p3361
I2616
sVJurane
p3362
I4500
sVArcbeetle
p3363
I2617
sVAyumu kasuga EX
p3364
I4446
sVNero DMC4
p3365
I4622
sVNaitou
p3366
I2619
sVAbui
p3367
I2620
sVBlaque
p3368
I562
sVMike haggar EX3
p3369
I2622
sVOmega tiger woods
p3370
I2623
sVTarantulra_dfo
p3371
I4277
sVDevil jin
p3372
I1902
sVDon patch
p3373
I2624
sVAnge EX
p3374
I3420
sVAwakened torao
p3375
I2625
sVAioria de leo
p3376
I4180
sVSilvermoon
p3377
I2627
sVChipp
p3378
I2628
sVClassic batman
p3379
I2629
sVRip_saber
p3380
I2630
sVAlien mefilas
p3381
I2631
sVArmor jack
p3382
I4572
sVMarshal law
p3383
I2632
sVTsu-
p3384
I2633
sVYoshi EX2
p3385
I1498
sVSailor mars k
p3386
I580
sVAndore jr
p3387
I2636
sVThor
p3388
I2637
sVGold warmachine
p3389
I2638
sVBilly
p3390
I655
sVYoukanman
p3391
I3478
sVRoyal guard
p3392
I667
sVLucario
p3393
I2641
sVKracko
p3394
I673
sVKanaka
p3395
I2643
sVReika murasame EX
p3396
I4623
sVSyllin
p3397
I2644
sVAcguy
p3398
I2645
sVMitsuji tanimati
p3399
I2646
sVNanmushi
p3400
I3901
sVF.o.e.
p3401
I4015
sVTin star
p3402
I2648
sVBlack rabite
p3403
I2649
sVChill penguin
p3404
I4343
sVTakiyasya
p3405
I4267
sVBlubberman
p3406
I724
sVMai_shiranui EX3
p3407
I4287
sVSuper-8
p3408
I2651
sVJack in dia
p3409
I2652
sVShimako
p3410
I2653
sVWhispy woods
p3411
I2654
sVYawara
p3412
I2655
sVOmega Woods
p3413
I2656
sVMeiya
p3414
I2657
sVHugo EX
p3415
I3959
sVTallgeese
p3416
I4409
sVMaria
p3417
I3857
sVKirara
p3418
I1647
sVGhost rider
p3419
I4490
sVAndroid 16 ai-barbatos
p3420
I4668
sVAndo
p3421
I803
sVMariko konjou
p3422
I4562
sVJoe EX3
p3423
I2662
sVShintaro
p3424
I4317
sVNogami_aoi
p3425
I4204
sVRyu 98
p3426
I2664
sVMeiya_striker
p3427
I2665
sVChildre inarabitta
p3428
I2666
sVZangeese EX2
p3429
I847
sVBlaze EX2
p3430
I2206
sVJack13
p3431
I860
sVAndy
p3432
I2669
sVEx adamas
p3433
I2670
sVNatalia glinka
p3434
I465
sVGenkai
p3435
I4900
sVChichi EX3
p3436
I871
sVBonegolem
p3437
I2673
sVBasilisk-s[0.98] EX3
p3438
I4170
sVHyper neo-kamek
p3439
I2675
sVWiler
p3440
I2676
sVSailor mercury k
p3441
I412
sVSankuro yorozu
p3442
I3942
sVYami yugi
p3443
I2679
sVLambda 11
p3444
I2680
sVTetsu yatoji
p3445
I2681
sVCar navi EX
p3446
I2682
sVBomber man
p3447
I4655
sVSakura EX2
p3448
I2683
sVMisaka mikoto EX2
p3449
I2684
sVHol horse & boingo
p3450
I4505
sVTiblekun
p3451
I2685
sVOdie
p3452
I954
sVLin EX3
p3453
I2687
sVGodmars
p3454
I2688
sVDrdoom
p3455
I2689
sVModel z
p3456
I2690
sVNyamo EX
p3457
I2691
sVEiji mk
p3458
I985
sVSuccubus
p3459
I4971
sVPolon
p3460
I4183
sVChen-mao
p3461
I2693
sVFrankenstein
p3462
I2694
sVColossus
p3463
I2695
sVDark champion
p3464
I2228
sVMr.karate
p3465
I2697
sVToguro 100%
p3466
I2698
sVBoggy
p3467
I4104
sVShin akuma
p3468
I1051
sVDonkey kong EX2
p3469
I2700
sVTu shou
p3470
I2048
sVParasite
p3471
I3964
sVLotus master
p3472
I2702
sVIggy
p3473
I4568
sVDhaos RD
p3474
I2577
sVJado
p3475
I4576
sVJimmy
p3476
I3458
sVGohan school
p3477
I1093
sVGambit MVC2
p3478
I1098
sVRoa
p3479
I4372
sVIzanagi
p3480
I2707
sVKy Kiske
p3481
I1106
sVMia touma
p3482
I2709
sVLucifer 2
p3483
I2710
sVKaf ka
p3484
I2711
sVNecorsair
p3485
I2712
sVSaiyajin
p3486
I2713
sVBurnov
p3487
I1741
sVPower lyzer
p3488
I2715
sVV2ab
p3489
I2716
sVKorokoromushi
p3490
I4877
sVDorothy
p3491
I4676
sVHonki-ultraman
p3492
I4712
sVStarsavior
p3493
I4084
sVAkari kamigishi EX3
p3494
I1146
sVHeika-ss
p3495
I2721
sVNeco
p3496
I4177
sVAleti ex
p3497
I4976
sVDongdong
p3498
I1406
sVShaq
p3499
I4284
sVOrochi ball
p3500
I1901
sVOshawott
p3501
I3708
sVEnegori
p3502
I2725
sVParace
p3503
I2726
sVShingetter1
p3504
I3032
sVLaststarman
p3505
I4789
sVRascal
p3506
I1197
sVNaruto uzumaki
p3507
I4298
sVFygar
p3508
I2728
sVBurnie
p3509
I2729
sVHal jordan
p3510
I2730
sVBloo xiii
p3511
I2731
sVSula
p3512
I2732
sVKyo_99xi
p3513
I2733
sVMeteor
p3514
I2734
sVUsapi-
p3515
I4784
sVGeese_ff3rb
p3516
I2735
sVRobin_mask
p3517
I2736
sVProtectos
p3518
I4897
sVSazabi EX3
p3519
I1246
sVSupermario64
p3520
I2738
sVMiyako arrange abyss
p3521
I4413
sVGarmraid
p3522
I3205
sVLf2 - bat
p3523
I4356
sVRatking
p3524
I2740
sVEtomo shuko EX3
p3525
I4031
sVBatgirl
p3526
I4501
sVMorrigan Aensland
p3527
I2741
sVClonekyo xi
p3528
I2742
sVVulture
p3529
I2743
sVKill bill uma
p3530
I2744
sVKaonasi
p3531
I4442
sVChronoforce
p3532
I2746
sVCho-kichiku masamune EX3
p3533
I2747
sVCm punk
p3534
I2748
sVBoring sdk shiina yuya
p3535
I3999
sVKarin CVS
p3536
I1327
sVShantotto
p3537
I2749
sVDante D4
p3538
I4078
sVRyu EX3
p3539
I2750
sVMasked rider 1st
p3540
I1303
sVBlue blood
p3541
I2752
sVWonder boy shion
p3542
I2753
sVSteel
p3543
I2754
sVSaki mitonoya
p3544
I2755
sVValgar reinhart
p3545
I1253
sVMorph
p3546
I4848
sVDeadpool EX
p3547
I2758
sVHamtaro
p3548
I4482
sVThawk sfa
p3549
I2760
sVKung fu fiunn
p3550
I2762
sVKuanyinshen
p3551
I4746
sVA-rock
p3552
I4683
sVHyper kagami
p3553
I2764
sVLyzer
p3554
I2765
sVSyouzan matsuo
p3555
I2766
sVK-series
p3556
I2767
sVRen mizusaka
p3557
I2768
sVAura
p3558
I2769
sVChaka EX3
p3559
I2771
sVJohann EX3
p3560
I2772
sVKoneko
p3561
I2773
sVBoulma
p3562
I4370
sVJyubei yagyu
p3563
I2774
sVLavos spawn
p3564
I4858
sVThe red skull
p3565
I2775
sVSuper #13
p3566
I1403
sVStone_bonus
p3567
I4234
sVGeneral_l
p3568
I1667
sVJ'onn j'onnz
p3569
I2329
sVSpongebob
p3570
I4318
sVTwitch waifu chan-sd
p3571
I2779
sVElza kanagusuku
p3572
I2780
sVPiccolo
p3573
I4701
sVDolphin
p3574
I4938
sVSenna
p3575
I2582
sVEvil ken ssf'2 plus
p3576
I1346
sVNao EX3
p3577
I4741
sVPesoguin
p3578
I2782
sVStrawbelly jam
p3579
I2330
sVMizuki EX2
p3580
I1462
sVLunasa
p3581
I1669
sVAngel ryu
p3582
I4627
sVNouka
p3583
I3555
sVKrillin
p3584
I421
sVFamardy
p3585
I2787
sVAlien borg
p3586
I4620
sVSara_cat EX
p3587
I2788
sVSophitia
p3588
I1487
sVBernkastel
p3589
I1499
sVShion
p3590
I4711
sVAlcott
p3591
I2791
sVNacht_jaeger1.29
p3592
I2792
sVHige
p3593
I4862
sVJeff howard
p3594
I4024
sVLeon EX
p3595
I1082
sVDare devil
p3596
I4530
sVScene
p3597
I4675
sVHoujuu nue H
p3598
I2794
sVGuldin
p3599
I4269
sVPeketo
p3600
I3991
sVO_flan-var.2
p3601
I2795
sVYukino
p3602
I2796
sVLuise
p3603
I2797
sVHatchetman
p3604
I1547
sVGuile machine
p3605
I2799
sVMegatron
p3606
I4807
sVKuwabara
p3607
I1555
sVJuggernaut ex
p3608
I2802
sVJagi bike
p3609
I2803
sVThe dazzler
p3610
I3958
sVPulunis
p3611
I2804
sVRyu mvc1
p3612
I4487
sVNanase
p3613
I4371
sVMagaki EX2
p3614
I2805
sVAdler-a
p3615
I4929
sVChonshu EX3
p3616
I4469
sVRikku
p3617
I1599
sVRaphael EX
p3618
I2807
sVGarfield
p3619
I2808
sVCvs blaze
p3620
I1615
sVH-duolon
p3621
I2810
sVHiryu EX2
p3622
I2699
sVHan EX3
p3623
I2811
sVChie_rumiko
p3624
I2812
sVAkito(coh)
p3625
I2813
sVOuyang feng
p3626
I2814
sVAn ogre
p3627
I2815
sVGoblin
p3628
I4947
sVMito_mashiro
p3629
I2816
sVRobo rock
p3630
I2817
sVKeine kamishirasawa(keln)
p3631
I2818
sVRuriko
p3632
I1660
sVCheng_fu
p3633
I4485
sVAntimage
p3634
I2820
sVAzteca
p3635
I2821
sVKanoko hosokawa
p3636
I2822
sVLight yagami
p3637
I2823
sVAnnoying orange
p3638
I473
sVSentry
p3639
I1697
sVDoppo orochi
p3640
I4447
sVH_gate_0350
p3641
I2826
sVAsha
p3642
I2827
sVWakko
p3643
I1709
sVGorilla
p3644
I4097
sVDante 4
p3645
I2830
sVToki hakurei
p3646
I2831
sVMazinger-z ex
p3647
I4136
sVYujiro-hanma
p3648
I2832
sVPeppercat
p3649
I947
sVTrevor B
p3650
I2834
sVGeneral blue
p3651
I2835
sVKanae
p3652
I2836
sVFull armor ciel
p3653
I2837
sVThe nightmare
p3654
I4916
sVC-stm-00x
p3655
I4854
sVSabu EX3
p3656
I2838
sVMajin vegeta EX3
p3657
I2839
sVCc iron clara
p3658
I1774
sVLf2 - rudolf
p3659
I1778
sVEtomo shuko
p3660
I3702
sVPicurin
p3661
I2842
sVSf4 vega
p3662
I2843
sVAl
p3663
I4087
sVRikuo
p3664
I3897
sVMiko
p3665
I2846
sVIria
p3666
I4332
sVUppercut
p3667
I2847
sVKyoshiro ex
p3668
I2341
sVD4 roll
p3669
I2849
sVImperfect cell
p3670
I2850
sVLf2 - henry
p3671
I2851
sVHwoarang
p3672
I2852
sVKen CVS
p3673
I2853
sVKanorin
p3674
I3785
sVRip Saber
p3675
I2854
sVHourai-car EX2
p3676
I2855
sVChina kohaku
p3677
I3955
sVNanoha tsukikage
p3678
I2856
sVNicola zaza
p3679
I4624
sVCyberdemon
p3680
I4471
sVGenma saotome
p3681
I2857
sVJin
p3682
I184
sVBospider
p3683
I4887
sVSaya(p_ai)
p3684
I4231
sVBrimstone
p3685
I2861
sVR-unagi
p3686
I3024
sVExtramyon
p3687
I4114
sVCarriage driver
p3688
I4765
sVTiger mm
p3689
I4688
sVOrochi akuma
p3690
I2864
sVMultiple man
p3691
I2865
sVNoroko EX3
p3692
I2866
sVMamizou EX
p3693
I4559
sVGuy
p3694
I3429
sVAyu tsukimiya
p3695
I2868
sVRelly
p3696
I435
sVFreddie mercury
p3697
I2618
sVGoliath doll
p3698
I5002
sVMtguile
p3699
I2870
sVIceman cota
p3700
I2871
sVAndy bogard rb
p3701
I2872
sVKoyomi mizuhara
p3702
I2873
sVLizardman
p3703
I4461
sVSho ryu
p3704
I2874
sVNoa
p3705
I4604
sVHakumen
p3706
I1305
sVGoddman batman
p3707
I3152
sVRekka
p3708
I1695
sVCyborg superman
p3709
I2877
sVSabretooth EX
p3710
I4942
sVKenoh
p3711
I3944
sVQueen the spade
p3712
I4093
sVHisame shizumaru ex2
p3713
I2005
sVChen_ai EX3
p3714
I1687
sVAnd 18
p3715
I2881
sVKungfugirl uzuki
p3716
I3814
sVNeo meep140
p3717
I4824
sVHattori hanzou ph ai
p3718
I4821
sVTora shou
p3719
I2882
sVCius
p3720
I2883
sVLord zedd
p3721
I2884
sVAnother agito
p3722
I2055
sVGolgo13
p3723
I4874
sVAlpha candy
p3724
I2886
sVCrea-f
p3725
I322
sVBurger king
p3726
I4901
sVVictor ortega
p3727
I2888
sVMugetu
p3728
I2889
sVTiti
p3729
I4101
sVWarakia
p3730
I4427
sVNitori(emanon)
p3731
I2890
sVGrimace
p3732
I2891
sVSensei ken
p3733
I2088
sVYumina
p3734
I2893
sVFreedom
p3735
I4026
sVAnother cirno
p3736
I3302
sVBlack moth
p3737
I633
sVBig bear 0D
p3738
I2895
sVLeonardo EX
p3739
I2896
sVYukkuri
p3740
I1281
sVBully in the launderette
p3741
I2898
sVKyo
p3742
I2899
sVBaruganodon_ex
p3743
I2900
sVKano EX
p3744
I4475
sVNazrin
p3745
I2902
sVMegaman.exe EX
p3746
I4079
sVSilversamurai
p3747
I2353
sVThe thing
p3748
I4082
sVKurorim
p3749
I2924
sVBalrog_a
p3750
I2904
sVKenshin uesugi
p3751
I2905
sVThe mask of ero
p3752
I4043
sVEnoch
p3753
I4977
sVHaruka
p3754
I2907
sVTakumi hattori
p3755
I2908
sVAchamo
p3756
I2909
sVShiki tohno iqs
p3757
I4344
sVTouko matsudaira
p3758
I2352
sVCammy EX3
p3759
I4091
sVMad grinder
p3760
I2344
sVRenji
p3761
I2911
sVGustavo
p3762
I4034
sVAlena
p3763
I4761
sVIrori
p3764
I2229
sVVillager-j
p3765
I4974
sVMaster god ryu
p3766
I2241
sVRax coswell
p3767
I4400
sVKureha EX3
p3768
I2915
sVMimizuku_teacher
p3769
I4141
sVSerika_os
p3770
I2917
sVBlue eyes white karin
p3771
I4463
sVJack-hamma
p3772
I2918
sVGoenitz
p3773
I4299
sV(sman) EX3
p3774
I2919
sVVan platin
p3775
I2920
sVMecha-gorilla
p3776
I2921
sVMinis mahn
p3777
I4032
sVDown
p3778
I2923
sVOnslaught 2
p3779
I2925
sVJagi
p3780
I2926
sVLeo bradlay
p3781
I2927
sVRanmaru
p3782
I4013
sVJam(ac)
p3783
I2929
sVEvil Vegeta
p3784
I4888
sVHonda asuka
p3785
I2931
sVNests-rugal
p3786
I2932
sVZan-b
p3787
I2933
sVShin gouki ssf'2 plus
p3788
I2356
sVOro
p3789
I4385
sVGoku transformer
p3790
I2930
sVLink
p3791
I2935
sVRock EX
p3792
I2936
sVOrsted
p3793
I3044
sVGhost kick
p3794
I2937
sVOrochi vega
p3795
I2938
sVGulpfer
p3796
I3904
sVChunli 3so
p3797
I2739
sVKyo-1
p3798
I2940
sVOrc
p3799
I2941
sVLina
p3800
I2942
sVDoraemon EX3
p3801
I353
sVDis astranagant
p3802
I1313
sVMakai
p3803
I4834
sVBousou oni-chiduru K
p3804
I2946
sVGiant jackson
p3805
I1358
sVAnother suwako
p3806
I2331
sVSkiboots
p3807
I4595
sVImr-765-s_kisaragi
p3808
I2948
sVLight
p3809
I894
sVToyotomi hideyoshi
p3810
I2951
sVMars people
p3811
I2952
sVTrunks ssj4
p3812
I2953
sVFrank archer
p3813
I2954
sVAndroid 18
p3814
I2444
sVCyber shredder
p3815
I4621
sVGeneral bush
p3816
I2957
sVKing kong
p3817
I2756
sVYun
p3818
I2959
sVKenshi ex
p3819
I4235
sVYue
p3820
I2960
sVTerry ex02
p3821
I2961
sVMr. game & watch plus
p3822
I4640
sVAmakusa
p3823
I2962
sVKirisima kyoko
p3824
I2963
sVYukari
p3825
I4373
sVWave man
p3826
I1683
sVSpin youmu
p3827
I2965
sVHeavy rob
p3828
I2966
sVDeath13 EX3
p3829
I2967
sVFlan ex
p3830
I2969
sVAthena fake
p3831
I2970
sVKinopio
p3832
I4437
sVLion_gunta
p3833
I306
sVS.clara
p3834
I195
sVSayuri kurata
p3835
I4491
sVWu-ling
p3836
I2973
sVIshtar
p3837
I1402
sVKefka palazzo
p3838
I2975
sVEliza EX
p3839
I2560
sVZero Hotaru
p3840
I2977
sVGotenks gt
p3841
I2978
sVAlvin the chipmunk
p3842
I2979
sVZlorf rerpf
p3843
I1903
sVConker
p3844
I2981
sVKusanagi EX
p3845
I976
sVKaname madoka EX
p3846
I3809
sVSuper-Mario
p3847
I604
sVSanosuke EX3
p3848
I2134
sVElfriede
p3849
I4979
sVDq5-daughter
p3850
I3379
sVP-ciel
p3851
I2985
sVSub-zero mk2
p3852
I2947
sVShadow dio
p3853
I4061
sVAkari
p3854
I2987
sVTerry 02
p3855
I3666
sVYoko yuki
p3856
I2990
sVNorimaro EX3
p3857
I2991
sVReika EX3
p3858
I2992
sVNimuge president
p3859
I4224
sVItachi uchiha
p3860
I5013
sVHisui
p3861
I2993
sVT-h-m-a
p3862
I2994
sVNico
p3863
I2660
sVTerryman
p3864
I2996
sVQbee c.v.
p3865
I2997
sV2nd death star
p3866
I2998
sVStrider hiryu
p3867
I2999
sVKira
p3868
I3000
sVAgrias
p3869
I4268
sVBerserker EX
p3870
I3001
sVScorpion CVW
p3871
I4126
sVLoud demon
p3872
I3002
sVCoil
p3873
I3003
sVYuri_96
p3874
I4632
sVDeath ogre
p3875
I3004
sVBlanka
p3876
I373
sVSieger
p3877
I4296
sVEdward newgate
p3878
I3007
sVHazama
p3879
I3008
sVGeisya
p3880
I452
sVBurnin' leo
p3881
I3010
sVApe man
p3882
I3749
sVShiki_kageya
p3883
I3370
sVWildcat
p3884
I3012
sVSs6 rinrin
p3885
I193
sVJurarus
p3886
I4130
sVDrunken master
p3887
I3014
sVSpelunker
p3888
I3015
sVKarnov ex
p3889
I3016
sVWangchang EX
p3890
I3652
sVSion tatari EX
p3891
I4577
sVScharlachrot
p3892
I393
sVPocket Felicia
p3893
I3017
sVPyro
p3894
I3018
sVPandon fe
p3895
I3019
sVDonaiya
p3896
I4558
sVKyoso(n-cube ai)
p3897
I3020
sVHol horse EX
p3898
I3021
sVInjya
p3899
I3022
sVNakoruru ex EX3
p3900
I3023
sVTalonarten
p3901
I2862
sVKim hoon EX
p3902
I3025
sVNash
p3903
I3026
sVZero Cloud
p3904
I3027
sVHaruka_amami
p3905
I3028
sVTerry bogard
p3906
I3753
sVWolfgang krauser EX
p3907
I3030
sVAlbion
p3908
I3031
sVUsada hikaru
p3909
I4828
sVTao jun EX
p3910
I2192
sVRev saizo
p3911
I4794
sVBlizzard
p3912
I3033
sVKaname madoka
p3913
I3034
sVMecha dragon
p3914
I2906
sVMorgiana EX2
p3915
I3036
sVMakoto nanaya
p3916
I1341
sVIbuki suika nightmare
p3917
I3037
sVZenith
p3918
I3038
sVMoguera
p3919
I4903
sVCyclopes
p3920
I4999
sVRyuuguu rena
p3921
I2723
sVMinmin
p3922
I3039
sVChris_gb
p3923
I3040
sVAracne de tarantula
p3924
I4699
sVNeko
p3925
I4016
sVBaki-hanma ex
p3926
I3041
sVWong fei hung
p3927
I4241
sVSylphie
p3928
I4025
sVRockman
p3929
I3043
sVSuzushina yuriko
p3930
I2292
sVYoung Heihachi
p3931
I3045
sVYuki fujiwara
p3932
I3046
sVCassius bright
p3933
I3047
sVAlpaca
p3934
I3390
sVMasaki anzu EX3
p3935
I3049
sVCondor
p3936
I4528
sVYoriko-mvc EX3
p3937
I3050
sVAlex mercer
p3938
I4328
sVAgony
p3939
I4042
sVKaori
p3940
I3051
sVDiokles
p3941
I1852
sVCliff-tsunade-godaime
p3942
I3053
sVNoah
p3943
I4851
sVCchouou
p3944
I3054
sVByakuya kuchiki
p3945
I1898
sVYako_katsuragi
p3946
I4515
sVSonozaki_shion
p3947
I3057
sVGato ex
p3948
I4226
sVDate masamune
p3949
I4894
sVRosie
p3950
I3058
sVAoko
p3951
I3096
sVRyoko(mugen)
p3952
I3060
sVMaat
p3953
I4199
sVTukuyo
p3954
I3061
sVMetaknight
p3955
I3062
sVKusanagi
p3956
I3063
sVBeast
p3957
I3064
sVBloody flandre
p3958
I3065
sVAsamiya saki x
p3959
I3066
sVJo jo
p3960
I3067
sVPlatinum the trinity
p3961
I3068
sVJedah
p3962
I3069
sVHouoh EX
p3963
I3070
sVAgrias BC
p3964
I4229
sVRbff master geese
p3965
I3072
sVYacopu
p3966
I3073
sVShinjuro
p3967
I3074
sVUltimate weapon chise
p3968
I4800
sVPorky minch
p3969
I3076
sVRuili EX3
p3970
I1842
sVPocket Ken
p3971
I3077
sVBaby commando
p3972
I939
sVKungFu Man
p3973
I4430
sVShin scrub ken
p3974
I4066
sVSuper3 goku EX3
p3975
I3080
sVMudman ngbc
p3976
I3081
sVQ
p3977
I3082
sVKendo&kyudo
p3978
I3083
sVKoryu
p3979
I3084
sVNatsu
p3980
I3239
sVSakazaki ryo
p3981
I3986
sVSpider-man 2099
p3982
I800
sVRigby
p3983
I3087
sVKazama sogetsu EX3
p3984
I3088
sVShrek
p3985
I3089
sVScarlet dragon
p3986
I3090
sVAner rolange
p3987
I3091
sVRock of spirit
p3988
I3092
sVSuperbot
p3989
I4289
sVGhetto Warmachine 420
p3990
I3286
sVReptile
p3991
I3094
sVChibi kuroko
p3992
I2496
sVFamily dog
p3993
I3095
sVMai S
p3994
I3295
sVPerfectakishimai 2
p3995
I2982
sVCrystal
p3996
I3909
sVKira daidoji
p3997
I3097
sVBoring kagekiyo
p3998
I2594
sVAkashima
p3999
I3847
sVSuperboy
p4000
I3100
sVRain mk2
p4001
I4121
sVLion magnus
p4002
I3102
sVRoza
p4003
I3103
sVShikamaru
p4004
I4587
sVShadow lady
p4005
I3104
sVAhojingod
p4006
I3105
sVFaust(ac)
p4007
I3106
sVHisui aa
p4008
I3107
sVMichelangelo 0d
p4009
I4472
sVRegina
p4010
I4503
sVYadamon
p4011
I3109
sVAkiba
p4012
I3110
sVAleti
p4013
I3111
sVGonzales
p4014
I3112
sVChange dragon
p4015
I2801
sVManami kusunoki
p4016
I3114
sVAya
p4017
I3115
sVSagat SF4
p4018
I4057
sVHoppy
p4019
I3116
sVBlaziken
p4020
I449
sVJa-koh
p4021
I3118
sVKagetsura
p4022
I3119
sVPhysalis
p4023
I3120
sVMongori
p4024
I3956
sVFinal
p4025
I4815
sVGuillotine gen
p4026
I3121
sVFreeman_n
p4027
I3122
sVImit ultraman
p4028
I1125
sVGod gundam
p4029
I1114
sVZako-dan
p4030
I3124
sVBlossom DG
p4031
I4102
sVKingslime
p4032
I1725
sVEvil dooby dummy
p4033
I1707
sVBoss gustab m.
p4034
I3127
sVYuiran
p4035
I4195
sVAsagi asagiri
p4036
I3128
sVRick
p4037
I3129
sVPrometheus
p4038
I3130
sVKusanagi EX3
p4039
I4205
sVSquall
p4040
I3131
sVRyu sf3
p4041
I1117
sVMaster shake
p4042
I2303
sVGori
p4043
I3071
sVSumo
p4044
I4147
sVLeona
p4045
I2447
sVArcadboy
p4046
I2381
sVSkywarp
p4047
I3137
sVAbyss_sh
p4048
I3138
sVDestoroyah_ex
p4049
I2527
sVDan 0d
p4050
I3140
sVCloud strife
p4051
I3141
sVHasshie
p4052
I3142
sVGosunkugi
p4053
I4920
sVChibi suika
p4054
I4813
sVSatsuki shindou
p4055
I3143
sVLittle busters!
p4056
I3144
sVEvil ryu ssf'2 plus EX3
p4057
I3145
sVKitanaitaru
p4058
I3146
sVSub-zero EX
p4059
I3147
sVGliz
p4060
I3148
sVSissy
p4061
I4230
sVGod kula
p4062
I4750
sVEharu_ai
p4063
I4512
sVAdam
p4064
I3150
sVParagus
p4065
I3151
sVMother
p4066
I114
sVGaia EX3
p4067
I3153
sVUnderdog
p4068
I4915
sVHawkman
p4069
I3155
sVEnlightened sun wu kong
p4070
I3156
sVAnakaris
p4071
I3157
sVRobin
p4072
I3158
sVSilver horns
p4073
I3988
sVSai
p4074
I3160
sVVp frey
p4075
I3161
sVLyndis EX
p4076
I3162
sVKonata
p4077
I3163
sVRazorclaws
p4078
I3164
sVCf-len
p4079
I3165
sVKakashi hatake
p4080
I3166
sVRydia EX3
p4081
I3167
sVRb2_geese
p4082
I3168
sVTeh ryu
p4083
I3169
sVGaia EX2
p4084
I3681
sVKill bill jhonny_mo
p4085
I3171
sVDemoniho
p4086
I3172
sVWraith
p4087
I4393
sVChrome dome EX
p4088
I2327
sVJigglypuff EX2
p4089
I3174
sVEsmeralda
p4090
I3175
sVAner rolange EX3
p4091
I3176
sVRyuko2nd
p4092
I4331
sVKaede_hioh
p4093
I4052
sVEva-05
p4094
I3178
sVNamazu
p4095
I4363
sVCapsule monster
p4096
I3180
sVHanzo EX
p4097
I3181
sVSeiya
p4098
I491
sVCoolseven
p4099
I4838
sVWolverine
p4100
I3183
sVBilly 'big bang' blitz
p4101
I3184
sVOriginal vega
p4102
I3185
sVCheng
p4103
I3186
sVAdo
p4104
I1733
sVG-adelheid
p4105
I3188
sVBlue mary
p4106
I3189
sVGyaban
p4107
I4590
sVMystic son gohan
p4108
I3191
sVOtane oume
p4109
I4227
sVSaya IX
p4110
I961
sVSmoke mk2
p4111
I3193
sVJiraiya
p4112
I3261
sVSilver samurai
p4113
I3194
sVAoc
p4114
I3195
sVA-lee
p4115
I3196
sVReimu-q
p4116
I1578
sVKaname
p4117
I3197
sVKohaku EX2
p4118
I3198
sVHyoga de cisne
p4119
I3199
sVNinja nwa
p4120
I3200
sVHei_f
p4121
I923
sVRock EX3
p4122
I3202
sVZabogar
p4123
I3611
sVG-akiha
p4124
I3203
sVMageko EX
p4125
I3689
sVPrince of all saiyans
p4126
I2859
sVYoshi
p4127
I2290
sVMagneto mvc2
p4128
I3206
sVAselia
p4129
I3207
sVJupiter
p4130
I4339
sVMac os-x siam
p4131
I3209
sVFordy
p4132
I3210
sVDead vega
p4133
I2010
sVShanoa
p4134
I2844
sVHelion z
p4135
I3211
sVAssiette
p4136
I3212
sVMizuki
p4137
I69
sVHarima
p4138
I4132
sVFernandeath 2
p4139
I3215
sVRobert945
p4140
I3216
sVKouryu
p4141
I4594
sVPacman
p4142
I3217
sVIce EX3
p4143
I3218
sVPikopiko EX3
p4144
I3219
sVZero Marrow
p4145
I2161
sVAty
p4146
I2326
sVMilitsa_patchouli
p4147
I3220
sVFinal peketo
p4148
I3221
sVZeldia
p4149
I4184
sVSenator
p4150
I3222
sVNanoha takamachi
p4151
I3223
sVRagna bloodedge
p4152
I2626
sVEcco
p4153
I4209
sVAlien metron
p4154
I3225
sVFinal zone boss s1
p4155
I3226
sVShin mr. karate
p4156
I4039
sVZabel ex
p4157
I3227
sVKula xiii
p4158
I4670
sVSaisyuu_dokusyo_bouei_system
p4159
I4943
sVNaruto kid
p4160
I4875
sVGehorsam
p4161
I3230
sVCyborg EX
p4162
I3231
sVRemilia
p4163
I2119
sVGouki sf
p4164
I3291
sVKenshi 1p
p4165
I3233
sVInternational karateka
p4166
I3234
sVCho-kichiku masamune
p4167
I2104
sVCommode serika
p4168
I3236
sVSachiel
p4169
I3624
sVKanzaki yoh
p4170
I2395
sVYuki kushinada
p4171
I4716
sVSonia rotd
p4172
I2988
sVMasamichi oyama
p4173
I3240
sVJohnny bravo
p4174
I3241
sVSailor jupiter EX
p4175
I2243
sVMedicine melancholy
p4176
I1739
sVK'
p4177
I3244
sVIkadevil
p4178
I3245
sVMasaru_takahara
p4179
I3246
sVShitan uzuki
p4180
I3247
sVSonic EX2
p4181
I3248
sVIngrid
p4182
I3086
sVDark order sol
p4183
I251
sVAya syameimaru
p4184
I2609
sVFreya diamond
p4185
I3251
sVSailor mars EX2
p4186
I3252
sVBinjyobrothers
p4187
I3253
sVDynamo
p4188
I3254
sVPekomaru
p4189
I3255
sVHayao 12p color
p4190
I3256
sVNu-13
p4191
I3257
sVMizore s.
p4192
I3258
sVGalvatron
p4193
I3259
sVSaori - athena
p4194
I3260
sVPocket Morrigan
p4195
I4320
sVKrizalid N
p4196
I3263
sVScrooge mcduck
p4197
I4453
sVGeese 98
p4198
I3264
sVRalf 2k2 EX
p4199
I3048
sVIkkaku
p4200
I650
sVMeu(you-ki)
p4201
I312
sVRandy m. green EX
p4202
I4607
sVXavier pendragon
p4203
I1840
sVSuper man
p4204
I4477
sVR.king
p4205
I3269
sVShana
p4206
I3270
sVKenshin
p4207
I4534
sVMusashi akatsuki
p4208
I2964
sVMajin vegeta
p4209
I1144
sVMyth blue ranger
p4210
I3272
sVAssassin
p4211
I1890
sVAi momoyama
p4212
I3962
sVHashi EX3
p4213
I3274
sVMuhi
p4214
I4085
sVUtsuho reiuji
p4215
I3982
sVUchiha sasuke
p4216
I3276
sVNanaya_s
p4217
I3277
sVHawk
p4218
I3278
sVKusaregedo EX
p4219
I3279
sVPoring
p4220
I3280
sVFray
p4221
I3281
sVOrochi head
p4222
I3282
sVNo.8
p4223
I2387
sVSue sakamoto
p4224
I396
sVCiel EX
p4225
I3285
sVBalrog IV
p4226
I26
sVUltrassjgoku
p4227
I3363
sVShadowman cfas
p4228
I4358
sVJohn anderson
p4229
I3287
sVChaos
p4230
I2401
sVLancer EX2
p4231
I4438
sVSharaku
p4232
I2553
sVChaos Blanka
p4233
I3289
sVSpiny
p4234
I427
sVFoz
p4235
I2402
sVRonan
p4236
I4961
sVOshima
p4237
I4538
sVKy
p4238
I3292
sVLeo EX2
p4239
I3293
sVTenko
p4240
I2614
sVUmvc_sentinel
p4241
I4715
sVUme
p4242
I3296
sVZazie muhaba
p4243
I3297
sVArcueid_brunestud
p4244
I3298
sVZero maverick hunter
p4245
I2585
sVMarvel frozen
p4246
I4830
sVNero
p4247
I2080
sVKanako yasaka EX3
p4248
I1275
sVVenom
p4249
I3300
sVObstinate_tank
p4250
I4333
sVMaraiah
p4251
I4119
sVScorponok
p4252
I4379
sVDragon EX2
p4253
I4077
sVRyoko ex EX3
p4254
I514
sVZinc
p4255
I3304
sVRyo-sakazaki
p4256
I2408
sVPeter
p4257
I3306
sVCrispy
p4258
I3307
sVHayato mvc2
p4259
I4797
sVWonder momo
p4260
I3309
sVLynn baker
p4261
I3797
sVFinal sigma w
p4262
I3311
sVTaideo EX
p4263
I559
sVThe world-dio
p4264
I3796
sVMr. fantastic
p4265
I4311
sVPielle
p4266
I3208
sVGeese EX2
p4267
I3315
sVJin EX
p4268
I4258
sVSanada_yukimura
p4269
I4083
sVTriceratops
p4270
I3317
sVGoodman
p4271
I3318
sVNosferu
p4272
I3319
sVJin CVS
p4273
I3320
sVShion EX3
p4274
I3321
sVPrimeus
p4275
I623
sVCharging chuck
p4276
I3323
sVKirby c
p4277
I3324
sVCvs axel
p4278
I4967
sVSasuke uchiha
p4279
I3325
sVRouwe_n
p4280
I3895
sVBlodia
p4281
I431
sVMelty_magic_tenko
p4282
I3328
sVThe end
p4283
I3329
sVSonic the hedgehog
p4284
I4096
sVMaster chief
p4285
I1560
sVLian
p4286
I3331
sVSpider-man
p4287
I3332
sVDarkseid IS
p4288
I3333
sVKarin EX3
p4289
I3334
sVGogeta super saiyan 3
p4290
I3969
sVThe king
p4291
I3335
sVSsj4 goten
p4292
I2413
sVDuane
p4293
I3337
sVYoung joseph
p4294
I3338
sVCurehappy
p4295
I1476
sVMizuki takase
p4296
I3340
sVOld robo-ky
p4297
I2603
sVCactuar
p4298
I2829
sVShadowroo (pf 3)
p4299
I3932
sVReminya
p4300
I3343
sVComrade athena
p4301
I4063
sVBellyache
p4302
I3267
sVMega vegeta
p4303
I4194
sVCaptainAmerica
p4304
I4089
sVHyper rare akuma
p4305
I3346
sVKing 13
p4306
I3347
sVGaragaranda
p4307
I3348
sVRouga(coh)
p4308
I3349
sVSparkster
p4309
I3350
sVPisaci
p4310
I436
sVSs6 ren
p4311
I3214
sVWing zero
p4312
I3353
sVDbloodbane
p4313
I3354
sVPrincess silver
p4314
I3355
sVMima EX
p4315
I3356
sVAvdol ver 2001/01/30 by camrat
p4316
I4149
sVLion sora
p4317
I4584
sVRin rin
p4318
I3357
sVPsychopath kyo
p4319
I3179
sVMarvel spider-man
p4320
I4625
sVMai tokiha ex
p4321
I3358
sVMokoi
p4322
I1758
sVFirestorm
p4323
I3360
sVSaten_level5
p4324
I3361
sVShiki EX2
p4325
I3362
sVShishimaru EX
p4326
I807
sVAkari ichijo
p4327
I4313
sVJuugo
p4328
I4702
sVOozura bebi
p4329
I3366
sVLee_chen
p4330
I3365
sVCielo
p4331
I1874
sVUltimate armor x
p4332
I3056
sVRhadamantis
p4333
I3367
sVTetris EX
p4334
I4932
sVMamiya
p4335
I4395
sVMishio
p4336
I3368
sVRiggs
p4337
I3369
sVMexican typhoon
p4338
I866
sVSs6 renfa EX2
p4339
I2696
sVAlder(seraph)
p4340
I3371
sVPop
p4341
I3372
sVKaiba seto
p4342
I3373
sVRebecca
p4343
I4253
sVKunagi-f.o
p4344
I3374
sVDixie kong
p4345
I4292
sVLafiras
p4346
I3376
sVMarvin the martian
p4347
I4402
sVKintaro
p4348
I3377
sVP. chunli
p4349
I3378
sVThe manticore, the queen, and the dragon
p4350
I1296
sVOmni-psych super dizzy lv 3
p4351
I3380
sVKaede kasiwagi
p4352
I4357
sVVice CVS
p4353
I4952
sVKfm
p4354
I4833
sVJubilee
p4355
I3383
sVJay Flash
p4356
I3384
sVRaydric_and_archer
p4357
I4414
sVByakuya
p4358
I3386
sVYuka takeuchi
p4359
I3387
sVVegeta
p4360
I3388
sVGuido
p4361
I4936
sVSsj5 goku
p4362
I2701
sVGouki
p4363
I3108
sVAlien queen
p4364
I3391
sVProofed up matt
p4365
I271
sVMudman EX3
p4366
I972
sVYagami_if
p4367
I2377
sVDonkey kong
p4368
I3395
sVShimo EX3
p4369
I3396
sVZz_gundam
p4370
I3397
sVWonder momo EX
p4371
I3398
sVDemitri maximoff
p4372
I3860
sVAnother igniz
p4373
I3399
sVGalford
p4374
I1009
sVGoat
p4375
I4798
sVG akiha nightmare
p4376
I2334
sVKrillin EX3
p4377
I3402
sVWaluigi
p4378
I4704
sVNeo y&m
p4379
I1816
sVKitana
p4380
I3403
sVShiki Ryougi
p4381
I3548
sVAmingo MVC2
p4382
I3404
sVDonatello
p4383
I2426
sVVanessa
p4384
I3406
sVUltraman
p4385
I3407
sVChun-li
p4386
I4080
sVGenkai_shihan
p4387
I3408
sVKamiccolo
p4388
I4280
sVAkaitsuki
p4389
I3409
sVShinji_san
p4390
I3736
sVCaptainamerica EX3
p4391
I2379
sVJill
p4392
I3411
sVDeluxe cassandra
p4393
I4803
sVKazuya mishima
p4394
I4397
sVStefanie
p4395
I3229
sVPsycho mkiii
p4396
I1095
sVSaki tsuzura
p4397
I3413
sVOmega EX
p4398
I4643
sVSayuri bernstein
p4399
I3414
sVKaisensei ken
p4400
I840
sVRimururu
p4401
I3416
sVK9999
p4402
I1110
sVZaku
p4403
I3418
sVKuando
p4404
I3419
sVYami_miko
p4405
I4771
sVAtatatatatatata
p4406
I3824
sVZangoose EX2
p4407
I4533
sVGelato
p4408
I4567
sVDee bee kaw EX3
p4409
I3421
sVRyoko EX
p4410
I3422
sVWong_fei_h
p4411
I1139
sVLuke EX
p4412
I3424
sVKeel
p4413
I1152
sVGoku gt
p4414
I1158
sVBullseye
p4415
I3427
sVCyber shredder 2.1
p4416
I3428
sVE-terry 71113
p4417
I4315
sVJenny
p4418
I3813
sVZou
p4419
I3430
sVGrand_diable
p4420
I3431
sVSuperman hero
p4421
I4724
sVPeach toadstool EX3
p4422
I4375
sVShazam
p4423
I3432
sVAlex sf3
p4424
I2137
sVNekomo
p4425
I3434
sVPingu
p4426
I3435
sVShimo EX
p4427
I355
sVGoku nex
p4428
I2250
sVSakura 98
p4429
I3815
sVSuparfcmeirin ver.1.15
p4430
I3439
sVAndroid 16 EX3
p4431
I3440
sVKaede+z_n
p4432
I3441
sVTrigger
p4433
I3117
sVCliff-zabuza-nzc
p4434
I3600
sVRaiden EX
p4435
I3442
sVMonk EX3
p4436
I3443
sVEgith
p4437
I3444
sVShishioh
p4438
I3445
sVUnlucky glauber
p4439
I3724
sVHugo andore jr. ff2
p4440
I3446
sVSpidermanu
p4441
I1262
sVThouther
p4442
I4139
sVDeathmask
p4443
I3173
sVSnorlax EX2
p4444
I3055
sVCc medusa
p4445
I3448
sVAsagi kun
p4446
I3449
sVCustom getsufuma
p4447
I3450
sVJuggernaut
p4448
I4458
sVAladdin
p4449
I1279
sVGlacial_girl
p4450
I3452
sVLelouch EX
p4451
I3453
sVJoachim
p4452
I3454
sVJimmy lee
p4453
I3455
sVIzumi konata
p4454
I3456
sVDark athena 2nd
p4455
I3457
sVNagato yuki EX
p4456
I3125
sVRandy m. green
p4457
I3460
sVChibi nazrin
p4458
I2949
sVDeluxe burter
p4459
I3462
sVDoppo orochi EX3
p4460
I3463
sVCyborg kung fu man
p4461
I4288
sVMissmarvel
p4462
I3464
sVRyu CVS
p4463
I4733
sVRaine
p4464
I3465
sVAthena EX3
p4465
I3466
sVSailor jupiter k
p4466
I3696
sVVh_mami EX
p4467
I3467
sVMaplestory mage
p4468
I3468
sVSpy-dama EX
p4469
I4775
sVGodzilla
p4470
I4329
sVHisui EX
p4471
I2939
sVAiant
p4472
I3469
sVRegin EX2
p4473
I4696
sVJuli
p4474
I3470
sVAgeha
p4475
I3884
sVMayura
p4476
I1377
sVPocket Ryu
p4477
I1772
sVChansey
p4478
I3473
sVIronman EX
p4479
I3474
sVMillia
p4480
I3475
sVLloyd irving
p4481
I3476
sVAbobo
p4482
I1413
sVCrawdo
p4483
I1880
sVHaoumaru
p4484
I3479
sVVoltage zero
p4485
I4669
sVThe world of arien
p4486
I3825
sVVirginia
p4487
I2601
sVZero hotaru EX3
p4488
I2079
sVLion-o
p4489
I4213
sVShingo EX2
p4490
I2242
sVMandoraf-f
p4491
I3483
sVTouka
p4492
I3484
sVSuper masao
p4493
I4884
sVSailor mercury EX
p4494
I3486
sVG rugal
p4495
I3006
sVWang-fu
p4496
I4896
sVJecht EX
p4497
I3488
sVNukesaku EX2
p4498
I3489
sVAtsuko tomohara
p4499
I3490
sVRyu Evil
p4500
I3491
sVA-jedah
p4501
I4981
sVHeart-armardi
p4502
I3492
sVRajaamaki
p4503
I3827
sVAxl
p4504
I3493
sVRistar
p4505
I4570
sVSanae_x
p4506
I3224
sVRancid
p4507
I3494
sVByrne
p4508
I4295
sVSs3youmu
p4509
I3495
sVKim sueil
p4510
I3496
sVHoujuu nue
p4511
I4216
sVCapella
p4512
I502
sVPocket Tessa
p4513
I4654
sVFujibayashi suzu
p4514
I3499
sVFlamme
p4515
I4829
sVTrouble man
p4516
I4303
sVZuityou no ryukoteam
p4517
I4151
sVOmanyte
p4518
I4309
sVZangief sf2
p4519
I4440
sVHugo sf3
p4520
I3502
sVShogun EX3
p4521
I3503
sVSion
p4522
I4819
sVRyo ssf'2 plus
p4523
I5015
sVBig ptolemaic tank
p4524
I4846
sVAura 2nd revival
p4525
I4271
sVToss kong
p4526
I3506
sVIsao jinrai
p4527
I3507
sVRaval
p4528
I1602
sVChenshiro
p4529
I3509
sVKaigen
p4530
I4770
sVBarbie
p4531
I4030
sVPuri*princess
p4532
I3511
sVGhiaccio
p4533
I201
sVSheik
p4534
I5019
sVTsukishima koko
p4535
I1631
sVLili
p4536
I3513
sVKrillin UB22
p4537
I3830
sVCless ndx
p4538
I3515
sVMoriya ex
p4539
I2446
sVRobo-mukai
p4540
I4125
sVKy and sol
p4541
I3516
sVHomer simpson
p4542
I4350
sVKhan EX3
p4543
I4222
sVL.c.kiso
p4544
I3518
sVGer
p4545
I4697
sVAsellus EX
p4546
I3519
sVBig volfogg
p4547
I3520
sVRaiden
p4548
I1714
sVKrayce
p4549
I2778
sVCaptain.cat.kit
p4550
I4827
sVJun
p4551
I4334
sVHinako 2k3
p4552
I3523
sVSpider girl
p4553
I3524
sVDogma
p4554
I4283
sVSnow ball
p4555
I4962
sVF91
p4556
I3525
sV7th heaven ciel
p4557
I3526
sVSsj three broli
p4558
I3527
sVKana-chan dhq EX3
p4559
I1752
sVHan baedal
p4560
I3529
sVHuman bo
p4561
I3530
sVSolitary-zero
p4562
I2468
sVJotaro
p4563
I3532
sVGel
p4564
I3533
sVJuri pf
p4565
I3534
sVBootleg
p4566
I1789
sVSenna vp
p4567
I3536
sVI-no(ac)
p4568
I3537
sVBloodtide
p4569
I1771
sVSannomiya_shiho
p4570
I3539
sVMaster mecha sonic
p4571
I1790
sVMario 119
p4572
I3541
sVBristol-d
p4573
I3134
sVYamame
p4574
I3543
sVStg-zero-
p4575
I3544
sVDragon
p4576
I4361
sVFootee
p4577
I3546
sVTabunne
p4578
I3135
sVAsuka EX2
p4579
I2450
sVGoku EX3
p4580
I4340
sVCci hinako
p4581
I1848
sVJulian solo poseidon
p4582
I4047
sVKam'lanaut
p4583
I3550
sVFuhashitei
p4584
I3985
sVShiva EX3
p4585
I5008
sVSuika_ibuki
p4586
I3551
sVVega Mask
p4587
I3552
sVMorrigan EX
p4588
I3553
sVFire_fairy
p4589
I4103
sVAna
p4590
I4196
sVFusagiko
p4591
I3554
sVAoi_amatu
p4592
I3635
sVJ.p.polnareff
p4593
I1920
sVShotoborg mk. ii
p4594
I2786
sVS.sinclair
p4595
I3558
sVGelonimon
p4596
I3559
sVGiorno giovanna
p4597
I3560
sVHulk mvc2
p4598
I4614
sVAdon f22
p4599
I2414
sVHyper omega chaos hiryu
p4600
I3139
sVLf2 - julian
p4601
I3564
sVHaizilyo
p4602
I1906
sVHiryu
p4603
I1961
sVElirin
p4604
I3567
sVSparta_heika
p4605
I2480
sVAcirno_3.5
p4606
I3569
sVOoze-o
p4607
I3570
sVTia langray
p4608
I4526
sVJubei
p4609
I3571
sVRudra-suija
p4610
I4406
sVIrriana
p4611
I2249
sVShanghai
p4612
I3572
sVRobo rock type-2
p4613
I3573
sVMaster krauser
p4614
I3574
sVUltimate cap
p4615
I4297
sVMaster chris
p4616
I4944
sVKirakira
p4617
I3576
sVLety
p4618
I1795
sVNeji Cosplay
p4619
I1194
sVWriggle-e
p4620
I3579
sVJin kisaragi
p4621
I3580
sVArthas
p4622
I4644
sVPokita
p4623
I3581
sVD-rugal
p4624
I3582
sVUtsuho_b
p4625
I3583
sVBrahms
p4626
I3584
sVXstranger
p4627
I3585
sVSteve
p4628
I4850
sVLobo
p4629
I3586
sVKang rotd
p4630
I4484
sVUmvc_hulk
p4631
I3588
sVSora com
p4632
I3589
sVShaolon
p4633
I3590
sVGreen lantern js
p4634
I4560
sVSakura Kasugano
p4635
I3591
sVAe86
p4636
I4304
sVNayuta
p4637
I3592
sVKanna_kouryu
p4638
I3843
sVSetsuna hsr
p4639
I2390
sVGemini
p4640
I3594
sVGaits
p4641
I2116
sVYoko asagiri
p4642
I3596
sVPiccolo sb
p4643
I3597
sVUnzan&ichirin
p4644
I3598
sVRachel alucard
p4645
I3599
sVExredking
p4646
I4714
sVNaitou ex
p4647
I3601
sVNecochaosblackg666mk2
p4648
I3602
sVMary 2k2
p4649
I4408
sVSailor mercury
p4650
I3603
sVFlygon
p4651
I3604
sVKilla and ren
p4652
I2168
sVMaximune
p4653
I2436
sVKiba
p4654
I4909
sVArale
p4655
I2188
sVCustom ddv shadow master
p4656
I2784
sVShin EX
p4657
I3608
sVShenlong
p4658
I4672
sVMurakumo-abk
p4659
I3610
sVSpin youmu EX
p4660
I1804
sVAimi
p4661
I5004
sVDooby dummy
p4662
I3612
sVGeki de oso
p4663
I3613
sVSaba
p4664
I4737
sVNightmare-gamera_ex
p4665
I3614
sVShiratama20
p4666
I3615
sVGohan ssj4
p4667
I4671
sVKinopio EX
p4668
I241
sVDee jay
p4669
I3617
sVFaud
p4670
I3618
sVBoggy b
p4671
I3619
sVHoly strider
p4672
I3620
sVRyoga hibiki
p4673
I3621
sVZankuro
p4674
I3622
sVZangoose
p4675
I3149
sVMichael_roa_valdamjong
p4676
I3623
sVNakoruru
p4677
I4090
sVDesperado+
p4678
I3625
sVKudora
p4679
I3626
sVVenom scorpion
p4680
I3627
sVAvalanche
p4681
I3628
sVAvdol
p4682
I3905
sVMycale
p4683
I2306
sVHatsune miku
p4684
I2310
sVDai rai oh
p4685
I1803
sVShao kahn
p4686
I2316
sVLucifer EX3
p4687
I3633
sVSlash EX
p4688
I3634
sVOswald_deadly
p4689
I4768
sVNagae iku
p4690
I1133
sVAnnie hamilton
p4691
I3636
sVGigant
p4692
I3637
sVAnother kung fu girl z
p4693
I2345
sVGohan ssj5
p4694
I3639
sVOrochi yuyuko
p4695
I3640
sVSuper skrull
p4696
I3641
sVMarcia
p4697
I3642
sVAndy_ff3rb
p4698
I3643
sVYtp robotnik
p4699
I4617
sVGuerrilla
p4700
I3644
sVDougster
p4701
I33
sVHashi
p4702
I4148
sVZao-long
p4703
I3647
sVSs6 renfa
p4704
I4541
sVAnother blood
p4705
I3975
sVBad megaman
p4706
I3649
sVDr.gero EX3
p4707
I3650
sVLucky 71113
p4708
I3651
sVOlof
p4709
I4381
sVLf2 - firzen
p4710
I3653
sVNucrear cirno EX
p4711
I4300
sVHeihachi CVS
p4712
I3154
sVGreen ranger
p4713
I2405
sVReptile EX2
p4714
I3655
sVKaori&shiori EX
p4715
I2490
sVNameless 02
p4716
I4110
sVSabotage
p4717
I2863
sVMega weapon
p4718
I3658
sVZan-b EX
p4719
I2437
sVRolento
p4720
I2441
sVTitan the great
p4721
I1205
sVM.bison sf2ww
p4722
I3662
sVBaiken(ac)
p4723
I3663
sVHiei EX
p4724
I2026
sVIshida uryu
p4725
I1817
sVBroken
p4726
I4137
sVChuu
p4727
I1807
sVDiablo
p4728
I4642
sVTin's fernandeath
p4729
I2011
sVBikeman
p4730
I3667
sVKraft
p4731
I3668
sVMash figaro
p4732
I3669
sVAzteca EX
p4733
I2514
sVEva-02 EX3
p4734
I4040
sVBlues hablam
p4735
I2520
sVRei EX
p4736
I2525
sVNess EX3
p4737
I3389
sVBilly two moons
p4738
I3673
sVHattori-hanzo
p4739
I1208
sVHyper commando team
p4740
I3675
sVChrysalis EX
p4741
I1107
sVDet. garret laurel
p4742
I4262
sVAnaroguma
p4743
I652
sVUshio
p4744
I3678
sVSnow
p4745
I3679
sVTeam reimisen
p4746
I4579
sVIceman SP
p4747
I1653
sVAbyss EX
p4748
I3682
sVMarisa,k
p4749
I552
sVAsuras
p4750
I3684
sVWolvie
p4751
I3685
sVSupreme gogeta
p4752
I4115
sVBlack demonica
p4753
I3686
sVLuise EX2
p4754
I3687
sVMarisa EX
p4755
I4134
sVPeketo EX3
p4756
I4036
sVEin
p4757
I3262
sVDeath black shot
p4758
I4759
sVSho kamui
p4759
I4998
sVChaka
p4760
I3994
sVSukunyan
p4761
I4849
sVDawn
p4762
I3692
sVBokosuka wars
p4763
I3693
sVVritra
p4764
I3691
sVC.commando
p4765
I3695
sVShaq Diesel
p4766
I4069
sVShen xi
p4767
I4416
sVMaggyo IX
p4768
I3698
sVSaizo_hattori
p4769
I3528
sVFlen_d
p4770
I2677
sVSimple
p4771
I3700
sVNoel vermillion
p4772
I3701
sVNegativezero
p4773
I4939
sVKamille
p4774
I3703
sVZaku EX3
p4775
I3704
sVKokesz
p4776
I3705
sVDink smallwood
p4777
I2719
sVEremes_guile
p4778
I1831
sVBlack tiger
p4779
I3707
sVEternal little girl
p4780
I4652
sVMichael jordan
p4781
I2724
sVGikoneko
p4782
I3961
sVGiratina
p4783
I3709
sVKathryne_keyron
p4784
I4174
sVPerfect cell EX3
p4785
I3710
sVDarkman
p4786
I3711
sVAoba
p4787
I4154
sVSeyren_windsor
p4788
I4070
sVSwordsman
p4789
I4138
sVUltra super3 goku
p4790
I2286
sVForte
p4791
I3713
sVNf-kyo
p4792
I3714
sVSho nuff
p4793
I3859
sVKana orikura
p4794
I4212
sVBarts
p4795
I3715
sVKisume EX
p4796
I3716
sVD Chun-li
p4797
I3717
sVAbyss form 1
p4798
I3718
sVTengu man
p4799
I3719
sVWooden_doll
p4800
I3720
sVHomura EX
p4801
I1219
sVGlaceon
p4802
I4681
sVHinata wakaba
p4803
I3722
sVMukai EX3
p4804
I3723
sVKazama kazuki
p4805
I2454
sVKatura hageteru
p4806
I4816
sVGeese EX3
p4807
I2529
sVShikyoh
p4808
I3726
sVDinozord EX
p4809
I3727
sVKilyousuke
p4810
I2770
sVWaddledee
p4811
I4907
sVAgumon
p4812
I2983
sVZein_dael
p4813
I2150
sVSteely dan
p4814
I3729
sVCelsius
p4815
I4407
sVSavage hulk
p4816
I4569
sVOnslaught 1st
p4817
I3731
sVC3reimu
p4818
I4008
sVHeaddy
p4819
I3733
sVSuper gotenks
p4820
I3734
sVMeirin EX
p4821
I3735
sVKonata EX
p4822
I2745
sVYakui-san
p4823
I3737
sVKou EX
p4824
I720
sVAmon EX2
p4825
I3739
sVHoly akuma
p4826
I4441
sVSkaxl roa
p4827
I3740
sVSasuke storm
p4828
I3741
sVYurung
p4829
I2867
sVAika toarcreat
p4830
I3743
sVCco
p4831
I3744
sVOozaru
p4832
I3745
sVLiu kang
p4833
I3981
sVRyu XIII
p4834
I3746
sVErza scarlet
p4835
I3747
sVDrill asamin
p4836
I3748
sVMami tomoe ai
p4837
I3011
sVNaomi EX2
p4838
I3750
sVSaint-of-silver
p4839
I3752
sVMuaythaiman
p4840
I4448
sVJohnny
p4841
I3501
sVPulse-k
p4842
I4403
sVBoshy
p4843
I5016
sVWhite buffalo EX3
p4844
I4433
sVGod ken
p4845
I4256
sVRoll MVC
p4846
I4023
sVGeese mk ii
p4847
I884
sVVorgasm
p4848
I3052
sVPocket joker
p4849
I3756
sVSon gohan EX3
p4850
I4349
sVTalon
p4851
I3758
sVCless-f
p4852
I3759
sVRaph
p4853
I3760
sVSayo chan
p4854
I3761
sVZatanna EX3
p4855
I3762
sVHu-ama
p4856
I3763
sVStinko man - 20x6
p4857
I3764
sVGolems
p4858
I4783
sVHeitasupermode
p4859
I3765
sVVergil EX3
p4860
I3766
sVInvader remi
p4861
I3767
sVMystique
p4862
I566
sVGregorius:nmky
p4863
I3769
sVCarnage MMV
p4864
I3770
sVKoishi_b
p4865
I4002
sVSakuya_izayoi
p4866
I738
sVJuan
p4867
I3771
sVA-utsuho
p4868
I1220
sVOmega red
p4869
I4017
sVChadha
p4870
I1786
sVHellboy
p4871
I3774
sVSandman
p4872
I3775
sVMakendo
p4873
I3776
sVTestament
p4874
I3870
sVRyo(mkii)
p4875
I4062
sVKamen rider kaixa
p4876
I3777
sVMukuro EX G
p4877
I1230
sVAkatuki zetu
p4878
I3779
sVJuda-(nericya)
p4879
I3871
sVNew Nakoruru
p4880
I3781
sVKagami
p4881
I3782
sVFrostman
p4882
I3783
sVNanase EX
p4883
I4243
sVYukari_swr
p4884
I4314
sVAlexa
p4885
I3786
sVMasked rider 555(emanon)
p4886
I3787
sVPrinny
p4887
I3788
sVDaimon EX2
p4888
I2558
sVGallon EX2
p4889
I4302
sVGhetto warmachine
p4890
I3789
sVAmy
p4891
I4186
sVDark phoenix
p4892
I3790
sVSeth SF4
p4893
I3791
sVThe fabled sagileocorn
p4894
I3093
sVH_yujiro
p4895
I3793
sVYouki-so-suika
p4896
I3794
sVCook kawasaki
p4897
I3795
sVShredder
p4898
I3159
sVMillia Rage
p4899
I3310
sVRob lucci
p4900
I3798
sVClara
p4901
I1956
sVNormal Ryu
p4902
I4892
sVKenji
p4903
I3799
sVEva-01
p4904
I3800
sVEuphoria the everlasting
p4905
I3345
sVSagat_a
p4906
I4098
sVS.p.o. ryu
p4907
I2968
sVGreen arrow
p4908
I3804
sVRario
p4909
I4232
sVEva-00
p4910
I3805
sVAdel-haaaaai
p4911
I3806
sVLeviathan
p4912
I3807
sVAnastasia
p4913
I2860
sVEva-03
p4914
I3182
sVCinnamon
p4915
I432
sVAnother chun-li
p4916
I5010
sVRockula
p4917
I2848
sVSailor venus
p4918
I3810
sVMetalslime
p4919
I4973
sVNucrear cirno
p4920
I3923
sVRavange
p4921
I3811
sVBugs bunny
p4922
I4928
sVAlvein
p4923
I4022
sVTen
p4924
I2590
sVDual koa(v0.5.2)
p4925
I3438
sVPoison qyc
p4926
I3816
sVBuggy
p4927
I3817
sVRamda EX3
p4928
I4250
sVAnother blood q
p4929
I3818
sVLuke skywalker
p4930
I3819
sVKirin
p4931
I3820
sVNeji
p4932
I3275
sVCaptain_heart
p4933
I3821
sVIkemen
p4934
I3822
sVShaq fu EX3
p4935
I3823
sVRevlius
p4936
I3778
sVMichelangelo
p4937
I3326
sVSanada kojiroh s-style
p4938
I3485
sVCaster
p4939
I3931
sVGhost nappa EX
p4940
I3828
sVAbareimu
p4941
I4841
sVIvy
p4942
I4876
sVJesse
p4943
I4677
sVAtari dragon
p4944
I3990
sVFilz-rout
p4945
I3510
sVBubsy bobcat
p4946
I3514
sVVertigo
p4947
I3929
sVEleking
p4948
I4188
sVBang EX2
p4949
I3831
sVAoshi
p4950
I2761
sVCable
p4951
I3833
sVLf2 - john
p4952
I3834
sVShinji_san EX
p4953
I3835
sVRyoko
p4954
I3874
sVMiyabi
p4955
I3836
sVShaky jake
p4956
I4596
sVViper
p4957
I3170
sVCc iron ryuji
p4958
I4598
sVTorozo
p4959
I3538
sVSuave dude EX
p4960
I4713
sVBristol weller
p4961
I1641
sVAbsolute_white_len
p4962
I3841
sVCirno brando
p4963
I3587
sVSundown-kid
p4964
I3190
sVChiaotzu
p4965
I4925
sVShingo & momoko
p4966
I2494
sVArrange_ayu
p4967
I3844
sVGiant Ultraman
p4968
I586
sVReject no. 253
p4969
I3845
sVShanghai doll
p4970
I3908
sVAsh crimson
p4971
I3846
sVKoi reika
p4972
I2473
sVGanjou dan
p4973
I3848
sVShirakawa kotori
p4974
I2678
sVMarin
p4975
I3849
sVMario
p4976
I3850
sVButt-head
p4977
I3851
sVMomo-kirby
p4978
I3852
sVQ-bee ex
p4979
I3853
sVTiger
p4980
I4181
sVAlt(hana-ai)
p4981
I3855
sVAi EX2
p4982
I3977
sVPill
p4983
I1805
sVZangief cfj
p4984
I3856
sVTakuma
p4985
I3697
sVKratos
p4986
I4599
sVWhite len k
p4987
I3858
sVTokiko
p4988
I2497
sVKim kaphwan CVS2
p4989
I539
sVAce
p4990
I3861
sVGn-pioneer-r
p4991
I4223
sVBlizzard EX3
p4992
I3013
sVCode-holder
p4993
I4506
sVR.jackal
p4994
I3864
sVBlue colonel
p4995
I3865
sVGades
p4996
I3866
sVTain-ren
p4997
I3867
sVKarin
p4998
I3868
sVNightwolf
p4999
I3772
sVKazuya
p5000
I1588
sVSailor moon k
p5001
I3780
sVKamui tenrou
p5002
I3609
sVTamara EX2
p5003
I2113
sVBoring vigilante EX3
p5004
I4353
sVFake okami
p5005
I4366
sVFulgore
p5006
I3882
sVSakon
p5007
I2658
sVWell
p5008
I3803
sVArturo
p5009
I3872
sVErmac
p5010
I3873
sVEko
p5011
I3075
sVHinata
p5012
I4882
sVDocock
p5013
I4773
sVNightmare gamera
p5014
I4422
sVOpera elmer
p5015
I3878
sVGatocyu
p5016
I3879
sVIk borodin
p5017
I4470
sVSue-zo
p5018
I3880
sVGoku ssj5
p5019
I3881
sVHugo andore jr.
p5020
I3606
sVGoku ssj3
p5021
I4717
sVRyousan gata patchouli
p5022
I2878
sVDaiyousei EX
p5023
I3885
sa(dp5024
I0
g2
sI1
g3
sI2
g4
sI3
g5
sI4
g6
sI5
g7
sI6
g8
sI7
g9
sI8
g10
sI9
g11
sI10
g12
sI11
g2368
sI12
g14
sI13
g15
sI14
g18
sI15
g19
sI16
g21
sI17
g22
sI18
g23
sI19
g24
sI20
g25
sI21
g26
sI22
g27
sI23
g28
sI24
g29
sI25
g30
sI26
g4226
sI27
g31
sI28
g737
sI29
g1458
sI30
g33
sI31
g34
sI32
g35
sI33
g4701
sI34
g39
sI35
g2374
sI36
g41
sI37
g42
sI38
g43
sI39
g44
sI40
g45
sI41
g46
sI42
g48
sI43
g49
sI44
g3081
sI45
g52
sI46
g54
sI47
g56
sI48
g325
sI49
g58
sI50
g59
sI51
g60
sI52
g1587
sI53
g68
sI54
g70
sI55
g71
sI56
g72
sI57
g2379
sI58
g74
sI59
g1588
sI60
g76
sI61
g77
sI62
g2380
sI63
g79
sI64
g80
sI65
g81
sI66
g82
sI67
g83
sI68
g84
sI69
g4137
sI70
g86
sI71
g2383
sI72
g88
sI73
g89
sI74
g307
sI75
g91
sI76
g93
sI77
g94
sI78
g96
sI79
g99
sI80
g100
sI81
g102
sI82
g105
sI83
g106
sI84
g108
sI85
g109
sI86
g112
sI87
g113
sI88
g114
sI89
g115
sI90
g116
sI91
g121
sI92
g122
sI93
g123
sI94
g124
sI95
g125
sI96
g126
sI97
g127
sI98
g128
sI99
g130
sI100
g131
sI101
g132
sI102
g134
sI103
g135
sI104
g3237
sI105
g138
sI106
g139
sI107
g140
sI108
g141
sI109
g142
sI110
g143
sI111
g144
sI112
g145
sI113
g147
sI114
g4066
sI115
g148
sI116
g149
sI117
g151
sI118
g152
sI119
g154
sI120
g155
sI121
g156
sI122
g157
sI123
g158
sI124
g160
sI125
g161
sI126
g162
sI127
g163
sI128
g164
sI129
g166
sI130
g167
sI131
g169
sI132
g3247
sI133
g172
sI134
g174
sI135
g176
sI136
g177
sI137
g178
sI138
g179
sI139
g183
sI140
g184
sI141
g185
sI142
g186
sI143
g506
sI144
g188
sI145
g190
sI146
g2795
sI147
g3250
sI148
g194
sI149
g195
sI150
g196
sI151
g197
sI152
g198
sI153
g199
sI154
g200
sI155
g201
sI156
g1273
sI157
g203
sI158
g205
sI159
g206
sI160
g207
sI161
g2406
sI162
g209
sI163
g212
sI164
g213
sI165
g2407
sI166
g215
sI167
g216
sI168
g217
sI169
g218
sI170
g221
sI171
g224
sI172
g225
sI173
g226
sI174
g227
sI175
g228
sI176
g229
sI177
g230
sI178
g232
sI179
g233
sI180
g234
sI181
g235
sI182
g237
sI183
g238
sI184
g3682
sI185
g239
sI186
g240
sI187
g241
sI188
g242
sI189
g243
sI190
g244
sI191
g245
sI192
g246
sI193
g3885
sI194
g247
sI195
g3834
sI196
g249
sI197
g252
sI198
g253
sI199
g254
sI200
g256
sI201
g4533
sI202
g259
sI203
g260
sI204
g261
sI205
g262
sI206
g263
sI207
g264
sI208
g266
sI209
g267
sI210
g269
sI211
g270
sI212
g273
sI213
g274
sI214
g275
sI215
g276
sI216
g278
sI217
g279
sI218
g280
sI219
g281
sI220
g3028
sI221
g283
sI222
g284
sI223
g285
sI224
g286
sI225
g288
sI226
g289
sI227
g290
sI228
g291
sI229
g292
sI230
g293
sI231
g295
sI232
g296
sI233
g298
sI234
g299
sI235
g300
sI236
g302
sI237
g303
sI238
g304
sI239
g305
sI240
g306
sI241
g4668
sI242
g309
sI243
g310
sI244
g311
sI245
g312
sI246
g313
sI247
g314
sI248
g317
sI249
g318
sI250
g319
sI251
g4183
sI252
g322
sI253
g323
sI254
g324
sI255
g57
sI256
g1628
sI257
g327
sI258
g3284
sI259
g329
sI260
g330
sI261
g331
sI262
g333
sI263
g334
sI264
g337
sI265
g2435
sI266
g340
sI267
g341
sI268
g343
sI269
g344
sI270
g345
sI271
g4365
sI272
g349
sI273
g350
sI274
g352
sI275
g353
sI276
g354
sI277
g356
sI278
g358
sI279
g359
sI280
g361
sI281
g362
sI282
g363
sI283
g364
sI284
g365
sI285
g366
sI286
g367
sI287
g368
sI288
g370
sI289
g371
sI290
g372
sI291
g374
sI292
g375
sI293
g759
sI294
g378
sI295
g379
sI296
g381
sI297
g382
sI298
g383
sI299
g384
sI300
g385
sI301
g386
sI302
g388
sI303
g3319
sI304
g389
sI305
g391
sI306
g3833
sI307
g393
sI308
g394
sI309
g395
sI310
g396
sI311
g397
sI312
g4201
sI313
g399
sI314
g400
sI315
g401
sI316
g402
sI317
g403
sI318
g404
sI319
g405
sI320
g408
sI321
g2292
sI322
g3725
sI323
g410
sI324
g412
sI325
g413
sI326
g416
sI327
g3305
sI328
g420
sI329
g421
sI330
g422
sI331
g1646
sI332
g424
sI333
g425
sI334
g2448
sI335
g1647
sI336
g428
sI337
g3307
sI338
g430
sI339
g431
sI340
g432
sI341
g434
sI342
g436
sI343
g437
sI344
g438
sI345
g439
sI346
g440
sI347
g441
sI348
g442
sI349
g443
sI350
g444
sI351
g446
sI352
g447
sI353
g3801
sI354
g452
sI355
g4427
sI356
g453
sI357
g455
sI358
g587
sI359
g459
sI360
g460
sI361
g461
sI362
g222
sI363
g467
sI364
g468
sI365
g469
sI366
g470
sI367
g471
sI368
g472
sI369
g474
sI370
g3018
sI371
g476
sI372
g477
sI373
g3876
sI374
g2454
sI375
g479
sI376
g480
sI377
g481
sI378
g482
sI379
g483
sI380
g485
sI381
g486
sI382
g487
sI383
g489
sI384
g490
sI385
g492
sI386
g493
sI387
g495
sI388
g496
sI389
g497
sI390
g499
sI391
g500
sI392
g501
sI393
g3892
sI394
g504
sI395
g507
sI396
g4224
sI397
g511
sI398
g512
sI399
g513
sI400
g516
sI401
g517
sI402
g519
sI403
g520
sI404
g521
sI405
g2353
sI406
g523
sI407
g524
sI408
g525
sI409
g526
sI410
g528
sI411
g529
sI412
g3441
sI413
g533
sI414
g534
sI415
g535
sI416
g538
sI417
g542
sI418
g543
sI419
g544
sI420
g3320
sI421
g3584
sI422
g547
sI423
g548
sI424
g549
sI425
g551
sI426
g553
sI427
g4234
sI428
g555
sI429
g556
sI430
g557
sI431
g4281
sI432
g4915
sI433
g561
sI434
g562
sI435
g3696
sI436
g4310
sI437
g566
sI438
g567
sI439
g569
sI440
g570
sI441
g571
sI442
g16
sI443
g2568
sI444
g574
sI445
g576
sI446
g578
sI447
g514
sI448
g582
sI449
g4020
sI450
g584
sI451
g585
sI452
g3880
sI453
g589
sI454
g590
sI455
g591
sI456
g593
sI457
g594
sI458
g595
sI459
g598
sI460
g599
sI461
g601
sI462
g602
sI463
g603
sI464
g604
sI465
g3434
sI466
g605
sI467
g607
sI468
g2476
sI469
g611
sI470
g2138
sI471
g612
sI472
g613
sI473
g3638
sI474
g615
sI475
g616
sI476
g617
sI477
g619
sI478
g620
sI479
g622
sI480
g623
sI481
g624
sI482
g625
sI483
g626
sI484
g627
sI485
g628
sI486
g629
sI487
g632
sI488
g633
sI489
g635
sI490
g636
sI491
g4098
sI492
g638
sI493
g640
sI494
g641
sI495
g646
sI496
g647
sI497
g649
sI498
g650
sI499
g651
sI500
g653
sI501
g654
sI502
g4512
sI503
g658
sI504
g659
sI505
g660
sI506
g661
sI507
g662
sI508
g2486
sI509
g3055
sI510
g665
sI511
g886
sI512
g667
sI513
g668
sI514
g4254
sI515
g670
sI516
g671
sI517
g672
sI518
g673
sI519
g674
sI520
g675
sI521
g677
sI522
g679
sI523
g680
sI524
g681
sI525
g817
sI526
g683
sI527
g684
sI528
g685
sI529
g688
sI530
g690
sI531
g691
sI532
g692
sI533
g694
sI534
g695
sI535
g696
sI536
g697
sI537
g2492
sI538
g701
sI539
g4989
sI540
g702
sI541
g703
sI542
g704
sI543
g707
sI544
g709
sI545
g710
sI546
g713
sI547
g716
sI548
g717
sI549
g718
sI550
g719
sI551
g720
sI552
g4749
sI553
g721
sI554
g723
sI555
g724
sI556
g725
sI557
g726
sI558
g2496
sI559
g4263
sI560
g729
sI561
g730
sI562
g3368
sI563
g732
sI564
g734
sI565
g735
sI566
g4862
sI567
g738
sI568
g739
sI569
g740
sI570
g741
sI571
g742
sI572
g743
sI573
g744
sI574
g745
sI575
g746
sI576
g747
sI577
g2500
sI578
g751
sI579
g752
sI580
g3386
sI581
g754
sI582
g1921
sI583
g756
sI584
g757
sI585
g758
sI586
g4968
sI587
g760
sI588
g761
sI589
g763
sI590
g767
sI591
g768
sI592
g769
sI593
g771
sI594
g772
sI595
g774
sI596
g775
sI597
g776
sI598
g777
sI599
g778
sI600
g779
sI601
g780
sI602
g781
sI603
g782
sI604
g3847
sI605
g784
sI606
g786
sI607
g787
sI608
g788
sI609
g789
sI610
g790
sI611
g791
sI612
g792
sI613
g793
sI614
g2507
sI615
g795
sI616
g797
sI617
g798
sI618
g799
sI619
g800
sI620
g803
sI621
g804
sI622
g805
sI623
g4275
sI624
g807
sI625
g810
sI626
g257
sI627
g2511
sI628
g814
sI629
g815
sI630
g818
sI631
g819
sI632
g820
sI633
g3737
sI634
g822
sI635
g1704
sI636
g825
sI637
g826
sI638
g827
sI639
g829
sI640
g830
sI641
g1737
sI642
g833
sI643
g835
sI644
g836
sI645
g837
sI646
g838
sI647
g839
sI648
g840
sI649
g842
sI650
g4200
sI651
g845
sI652
g4743
sI653
g847
sI654
g848
sI655
g3390
sI656
g851
sI657
g1709
sI658
g854
sI659
g2520
sI660
g856
sI661
g857
sI662
g858
sI663
g2529
sI664
g859
sI665
g860
sI666
g1711
sI667
g3392
sI668
g2700
sI669
g866
sI670
g868
sI671
g869
sI672
g870
sI673
g3394
sI674
g876
sI675
g877
sI676
g878
sI677
g881
sI678
g882
sI679
g885
sI680
g1601
sI681
g1121
sI682
g888
sI683
g889
sI684
g890
sI685
g891
sI686
g1744
sI687
g893
sI688
g895
sI689
g898
sI690
g1657
sI691
g901
sI692
g902
sI693
g1718
sI694
g904
sI695
g905
sI696
g906
sI697
g907
sI698
g908
sI699
g909
sI700
g2891
sI701
g913
sI702
g914
sI703
g915
sI704
g917
sI705
g918
sI706
g919
sI707
g920
sI708
g923
sI709
g927
sI710
g928
sI711
g929
sI712
g930
sI713
g931
sI714
g932
sI715
g933
sI716
g934
sI717
g935
sI718
g937
sI719
g938
sI720
g4824
sI721
g939
sI722
g940
sI723
g941
sI724
g3406
sI725
g943
sI726
g945
sI727
g995
sI728
g947
sI729
g2102
sI730
g950
sI731
g951
sI732
g952
sI733
g953
sI734
g954
sI735
g955
sI736
g956
sI737
g957
sI738
g4866
sI739
g961
sI740
g962
sI741
g963
sI742
g964
sI743
g965
sI744
g3286
sI745
g966
sI746
g967
sI747
g968
sI748
g969
sI749
g970
sI750
g971
sI751
g972
sI752
g973
sI753
g975
sI754
g976
sI755
g977
sI756
g1174
sI757
g979
sI758
g981
sI759
g1192
sI760
g983
sI761
g1203
sI762
g1209
sI763
g987
sI764
g988
sI765
g990
sI766
g993
sI767
g994
sI768
g2361
sI769
g996
sI770
g2251
sI771
g998
sI772
g999
sI773
g1000
sI774
g1730
sI775
g1003
sI776
g1004
sI777
g1006
sI778
g1322
sI779
g1009
sI780
g1011
sI781
g666
sI782
g1353
sI783
g1358
sI784
g1016
sI785
g1368
sI786
g1018
sI787
g1019
sI788
g1020
sI789
g1021
sI790
g1022
sI791
g1023
sI792
g1024
sI793
g1025
sI794
g1026
sI795
g1027
sI796
g1028
sI797
g1029
sI798
g1031
sI799
g1034
sI800
g3982
sI801
g1039
sI802
g1040
sI803
g3421
sI804
g1042
sI805
g1044
sI806
g1045
sI807
g4326
sI808
g1047
sI809
g1048
sI810
g2415
sI811
g1594
sI812
g1053
sI813
g1054
sI814
g1055
sI815
g1057
sI816
g1059
sI817
g1061
sI818
g1062
sI819
g3071
sI820
g1064
sI821
g1065
sI822
g1066
sI823
g1067
sI824
g1068
sI825
g1069
sI826
g1070
sI827
g1071
sI828
g1073
sI829
g1074
sI830
g960
sI831
g1075
sI832
g1076
sI833
g1077
sI834
g1743
sI835
g1079
sI836
g1080
sI837
g1081
sI838
g1082
sI839
g1083
sI840
g4400
sI841
g1085
sI842
g1086
sI843
g1088
sI844
g1089
sI845
g1091
sI846
g2985
sI847
g3429
sI848
g1094
sI849
g1095
sI850
g1097
sI851
g2555
sI852
g1099
sI853
g1100
sI854
g1101
sI855
g1102
sI856
g1103
sI857
g1104
sI858
g1105
sI859
g1106
sI860
g3431
sI861
g1109
sI862
g2558
sI863
g1112
sI864
g1113
sI865
g1114
sI866
g4338
sI867
g1117
sI868
g2560
sI869
g1960
sI870
g1122
sI871
g3436
sI872
g1126
sI873
g1129
sI874
g1130
sI875
g1131
sI876
g1133
sI877
g1135
sI878
g1136
sI879
g1138
sI880
g1139
sI881
g2564
sI882
g1141
sI883
g1142
sI884
g4847
sI885
g1146
sI886
g1147
sI887
g1541
sI888
g1148
sI889
g1756
sI890
g1150
sI891
g1151
sI892
g1152
sI893
g1154
sI894
g3809
sI895
g1155
sI896
g1157
sI897
g1158
sI898
g1159
sI899
g1160
sI900
g1161
sI901
g1162
sI902
g1163
sI903
g1164
sI904
g1165
sI905
g1166
sI906
g1167
sI907
g1168
sI908
g187
sI909
g1170
sI910
g1171
sI911
g1172
sI912
g1173
sI913
g2308
sI914
g1175
sI915
g1176
sI916
g1178
sI917
g1179
sI918
g1180
sI919
g1181
sI920
g1183
sI921
g1184
sI922
g1187
sI923
g4121
sI924
g1189
sI925
g1190
sI926
g1191
sI927
g1193
sI928
g1194
sI929
g2576
sI930
g1197
sI931
g1198
sI932
g1199
sI933
g1200
sI934
g2455
sI935
g1764
sI936
g1204
sI937
g1205
sI938
g1207
sI939
g3972
sI940
g986
sI941
g1210
sI942
g1212
sI943
g1214
sI944
g1215
sI945
g1216
sI946
g2119
sI947
g3649
sI948
g1218
sI949
g1220
sI950
g1223
sI951
g1224
sI952
g1225
sI953
g1226
sI954
g3452
sI955
g1228
sI956
g1230
sI957
g2670
sI958
g1233
sI959
g676
sI960
g1235
sI961
g4110
sI962
g1236
sI963
g1237
sI964
g1238
sI965
g1239
sI966
g1240
sI967
g1241
sI968
g1243
sI969
g1443
sI970
g1244
sI971
g1245
sI972
g4366
sI973
g1247
sI974
g1248
sI975
g1249
sI976
g3845
sI977
g2790
sI978
g1252
sI979
g1253
sI980
g1772
sI981
g1255
sI982
g1256
sI983
g1257
sI984
g1258
sI985
g3458
sI986
g1261
sI987
g1262
sI988
g1263
sI989
g1264
sI990
g1265
sI991
g1266
sI992
g1267
sI993
g1268
sI994
g1269
sI995
g1270
sI996
g1272
sI997
g202
sI998
g1274
sI999
g1277
sI1000
g1278
sI1001
g1279
sI1002
g1280
sI1003
g1281
sI1004
g1282
sI1005
g2273
sI1006
g1284
sI1007
g1285
sI1008
g1286
sI1009
g4374
sI1010
g1288
sI1011
g1289
sI1012
g3014
sI1013
g1777
sI1014
g1293
sI1015
g1294
sI1016
g1295
sI1017
g1296
sI1018
g1297
sI1019
g1298
sI1020
g1300
sI1021
g1301
sI1022
g1302
sI1023
g1303
sI1024
g1304
sI1025
g1305
sI1026
g1307
sI1027
g3173
sI1028
g2291
sI1029
g1310
sI1030
g1311
sI1031
g1313
sI1032
g1314
sI1033
g1315
sI1034
g1316
sI1035
g1317
sI1036
g1318
sI1037
g1319
sI1038
g1320
sI1039
g1321
sI1040
g1008
sI1041
g1323
sI1042
g1325
sI1043
g1326
sI1044
g1328
sI1045
g1329
sI1046
g1330
sI1047
g1332
sI1048
g1333
sI1049
g1334
sI1050
g1336
sI1051
g3468
sI1052
g1339
sI1053
g3123
sI1054
g1342
sI1055
g1343
sI1056
g1344
sI1057
g1346
sI1058
g1347
sI1059
g3097
sI1060
g1350
sI1061
g1351
sI1062
g887
sI1063
g1789
sI1064
g1356
sI1065
g1357
sI1066
g1015
sI1067
g1360
sI1068
g1362
sI1069
g1363
sI1070
g1364
sI1071
g1366
sI1072
g1367
sI1073
g1017
sI1074
g1369
sI1075
g1370
sI1076
g1371
sI1077
g1372
sI1078
g1373
sI1079
g1374
sI1080
g1375
sI1081
g1376
sI1082
g3595
sI1083
g1378
sI1084
g1380
sI1085
g1381
sI1086
g1383
sI1087
g1384
sI1088
g1385
sI1089
g1386
sI1090
g1767
sI1091
g1387
sI1092
g1389
sI1093
g3477
sI1094
g1392
sI1095
g4396
sI1096
g1395
sI1097
g1396
sI1098
g3478
sI1099
g1399
sI1100
g1401
sI1101
g2606
sI1102
g1403
sI1103
g1404
sI1104
g1406
sI1105
g1407
sI1106
g3481
sI1107
g4741
sI1108
g1411
sI1109
g1413
sI1110
g4402
sI1111
g1415
sI1112
g1416
sI1113
g1417
sI1114
g4029
sI1115
g1419
sI1116
g1420
sI1117
g4041
sI1118
g1422
sI1119
g1423
sI1120
g1424
sI1121
g1425
sI1122
g1429
sI1123
g1430
sI1124
g1432
sI1125
g4028
sI1126
g1434
sI1127
g1436
sI1128
g1438
sI1129
g1439
sI1130
g1440
sI1131
g1441
sI1132
g1442
sI1133
g4690
sI1134
g1444
sI1135
g1445
sI1136
g1446
sI1137
g1447
sI1138
g1450
sI1139
g4411
sI1140
g1453
sI1141
g1454
sI1142
g1455
sI1143
g1457
sI1144
g4209
sI1145
g1460
sI1146
g3494
sI1147
g1462
sI1148
g1463
sI1149
g1464
sI1150
g1812
sI1151
g1468
sI1152
g4413
sI1153
g1470
sI1154
g1471
sI1155
g1472
sI1156
g1473
sI1157
g1474
sI1158
g4414
sI1159
g1476
sI1160
g1477
sI1161
g1478
sI1162
g1480
sI1163
g1481
sI1164
g1482
sI1165
g1483
sI1166
g2525
sI1167
g1484
sI1168
g1485
sI1169
g1487
sI1170
g1488
sI1171
g1489
sI1172
g1490
sI1173
g1493
sI1174
g1494
sI1175
g1495
sI1176
g2625
sI1177
g1497
sI1178
g1499
sI1179
g1500
sI1180
g1501
sI1181
g1502
sI1182
g1503
sI1183
g1504
sI1184
g1949
sI1185
g1507
sI1186
g1508
sI1187
g1509
sI1188
g1510
sI1189
g98
sI1190
g1515
sI1191
g1517
sI1192
g1518
sI1193
g1520
sI1194
g4619
sI1195
g1523
sI1196
g1524
sI1197
g3506
sI1198
g1526
sI1199
g1527
sI1200
g1528
sI1201
g1530
sI1202
g1531
sI1203
g1533
sI1204
g1534
sI1205
g4721
sI1206
g1537
sI1207
g1540
sI1208
g4739
sI1209
g1542
sI1210
g2632
sI1211
g1545
sI1212
g1546
sI1213
g1547
sI1214
g1548
sI1215
g1549
sI1216
g1550
sI1217
g1551
sI1218
g1120
sI1219
g4801
sI1220
g4868
sI1221
g1557
sI1222
g1558
sI1223
g1559
sI1224
g1560
sI1225
g1563
sI1226
g1564
sI1227
g1567
sI1228
g546
sI1229
g1568
sI1230
g4877
sI1231
g1570
sI1232
g1049
sI1233
g1575
sI1234
g1576
sI1235
g1577
sI1236
g1578
sI1237
g1579
sI1238
g1580
sI1239
g1581
sI1240
g1582
sI1241
g3162
sI1242
g1584
sI1243
g1586
sI1244
g63
sI1245
g75
sI1246
g3519
sI1247
g1592
sI1248
g1051
sI1249
g1595
sI1250
g1596
sI1251
g1598
sI1252
g1600
sI1253
g3545
sI1254
g1603
sI1255
g1604
sI1256
g1605
sI1257
g1608
sI1258
g1609
sI1259
g1610
sI1260
g1611
sI1261
g1612
sI1262
g4441
sI1263
g2646
sI1264
g1616
sI1265
g1617
sI1266
g1618
sI1267
g1619
sI1268
g1621
sI1269
g1622
sI1270
g1623
sI1271
g1624
sI1272
g1625
sI1273
g1626
sI1274
g1627
sI1275
g4248
sI1276
g1632
sI1277
g1633
sI1278
g2651
sI1279
g4449
sI1280
g1642
sI1281
g3740
sI1282
g1644
sI1283
g415
sI1284
g423
sI1285
g427
sI1286
g1651
sI1287
g1652
sI1288
g1653
sI1289
g1654
sI1290
g1655
sI1291
g1656
sI1292
g1658
sI1293
g1842
sI1294
g1665
sI1295
g522
sI1296
g4350
sI1297
g1670
sI1298
g1671
sI1299
g1672
sI1300
g1673
sI1301
g1674
sI1302
g1676
sI1303
g3540
sI1304
g1679
sI1305
g3706
sI1306
g1682
sI1307
g1684
sI1308
g1685
sI1309
g1686
sI1310
g1844
sI1311
g1689
sI1312
g1690
sI1313
g3802
sI1314
g2662
sI1315
g1693
sI1316
g2789
sI1317
g1695
sI1318
g1976
sI1319
g1847
sI1320
g1697
sI1321
g1698
sI1322
g2665
sI1323
g1700
sI1324
g1702
sI1325
g823
sI1326
g828
sI1327
g3536
sI1328
g1708
sI1329
g852
sI1330
g862
sI1331
g1712
sI1332
g1713
sI1333
g1714
sI1334
g1850
sI1335
g1716
sI1336
g1717
sI1337
g903
sI1338
g1719
sI1339
g1720
sI1340
g1721
sI1341
g3916
sI1342
g1723
sI1343
g1724
sI1344
g1725
sI1345
g1726
sI1346
g3576
sI1347
g1728
sI1348
g1729
sI1349
g1002
sI1350
g1731
sI1351
g1732
sI1352
g1733
sI1353
g1735
sI1354
g1738
sI1355
g1739
sI1356
g1741
sI1357
g1742
sI1358
g3805
sI1359
g1745
sI1360
g1746
sI1361
g1747
sI1362
g1748
sI1363
g1749
sI1364
g1857
sI1365
g1754
sI1366
g1755
sI1367
g1149
sI1368
g1757
sI1369
g1759
sI1370
g1763
sI1371
g1202
sI1372
g1765
sI1373
g1766
sI1374
g1217
sI1375
g1768
sI1376
g1769
sI1377
g4476
sI1378
g1770
sI1379
g1771
sI1380
g1254
sI1381
g1773
sI1382
g1775
sI1383
g2094
sI1384
g1092
sI1385
g1778
sI1386
g1779
sI1387
g1780
sI1388
g1783
sI1389
g1785
sI1390
g1786
sI1391
g1787
sI1392
g1788
sI1393
g1354
sI1394
g1790
sI1395
g1791
sI1396
g1792
sI1397
g1793
sI1398
g1794
sI1399
g1795
sI1400
g1796
sI1401
g1797
sI1402
g3837
sI1403
g3566
sI1404
g1800
sI1405
g1801
sI1406
g3498
sI1407
g1803
sI1408
g1806
sI1409
g1807
sI1410
g1808
sI1411
g1809
sI1412
g1810
sI1413
g4482
sI1414
g2527
sI1415
g1816
sI1416
g1817
sI1417
g1868
sI1418
g1820
sI1419
g1822
sI1420
g1823
sI1421
g92
sI1422
g1826
sI1423
g1827
sI1424
g2220
sI1425
g1829
sI1426
g1830
sI1427
g1831
sI1428
g1833
sI1429
g1834
sI1430
g1835
sI1431
g1836
sI1432
g1838
sI1433
g1840
sI1434
g1661
sI1435
g1687
sI1436
g1845
sI1437
g1846
sI1438
g867
sI1439
g1715
sI1440
g1851
sI1441
g1852
sI1442
g1853
sI1443
g1855
sI1444
g1753
sI1445
g1858
sI1446
g1859
sI1447
g1860
sI1448
g1862
sI1449
g1876
sI1450
g1865
sI1451
g1866
sI1452
g1818
sI1453
g1869
sI1454
g1870
sI1455
g1871
sI1456
g1872
sI1457
g1873
sI1458
g1874
sI1459
g1875
sI1460
g1863
sI1461
g1881
sI1462
g3580
sI1463
g1879
sI1464
g1880
sI1465
g1900
sI1466
g1883
sI1467
g1884
sI1468
g1885
sI1469
g1888
sI1470
g1889
sI1471
g1891
sI1472
g1892
sI1473
g1894
sI1474
g1895
sI1475
g1896
sI1476
g4295
sI1477
g1899
sI1478
g1901
sI1479
g2329
sI1480
g1904
sI1481
g1906
sI1482
g1907
sI1483
g1909
sI1484
g1910
sI1485
g1911
sI1486
g1912
sI1487
g3588
sI1488
g1915
sI1489
g1916
sI1490
g1917
sI1491
g1919
sI1492
g1920
sI1493
g1922
sI1494
g1923
sI1495
g1924
sI1496
g1925
sI1497
g1926
sI1498
g3385
sI1499
g3589
sI1500
g1928
sI1501
g1929
sI1502
g1930
sI1503
g1931
sI1504
g1933
sI1505
g1934
sI1506
g1935
sI1507
g2256
sI1508
g1940
sI1509
g1941
sI1510
g1942
sI1511
g1944
sI1512
g1945
sI1513
g1948
sI1514
g1950
sI1515
g1952
sI1516
g1953
sI1517
g1955
sI1518
g1956
sI1519
g1957
sI1520
g2356
sI1521
g2708
sI1522
g1963
sI1523
g1964
sI1524
g1965
sI1525
g1966
sI1526
g1967
sI1527
g1969
sI1528
g1970
sI1529
g1971
sI1530
g1972
sI1531
g1973
sI1532
g1974
sI1533
g2464
sI1534
g1978
sI1535
g1979
sI1536
g1980
sI1537
g1982
sI1538
g1983
sI1539
g1984
sI1540
g2526
sI1541
g1986
sI1542
g1988
sI1543
g1989
sI1544
g1990
sI1545
g1992
sI1546
g1995
sI1547
g3604
sI1548
g1997
sI1549
g2608
sI1550
g1999
sI1551
g2000
sI1552
g2003
sI1553
g2004
sI1554
g3346
sI1555
g3607
sI1556
g2007
sI1557
g2008
sI1558
g2010
sI1559
g2685
sI1560
g4285
sI1561
g2013
sI1562
g2798
sI1563
g2014
sI1564
g3174
sI1565
g2017
sI1566
g2018
sI1567
g2731
sI1568
g2020
sI1569
g2021
sI1570
g2022
sI1571
g2025
sI1572
g2028
sI1573
g2031
sI1574
g2033
sI1575
g2035
sI1576
g2721
sI1577
g2036
sI1578
g4116
sI1579
g2853
sI1580
g2040
sI1581
g2041
sI1582
g2042
sI1583
g2043
sI1584
g2044
sI1585
g2047
sI1586
g2049
sI1587
g2051
sI1588
g5000
sI1589
g2053
sI1590
g2054
sI1591
g2055
sI1592
g2056
sI1593
g2057
sI1594
g2058
sI1595
g2059
sI1596
g2060
sI1597
g2061
sI1598
g2062
sI1599
g3617
sI1600
g2064
sI1601
g2065
sI1602
g4528
sI1603
g2068
sI1604
g2069
sI1605
g2070
sI1606
g2071
sI1607
g2072
sI1608
g2073
sI1609
g2074
sI1610
g3065
sI1611
g2076
sI1612
g2077
sI1613
g2728
sI1614
g2079
sI1615
g3620
sI1616
g2080
sI1617
g2083
sI1618
g2085
sI1619
g2087
sI1620
g2088
sI1621
g2729
sI1622
g2091
sI1623
g2092
sI1624
g2093
sI1625
g3200
sI1626
g2095
sI1627
g2096
sI1628
g2097
sI1629
g2098
sI1630
g2100
sI1631
g4535
sI1632
g2101
sI1633
g2103
sI1634
g2104
sI1635
g2105
sI1636
g2109
sI1637
g2110
sI1638
g2111
sI1639
g2112
sI1640
g2113
sI1641
g4961
sI1642
g2114
sI1643
g2115
sI1644
g2116
sI1645
g2117
sI1646
g2999
sI1647
g3418
sI1648
g2120
sI1649
g2121
sI1650
g2122
sI1651
g2123
sI1652
g2124
sI1653
g4747
sI1654
g2737
sI1655
g2126
sI1656
g2127
sI1657
g2128
sI1658
g2444
sI1659
g2835
sI1660
g3632
sI1661
g2132
sI1662
g2133
sI1663
g2134
sI1664
g2135
sI1665
g2136
sI1666
g2137
sI1667
g3568
sI1668
g2139
sI1669
g3581
sI1670
g2141
sI1671
g2143
sI1672
g2144
sI1673
g2145
sI1674
g2146
sI1675
g2147
sI1676
g2148
sI1677
g2149
sI1678
g2150
sI1679
g2151
sI1680
g2152
sI1681
g2153
sI1682
g2154
sI1683
g3826
sI1684
g2156
sI1685
g2159
sI1686
g2160
sI1687
g3714
sI1688
g2162
sI1689
g2163
sI1690
g2165
sI1691
g2166
sI1692
g2167
sI1693
g2168
sI1694
g2169
sI1695
g3708
sI1696
g2171
sI1697
g3639
sI1698
g2172
sI1699
g2173
sI1700
g2175
sI1701
g2176
sI1702
g2178
sI1703
g2179
sI1704
g2180
sI1705
g2181
sI1706
g2183
sI1707
g4033
sI1708
g2186
sI1709
g3643
sI1710
g2189
sI1711
g2190
sI1712
g2191
sI1713
g2192
sI1714
g4548
sI1715
g2194
sI1716
g2195
sI1717
g2749
sI1718
g2198
sI1719
g2199
sI1720
g2201
sI1721
g2203
sI1722
g2204
sI1723
g2205
sI1724
g2206
sI1725
g4032
sI1726
g2209
sI1727
g2210
sI1728
g2212
sI1729
g2213
sI1730
g2215
sI1731
g2216
sI1732
g2219
sI1733
g4104
sI1734
g2224
sI1735
g2225
sI1736
g2226
sI1737
g2227
sI1738
g2228
sI1739
g4176
sI1740
g2231
sI1741
g3487
sI1742
g2233
sI1743
g2234
sI1744
g2235
sI1745
g2237
sI1746
g2238
sI1747
g2239
sI1748
g2240
sI1749
g2241
sI1750
g2242
sI1751
g2243
sI1752
g4559
sI1753
g2244
sI1754
g2245
sI1755
g2590
sI1756
g2248
sI1757
g2249
sI1758
g4322
sI1759
g2254
sI1760
g1636
sI1761
g2257
sI1762
g2258
sI1763
g2259
sI1764
g2260
sI1765
g2262
sI1766
g2264
sI1767
g2265
sI1768
g2266
sI1769
g2585
sI1770
g2270
sI1771
g4569
sI1772
g4477
sI1773
g2272
sI1774
g3658
sI1775
g175
sI1776
g2276
sI1777
g2277
sI1778
g3659
sI1779
g2279
sI1780
g2280
sI1781
g2281
sI1782
g2282
sI1783
g2283
sI1784
g2284
sI1785
g2285
sI1786
g4870
sI1787
g2288
sI1788
g2290
sI1789
g4566
sI1790
g4571
sI1791
g2294
sI1792
g2295
sI1793
g2296
sI1794
g2300
sI1795
g4618
sI1796
g2302
sI1797
g2303
sI1798
g2304
sI1799
g2305
sI1800
g2306
sI1801
g2307
sI1802
g2309
sI1803
g4685
sI1804
g4660
sI1805
g4983
sI1806
g2315
sI1807
g4727
sI1808
g2317
sI1809
g2318
sI1810
g2319
sI1811
g2322
sI1812
g2323
sI1813
g2324
sI1814
g2326
sI1815
g2327
sI1816
g4379
sI1817
g4725
sI1818
g2330
sI1819
g2331
sI1820
g2332
sI1821
g2333
sI1822
g2334
sI1823
g2335
sI1824
g2336
sI1825
g2337
sI1826
g2338
sI1827
g2340
sI1828
g2341
sI1829
g2342
sI1830
g2346
sI1831
g4778
sI1832
g2348
sI1833
g2350
sI1834
g2351
sI1835
g2354
sI1836
g1958
sI1837
g2357
sI1838
g2358
sI1839
g2359
sI1840
g4203
sI1841
g3183
sI1842
g3970
sI1843
g2367
sI1844
g13
sI1845
g3281
sI1846
g2371
sI1847
g2816
sI1848
g4581
sI1849
g40
sI1850
g2781
sI1851
g2376
sI1852
g3941
sI1853
g73
sI1854
g78
sI1855
g2382
sI1856
g87
sI1857
g2384
sI1858
g2385
sI1859
g3180
sI1860
g2388
sI1861
g2389
sI1862
g2390
sI1863
g2391
sI1864
g2393
sI1865
g150
sI1866
g2396
sI1867
g2474
sI1868
g2398
sI1869
g2399
sI1870
g2400
sI1871
g2401
sI1872
g2402
sI1873
g2403
sI1874
g4331
sI1875
g2405
sI1876
g208
sI1877
g214
sI1878
g2408
sI1879
g220
sI1880
g4483
sI1881
g2411
sI1882
g2413
sI1883
g2414
sI1884
g2418
sI1885
g2419
sI1886
g2420
sI1887
g2421
sI1888
g2422
sI1889
g287
sI1890
g4211
sI1891
g2427
sI1892
g2428
sI1893
g2430
sI1894
g2431
sI1895
g2432
sI1896
g2433
sI1897
g2434
sI1898
g3945
sI1899
g2436
sI1900
g355
sI1901
g3500
sI1902
g3372
sI1903
g3843
sI1904
g2442
sI1905
g2443
sI1906
g4602
sI1907
g2446
sI1908
g2447
sI1909
g426
sI1910
g2449
sI1911
g2450
sI1912
g2451
sI1913
g2452
sI1914
g2453
sI1915
g478
sI1916
g3002
sI1917
g2456
sI1918
g2796
sI1919
g2458
sI1920
g4593
sI1921
g2460
sI1922
g2461
sI1923
g2462
sI1924
g2465
sI1925
g539
sI1926
g2799
sI1927
g2468
sI1928
g2470
sI1929
g2471
sI1930
g2800
sI1931
g2473
sI1932
g2475
sI1933
g610
sI1934
g2478
sI1935
g2479
sI1936
g2480
sI1937
g2482
sI1938
g2484
sI1939
g2986
sI1940
g2488
sI1941
g2489
sI1942
g2491
sI1943
g698
sI1944
g2493
sI1945
g2494
sI1946
g2495
sI1947
g727
sI1948
g2497
sI1949
g2498
sI1950
g2499
sI1951
g749
sI1952
g2502
sI1953
g2503
sI1954
g2505
sI1955
g2506
sI1956
g4901
sI1957
g2508
sI1958
g2510
sI1959
g812
sI1960
g2513
sI1961
g4603
sI1962
g831
sI1963
g2516
sI1964
g2517
sI1965
g2518
sI1966
g3085
sI1967
g2522
sI1968
g2523
sI1969
g2524
sI1970
g1905
sI1971
g3025
sI1972
g2528
sI1973
g705
sI1974
g2530
sI1975
g2532
sI1976
g1819
sI1977
g2537
sI1978
g2539
sI1979
g1938
sI1980
g2542
sI1981
g1005
sI1982
g2544
sI1983
g2545
sI1984
g2546
sI1985
g2547
sI1986
g2548
sI1987
g2549
sI1988
g2550
sI1989
g2551
sI1990
g2553
sI1991
g2554
sI1992
g1098
sI1993
g2557
sI1994
g1111
sI1995
g2559
sI1996
g2719
sI1997
g2562
sI1998
g2563
sI1999
g1140
sI2000
g2565
sI2001
g2566
sI2002
g2567
sI2003
g2569
sI2004
g2570
sI2005
g3713
sI2006
g2572
sI2007
g2574
sI2008
g1196
sI2009
g2578
sI2010
g4133
sI2011
g4729
sI2012
g1242
sI2013
g2581
sI2014
g2667
sI2015
g2584
sI2016
g2586
sI2017
g1825
sI2018
g2588
sI2019
g2293
sI2020
g3204
sI2021
g2592
sI2022
g2593
sI2023
g2594
sI2024
g2595
sI2025
g2596
sI2026
g4724
sI2027
g2598
sI2028
g2599
sI2029
g2602
sI2030
g2824
sI2031
g2604
sI2032
g1402
sI2033
g2607
sI2034
g2609
sI2035
g2610
sI2036
g2611
sI2037
g2612
sI2038
g2613
sI2039
g2614
sI2040
g2615
sI2041
g2616
sI2042
g2617
sI2043
g2618
sI2044
g2619
sI2045
g2620
sI2046
g2622
sI2047
g2623
sI2048
g3470
sI2049
g2626
sI2050
g2627
sI2051
g2828
sI2052
g2628
sI2053
g2631
sI2054
g1543
sI2055
g3722
sI2056
g2635
sI2057
g2637
sI2058
g1565
sI2059
g2639
sI2060
g2642
sI2061
g2644
sI2062
g2645
sI2063
g1615
sI2064
g2647
sI2065
g2648
sI2066
g2649
sI2067
g2650
sI2068
g2854
sI2069
g2652
sI2070
g2656
sI2071
g2657
sI2072
g2659
sI2073
g2660
sI2074
g1691
sI2075
g2663
sI2076
g2664
sI2077
g1699
sI2078
g2666
sI2079
g4488
sI2080
g4247
sI2081
g2672
sI2082
g2673
sI2083
g2793
sI2084
g2676
sI2085
g2677
sI2086
g2678
sI2087
g2679
sI2088
g3733
sI2089
g2681
sI2090
g2682
sI2091
g2683
sI2092
g2684
sI2093
g2011
sI2094
g2686
sI2095
g2689
sI2096
g2691
sI2097
g2695
sI2098
g1887
sI2099
g2697
sI2100
g2698
sI2101
g2715
sI2102
g2774
sI2103
g2702
sI2104
g4167
sI2105
g2705
sI2106
g20
sI2107
g1961
sI2108
g2709
sI2109
g2710
sI2110
g2711
sI2111
g2713
sI2112
g2714
sI2113
g5003
sI2114
g2716
sI2115
g2717
sI2116
g4641
sI2117
g2027
sI2118
g2720
sI2119
g4163
sI2120
g2723
sI2121
g2725
sI2122
g2727
sI2123
g2078
sI2124
g2089
sI2125
g2730
sI2126
g2732
sI2127
g2733
sI2128
g2734
sI2129
g2735
sI2130
g2736
sI2131
g2125
sI2132
g2738
sI2133
g2739
sI2134
g3848
sI2135
g1400
sI2136
g2744
sI2137
g4424
sI2138
g2745
sI2139
g2849
sI2140
g2197
sI2141
g2202
sI2142
g2751
sI2143
g2752
sI2144
g2753
sI2145
g2754
sI2146
g2951
sI2147
g2756
sI2148
g2757
sI2149
g2758
sI2150
g4813
sI2151
g2762
sI2152
g2763
sI2153
g2764
sI2154
g2765
sI2155
g2767
sI2156
g2247
sI2157
g2770
sI2158
g2771
sI2159
g2772
sI2160
g2773
sI2161
g4145
sI2162
g2775
sI2163
g2776
sI2164
g2778
sI2165
g2779
sI2166
g2780
sI2167
g2375
sI2168
g4652
sI2169
g2785
sI2170
g2416
sI2171
g351
sI2172
g320
sI2173
g2791
sI2174
g2792
sI2175
g712
sI2176
g2794
sI2177
g926
sI2178
g2457
sI2179
g2797
sI2180
g373
sI2181
g2467
sI2182
g2472
sI2183
g2801
sI2184
g2803
sI2185
g2804
sI2186
g2805
sI2187
g2807
sI2188
g4655
sI2189
g2809
sI2190
g2810
sI2191
g2811
sI2192
g3910
sI2193
g2275
sI2194
g2814
sI2195
g2815
sI2196
g3311
sI2197
g2817
sI2198
g2818
sI2199
g2819
sI2200
g2820
sI2201
g2822
sI2202
g2858
sI2203
g2603
sI2204
g2825
sI2205
g2827
sI2206
g3430
sI2207
g2829
sI2208
g2830
sI2209
g2987
sI2210
g2832
sI2211
g2833
sI2212
g2675
sI2213
g2837
sI2214
g2838
sI2215
g2839
sI2216
g2840
sI2217
g2712
sI2218
g2843
sI2219
g2844
sI2220
g2845
sI2221
g2846
sI2222
g2847
sI2223
g2848
sI2224
g2746
sI2225
g2850
sI2226
g2851
sI2227
g2866
sI2228
g3464
sI2229
g3764
sI2230
g2857
sI2231
g2823
sI2232
g2859
sI2233
g2860
sI2234
g2861
sI2235
g2864
sI2236
g2876
sI2237
g2868
sI2238
g728
sI2239
g2870
sI2240
g2872
sI2241
g3766
sI2242
g4490
sI2243
g4175
sI2244
g2877
sI2245
g2878
sI2246
g2879
sI2247
g2880
sI2248
g2881
sI2249
g4611
sI2250
g4428
sI2251
g2885
sI2252
g2886
sI2253
g2888
sI2254
g2889
sI2255
g2890
sI2256
g3010
sI2257
g2893
sI2258
g2894
sI2259
g2895
sI2260
g2896
sI2261
g515
sI2262
g2898
sI2263
g3057
sI2264
g2901
sI2265
g2902
sI2266
g2904
sI2267
g2907
sI2268
g2908
sI2269
g2909
sI2270
g2911
sI2271
g2913
sI2272
g2914
sI2273
g2915
sI2274
g2916
sI2275
g2919
sI2276
g2920
sI2277
g2923
sI2278
g2924
sI2279
g2925
sI2280
g2926
sI2281
g2928
sI2282
g2929
sI2283
g2930
sI2284
g2931
sI2285
g3248
sI2286
g4790
sI2287
g2934
sI2288
g2935
sI2289
g2938
sI2290
g4127
sI2291
g2939
sI2292
g3930
sI2293
g2940
sI2294
g2941
sI2295
g2942
sI2296
g2943
sI2297
g2944
sI2298
g2945
sI2299
g2946
sI2300
g2947
sI2301
g2949
sI2302
g2950
sI2303
g4042
sI2304
g2953
sI2305
g2954
sI2306
g4683
sI2307
g2957
sI2308
g2958
sI2309
g2959
sI2310
g4684
sI2311
g2962
sI2312
g171
sI2313
g2965
sI2314
g2967
sI2315
g2968
sI2316
g4686
sI2317
g2971
sI2318
g2972
sI2319
g2973
sI2320
g2974
sI2321
g2975
sI2322
g2977
sI2323
g2978
sI2324
g2979
sI2325
g2980
sI2326
g4146
sI2327
g4088
sI2328
g2984
sI2329
g3569
sI2330
g3579
sI2331
g3806
sI2332
g2989
sI2333
g2990
sI2334
g4376
sI2335
g2992
sI2336
g2994
sI2337
g2995
sI2338
g2996
sI2339
g2997
sI2340
g2998
sI2341
g3668
sI2342
g3000
sI2343
g3001
sI2344
g3760
sI2345
g4693
sI2346
g3005
sI2347
g3008
sI2348
g3009
sI2349
g445
sI2350
g3012
sI2351
g3013
sI2352
g3758
sI2353
g3747
sI2354
g3016
sI2355
g3017
sI2356
g3788
sI2357
g3019
sI2358
g3020
sI2359
g3021
sI2360
g3023
sI2361
g3026
sI2362
g3030
sI2363
g3031
sI2364
g3033
sI2365
g3035
sI2366
g3036
sI2367
g3037
sI2368
g3038
sI2369
g3039
sI2370
g3040
sI2371
g3041
sI2372
g3044
sI2373
g3046
sI2374
g3047
sI2375
g3049
sI2376
g3050
sI2377
g4367
sI2378
g2636
sI2379
g4391
sI2380
g3054
sI2381
g4046
sI2382
g3056
sI2383
g3058
sI2384
g3059
sI2385
g3060
sI2386
g3061
sI2387
g4223
sI2388
g3062
sI2389
g3064
sI2390
g4639
sI2391
g3067
sI2392
g3068
sI2393
g3069
sI2394
g3070
sI2395
g4170
sI2396
g3073
sI2397
g3076
sI2398
g3077
sI2399
g3080
sI2400
g3082
sI2401
g4230
sI2402
g4235
sI2403
g3086
sI2404
g3087
sI2405
g4713
sI2406
g3089
sI2407
g3090
sI2408
g4256
sI2409
g3093
sI2410
g3094
sI2411
g3095
sI2412
g3096
sI2413
g4292
sI2414
g4599
sI2415
g3098
sI2416
g3099
sI2417
g3100
sI2418
g3101
sI2419
g3102
sI2420
g3103
sI2421
g3104
sI2422
g3105
sI2423
g3106
sI2424
g3107
sI2425
g3108
sI2426
g4383
sI2427
g3111
sI2428
g3112
sI2429
g3113
sI2430
g3114
sI2431
g3115
sI2432
g3116
sI2433
g3117
sI2434
g3118
sI2435
g3120
sI2436
g4653
sI2437
g4719
sI2438
g3125
sI2439
g3126
sI2440
g3128
sI2441
g4720
sI2442
g3131
sI2443
g3132
sI2444
g3814
sI2445
g3134
sI2446
g4539
sI2447
g4045
sI2448
g3138
sI2449
g3139
sI2450
g4579
sI2451
g3142
sI2452
g3143
sI2453
g3145
sI2454
g4805
sI2455
g3147
sI2456
g3148
sI2457
g3149
sI2458
g3150
sI2459
g3153
sI2460
g3155
sI2461
g3157
sI2462
g3158
sI2463
g3159
sI2464
g3161
sI2465
g3163
sI2466
g3165
sI2467
g3166
sI2468
g4562
sI2469
g3168
sI2470
g3169
sI2471
g3170
sI2472
g3171
sI2473
g4972
sI2474
g2016
sI2475
g3176
sI2476
g3177
sI2477
g3178
sI2478
g3179
sI2479
g3182
sI2480
g4605
sI2481
g3186
sI2482
g3187
sI2483
g3255
sI2484
g3188
sI2485
g3189
sI2486
g3190
sI2487
g3191
sI2488
g3192
sI2489
g3193
sI2490
g4715
sI2491
g3196
sI2492
g3198
sI2493
g3199
sI2494
g4966
sI2495
g3202
sI2496
g3992
sI2497
g4988
sI2498
g3206
sI2499
g3208
sI2500
g3209
sI2501
g3211
sI2502
g3213
sI2503
g3214
sI2504
g3216
sI2505
g3218
sI2506
g47
sI2507
g2118
sI2508
g3221
sI2509
g3222
sI2510
g3343
sI2511
g3224
sI2512
g3226
sI2513
g3229
sI2514
g4733
sI2515
g3232
sI2516
g3235
sI2517
g3236
sI2518
g136
sI2519
g3239
sI2520
g4735
sI2521
g153
sI2522
g3243
sI2523
g3244
sI2524
g3245
sI2525
g4736
sI2526
g170
sI2527
g4049
sI2528
g1087
sI2529
g4807
sI2530
g3252
sI2531
g3253
sI2532
g3254
sI2533
g2417
sI2534
g3256
sI2535
g3257
sI2536
g3259
sI2537
g3260
sI2538
g3261
sI2539
g3262
sI2540
g3263
sI2541
g3220
sI2542
g3266
sI2543
g3267
sI2544
g3268
sI2545
g3270
sI2546
g3271
sI2547
g2131
sI2548
g3274
sI2549
g3275
sI2550
g3276
sI2551
g3277
sI2552
g3278
sI2553
g4232
sI2554
g3282
sI2555
g3283
sI2556
g328
sI2557
g3285
sI2558
g4888
sI2559
g3289
sI2560
g3839
sI2561
g3292
sI2562
g3293
sI2563
g3294
sI2564
g3295
sI2565
g3297
sI2566
g3298
sI2567
g3299
sI2568
g3302
sI2569
g3303
sI2570
g3304
sI2571
g419
sI2572
g3306
sI2573
g429
sI2574
g3308
sI2575
g3310
sI2576
g449
sI2577
g3474
sI2578
g3312
sI2579
g3314
sI2580
g3315
sI2581
g3205
sI2582
g3575
sI2583
g3318
sI2584
g2328
sI2585
g4245
sI2586
g3322
sI2587
g3323
sI2588
g3325
sI2589
g3326
sI2590
g4924
sI2591
g3328
sI2592
g3329
sI2593
g3330
sI2594
g3998
sI2595
g3334
sI2596
g3336
sI2597
g3337
sI2598
g3339
sI2599
g3340
sI2600
g3341
sI2601
g4487
sI2602
g3344
sI2603
g4297
sI2604
g3347
sI2605
g3348
sI2606
g3349
sI2607
g3351
sI2608
g3352
sI2609
g4184
sI2610
g3354
sI2611
g3356
sI2612
g3357
sI2613
g3358
sI2614
g4240
sI2615
g3359
sI2616
g3361
sI2617
g3363
sI2618
g3697
sI2619
g3366
sI2620
g3367
sI2621
g731
sI2622
g3369
sI2623
g3370
sI2624
g3373
sI2625
g3375
sI2626
g4152
sI2627
g3377
sI2628
g3378
sI2629
g3379
sI2630
g3380
sI2631
g3381
sI2632
g3383
sI2633
g3384
sI2634
g1056
sI2635
g1663
sI2636
g3387
sI2637
g3388
sI2638
g3389
sI2639
g850
sI2640
g863
sI2641
g3393
sI2642
g872
sI2643
g3395
sI2644
g3397
sI2645
g3398
sI2646
g3399
sI2647
g1620
sI2648
g3402
sI2649
g3403
sI2650
g272
sI2651
g3408
sI2652
g3409
sI2653
g3410
sI2654
g3411
sI2655
g3412
sI2656
g3413
sI2657
g3414
sI2658
g5007
sI2659
g2582
sI2660
g3863
sI2661
g3327
sI2662
g3423
sI2663
g980
sI2664
g3426
sI2665
g3427
sI2666
g3428
sI2667
g1093
sI2668
g1108
sI2669
g3432
sI2670
g3433
sI2671
g120
sI2672
g1123
sI2673
g3437
sI2674
g1143
sI2675
g3439
sI2676
g3440
sI2677
g4770
sI2678
g4974
sI2679
g3443
sI2680
g3444
sI2681
g3445
sI2682
g3446
sI2683
g3448
sI2684
g3449
sI2685
g3451
sI2686
g1227
sI2687
g3453
sI2688
g3454
sI2689
g3455
sI2690
g3456
sI2691
g3457
sI2692
g1259
sI2693
g3461
sI2694
g3462
sI2695
g3463
sI2696
g4339
sI2697
g3465
sI2698
g3466
sI2699
g3622
sI2700
g3469
sI2701
g4362
sI2702
g3472
sI2703
g390
sI2704
g1505
sI2705
g1390
sI2706
g1397
sI2707
g3480
sI2708
g1408
sI2709
g3482
sI2710
g3483
sI2711
g3484
sI2712
g3485
sI2713
g3486
sI2714
g750
sI2715
g3488
sI2716
g3489
sI2717
g376
sI2718
g1452
sI2719
g4777
sI2720
g1461
sI2721
g3495
sI2722
g1492
sI2723
g3921
sI2724
g4781
sI2725
g3502
sI2726
g3503
sI2727
g1525
sI2728
g3508
sI2729
g3509
sI2730
g3510
sI2731
g3511
sI2732
g3512
sI2733
g3513
sI2734
g3514
sI2735
g3516
sI2736
g3517
sI2737
g1589
sI2738
g3520
sI2739
g3797
sI2740
g3524
sI2741
g3527
sI2742
g3528
sI2743
g3529
sI2744
g3530
sI2745
g4822
sI2746
g3532
sI2747
g3533
sI2748
g3534
sI2749
g3537
sI2750
g3539
sI2751
g1677
sI2752
g3541
sI2753
g3542
sI2754
g3543
sI2755
g3544
sI2756
g3817
sI2757
g2983
sI2758
g3547
sI2759
g1898
sI2760
g3549
sI2761
g4950
sI2762
g3550
sI2763
g2836
sI2764
g3553
sI2765
g3554
sI2766
g3555
sI2767
g3556
sI2768
g3557
sI2769
g3558
sI2770
g4810
sI2771
g3559
sI2772
g3560
sI2773
g3561
sI2774
g3563
sI2775
g3565
sI2776
g1799
sI2777
g1802
sI2778
g4549
sI2779
g3571
sI2780
g3572
sI2781
g2777
sI2782
g3578
sI2783
g1878
sI2784
g4656
sI2785
g1886
sI2786
g4594
sI2787
g3585
sI2788
g3587
sI2789
g1914
sI2790
g1927
sI2791
g3591
sI2792
g3592
sI2793
g1377
sI2794
g3598
sI2795
g3601
sI2796
g3602
sI2797
g3603
sI2798
g991
sI2799
g3605
sI2800
g2991
sI2801
g4015
sI2802
g3608
sI2803
g3609
sI2804
g3611
sI2805
g3614
sI2806
g2063
sI2807
g3618
sI2808
g3619
sI2809
g2344
sI2810
g3621
sI2811
g3623
sI2812
g3624
sI2813
g3625
sI2814
g3626
sI2815
g3627
sI2816
g3629
sI2817
g3630
sI2818
g3631
sI2819
g1324
sI2820
g3634
sI2821
g3635
sI2822
g3636
sI2823
g3637
sI2824
g2164
sI2825
g1352
sI2826
g3641
sI2827
g3642
sI2828
g2188
sI2829
g4298
sI2830
g3645
sI2831
g3646
sI2832
g3648
sI2833
g451
sI2834
g3650
sI2835
g3651
sI2836
g3652
sI2837
g3653
sI2838
g3656
sI2839
g3657
sI2840
g2274
sI2841
g3194
sI2842
g3661
sI2843
g3662
sI2844
g4134
sI2845
g946
sI2846
g3665
sI2847
g3667
sI2848
g4917
sI2849
g3669
sI2850
g3670
sI2851
g3671
sI2852
g3672
sI2853
g3673
sI2854
g3675
sI2855
g3676
sI2856
g3678
sI2857
g3681
sI2858
g380
sI2859
g4126
sI2860
g4913
sI2861
g3685
sI2862
g3901
sI2863
g4717
sI2864
g3690
sI2865
g3691
sI2866
g3692
sI2867
g4829
sI2868
g3695
sI2869
g1824
sI2870
g3699
sI2871
g3700
sI2872
g3701
sI2873
g3702
sI2874
g3704
sI2875
g722
sI2876
g1832
sI2877
g3709
sI2878
g5022
sI2879
g2571
sI2880
g2161
sI2881
g3715
sI2882
g3719
sI2883
g3720
sI2884
g3721
sI2885
g2634
sI2886
g3724
sI2887
g853
sI2888
g3727
sI2889
g3728
sI2890
g3731
sI2891
g3732
sI2892
g2680
sI2893
g3734
sI2894
g2692
sI2895
g3738
sI2896
g3739
sI2897
g2108
sI2898
g3741
sI2899
g3742
sI2900
g3743
sI2901
g974
sI2902
g3745
sI2903
g236
sI2904
g3750
sI2905
g3751
sI2906
g3914
sI2907
g3754
sI2908
g3755
sI2909
g3756
sI2910
g1648
sI2911
g3761
sI2912
g181
sI2913
g2856
sI2914
g2874
sI2915
g3768
sI2916
g2897
sI2917
g3770
sI2918
g3772
sI2919
g3774
sI2920
g3775
sI2921
g3776
sI2922
g2948
sI2923
g3778
sI2924
g3749
sI2925
g3779
sI2926
g3780
sI2927
g3781
sI2928
g1206
sI2929
g3783
sI2930
g3790
sI2931
g3785
sI2932
g3786
sI2933
g3787
sI2934
g3022
sI2935
g3791
sI2936
g3792
sI2937
g3794
sI2938
g3795
sI2939
g4471
sI2940
g3798
sI2941
g3799
sI2942
g3800
sI2943
g1762
sI2944
g3074
sI2945
g3079
sI2946
g3804
sI2947
g3852
sI2948
g3808
sI2949
g4458
sI2950
g1388
sI2951
g3810
sI2952
g3811
sI2953
g3812
sI2954
g3813
sI2955
g3133
sI2956
g596
sI2957
g3816
sI2958
g580
sI2959
g3818
sI2960
g3820
sI2961
g3821
sI2962
g3823
sI2963
g3824
sI2964
g4208
sI2965
g3827
sI2966
g3828
sI2967
g3829
sI2968
g4907
sI2969
g3830
sI2970
g3831
sI2971
g377
sI2972
g643
sI2973
g3836
sI2974
g2182
sI2975
g3838
sI2976
g3291
sI2977
g3840
sI2978
g3841
sI2979
g3842
sI2980
g1435
sI2981
g3844
sI2982
g3995
sI2983
g4812
sI2984
g3335
sI2985
g3851
sI2986
g816
sI2987
g3854
sI2988
g4172
sI2989
g1221
sI2990
g3856
sI2991
g3857
sI2992
g3858
sI2993
g3861
sI2994
g3862
sI2995
g2086
sI2996
g3864
sI2997
g3865
sI2998
g3866
sI2999
g3867
sI3000
g3868
sI3001
g3870
sI3002
g3872
sI3003
g3873
sI3004
g3875
sI3005
g1448
sI3006
g4495
sI3007
g3878
sI3008
g3879
sI3009
g36
sI3010
g3881
sI3011
g4837
sI3012
g3884
sI3013
g4992
sI3014
g3887
sI3015
g3888
sI3016
g3889
sI3017
g3893
sI3018
g3894
sI3019
g3895
sI3020
g3897
sI3021
g3898
sI3022
g3899
sI3023
g3900
sI3024
g3686
sI3025
g3902
sI3026
g3903
sI3027
g3904
sI3028
g3905
sI3029
g173
sI3030
g3907
sI3031
g3908
sI3032
g3504
sI3033
g3912
sI3034
g3913
sI3035
g2540
sI3036
g3915
sI3037
g3917
sI3038
g3918
sI3039
g3922
sI3040
g3923
sI3041
g3926
sI3042
g258
sI3043
g3929
sI3044
g3793
sI3045
g3931
sI3046
g3932
sI3047
g3933
sI3048
g4199
sI3049
g3935
sI3050
g3937
sI3051
g3940
sI3052
g4848
sI3053
g3942
sI3054
g3944
sI3055
g4444
sI3056
g4332
sI3057
g3947
sI3058
g3950
sI3059
g3201
sI3060
g3952
sI3061
g3954
sI3062
g3955
sI3063
g3956
sI3064
g3957
sI3065
g3958
sI3066
g3959
sI3067
g3960
sI3068
g3961
sI3069
g3962
sI3070
g3963
sI3071
g4043
sI3072
g3965
sI3073
g3966
sI3074
g3967
sI3075
g5011
sI3076
g3969
sI3077
g3971
sI3078
g1421
sI3079
g1522
sI3080
g3975
sI3081
g3976
sI3082
g3977
sI3083
g3978
sI3084
g3979
sI3085
g1936
sI3086
g4182
sI3087
g3983
sI3088
g3984
sI3089
g3985
sI3090
g3986
sI3091
g3987
sI3092
g3988
sI3093
g4894
sI3094
g3991
sI3095
g3993
sI3096
g3951
sI3097
g3997
sI3098
g2533
sI3099
g1784
sI3100
g4000
sI3101
g2812
sI3102
g4002
sI3103
g4003
sI3104
g4005
sI3105
g4006
sI3106
g4007
sI3107
g4008
sI3108
g4363
sI3109
g4011
sI3110
g4012
sI3111
g4013
sI3112
g4014
sI3113
g2490
sI3114
g4016
sI3115
g4017
sI3116
g4019
sI3117
g4433
sI3118
g4021
sI3119
g4022
sI3120
g4023
sI3121
g4026
sI3122
g4027
sI3123
g1433
sI3124
g4030
sI3125
g4456
sI3126
g2185
sI3127
g4034
sI3128
g4036
sI3129
g4037
sI3130
g4038
sI3131
g4040
sI3132
g3231
sI3133
g321
sI3134
g4573
sI3135
g4578
sI3136
g2704
sI3137
g4047
sI3138
g4048
sI3139
g4600
sI3140
g4050
sI3141
g4051
sI3142
g4052
sI3143
g4055
sI3144
g4056
sI3145
g4057
sI3146
g4058
sI3147
g4059
sI3148
g4060
sI3149
g4675
sI3150
g4064
sI3151
g4065
sI3152
g3707
sI3153
g4067
sI3154
g4712
sI3155
g4069
sI3156
g4070
sI3157
g4071
sI3158
g4072
sI3159
g4898
sI3160
g4074
sI3161
g4075
sI3162
g4076
sI3163
g4077
sI3164
g4078
sI3165
g4079
sI3166
g4080
sI3167
g4081
sI3168
g4082
sI3169
g4083
sI3170
g4957
sI3171
g4085
sI3172
g4086
sI3173
g4443
sI3174
g4089
sI3175
g4090
sI3176
g4091
sI3177
g796
sI3178
g4094
sI3179
g4319
sI3180
g4096
sI3181
g4097
sI3182
g4914
sI3183
g4100
sI3184
g4101
sI3185
g4102
sI3186
g4103
sI3187
g2084
sI3188
g4105
sI3189
g4106
sI3190
g4964
sI3191
g4108
sI3192
g824
sI3193
g4111
sI3194
g4113
sI3195
g4114
sI3196
g4115
sI3197
g4117
sI3198
g4118
sI3199
g4119
sI3200
g4120
sI3201
g3092
sI3202
g4122
sI3203
g4124
sI3204
g2561
sI3205
g3522
sI3206
g4128
sI3207
g4129
sI3208
g4266
sI3209
g4131
sI3210
g4132
sI3211
g4135
sI3212
g4136
sI3213
g85
sI3214
g4311
sI3215
g4139
sI3216
g4140
sI3217
g4142
sI3218
g4143
sI3219
g4144
sI3220
g4147
sI3221
g4148
sI3222
g4150
sI3223
g4151
sI3224
g4506
sI3225
g4154
sI3226
g4155
sI3227
g4157
sI3228
g193
sI3229
g4395
sI3230
g4161
sI3231
g4162
sI3232
g219
sI3233
g4165
sI3234
g4166
sI3235
g231
sI3236
g4168
sI3237
g2937
sI3238
g2048
sI3239
g3980
sI3240
g4173
sI3241
g4174
sI3242
g277
sI3243
g2229
sI3244
g4177
sI3245
g4178
sI3246
g4179
sI3247
g4180
sI3248
g4181
sI3249
g645
sI3250
g435
sI3251
g4185
sI3252
g4186
sI3253
g4187
sI3254
g4188
sI3255
g4189
sI3256
g4190
sI3257
g4191
sI3258
g4192
sI3259
g4193
sI3260
g4194
sI3261
g4112
sI3262
g4757
sI3263
g4196
sI3264
g4198
sI3265
g1340
sI3266
g398
sI3267
g4302
sI3268
g3355
sI3269
g4205
sI3270
g4206
sI3271
g1355
sI3272
g4210
sI3273
g1828
sI3274
g4213
sI3275
g4932
sI3276
g4216
sI3277
g4217
sI3278
g4218
sI3279
g4219
sI3280
g4220
sI3281
g4221
sI3282
g4222
sI3283
g505
sI3284
g509
sI3285
g4225
sI3286
g3990
sI3287
g4229
sI3288
g949
sI3289
g4233
sI3290
g554
sI3291
g4164
sI3292
g4238
sI3293
g4239
sI3294
g1185
sI3295
g3994
sI3296
g4242
sI3297
g4243
sI3298
g4244
sI3299
g618
sI3300
g4249
sI3301
g657
sI3302
g3736
sI3303
g669
sI3304
g4255
sI3305
g3091
sI3306
g4257
sI3307
g4258
sI3308
g699
sI3309
g4260
sI3310
g4899
sI3311
g4262
sI3312
g2142
sI3313
g1250
sI3314
g700
sI3315
g4267
sI3316
g1465
sI3317
g4270
sI3318
g4271
sI3319
g4272
sI3320
g4273
sI3321
g4274
sI3322
g806
sI3323
g4276
sI3324
g4277
sI3325
g4279
sI3326
g4937
sI3327
g2106
sI3328
g4282
sI3329
g4283
sI3330
g2222
sI3331
g4286
sI3332
g4287
sI3333
g4288
sI3334
g4289
sI3335
g4291
sI3336
g884
sI3337
g4293
sI3338
g4294
sI3339
g1660
sI3340
g4296
sI3341
g1640
sI3342
g912
sI3343
g4300
sI3344
g2512
sI3345
g4905
sI3346
g4305
sI3347
g4306
sI3348
g4307
sI3349
g4308
sI3350
g4309
sI3351
g1815
sI3352
g2887
sI3353
g4312
sI3354
g4313
sI3355
g4314
sI3356
g4315
sI3357
g4318
sI3358
g4321
sI3359
g687
sI3360
g4323
sI3361
g4324
sI3362
g4325
sI3363
g4227
sI3364
g1050
sI3365
g4330
sI3366
g4329
sI3367
g4333
sI3368
g4336
sI3369
g4337
sI3370
g3883
sI3371
g4340
sI3372
g4341
sI3373
g4342
sI3374
g4344
sI3375
g1569
sI3376
g4346
sI3377
g4348
sI3378
g4349
sI3379
g3850
sI3380
g4351
sI3381
g508
sI3382
g3228
sI3383
g4355
sI3384
g4356
sI3385
g1538
sI3386
g4358
sI3387
g4359
sI3388
g4360
sI3389
g4737
sI3390
g3934
sI3391
g4364
sI3392
g129
sI3393
g1246
sI3394
g1292
sI3395
g4368
sI3396
g4369
sI3397
g4370
sI3398
g4371
sI3399
g4373
sI3400
g1287
sI3401
g1291
sI3402
g4377
sI3403
g4380
sI3404
g4382
sI3405
g3109
sI3406
g4384
sI3407
g4385
sI3408
g4387
sI3409
g4389
sI3410
g1361
sI3411
g4392
sI3412
g1393
sI3413
g4397
sI3414
g4399
sI3415
g2638
sI3416
g4401
sI3417
g1414
sI3418
g4403
sI3419
g4404
sI3420
g3374
sI3421
g4409
sI3422
g4410
sI3423
g2981
sI3424
g4412
sI3425
g1469
sI3426
g1475
sI3427
g4415
sI3428
g4416
sI3429
g3694
sI3430
g4419
sI3431
g4420
sI3432
g4423
sI3433
g1539
sI3434
g4425
sI3435
g4426
sI3436
g1947
sI3437
g1556
sI3438
g4925
sI3439
g4430
sI3440
g4431
sI3441
g4432
sI3442
g4435
sI3443
g4436
sI3444
g4437
sI3445
g4438
sI3446
g4440
sI3447
g1613
sI3448
g4445
sI3449
g4446
sI3450
g4447
sI3451
g1641
sI3452
g4450
sI3453
g4451
sI3454
g4452
sI3455
g4453
sI3456
g4454
sI3457
g4455
sI3458
g3476
sI3459
g577
sI3460
g4457
sI3461
g1968
sI3462
g4459
sI3463
g4460
sI3464
g4462
sI3465
g4464
sI3466
g4465
sI3467
g4467
sI3468
g4468
sI3469
g4472
sI3470
g4474
sI3471
g2654
sI3472
g639
sI3473
g4478
sI3474
g4479
sI3475
g4480
sI3476
g4481
sI3477
g1811
sI3478
g3391
sI3479
g4484
sI3480
g1843
sI3481
g2485
sI3482
g3227
sI3483
g4491
sI3484
g4492
sI3485
g4938
sI3486
g4494
sI3487
g1897
sI3488
g4497
sI3489
g4498
sI3490
g4499
sI3491
g4500
sI3492
g4502
sI3493
g4504
sI3494
g4507
sI3495
g4509
sI3496
g4510
sI3497
g714
sI3498
g1348
sI3499
g4514
sI3500
g1987
sI3501
g4841
sI3502
g4520
sI3503
g4521
sI3504
g2029
sI3505
g2045
sI3506
g4526
sI3507
g4527
sI3508
g2067
sI3509
g4529
sI3510
g4945
sI3511
g4532
sI3512
g3048
sI3513
g4536
sI3514
g4946
sI3515
g4538
sI3516
g4541
sI3517
g3137
sI3518
g4544
sI3519
g4546
sI3520
g4547
sI3521
g2193
sI3522
g1994
sI3523
g4552
sI3524
g4553
sI3525
g4556
sI3526
g4557
sI3527
g4558
sI3528
g4769
sI3529
g4560
sI3530
g4561
sI3531
g357
sI3532
g4563
sI3533
g4564
sI3534
g4565
sI3535
g2641
sI3536
g4567
sI3537
g4568
sI3538
g4959
sI3539
g4570
sI3540
g1692
sI3541
g4572
sI3542
g2325
sI3543
g4574
sI3544
g4575
sI3545
g2339
sI3546
g4577
sI3547
g1514
sI3548
g4381
sI3549
g1365
sI3550
g4583
sI3551
g4586
sI3552
g4587
sI3553
g4588
sI3554
g4591
sI3555
g3583
sI3556
g2459
sI3557
g210
sI3558
g4595
sI3559
g4596
sI3560
g4597
sI3561
g2481
sI3562
g360
sI3563
g3154
sI3564
g4601
sI3565
g2933
sI3566
g2514
sI3567
g4604
sI3568
g3185
sI3569
g4606
sI3570
g4607
sI3571
g4609
sI3572
g4612
sI3573
g4613
sI3574
g4614
sI3575
g2577
sI3576
g4617
sI3577
g2301
sI3578
g1521
sI3579
g4620
sI3580
g4621
sI3581
g4623
sI3582
g4624
sI3583
g4625
sI3584
g4626
sI3585
g4627
sI3586
g4629
sI3587
g4963
sI3588
g4631
sI3589
g4632
sI3590
g4633
sI3591
g4635
sI3592
g4637
sI3593
g2693
sI3594
g4640
sI3595
g2718
sI3596
g4642
sI3597
g4643
sI3598
g4644
sI3599
g4645
sI3600
g4434
sI3601
g4647
sI3602
g4648
sI3603
g4650
sI3604
g4651
sI3605
g2783
sI3606
g5020
sI3607
g2808
sI3608
g4657
sI3609
g5002
sI3610
g4659
sI3611
g4123
sI3612
g4662
sI3613
g4663
sI3614
g4665
sI3615
g4666
sI3616
g1513
sI3617
g4669
sI3618
g4670
sI3619
g4671
sI3620
g4672
sI3621
g4673
sI3622
g4674
sI3623
g4676
sI3624
g4169
sI3625
g4678
sI3626
g4679
sI3627
g4680
sI3628
g4681
sI3629
g3072
sI3630
g2960
sI3631
g2966
sI3632
g2969
sI3633
g4687
sI3634
g4688
sI3635
g4592
sI3636
g4691
sI3637
g4692
sI3638
g3004
sI3639
g4694
sI3640
g4695
sI3641
g4696
sI3642
g4697
sI3643
g4698
sI3644
g4700
sI3645
g180
sI3646
g3045
sI3647
g4703
sI3648
g2630
sI3649
g4706
sI3650
g4707
sI3651
g4708
sI3652
g3890
sI3653
g4710
sI3654
g3088
sI3655
g4714
sI3656
g2314
sI3657
g1519
sI3658
g4718
sI3659
g3240
sI3660
g3130
sI3661
g1536
sI3662
g4722
sI3663
g4723
sI3664
g897
sI3665
g2316
sI3666
g3855
sI3667
g4730
sI3668
g4731
sI3669
g4732
sI3670
g880
sI3671
g3241
sI3672
g3246
sI3673
g4738
sI3674
g3273
sI3675
g4740
sI3676
g95
sI3677
g985
sI3678
g4744
sI3679
g4745
sI3680
g565
sI3681
g4084
sI3682
g4748
sI3683
g3164
sI3684
g4750
sI3685
g4751
sI3686
g4753
sI3687
g4754
sI3688
g1607
sI3689
g4125
sI3690
g392
sI3691
g4764
sI3692
g4762
sI3693
g4763
sI3694
g3181
sI3695
g4765
sI3696
g4466
sI3697
g4985
sI3698
g4768
sI3699
g2701
sI3700
g4771
sI3701
g4772
sI3702
g3660
sI3703
g4774
sI3704
g4775
sI3705
g4776
sI3706
g2955
sI3707
g4779
sI3708
g3501
sI3709
g4783
sI3710
g4785
sI3711
g4786
sI3712
g873
sI3713
g4791
sI3714
g4792
sI3715
g4795
sI3716
g4796
sI3717
g4797
sI3718
g4798
sI3719
g4799
sI3720
g4800
sI3721
g3288
sI3722
g4803
sI3723
g4804
sI3724
g4439
sI3725
g3146
sI3726
g4808
sI3727
g4809
sI3728
g2386
sI3729
g4814
sI3730
g1848
sI3731
g4817
sI3732
g693
sI3733
g4819
sI3734
g4820
sI3735
g4821
sI3736
g4390
sI3737
g4823
sI3738
g1981
sI3739
g4825
sI3740
g4827
sI3741
g4828
sI3742
g1591
sI3743
g4830
sI3744
g4831
sI3745
g4832
sI3746
g4834
sI3747
g4835
sI3748
g4836
sI3749
g3882
sI3750
g4838
sI3751
g1554
sI3752
g4839
sI3753
g3906
sI3754
g1781
sI3755
g1666
sI3756
g4849
sI3757
g159
sI3758
g4851
sI3759
g4852
sI3760
g4853
sI3761
g4854
sI3762
g4855
sI3763
g4856
sI3764
g4857
sI3765
g4859
sI3766
g4860
sI3767
g4861
sI3768
g1090
sI3769
g4863
sI3770
g4864
sI3771
g4867
sI3772
g4999
sI3773
g2299
sI3774
g4871
sI3775
g4872
sI3776
g4873
sI3777
g4876
sI3778
g4936
sI3779
g4878
sI3780
g5001
sI3781
g4880
sI3782
g4881
sI3783
g4882
sI3784
g959
sI3785
g3674
sI3786
g4885
sI3787
g4886
sI3788
g4887
sI3789
g4890
sI3790
g4892
sI3791
g4893
sI3792
g165
sI3793
g4895
sI3794
g4896
sI3795
g4897
sI3796
g4264
sI3797
g4261
sI3798
g4900
sI3799
g4903
sI3800
g4904
sI3801
g1574
sI3802
g406
sI3803
g5008
sI3804
g4908
sI3805
g4910
sI3806
g4911
sI3807
g4912
sI3808
g2426
sI3809
g3846
sI3810
g4918
sI3811
g4921
sI3812
g2826
sI3813
g4418
sI3814
g3716
sI3815
g4429
sI3816
g4926
sI3817
g4927
sI3818
g4929
sI3819
g4930
sI3820
g4931
sI3821
g4933
sI3822
g4934
sI3823
g4935
sI3824
g4406
sI3825
g4486
sI3826
g117
sI3827
g4503
sI3828
g4940
sI3829
g17
sI3830
g4537
sI3831
g4949
sI3832
g3083
sI3833
g4951
sI3834
g4952
sI3835
g4953
sI3836
g4955
sI3837
g494
sI3838
g3279
sI3839
g2970
sI3840
g2869
sI3841
g4962
sI3842
g2982
sI3843
g4638
sI3844
g4967
sI3845
g4969
sI3846
g4971
sI3847
g3999
sI3848
g4973
sI3849
g4975
sI3850
g4976
sI3851
g4977
sI3852
g4978
sI3853
g4979
sI3854
g755
sI3855
g4981
sI3856
g4984
sI3857
g3417
sI3858
g4987
sI3859
g4793
sI3860
g4372
sI3861
g4990
sI3862
g609
sI3863
g67
sI3864
g4994
sI3865
g4995
sI3866
g4996
sI3867
g4997
sI3868
g4998
sI3869
g2552
sI3870
g4874
sI3871
g4879
sI3872
g5009
sI3873
g5010
sI3874
g4954
sI3875
g1893
sI3876
g2363
sI3877
g297
sI3878
g5015
sI3879
g5016
sI3880
g5018
sI3881
g5019
sI3882
g5006
sI3883
g2364
sI3884
g4475
sI3885
g5023
sI3886
g3051
sI3887
g2906
sI3888
g448
sI3889
g1707
sI3890
g2769
sI3891
g3230
sI3892
g2882
sI3893
g2643
sI3894
g2311
sI3895
g4280
sI3896
g1195
sI3897
g3664
sI3898
g1335
sI3899
g925
sI3900
g1675
sI3901
g3400
sI3902
g942
sI3903
g1491
sI3904
g3796
sI3905
g4682
sI3906
g2788
sI3907
g1703
sI3908
g4970
sI3909
g3996
sI3910
g2217
sI3911
g706
sI3912
g1078
sI3913
g336
sI3914
g192
sI3915
g2196
sI3916
g1410
sI3917
g1804
sI3918
g248
sI3919
g1529
sI3920
g844
sI3921
g2601
sI3922
g2580
sI3923
g4920
sI3924
g1861
sI3925
g3332
sI3926
g1668
sI3927
g2223
sI3928
g3350
sI3929
g4947
sI3930
g2009
sI3931
g4939
sI3932
g4299
sI3933
g1688
sI3934
g1634
sI3935
g2015
sI3936
g1219
sI3937
g1864
sI3938
g2831
sI3939
g414
sI3940
g409
sI3941
g1645
sI3942
g3442
sI3943
g3360
sI3944
g3711
sI3945
g2140
sI3946
g1740
sI3947
g642
sI3948
g1593
sI3949
g2541
sI3950
g2362
sI3951
g2536
sI3952
g1975
sI3953
g3075
sI3954
g2252
sI3955
g3677
sI3956
g4024
sI3957
g2230
sI3958
g3610
sI3959
g3415
sI3960
g473
sI3961
g4782
sI3962
g4212
sI3963
g3084
sI3964
g3471
sI3965
g1664
sI3966
g1043
sI3967
g2463
sI3968
g1727
sI3969
g4290
sI3970
g2006
sI3971
g2066
sI3972
g2246
sI3973
g133
sI3974
g2255
sI3975
g4705
sI3976
g2802
sI3977
g4982
sI3978
g66
sI3979
g1486
sI3980
g568
sI3981
g4833
sI3982
g4215
sI3983
g1060
sI3984
g1037
sI3985
g4584
sI3986
g3981
sI3987
g1962
sI3988
g4073
sI3989
g326
sI3990
g4944
sI3991
g3600
sI3992
g997
sI3993
g655
sI3994
g4760
sI3995
g2030
sI3996
g3345
sI3997
g1902
sI3998
g2218
sI3999
g3535
sI4000
g2483
sI4001
g118
sI4002
g4865
sI4003
g3215
sI4004
g282
sI4005
g3272
sI4006
g466
sI4007
g1271
sI4008
g4818
sI4009
g600
sI4010
g418
sI4011
g2369
sI4012
g2696
sI4013
g3782
sI4014
g2863
sI4015
g3401
sI4016
g3925
sI4017
g4869
sI4018
g1913
sI4019
g2075
sI4020
g748
sI4021
g3175
sI4022
g4923
sI4023
g4846
sI4024
g3594
sI4025
g3928
sI4026
g3735
sI4027
g588
sI4028
g783
sI4029
g2439
sI4030
g4531
sI4031
g3525
sI4032
g3777
sI4033
g916
sI4034
g3762
sI4035
g1467
sI4036
g4756
sI4037
g189
sI4038
g1084
sI4039
g4156
sI4040
g4734
sI4041
g1405
sI4042
g3939
sI4043
g3752
sI4044
g2026
sI4045
g1751
sI4046
g3032
sI4047
g4582
sI4048
g2157
sI4049
g3078
sI4050
g1072
sI4051
g592
sI4052
g4093
sI4053
g3122
sI4054
g1680
sI4055
g2360
sI4056
g1127
sI4057
g4018
sI4058
g2784
sI4059
g1119
sI4060
g2633
sI4061
g3853
sI4062
g4875
sI4063
g4301
sI4064
g2699
sI4065
g3219
sI4066
g3974
sI4067
g510
sI4068
g2768
sI4069
g4766
sI4070
g4788
sI4071
g899
sI4072
g558
sI4073
g861
sI4074
g2936
sI4075
g1760
sI4076
g2521
sI4077
g4253
sI4078
g3538
sI4079
g3746
sI4080
g4386
sI4081
g575
sI4082
g3748
sI4083
g4269
sI4084
g3493
sI4085
g4214
sI4086
g2250
sI4087
g3663
sI4088
g2050
sI4089
g4304
sI4090
g4677
sI4091
g3759
sI4092
g2046
sI4093
g3712
sI4094
g457
sI4095
g1327
sI4096
g4284
sI4097
g3644
sI4098
g4906
sI4099
g2039
sI4100
g573
sI4101
g3729
sI4102
g4031
sI4103
g4589
sI4104
g3467
sI4105
g3233
sI4106
g417
sI4107
g1498
sI4108
g3280
sI4109
g2377
sI4110
g4716
sI4111
g2543
sI4112
g2903
sI4113
g1951
sI4114
g3687
sI4115
g4752
sI4116
g1428
sI4117
g2211
sI4118
g3042
sI4119
g4251
sI4120
g2964
sI4121
g4001
sI4122
g2640
sI4123
g2347
sI4124
g2200
sI4125
g4540
sI4126
g3871
sI4127
g1052
sI4128
g559
sI4129
g3052
sI4130
g3886
sI4131
g3141
sI4132
g4138
sI4133
g2892
sI4134
g4755
sI4135
g2320
sI4136
g3647
sI4137
g4726
sI4138
g4789
sI4139
g4442
sI4140
g1856
sI4141
g3769
sI4142
g3317
sI4143
g924
sI4144
g1125
sI4145
g1479
sI4146
g2669
sI4147
g4044
sI4148
g4702
sI4149
g4316
sI4150
g2535
sI4151
g4517
sI4152
g2477
sI4153
g536
sI4154
g4787
sI4155
g2993
sI4156
g2750
sI4157
g2261
sI4158
g90
sI4159
g922
sI4160
g849
sI4161
g3309
sI4162
g2313
sI4163
g921
sI4164
g518
sI4165
g3234
sI4166
g119
sI4167
g2214
sI4168
g1977
sI4169
g2263
sI4170
g3438
sI4171
g2504
sI4172
g846
sI4173
g1659
sI4174
g4784
sI4175
g211
sI4176
g1349
sI4177
g3496
sI4178
g61
sI4179
g107
sI4180
g3376
sI4181
g4980
sI4182
g103
sI4183
g3460
sI4184
g4149
sI4185
g1137
sI4186
g4891
sI4187
g1602
sI4188
g4948
sI4189
g3195
sI4190
g770
sI4191
g2653
sI4192
g1599
sI4193
g708
sI4194
g4303
sI4195
g4035
sI4196
g4590
sI4197
g2855
sI4198
g978
sI4199
g3953
sI4200
g2509
sI4201
g1001
sI4202
g785
sI4203
g1299
sI4204
g3425
sI4205
g4039
sI4206
g2852
sI4207
g586
sI4208
g64
sI4209
g4153
sI4210
g2932
sI4211
g2760
sI4212
g4794
sI4213
g4489
sI4214
g502
sI4215
g2883
sI4216
g4511
sI4217
g821
sI4218
g454
sI4219
g764
sI4220
g2099
sI4221
g271
sI4222
g4543
sI4223
g4991
sI4224
g3859
sI4225
g1798
sI4226
g3948
sI4227
g4109
sI4228
g335
sI4229
g3964
sI4230
g4061
sI4231
g3684
sI4232
g4909
sI4233
g2207
sI4234
g3567
sI4235
g3819
sI4236
g308
sI4237
g2899
sI4238
g3034
sI4239
g2397
sI4240
g537
sI4241
g3927
sI4242
g1683
sI4243
g4883
sI4244
g3136
sI4245
g1985
sI4246
g2424
sI4247
g1124
sI4248
g2761
sI4249
g1341
sI4250
g4928
sI4251
g1752
sI4252
g1734
sI4253
g4343
sI4254
g2236
sI4255
g1010
sI4256
g4845
sI4257
g2806
sI4258
g4268
sI4259
g832
sI4260
g581
sI4261
g2253
sI4262
g4742
sI4263
g3290
sI4264
g834
sI4265
g631
sI4266
g2515
sI4267
g3405
sI4268
g3869
sI4269
g3599
sI4270
g1669
sI4271
g4525
sI4272
g3140
sI4273
g62
sI4274
g2687
sI4275
g2591
sI4276
g2961
sI4277
g3371
sI4278
g182
sI4279
g958
sI4280
g4388
sI4281
g2297
sI4282
g2373
sI4283
g4554
sI4284
g3499
sI4285
g3223
sI4286
g3249
sI4287
g3407
sI4288
g4461
sI4289
g3989
sI4290
g644
sI4291
g1035
sI4292
g4345
sI4293
g2655
sI4294
g2423
sI4295
g4508
sI4296
g3877
sI4297
g4615
sI4298
g3507
sI4299
g3773
sI4300
g4711
sI4301
g1033
sI4302
g4889
sI4303
g4516
sI4304
g4636
sI4305
g864
sI4306
g773
sI4307
g2629
sI4308
g1639
sI4309
g4518
sI4310
g766
sI4311
g4265
sI4312
g2956
sI4313
g4327
sI4314
g4884
sI4315
g4417
sI4316
g1118
sI4317
g3424
sI4318
g3570
sI4319
g2589
sI4320
g4195
sI4321
g498
sI4322
g1516
sI4323
g2221
sI4324
g2409
sI4325
g1251
sI4326
g1426
sI4327
g1201
sI4328
g3938
sI4329
g4470
sI4330
g1418
sI4331
g4092
sI4332
g3666
sI4333
g4250
sI4334
g4551
sI4335
g1382
sI4336
g2155
sI4337
g550
sI4338
g1030
sI4339
g4130
sI4340
g4580
sI4341
g3242
sI4342
g2437
sI4343
g3404
sI4344
g3757
sI4345
g715
sI4346
g1229
sI4347
g2298
sI4348
g1208
sI4349
g4850
sI4350
g4542
sI4351
g3331
sI4352
g1943
sI4353
g5004
sI4354
g1431
sI4355
g1186
sI4356
g3523
sI4357
g4352
sI4358
g4228
sI4359
g2918
sI4360
g2381
sI4361
g4576
sI4362
g630
sI4363
g4095
sI4364
g1134
sI4365
g3053
sI4366
g5005
sI4367
g583
sI4368
g2579
sI4369
g1932
sI4370
g3562
sI4371
g3613
sI4372
g3479
sI4373
g3825
sI4374
g2394
sI4375
g4422
sI4376
g2912
sI4377
g3251
sI4378
g2726
sI4379
g4252
sI4380
g3212
sI4381
g4709
sI4382
g1638
sI4383
g1359
sI4384
g2671
sI4385
g3789
sI4386
g2130
sI4387
g3258
sI4388
g315
sI4389
g2412
sI4390
g2343
sI4391
g2310
sI4392
g2312
sI4393
g4087
sI4394
g294
sI4395
g4335
sI4396
g1182
sI4397
g4394
sI4398
g411
sI4399
g2440
sI4400
g3767
sI4401
g982
sI4402
g4347
sI4403
g4842
sI4404
g2743
sI4405
g1562
sI4406
g4610
sI4407
g4815
sI4408
g4649
sI4409
g3416
sI4410
g1232
sI4411
g753
sI4412
g1153
sI4413
g3521
sI4414
g4357
sI4415
g2873
sI4416
g4767
sI4417
g2871
sI4418
g2107
sI4419
g2748
sI4420
g614
sI4421
g101
sI4422
g5014
sI4423
g883
sI4424
g111
sI4425
g1694
sI4426
g3119
sI4427
g3730
sI4428
g2742
sI4429
g2534
sI4430
g3973
sI4431
g3003
sI4432
g433
sI4433
g4844
sI4434
g3006
sI4435
g1630
sI4436
g3151
sI4437
g3832
sI4438
g4231
sI4439
g1555
sI4440
g4519
sI4441
g4826
sI4442
g3531
sI4443
g2605
sI4444
g3287
sI4445
g2429
sI4446
g3364
sI4447
g3640
sI4448
g4840
sI4449
g1409
sI4450
g733
sI4451
g1552
sI4452
g2740
sI4453
g4197
sI4454
g811
sI4455
g1710
sI4456
g711
sI4457
g1276
sI4458
g4448
sI4459
g1903
sI4460
g532
sI4461
g3703
sI4462
g531
sI4463
g3771
sI4464
g3152
sI4465
g621
sI4466
g1449
sI4467
g648
sI4468
g527
sI4469
g3616
sI4470
g5017
sI4471
g3680
sI4472
g4009
sI4473
g989
sI4474
g545
sI4475
g3744
sI4476
g865
sI4477
g4204
sI4478
g2813
sI4479
g97
sI4480
g1635
sI4481
g765
sI4482
g3548
sI4483
g484
sI4484
g4630
sI4485
g3633
sI4486
g2005
sI4487
g3612
sI4488
g342
sI4489
g1012
sI4490
g3419
sI4491
g3835
sI4492
g2690
sI4493
g250
sI4494
g268
sI4495
g301
sI4496
g663
sI4497
g664
sI4498
g1667
sI4499
g875
sI4500
g3362
sI4501
g3526
sI4502
g316
sI4503
g4010
sI4504
g2287
sI4505
g3450
sI4506
g4993
sI4507
g2082
sI4508
g51
sI4509
g1107
sI4510
g3300
sI4511
g2404
sI4512
g4063
sI4513
g1706
sI4514
g2208
sI4515
g3946
sI4516
g2129
sI4517
g3269
sI4518
g1701
sI4519
g3027
sI4520
g3135
sI4521
g491
sI4522
g3007
sI4523
g2952
sI4524
g347
sI4525
g637
sI4526
g4608
sI4527
g2674
sI4528
g3936
sI4529
g3264
sI4530
g3596
sI4531
g1459
sI4532
g2910
sI4533
g4407
sI4534
g4207
sI4535
g874
sI4536
g369
sI4537
g1466
sI4538
g4237
sI4539
g2583
sI4540
g541
sI4541
g4704
sI4542
g1169
sI4543
g2395
sI4544
g2158
sI4545
g1451
sI4546
g1394
sI4547
g1437
sI4548
g2573
sI4549
g1908
sI4550
g2425
sI4551
g736
sI4552
g2012
sI4553
g1650
sI4554
g2976
sI4555
g407
sI4556
g2741
sI4557
g1597
sI4558
g3896
sI4559
g3693
sI4560
g4634
sI4561
g634
sI4562
g3422
sI4563
g3184
sI4564
g1736
sI4565
g1939
sI4566
g265
sI4567
g4408
sI4568
g3473
sI4569
g4816
sI4570
g4505
sI4571
g1662
sI4572
g3382
sI4573
g2024
sI4574
g1231
sI4575
g3029
sI4576
g3475
sI4577
g3891
sI4578
g3127
sI4579
g4746
sI4580
g1890
sI4581
g608
sI4582
g3265
sI4583
g894
sI4584
g4317
sI4585
g1511
sI4586
g463
sI4587
g4004
sI4588
g1046
sI4589
g2410
sI4590
g4107
sI4591
g3316
sI4592
g2575
sI4593
g3156
sI4594
g4141
sI4595
g3807
sI4596
g4956
sI4597
g2023
sI4598
g4958
sI4599
g4986
sI4600
g1306
sI4601
g2694
sI4602
g2988
sI4603
g1705
sI4604
g3705
sI4605
g2038
sI4606
g1116
sI4607
g4202
sI4608
g1156
sI4609
g2501
sI4610
g3207
sI4611
g3129
sI4612
g2963
sI4613
g2370
sI4614
g4598
sI4615
g2170
sI4616
g1211
sI4617
g4699
sI4618
g3024
sI4619
g2268
sI4620
g3586
sI4621
g3815
sI4622
g3365
sI4623
g3396
sI4624
g3679
sI4625
g4320
sI4626
g1614
sI4627
g3582
sI4628
g1506
sI4629
g1937
sI4630
g2438
sI4631
g1398
sI4632
g3874
sI4633
g462
sI4634
g2469
sI4635
g1991
sI4636
g3296
sI4637
g1032
sI4638
g762
sI4639
g1854
sI4640
g3822
sI4641
g3063
sI4642
g4728
sI4643
g4398
sI4644
g4622
sI4645
g3197
sI4646
g1585
sI4647
g808
sI4648
g1867
sI4649
g1722
sI4650
g1758
sI4651
g1782
sI4652
g4780
sI4653
g1145
sI4654
g4513
sI4655
g3447
sI4656
g656
sI4657
g1260
sI4658
g3124
sI4659
g813
sI4660
g3172
sI4661
g1234
sI4662
g146
sI4663
g1115
sI4664
g563
sI4665
g456
sI4666
g2174
sI4667
g1535
sI4668
g3420
sI4669
g4485
sI4670
g4158
sI4671
g4667
sI4672
g4658
sI4673
g2865
sI4674
g2862
sI4675
g3597
sI4676
g3491
sI4677
g4943
sI4678
g1813
sI4679
g2624
sI4680
g2921
sI4681
g4802
sI4682
g1774
sI4683
g3552
sI4684
g348
sI4685
g3342
sI4686
g1412
sI4687
g1649
sI4688
g3689
sI4689
g579
sI4690
g2587
sI4691
g3321
sI4692
g2321
sI4693
g339
sI4694
g3301
sI4695
g1561
sI4696
g4473
sI4697
g4545
sI4698
g1814
sI4699
g3924
sI4700
g2445
sI4701
g3573
sI4702
g4328
sI4703
g1954
sI4704
g4378
sI4705
g3217
sI4706
g1013
sI4707
g3121
sI4708
g110
sI4709
g2782
sI4710
g2875
sI4711
g3590
sI4712
g3492
sI4713
g4960
sI4714
g4646
sI4715
g4241
sI4716
g4171
sI4717
g5021
sI4718
g1532
sI4719
g346
sI4720
g1553
sI4721
g2668
sI4722
g338
sI4723
g3313
sI4724
g4421
sI4725
g597
sI4726
g3238
sI4727
g2766
sI4728
g1041
sI4729
g1144
sI4730
g2032
sI4731
g2703
sI4732
g1456
sI4733
g4463
sI4734
g251
sI4735
g2090
sI4736
g3160
sI4737
g4664
sI4738
g450
sI4739
g2706
sI4740
g55
sI4741
g3577
sI4742
g2002
sI4743
g992
sI4744
g3144
sI4745
g948
sI4746
g3551
sI4747
g2759
sI4748
g38
sI4749
g2001
sI4750
g4062
sI4751
g1637
sI4752
g1573
sI4753
g682
sI4754
g1213
sI4755
g332
sI4756
g530
sI4757
g1096
sI4758
g2884
sI4759
g4758
sI4760
g1290
sI4761
g3763
sI4762
g2387
sI4763
g1681
sI4764
g2269
sI4765
g3688
sI4766
g1345
sI4767
g801
sI4768
g4689
sI4769
g3011
sI4770
g4530
sI4771
g4405
sI4772
g1110
sI4773
g5013
sI4774
g2184
sI4775
g4469
sI4776
g2372
sI4777
g53
sI4778
g1629
sI4779
g3110
sI4780
g2267
sI4781
g3203
sI4782
g1696
sI4783
g4858
sI4784
g3515
sI4785
g2052
sI4786
g204
sI4787
g984
sI4788
g2531
sI4789
g3505
sI4790
g2034
sI4791
g1338
sI4792
g191
sI4793
g3338
sI4794
g3911
sI4795
g1312
sI4796
g892
sI4797
g4259
sI4798
g4375
sI4799
g2747
sI4800
g3968
sI4801
g2278
sI4802
g794
sI4803
g4393
sI4804
g689
sI4805
g2842
sI4806
g1283
sI4807
g3606
sI4808
g2519
sI4809
g1128
sI4810
g1014
sI4811
g2037
sI4812
g2019
sI4813
g4054
sI4814
g1063
sI4815
g4025
sI4816
g4806
sI4817
g911
sI4818
g2538
sI4819
g4522
sI4820
g465
sI4821
g3718
sI4822
g503
sI4823
g1544
sI4824
g3717
sI4825
g2466
sI4826
g1959
sI4827
g4550
sI4828
g3909
sI4829
g4515
sI4830
g4246
sI4831
g2081
sI4832
g1391
sI4833
g4354
sI4834
g3803
sI4835
g678
sI4836
g2841
sI4837
g1877
sI4838
g4099
sI4839
g2867
sI4840
g2724
sI4841
g4941
sI4842
g1918
sI4843
g1583
sI4844
g1177
sI4845
g1805
sI4846
g4524
sI4847
g879
sI4848
g3546
sI4849
g4761
sI4850
g4628
sI4851
g3943
sI4852
g3066
sI4853
g2597
sI4854
g3655
sI4855
g3333
sI4856
g2271
sI4857
g2232
sI4858
g3564
sI4859
g896
sI4860
g572
sI4861
g1337
sI4862
g3593
sI4863
g50
sI4864
g104
sI4865
g1512
sI4866
g1132
sI4867
g1331
sI4868
g2365
sI4869
g652
sI4870
g2927
sI4871
g2600
sI4872
g3353
sI4873
g32
sI4874
g3723
sI4875
g4160
sI4876
g4942
sI4877
g3490
sI4878
g2289
sI4879
g37
sI4880
g1275
sI4881
g1996
sI4882
g5012
sI4883
g2286
sI4884
g4493
sI4885
g2900
sI4886
g1309
sI4887
g3683
sI4888
g3784
sI4889
g1007
sI4890
g1606
sI4891
g871
sI4892
g4902
sI4893
g606
sI4894
g3949
sI4895
g2345
sI4896
g4496
sI4897
g3518
sI4898
g2392
sI4899
g560
sI4900
g3435
sI4901
g3726
sI4902
g1998
sI4903
g3919
sI4904
g1571
sI4905
g1849
sI4906
g1631
sI4907
g4811
sI4908
g1572
sI4909
g4654
sI4910
g3210
sI4911
g2722
sI4912
g1566
sI4913
g1750
sI4914
g3225
sI4915
g4068
sI4916
g3654
sI4917
g223
sI4918
g1761
sI4919
g2917
sI4920
g4053
sI4921
g1188
sI4922
g1308
sI4923
g464
sI4924
g564
sI4925
g4965
sI4926
g2366
sI4927
g2378
sI4928
g4922
sI4929
g3615
sI4930
g855
sI4931
g458
sI4932
g4334
sI4933
g1993
sI4934
g2707
sI4935
g2352
sI4936
g4361
sI4937
g1643
sI4938
g3574
sI4939
g4773
sI4940
g1678
sI4941
g843
sI4942
g3710
sI4943
g4159
sI4944
g4616
sI4945
g540
sI4946
g69
sI4947
g3628
sI4948
g900
sI4949
g1821
sI4950
g2658
sI4951
g2187
sI4952
g4353
sI4953
g137
sI4954
g841
sI4955
g387
sI4956
g686
sI4957
g475
sI4958
g2349
sI4959
g1946
sI4960
g168
sI4961
g4236
sI4962
g4555
sI4963
g3043
sI4964
g552
sI4965
g488
sI4966
g1058
sI4967
g4278
sI4968
g1036
sI4969
g1379
sI4970
g2905
sI4971
g3459
sI4972
g936
sI4973
g4919
sI4974
g3765
sI4975
g2922
sI4976
g3497
sI4977
g3753
sI4978
g2621
sI4979
g3849
sI4980
g1038
sI4981
g4501
sI4982
g944
sI4983
g802
sI4984
g2661
sI4985
g2821
sI4986
g2787
sI4987
g1222
sI4988
g3015
sI4989
g1427
sI4990
g3324
sI4991
g2487
sI4992
g2355
sI4993
g809
sI4994
g255
sI4995
g2786
sI4996
g1590
sI4997
g3167
sI4998
g4759
sI4999
g3920
sI5000
g2556
sI5001
g910
sI5002
g3698
sI5003
g2688
sI5004
g4661
sI5005
g1837
sI5006
g1841
sI5007
g2834
sI5008
g4585
sI5009
g1882
sI5010
g4916
sI5011
g1776
sI5012
g2755
sI5013
g3860
sI5014
g65
sI5015
g4523
sI5016
g4843
sI5017
g1839
sI5018
g2177
sI5019
g4534
sI5020
g2441
sI5021
g1496
sa.