(lp0
(dp1
VKasumi 98
p2
I0
sVGadisii
p3
I1
sVT. kawk
p4
I2
sVScopedog-rsc
p5
I3
sVLf2 - deep
p6
I4
sVLucky colt
p7
I5
sVFf mai shiranui
p8
I6
sVArmor Guts
p9
I7
sVHaohmaru EX
p10
I8
sVS.sinclair EX
p11
I9
sVIka musume
p12
I10
sVChar's z'gok
p13
I1844
sVScarecrow
p14
I12
sVSheep the royal
p15
I13
sVBuntaro EX
p16
I442
sVRyo
p17
I3829
sVBlack joker
p18
I14
sVMulan
p19
I15
sVSledge
p20
I16
sVKfm
p21
I4833
sVGuy mk ii
p22
I17
sVClaus
p23
I18
sVUltraman jack_a
p24
I19
sVHeavyarms custom
p25
I20
sVBlack polnareff
p26
I21
sVRonald
p27
I22
sVShigen
p28
I23
sVDhaos ND3
p29
I24
sVAzami
p30
I25
sVBalrog IV
p31
I26
sVAruru(yuka)
p32
I27
sVKitsune
p33
I4873
sVBaltan
p34
I30
sVSheng long
p35
I31
sVWonderman
p36
I32
sVMordecai
p37
I3009
sVMakaryudo
p38
I4879
sVUzumaki naruto
p39
I4748
sVBonobono
p40
I34
sVWolfgang Krauser
p41
I1849
sVFakir
p42
I36
sVBlade
p43
I37
sVPocket Gouki
p44
I38
sVAoi matsubara
p45
I39
sVHiei
p46
I40
sVRoadsign
p47
I41
sVKeiji
p48
I2506
sVXenophage
p49
I42
sVThanoseid
p50
I43
sVDark karin EX2
p51
I4863
sVObsidian
p52
I4508
sVSammo-hacka
p53
I45
sVSakura Cosplay
p54
I4777
sVMister king
p55
I46
sVGoku ssj5 EX
p56
I4740
sVSion tatari EX2
p57
I47
sVKen EX3
p58
I255
sVPsyduck
p59
I49
sVSatsuki yumiduka
p60
I50
sVItachi uchiha nzc
p61
I51
sVThe batman
p62
I4178
sVEvil q
p63
I4273
sVMech zangief
p64
I1244
sVForte.exe
p65
I4208
sVBroli
p66
I3978
sVThe mask
p67
I53
sVPaul
p68
I54
sVRubette EX2
p69
I55
sVChar's zaku
p70
I56
sVDies irae
p71
I1853
sVBenimaru945
p72
I58
sVArrange_alice
p73
I1245
sVCrazy mukuro
p74
I60
sVShiki
p75
I61
sVKid gohan ssj1
p76
I1854
sVSatoko
p77
I63
sVChinese gouki
p78
I64
sVRiesbyfe stridberg
p79
I65
sVKinniku suguru
p80
I66
sVGen shougo
p81
I67
sVSoujiro EX3
p82
I4633
sVBloodrayne
p83
I68
sVKenpachi
p84
I3213
sVShizuka
p85
I70
sVTaki
p86
I1856
sVGideon
p87
I72
sVSegalow
p88
I73
sVSuper vegeta EX3
p89
I4158
sVRotom
p90
I75
sVGrievous
p91
I76
sVDeath adder
p92
I3676
sVKohaku
p93
I78
sVZeus
p94
I4479
sVKim XIII
p95
I79
sVKung fu man neo
p96
I80
sVSyakoya
p97
I4421
sVNosferu
p98
I3319
sVLeo FM
p99
I81
sVGolrio
p100
I4182
sVDan mk ii
p101
I4864
sVDormammu-r
p102
I82
sVRamparudo
p103
I83
sVAkiko EX
p104
I4179
sVSachiko
p105
I84
sVShiki tohno
p106
I85
sVMech gouki
p107
I4708
sVSquirtle
p108
I4424
sVShingo & momoko
p109
I2494
sVGanondorf
p110
I86
sVBc-sakura
p111
I87
sVEx-kyo
p112
I88
sVXiayu
p113
I89
sVEx-kyo(jin-typea)
p114
I90
sVHulk 2099
p115
I4166
sVG_orochi
p116
I2671
sVHato sabure
p117
I91
sVYuka
p118
I92
sVAtomos
p119
I93
sVAzure
p120
I94
sVValdoll
p121
I95
sVHonda ex
p122
I96
sVHancock EX
p123
I97
sVCustom sd luffy
p124
I98
sVSion tatari
p125
I3392
sVRanma saotome EX2
p126
I99
sVCaptain caveman
p127
I100
sVAkane inuwaka
p128
I101
sVShadow agent
p129
I3973
sVThe moon
p130
I102
sVElisabeth
p131
I103
sVGodzilla_ex
p132
I2518
sVMike Tyson IWBTG
p133
I105
sVFff
p134
I106
sVRadel
p135
I107
sVBaby bonnie hood
p136
I108
sVYatteyaru-death
p137
I109
sVArchangel
p138
I110
sVGohan  grande normale
p139
I111
sVFinal peketo
p140
I3221
sVJet
p141
I112
sVKon
p142
I4662
sVMagic dunker EX FF
p143
I113
sVMadoka kaname_ai
p144
I115
sVKana-chan dhq
p145
I116
sVBraun
p146
I1865
sVArima_miyako
p147
I117
sVBou ken
p148
I118
sVToki 2
p149
I2521
sVBoon
p150
I119
sVM-gato
p151
I120
sVD.hibiki
p152
I121
sVAlessi
p153
I122
sVKou
p154
I123
sVKeion chan
p155
I3757
sVAlsa
p156
I124
sVNirvana
p157
I125
sVMiyako yoshika
p158
I126
sVZeppeli ex
p159
I127
sVCvs shiva
p160
I128
sVEvil Ryu SF4
p161
I571
sVSailor jupiter EX2
p162
I129
sVSorluska EX2
p163
I130
sVKarina toyota
p164
I131
sVA-green
p165
I2526
sVBack beard
p166
I2312
sVNarukana EX3
p167
I133
sVApplejack
p168
I134
sVMichaelangelo
p169
I135
sVSailor chibi moon
p170
I136
sVRaptor
p171
I137
sVLeon c
p172
I138
sVSquall EX2
p173
I3645
sVRyoko kano EX2
p174
I2912
sVHarley quinn
p175
I4278
sVCci shermie
p176
I139
sVHoimislime
p177
I140
sVShadow x
p178
I141
sVPaprika
p179
I142
sVKain
p180
I908
sVTurf EX3
p181
I144
sVKool aid man
p182
I4037
sVDooj mustachio
p183
I145
sVVega 2
p184
I4792
sV95
p185
I3914
sVRenna
p186
I3228
sVGouki x
p187
I148
sVMery
p188
I149
sVGuy CVS
p189
I150
sVKatakura kojuro
p190
I151
sVWalkure
p191
I152
sVButtercup DG
p192
I153
sVDeadpool mvc3
p193
I154
sVPrizm-star
p194
I155
sVMu 12
p195
I997
sVHitosyura ex
p196
I157
sVPopeye
p197
I158
sVMarona(beta)
p198
I159
sVGundam rx-78 gp02a
p199
I160
sVZatracenie EX2
p200
I1876
sVDevilch
p201
I162
sVMotaro
p202
I4175
sVWasp
p203
I163
sVTokiko EX2
p204
I164
sVMasked rider ryuki(emanon)
p205
I1877
sVEx keine
p206
I166
sVPresea combatir
p207
I167
sVBilly kane ffsp
p208
I168
sVRuby heart mvc3
p209
I169
sVDiba
p210
I1879
sVUroboros
p211
I170
sVRyo EX3
p212
I4917
sVMargaretha_solin
p213
I171
sVMasaki anzu
p214
I172
sVMiduma EX3
p215
I173
sVRera EX3
p216
I174
sVShadow EX3
p217
I175
sVEagle
p218
I176
sVKuma CVS
p219
I177
sVBurnov
p220
I1741
sVShiori misaka
p221
I178
sVKai
p222
I179
sVMami EX
p223
I181
sVBebum ryo
p224
I2903
sVRokurouta
p225
I182
sVMokou EX H
p226
I183
sVMiranda
p227
I185
sVIronman
p228
I186
sVKay
p229
I187
sVJoshua bright
p230
I4529
sVRock volnutt
p231
I188
sVSub-zero
p232
I189
sVMongori EX
p233
I190
sVWily
p234
I191
sVMarian
p235
I192
sVShadow kouma
p236
I194
sVNoel
p237
I3918
sVEharu EX3
p238
I196
sVYoshinaka hinata
p239
I3238
sVAkai maho
p240
I4734
sVSa-x
p241
I197
sVCatwoman EX
p242
I198
sVReal gloria
p243
I199
sVCarlos
p244
I200
sVHibiki-san
p245
I626
sVPerfect cell
p246
I3042
sVNanaya toki
p247
I202
sVCloud (3d)
p248
I203
sVIdaten
p249
I204
sVMulchi fe
p250
I205
sVDhalsims
p251
I206
sVAoba EX2
p252
I207
sVDeluxe lucia fernandez
p253
I4566
sVBobby mk ii
p254
I208
sVBlack widow EX
p255
I209
sVMomasusta
p256
I4494
sVSpy larue e
p257
I210
sVPerson-lichkeit
p258
I211
sVKensou EX3
p259
I4221
sVEdward elrick
p260
I2650
sVIrene
p261
I212
sVArrange_godzilla
p262
I213
sVUltraman_a
p263
I214
sVBilly kane
p264
I215
sVTamao mitsurugi
p265
I216
sVHiguresan
p266
I217
sVAngela belti
p267
I218
sVElektra
p268
I219
sVKen X
p269
I4004
sVMomo-len_ver1.39
p270
I221
sVMade multi
p271
I222
sVRock howard EX2
p272
I223
sVGen sfa
p273
I224
sVMawile
p274
I1889
sVShuma
p275
I225
sVMain Man Knuckles
p276
I226
sVSalty Goku GT
p277
I227
sVNyamo EX
p278
I2691
sVNakoruru EX2
p279
I228
sVNakoruru EX3
p280
I229
sVKlaus garcia
p281
I230
sVP tabasa
p282
I4394
sVGaira
p283
I231
sV'gou no ken' kenshirou
p284
I232
sVWarachia
p285
I3877
sVVidel fight money
p286
I233
sVRoy wilson
p287
I234
sVHerb
p288
I235
sVEl_yukari
p289
I4495
sVKyo 98
p290
I236
sVDiyaa man
p291
I237
sVKiller whale
p292
I238
sVKen CVS
p293
I2853
sVOgre akuma
p294
I239
sVKotiya sanae
p295
I240
sVDora
p296
I4236
sVEmerald
p297
I242
sVTensi
p298
I243
sVRaoh sai
p299
I244
sVF.killerbee
p300
I245
sVBrunestud arcueid
p301
I246
sVToron
p302
I247
sVMugen de saikyou no lemirya
p303
I4388
sVKasumi ex
p304
I4502
sVDitto
p305
I248
sVAnthony hawk
p306
I249
sVKliff
p307
I250
sVSandrock
p308
I2172
sVSeth
p309
I252
sVKung fu man v-ism
p310
I253
sVRyofu
p311
I254
sVBroly
p312
I48
sVIceman
p313
I3989
sVWeregarurumon
p314
I257
sVFangore
p315
I2556
sVJamm
p316
I259
sVNameless
p317
I260
sVDuke nukem
p318
I261
sVTamika
p319
I4755
sVBuront
p320
I262
sVCustom ssfiv abel
p321
I263
sVKoishi_b
p322
I4002
sVKirigamine kiriko
p323
I4228
sVGohan zeta
p324
I3913
sVKikyo_ex
p325
I264
sVSmall ryu EX3
p326
I4722
sVShikamaru nara
p327
I4693
sVWind-se
p328
I266
sVSuper vegetto ag
p329
I267
sVYoshimitsu
p330
I4488
sVDerp
p331
I268
sVShandera-k
p332
I269
sV<> ( 0)<>/2
p333
I270
sVDizzy
p334
I4719
sVWarlock-k
p335
I4524
sVNu-13
p336
I3257
sVRainbow
p337
I4684
sVCheep-chomp
p338
I272
sVUm-krizalid-2k1
p339
I273
sVTiger EX
p340
I2171
sVMaxima EX3
p341
I274
sVOotani reimu
p342
I275
sVVaisaga
p343
I276
sVHaizilyo
p344
I1906
sVCursehead
p345
I1900
sVBsb ridley
p346
I277
sVGen
p347
I3531
sVStevareno
p348
I278
sVBilly two moons (jp)
p349
I279
sVTenkochan EX
p350
I3562
sVBrocken
p351
I280
sVScorpion EX2
p352
I281
sVScorpion EX3
p353
I282
sVSyo hayate EX
p354
I283
sVElisabeth EX3
p355
I284
sVPlok
p356
I285
sVAzusa
p357
I286
sVN.boss
p358
I287
sVBra 18
p359
I4536
sVDeidara nzc
p360
I288
sVHyperbattlecyborg
p361
I289
sVHydron
p362
I290
sVPsychociel
p363
I2180
sVWashizuka b style
p364
I291
sVKatana
p365
I292
sVSylveon_var1
p366
I2717
sVDhaos
p367
I2971
sVChun-lee dark bolt
p368
I294
sVMelusine
p369
I295
sVEva-02 EX3
p370
I4040
sVGertrud
p371
I2858
sVMajin boo EX3
p372
I296
sVScrooge mcduck
p373
I4453
sVHiedano akyu
p374
I297
sVKinu_ex
p375
I298
sVUmvc_youmu
p376
I299
sVKing ghidorah
p377
I300
sVMiyuki
p378
I301
sVGoku z2
p379
I302
sVAisha
p380
I304
sVGaits z
p381
I2703
sVShizumaru ex
p382
I305
sVBirdie EX3
p383
I3690
sVRei ayanami
p384
I307
sVMai 2k2
p385
I308
sVSuzuki megumi
p386
I309
sVRozaly
p387
I310
sVUnkoman
p388
I311
sVMaori
p389
I3266
sVRimle
p390
I313
sVJackie Drunken Fist
p391
I314
sVMature
p392
I315
sVRandy m. green EX
p393
I4607
sVKiki de appendix
p394
I317
sVEvil homer
p395
I318
sVCyborg_d-9f
p396
I319
sVGonzales
p397
I3112
sVHanayama
p398
I4555
sVShotoborg mk. ii
p399
I2786
sVChan
p400
I3940
sVRaoh
p401
I323
sVNair
p402
I4398
sVNail
p403
I324
sVSoma cruz ex
p404
I325
sVDeluxe tetsu yatogi
p405
I3939
sVSpacemouse deluxe
p406
I1283
sVGaira EX2
p407
I326
sVTruck
p408
I4106
sVSilversamurai mvc2
p409
I4010
sVDark baltan
p410
I2571
sVTeoc reisen
p411
I328
sVStoneaxe
p412
I329
sVBekkamu2
p413
I330
sVTokinomiya kamui EX3
p414
I1284
sVCci kim
p415
I332
sVBridget
p416
I333
sVDark eternal champion
p417
I1909
sVDuo lon
p418
I1285
sVCammy
p419
I336
sVTotoro
p420
I2573
sVGod_gundom
p421
I338
sVJin saotome
p422
I339
sVKill bill gogo
p423
I340
sVMayor of earth
p424
I4432
sVRikard
p425
I341
sVGaisei
p426
I3250
sVGoat_b
p427
I342
sVRalf
p428
I343
sVRugagaga!!
p429
I344
sVJudgment EX3
p430
I345
sVSonic
p431
I346
sVYumeji kurokouchi
p432
I347
sVYuiren
p433
I348
sVBimmy Lee
p434
I349
sVSeth EX3
p435
I350
sVKizaru borsalino
p436
I2349
sVMirror cube square
p437
I351
sVVile EX3
p438
I352
sVAthena asamiya
p439
I3888
sVGohan saiya-jin ex
p440
I2833
sVHomura & friends
p441
I354
sVG silver
p442
I356
sVNegative shin
p443
I4218
sVJudgment
p444
I357
sVPhobos(yanagi_ai)
p445
I4665
sVZuepia
p446
I4094
sVIron lantern
p447
I3098
sVLilly kane
p448
I359
sVLady aozaki
p449
I360
sVThe flash
p450
I361
sVRoyal air king
p451
I362
sVBroly lssj3
p452
I4586
sVBubbles jp
p453
I4346
sVKyle the squirtle
p454
I4820
sVE Ken
p455
I4006
sVStorm-owl
p456
I363
sVFurudo_erika
p457
I364
sVDonkeykongjr EX
p458
I365
sVGuile cvs2
p459
I366
sVNise athena
p460
I367
sVVanillaIce
p461
I368
sVK joker
p462
I3960
sVSpace warrior
p463
I3235
sVMakoto sawatari
p464
I369
sVKotonoha katsura
p465
I370
sVUltraman dyna_a
p466
I371
sVNatasha
p467
I372
sVRyugen
p468
I1915
sVLegion EX3
p469
I375
sVA-unagi
p470
I376
sVA-kain
p471
I377
sVFinn and jake
p472
I378
sVKazami yuka_ns
p473
I379
sVDead kung fu man EX3
p474
I4483
sVMiroku
p475
I380
sVWarmachine MVC2
p476
I381
sVYoumu konpaku
p477
I382
sVOrochi(rance)
p478
I383
sVGloria EX3
p479
I384
sVSimon Belmondo
p480
I4521
sVSonson
p481
I385
sVVenom GG
p482
I386
sVHeavyarms
p483
I3837
sVAlex_a
p484
I387
sVCody EX
p485
I388
sVLililen
p486
I389
sVOverlord
p487
I4321
sVBender
p488
I390
sVLf2 - dennis
p489
I391
sVMs.valliere
p490
I392
sVJotaro kujo
p491
I4214
sVZoma ga
p492
I4822
sVStake
p493
I394
sVDhaos PS
p494
I3283
sV98
p495
I143
sVShocker
p496
I395
sVBishop
p497
I3381
sVChizuru kagura
p498
I1164
sVNeodio
p499
I3284
sVKyoko_sakura EX
p500
I4067
sVJunichi
p501
I397
sVCharlie EX3
p502
I398
sVIvonne
p503
I399
sVGiron
p504
I447
sVDiggle
p505
I2261
sVBaki-hanma EX3
p506
I400
sVEddie DD
p507
I401
sVBane
p508
I4164
sVBlackheart
p509
I402
sVBang
p510
I403
sVHokutomaru
p511
I404
sVCpt. falcon
p512
I1295
sVEgg chamber
p513
I406
sVAsh
p514
I407
sVOmega
p515
I408
sVKoishi_b EX3
p516
I409
sVLf2 - woody
p517
I4468
sVThouther 2
p518
I410
sVKnight
p519
I411
sVRadish ssj4
p520
I4756
sVGold lightan
p521
I4462
sVLucy
p522
I4460
sVCecil_damon
p523
I413
sVUltraman tarou
p524
I414
sVQb
p525
I415
sVPikopiko
p526
I4153
sVCaptain america
p527
I4240
sVWalkyrie
p528
I416
sVRei chibi
p529
I1925
sVEve EX3
p530
I4540
sVRugal b. EX
p531
I417
sVCobra
p532
I418
sVTumbleweed
p533
I419
sVRasputin
p534
I4474
sVGuldo
p535
I1228
sVFaydal
p536
I422
sVMetal mario
p537
I423
sVRoomi
p538
I424
sVChameleon DS
p539
I4337
sVOmega_rugal EX
p540
I425
sVNarukana
p541
I426
sVReisen-e
p542
I3290
sVStraight cougar
p543
I428
sVAcid
p544
I429
sVDevil_daigo EX
p545
I430
sVMaster ken
p546
I4072
sVCinnamon
p547
I432
sVSilkheart
p548
I4899
sVNeff
p549
I433
sVMini zeroko
p550
I434
sVHybrid form sula
p551
I4664
sVSorami
p552
I4128
sVWild.o.yashiro
p553
I3680
sVRughadjeen
p554
I437
sVKnucks
p555
I4923
sVKung flappy man
p556
I438
sVBriaaaaaaaaaaaaaaaaan ex
p557
I3980
sVClark steel
p558
I439
sVBarbarccia
p559
I440
sVLex luthor
p560
I441
sVAnne
p561
I4860
sVBarts EX3
p562
I4100
sVServbot
p563
I444
sVMike bison
p564
I4081
sVWally West
p565
I445
sVRuquia ex
p566
I3459
sVLi xiangfei
p567
I446
sVBurai yamamoto
p568
I4689
sVSonic EX3
p569
I3249
sVBig
p570
I4260
sVYamazaki 71113
p571
I448
sVSailor venus k
p572
I4367
sVSodom sfa
p573
I450
sVCharlotte Aulin
p574
I451
sVNanaya shiki
p575
I4207
sVFlonne
p576
I358
sVAnimus
p577
I4027
sVEcoco EX3
p578
I453
sVOyashirorika
p579
I454
sVDaiyousei_hsts
p580
I455
sVMajin vegeta
p581
I1144
sVUmvc_sentinel
p582
I4715
sVLt.kurosawa EX
p583
I4051
sVPepsi man
p584
I456
sVGorimaru jr
p585
I457
sVGardevoir EX3
p586
I458
sVYui
p587
I2956
sVYashiro 2k2
p588
I4725
sVGigapowier loves dark ruler
p589
I459
sVFelicueid
p590
I460
sVNana diclonius
p591
I4009
sVDate masamune_ch
p592
I461
sVRen idagawa
p593
I462
sVKszsk-shuko
p594
I463
sVErmac mk2
p595
I464
sVBeast
p596
I3064
sVYuusuke
p597
I466
sVRosa_obsn
p598
I4893
sVLegendary super saiyan akuma
p599
I467
sVDark donald
p600
I4581
sVNaruto kun
p601
I3862
sVLyndis
p602
I1933
sVMakai
p603
I4834
sVX
p604
I469
sVViolent dan
p605
I471
sVAoko 7thmoonstyle
p606
I472
sVTsubaki yayoi
p607
I4420
sVBatista
p608
I474
sVWild ken ex
p609
I475
sVShiki nanaya
p610
I476
sVKanji
p611
I4730
sVYou are already dead
p612
I477
sVYuki ex EX3
p613
I478
sVFire sonic
p614
I4465
sVRyoko asakura
p615
I479
sVJabu
p616
I480
sVKanzaki yoh
p617
I2395
sVSakuya izayoi EX3
p618
I481
sVElirin EX3
p619
I482
sVRin
p620
I483
sVKarai EX2
p621
I484
sVLegendary super saiyan
p622
I485
sVSailor venus EX2
p623
I486
sVEvil kung fu man mkii
p624
I4362
sVMiu_kurosaki
p625
I4265
sVJoe higashi
p626
I487
sVSaishu
p627
I488
sVOtane
p628
I4561
sVNishiura baseball`s
p629
I489
sVDarth vader
p630
I490
sVLin EX
p631
I4525
sVMaster toadman
p632
I492
sVM-griffon
p633
I3472
sVHikaru
p634
I493
sVYashiro EX2
p635
I494
sVDoge
p636
I3947
sVSakura EX3
p637
I2972
sVTheskiver
p638
I4290
sVKaioh-retsu
p639
I495
sVMr. buu
p640
I496
sVZorororonoa
p641
I4467
sVGn-pioneer
p642
I497
sVBlack_k'
p643
I498
sVNatsuka fuou
p644
I499
sVCocodrilo
p645
I4869
sVMissingnumber
p646
I500
sVUfo
p647
I501
sVThe joker
p648
I3993
sVFliz
p649
I4656
sVTatsuki Arisawa
p650
I3301
sVSheeva
p651
I503
sVKamui EX3
p652
I504
sVRasho-zero
p653
I505
sVLee f22
p654
I506
sVMilan flare
p655
I507
sVPulseman
p656
I4496
sVMeep140 s-type
p657
I4497
sVHayato
p658
I510
sVJyashinsai
p659
I781
sVDrew 0D
p660
I512
sVCyborg t-8p
p661
I513
sVDragon EX3
p662
I3303
sVSuika
p663
I515
sVTarnished ryu
p664
I516
sVKnuckles custom
p665
I517
sVChonshu ex
p666
I518
sVTios
p667
I519
sVGulool ja ja
p668
I520
sVChrome dome
p669
I959
sVKoopa troopa djhr
p670
I521
sVTheThing
p671
I4835
sVDragon EX
p672
I522
sVAkiha tohno EX
p673
I523
sVTakuma 2002
p674
I524
sVG-adelhell
p675
I4753
sVAgent p
p676
I526
sVK_reimu
p677
I527
sVNeku sakuraba
p678
I528
sVBlack magician girl
p679
I3359
sVS-kishima_kouma
p680
I529
sVGoten gt nex
p681
I4804
sVHong krizalid
p682
I530
sVBasilisk-s[0.98]
p683
I531
sVTretista-kelverian
p684
I532
sVHauzer
p685
I3732
sVTamamo-no-mae
p686
I533
sVDemitri
p687
I534
sVCruelty blood arcueid
p688
I535
sVZidane
p689
I536
sVMaster lue
p690
I1943
sVRage rock ex
p691
I3308
sVGundam zeta
p692
I3314
sVChiester410
p693
I538
sVTabunne
p694
I3135
sVSaki-mvc
p695
I540
sVKatsura kotonoha
p696
I541
sVGadis
p697
I542
sVRyuken
p698
I1973
sVT ninja
p699
I3911
sVKohaku vp EX3
p700
I543
sVSakuya_swr
p701
I4193
sVKimala the bouncer
p702
I544
sVAnge EX3
p703
I545
sVCell junior
p704
I4456
sVLf2 - louisx
p705
I2175
sVWhip
p706
I546
sVS-tomy
p707
I3497
sVLoud Demon M1
p708
I4345
sVKim hoon EX FF
p709
I547
sVDokuganp
p710
I548
sVDespero
p711
I549
sVTakuma945 EX3
p712
I550
sVVergil
p713
I551
sVDoraemon
p714
I553
sVZangief sf4
p715
I2875
sVPeach mizuki
p716
I554
sVCondor heads
p717
I555
sVGaap
p718
I556
sVFlan-b
p719
I557
sVNumber muncher
p720
I1947
sVUmvc_redarcueid
p721
I2238
sVShaoran lee
p722
I560
sVRyo 98
p723
I561
sVAstro
p724
I2621
sVTf2 - sniper
p725
I563
sVBlue suede goo
p726
I4450
sVRugal bernstein
p727
I564
sVRobert nbc
p728
I565
sVChaves
p729
I4551
sVMystique
p730
I566
sVBattle mahoro EX
p731
I567
sVSuperpez
p732
I568
sVLio convoy
p733
I569
sVKatima
p734
I570
sVBoxer
p735
I3792
sVZodd
p736
I572
sVGray fly
p737
I573
sVWatern
p738
I574
sVKyle broflovski
p739
I575
sVMarrow
p740
I576
sVZabi
p741
I1951
sVRockman x EX2
p742
I578
sVKasai
p743
I579
sVMephisto
p744
I4411
sVJazz EX3
p745
I581
sVKomepo
p746
I3854
sVFire heart
p747
I583
sVGalivan
p748
I584
sVR.mika
p749
I585
sVSoul ninja mk2
p750
I293
sVKnuckles EX3
p751
I587
sVDonovan
p752
I588
sVYang
p753
I4638
sVPan transform
p754
I589
sVDirtyfat
p755
I4219
sVDialog
p756
I4481
sVCurfue
p757
I4310
sVEarth-suika
p758
I590
sVZoro roronoa
p759
I591
sVMaxima ex
p760
I592
sVSolisr8000
p761
I4190
sVOmanyte EX3
p762
I593
sVReal zeroko
p763
I594
sVReimu hakurei EX
p764
I4306
sVRai ex
p765
I595
sVAku-amakusa
p766
I596
sVYukari yakumo
p767
I597
sVAnother kyo
p768
I598
sVDorniar ex
p769
I599
sVZatracenie
p770
I600
sVNega peach
p771
I601
sVMike macho haggar
p772
I74
sVCless
p773
I603
sVAl azif
p774
I4028
sVMax eagle
p775
I605
sVMetagang
p776
I4202
sVAyane_ikuse EX
p777
I606
sVRighteous ken
p778
I607
sVXehrnyth
p779
I608
sVRenamon Dv2
p780
I609
sVSaku EX2
p781
I610
sVMongul
p782
I611
sVThe kung fu man
p783
I612
sVSamwell han
p784
I613
sVMarco EX
p785
I4802
sVRyuho
p786
I615
sVSpiral
p787
I616
sVDevil daimajin
p788
I617
sVNanaya_reaver
p789
I618
sVYurika kirishima
p790
I619
sVFranky CM
p791
I4767
sVBig bomberder
p792
I620
sVProfessor farnsworth
p793
I621
sVThe atom
p794
I622
sVNagaoka shiho
p795
I3322
sVD EX
p796
I624
sVBizarro
p797
I4647
sVHimegami aisa
p798
I625
sVRobert garcia EX2
p799
I4454
sVZappa
p800
I1959
sVJill roberts
p801
I4659
sVDracula
p802
I628
sVSkywarp
p803
I3137
sVShinsaku maekawa
p804
I629
sV250% b.weapon
p805
I2986
sVKaku
p806
I525
sVB-cirno
p807
I630
sVSnoopy
p808
I631
sVJames
p809
I632
sVFiona mayfield
p810
I4217
sVAlakazam
p811
I634
sVAkainu sakazuki
p812
I1325
sVGoku
p813
I636
sVHonedge
p814
I637
sVMo-mo-
p815
I638
sVMajin vegeta ssj6
p816
I1326
sVZankuro EX2
p817
I639
sVRin EX2
p818
I640
sVDio S
p819
I1962
sVKyoudou senna
p820
I4259
sVJoe higashi EX3
p821
I642
sV(sman)
p822
I4264
sVRouwe EX3
p823
I643
sVItoko
p824
I644
sVFenice
p825
I645
sVHinako shijo
p826
I646
sVFaust
p827
I647
sVUltraman gaia
p828
I648
sVCaptain ginyu
p829
I649
sVLugia
p830
I3920
sVDiablo_skeleton EX3
p831
I651
sVGreen lantern lucario
p832
I4172
sVLayzner_tyanko ai
p833
I653
sVNu 13
p834
I654
sVTyoukesin EX3
p835
I4160
sVSarashina
p836
I2639
sVMina
p837
I656
sVKazama
p838
I1329
sVClown
p839
I2887
sVKasumi todo
p840
I658
sVMokey d. luffy
p841
I660
sVBiscuit-oliva
p842
I661
sVRio hinayama
p843
I662
sVCondor EX
p844
I664
sVMiacis
p845
I665
sVMint
p846
I4073
sVOmega_rugal
p847
I1330
sVUme_age18
p848
I2640
sVTao jun
p849
I4305
sVWerleck EX3
p850
I1966
sVDaigo ken
p851
I669
sVMagatu
p852
I1438
sVPogo
p853
I670
sVLuke cage
p854
I671
sVSpitfire_m
p855
I672
sVThe blob
p856
I4891
sVOx
p857
I2642
sVChintao
p858
I3712
sVSerika EX2
p859
I4535
sVF_gills
p860
I674
sVKubikiri basara EX
p861
I675
sVKarate kenji dhq
p862
I676
sVCaster_extra
p863
I4847
sVGet in the robot you idiot
p864
I3670
sVIroha
p865
I677
sVW.nut
p866
I678
sVFreedom -meteor-
p867
I4423
sVChiyo-chichi
p868
I3336
sVKen MVC3
p869
I679
sVG rugal CVS
p870
I511
sVUkyo tachibana EX3
p871
I1062
sVNinja EX3
p872
I682
sVSaber
p873
I683
sVMai-ling
p874
I684
sVGundam double zeta
p875
I685
sVTrident
p876
I4796
sVShin gouki
p877
I687
sVDiglett
p878
I4583
sVWing
p879
I688
sVZeroko
p880
I4859
sVMizuki takase
p881
I3340
sVKurokishi
p882
I689
sVReika
p883
I4071
sVYu-by
p884
I691
sVVakishim
p885
I692
sVBushou
p886
I1337
sVReiko
p887
I694
sVGrappler shiki
p888
I695
sVVegeta z2
p889
I696
sVMr.karate EX3
p890
I697
sVShang tsung
p891
I698
sVEpyon
p892
I699
sVAstranalent
p893
I4817
sVGotenks ssj EX
p894
I3342
sVHeat man
p895
I701
sVZeorymer
p896
I702
sVMudman_n
p897
I703
sVIyo
p898
I4033
sVSpider-carnage
p899
I704
sVLeona xiii
p900
I705
sVAlice
p901
I706
sVCorona
p902
I707
sVKuuga
p903
I4163
sVFatter Albert
p904
I4159
sVAquaman
p905
I708
sVKobun 43
p906
I4143
sVUltraman tiga
p907
I3899
sVVegeta ssj3
p908
I2177
sVLancer
p909
I709
sVCustom experimental trf2 beatrice
p910
I710
sVNeco-arc
p911
I711
sVBrokken
p912
I712
sVHeart
p913
I713
sVYami_miko EX
p914
I714
sVChrysalis
p915
I715
sVHitosyura
p916
I716
sVYusha30
p917
I717
sVMr.ganon
p918
I718
sVD-rugal EX3
p919
I719
sVR. lilith
p920
I721
sVAkiha EX
p921
I722
sVRouga zanma
p922
I723
sVRozwel
p923
I3902
sVPatchouli_k
p924
I725
sVBubblum
p925
I726
sVKyosuke shigure
p926
I2845
sVSonans
p927
I728
sVWing gundam zero custom
p928
I4745
sVSentinel
p929
I3288
sVBai-hu EX
p930
I730
sVShishiwakamaru
p931
I731
sVGuerrero divino del dragn
p932
I732
sVCiel EX3
p933
I794
sVShinzero
p934
I734
sVOnodera ren
p935
I735
sVSuija
p936
I736
sVA-ko
p937
I737
sVGouken
p938
I4279
sVMaximum maxime
p939
I2325
sVPopura
p940
I830
sVMongori
p941
I3956
sVSumiremaru
p942
I739
sVAlissa
p943
I740
sVDeluxe may
p944
I741
sVMahvel ken
p945
I742
sVTina
p946
I743
sVFenri-lunaedge
p947
I745
sVSamchay ex
p948
I746
sVIrori EX3
p949
I747
sVMonami ogura
p950
I748
sVSion(coh)
p951
I749
sVGardevoir dx
p952
I750
sVDante M
p953
I751
sVCube
p954
I752
sVWyler xi ver
p955
I2901
sVLee
p956
I753
sVLiu-kang
p957
I754
sVBenimaru EX
p958
I755
sVDio brando
p959
I756
sVE.honda sf2
p960
I757
sVRumia
p961
I758
sVUltraman tiga_a
p962
I4401
sVLiza
p963
I760
sVGemini
p964
I3594
sVDaffy duck
p965
I4787
sVShampoo
p966
I3677
sVAlucard RAI
p967
I940
sVOboromaru
p968
I763
sVGogeta ssj4
p969
I764
sVBardock EX3
p970
I4473
sVAkashi_kaoru
p971
I765
sVKohaku K
p972
I2798
sVSirohime
p973
I4743
sVThe real doom
p974
I766
sVCola Fe
p975
I767
sVChiko
p976
I727
sVDudley K
p977
I769
sVRemy
p978
I3992
sVYui_kutuna EX
p979
I771
sVAlien guts(blue_no9)
p980
I772
sVFalse valkyrie
p981
I773
sVDeathscythe
p982
I3005
sVHotaride
p983
I1349
sVRacheal mc
p984
I775
sVSun god
p985
I776
sVS_youmu
p986
I1981
sVK EX
p987
I777
sVRemi
p988
I1040
sVJack turner ex
p989
I779
sVOmega Cloud Strife
p990
I4255
sVJulius emery
p991
I780
sVH_witch
p992
I4489
sVKain blade
p993
I4706
sVBonobono EX3
p994
I4810
sVHisame shizumaru
p995
I783
sVBuroli
p996
I784
sVRugal.b
p997
I1073
sVEcco
p998
I4209
sVMiko EX
p999
I786
sVTamtam
p1000
I787
sVReproduction gogeta
p1001
I788
sVTakuma945
p1002
I789
sVAyane wp
p1003
I790
sVBig chicken
p1004
I791
sVIchi
p1005
I792
sVKyouki
p1006
I793
sVSquidward
p1007
I733
sVDream v
p1008
I795
sVKung fu master
p1009
I796
sVSetsuna
p1010
I797
sVRindou
p1011
I4338
sVC3po & r2d2
p1012
I798
sVDurian
p1013
I4637
sVByakuren hijiri
p1014
I4301
sVMako
p1015
I799
sVKousonsyou
p1016
I4291
sVUrien
p1017
I3984
sVOpirus element
p1018
I801
sVIno
p1019
I4690
sVHybrid
p1020
I802
sVRan yakumo
p1021
I4728
sVInsane hiryu
p1022
I804
sVMiyuki EX
p1023
I3966
sVSonya
p1024
I805
sVVegeta gt
p1025
I806
sVGamera
p1026
I4588
sVSorluska
p1027
I808
sVYuna
p1028
I809
sVMarvel Marrow
p1029
I1232
sVRevlius
p1030
I3778
sVShimakaze
p1031
I3364
sVWhite len EX
p1032
I1248
sVKyoushirou senryou
p1033
I1686
sVCapmurica
p1034
I812
sVEmily barnet
p1035
I813
sVChameleon
p1036
I814
sVMaster barnes
p1037
I2634
sVNeo dio
p1038
I815
sVSonGohan
p1039
I816
sVReisen_swr
p1040
I3983
sVSatsujinki EX3
p1041
I817
sVIggy ex
p1042
I818
sVMr.satan EX3
p1043
I2663
sVMr.heart
p1044
I820
sVMature CVS
p1045
I821
sVShar-makai
p1046
I822
sVBlizzard EX3
p1047
I3013
sVBonus kun EX2
p1048
I823
sVKung fu girl
p1049
I824
sVSppaman
p1050
I825
sVKagami ex
p1051
I826
sVJazu EX3
p1052
I827
sVSodom
p1053
I4050
sVSuwako
p1054
I828
sVSion_tatari
p1055
I829
sVNamek gohan
p1056
I831
sVRocky
p1057
I832
sVRugal CVS
p1058
I833
sVBlack zero
p1059
I3912
sVKingbehinnmoth
p1060
I835
sVMohikan
p1061
I836
sVRedking
p1062
I837
sVPsychotic ryu
p1063
I838
sVPopeye the sailor
p1064
I839
sVMaster god ken
p1065
I4038
sVStan
p1066
I841
sVMagma-dragoon
p1067
I842
sVRoll MVC
p1068
I4023
sVKim kaphwan EX3
p1069
I843
sVJack lantern EX3
p1070
I844
sVEric cartman
p1071
I3768
sVMars people EX3
p1072
I845
sVCutman
p1073
I1384
sVHyper neo-kamek EX3
p1074
I2667
sVPractice Vegeta
p1075
I848
sVDarkwing duck
p1076
I849
sVReptos
p1077
I4757
sVCyberwarren
p1078
I850
sVNobuko(emanon)
p1079
I1992
sVRey mysterio
p1080
I852
sVBriaaaaaaaaaaaaaaaaan
p1081
I853
sVBarbatos_goetia
p1082
I854
sVKathumi orochi
p1083
I855
sVJay garrick
p1084
I856
sVFranko
p1085
I857
sVWhite Buffalo M1
p1086
I858
sVSquall JP
p1087
I859
sVHe-man
p1088
I4509
sVEx snow
p1089
I2668
sVBattle dome
p1090
I861
sVMike EX2
p1091
I4772
sVZ-akuma EX
p1092
I1994
sVEvil barney
p1093
I863
sVMegu asuhara
p1094
I864
sVMonkey.d.luffy
p1095
I865
sVKyko
p1096
I4663
sVJinbei
p1097
I4606
sVMashiro
p1098
I867
sVNanaya-kamen
p1099
I4316
sVJoe A
p1100
I1996
sVProject_f
p1101
I681
sVEiji EX3
p1102
I870
sVSeth ex
p1103
I2672
sVRaiya
p1104
I4247
sVShiranui mai
p1105
I4144
sVRouge unsou
p1106
I872
sVMadiesha
p1107
I4056
sVNeco chaos
p1108
I4809
sVSoulgen
p1109
I873
sVShin eddie
p1110
I874
sVAsutorea
p1111
I875
sVMiki sayaka
p1112
I4866
sVMrheart
p1113
I876
sVAdon
p1114
I4364
sVRajaayuri
p1115
I877
sVCci jhun
p1116
I878
sVAdom
p1117
I4185
sVMai-ling EX
p1118
I879
sVSuper Skrull MVC
p1119
I880
sVZangoose EX2
p1120
I4533
sVAndrew
p1121
I882
sVZantetsu ex
p1122
I883
sVTyssa willing
p1123
I2674
sVKhan ex
p1124
I4729
sVM-e-reptos
p1125
I4653
sVBrian griffin
p1126
I885
sVGrebam EX
p1127
I886
sVDeath force
p1128
I888
sVRila
p1129
I1367
sVNecoarc_abyss
p1130
I890
sVKanna
p1131
I891
sVJoker EX3
p1132
I892
sVAtomic dust amiba
p1133
I4412
sVDaisy dw
p1134
I893
sVHarman
p1135
I895
sVUzaku
p1136
I4608
sVJhons lee EX3
p1137
I896
sVNightmare the jujin lv3
p1138
I897
sVChaos hiryu
p1139
I898
sVKazuma EX
p1140
I899
sVRequiem giorno(amaai)
p1141
I900
sVKazu
p1142
I901
sVMamiya EX
p1143
I902
sVWif
p1144
I903
sVKung fu head
p1145
I904
sVCombo man
p1146
I905
sVKfmsp
p1147
I906
sVGeese EX2
p1148
I3315
sVGeese Howard
p1149
I907
sVHeavy strike
p1150
I4542
sVBig bear
p1151
I909
sVW arcueid
p1152
I910
sVWild-dachon
p1153
I911
sVTsukuyo
p1154
I912
sVPikaman
p1155
I4198
sVArchetype earth_r
p1156
I914
sVAkys
p1157
I915
sVMaximune
p1158
I2436
sVUltraman tarou_a
p1159
I916
sVKaguya houraisan EX
p1160
I917
sVHiel_mk
p1161
I918
sVBriaaaaaaaaaaaaaaaaan EX3
p1162
I919
sVIngrid EX2
p1163
I4396
sVIngrid EX3
p1164
I920
sVDress cinderella mio
p1165
I921
sVNobunaga
p1166
I3294
sVRb2bob
p1167
I4355
sVTenko-abab
p1168
I922
sVAdamas
p1169
I4921
sVPolnareff
p1170
I924
sVHikkoshi_baba
p1171
I925
sVCaptain kidd
p1172
I926
sVZangeese
p1173
I759
sVShartel
p1174
I927
sVTerry bogard EX2
p1175
I928
sVOmni-psych chipp
p1176
I3896
sVModoi-san
p1177
I2008
sVAlyssa ex
p1178
I930
sVJack-hamma ex
p1179
I931
sVDrunk rock lee
p1180
I932
sVExtra usapi-
p1181
I933
sVBroccalon
p1182
I4327
sVDeadpool
p1183
I1371
sVLeo
p1184
I761
sVHarry EX3
p1185
I936
sVMomimomi
p1186
I937
sVJessica
p1187
I2928
sVDr.gero
p1188
I938
sVLarcen
p1189
I4348
sVCody CFJ2
p1190
I1359
sVMarie EX
p1191
I762
sVDan
p1192
I941
sVAtari dragon EX2
p1193
I4616
sVAndroid 18 EX3
p1194
I942
sVDr.minerva
p1195
I4754
sVTsukushi_mio
p1196
I943
sVEfreet
p1197
I944
sVMahvel chun li
p1198
I945
sVBruce shotoman
p1199
I1374
sVBaragon
p1200
I948
sVMaster zibaku rugal
p1201
I3936
sVReak.f
p1202
I949
sVHihumi
p1203
I2989
sVBellyache
p1204
I3267
sVYoko
p1205
I950
sVOrochi-takashi
p1206
I951
sVGustoff EX3
p1207
I952
sVWanda
p1208
I953
sVBlack rugal
p1209
I2686
sVCyclops_cota
p1210
I955
sVBeauty queen etna
p1211
I956
sVBison
p1212
I4574
sVKyosuke pj
p1213
I4410
sVOmega agk
p1214
I958
sVAsuka EX2
p1215
I2450
sVChomper
p1216
I4661
sVKakyoin noriaki EX3
p1217
I960
sVGagi_ex
p1218
I962
sVMillia tnt
p1219
I963
sVTony Chopper
p1220
I964
sVSahad
p1221
I965
sVAlexey zalazof
p1222
I966
sVBobby ologun
p1223
I967
sVKarma_0.85
p1224
I2012
sVKraidgief
p1225
I968
sVRyuhi SD
p1226
I970
sVHaggar ex
p1227
I971
sVSmoo
p1228
I3393
sVBekkamu
p1229
I973
sVGouken sf4
p1230
I974
sVNenaikodareda
p1231
I975
sVUltraseven
p1232
I3313
sVOverlord laharl
p1233
I4325
sVShishin
p1234
I978
sVBinran
p1235
I979
sVLabyrinth 1p
p1236
I1380
sVTao
p1237
I981
sVGeorge
p1238
I982
sVShin kazuma
p1239
I983
sVTak
p1240
I984
sVYusuke
p1241
I2692
sVLupin the 3rd
p1242
I4657
sVDragon rider
p1243
I986
sVMaster kaede
p1244
I987
sVKoneko EX
p1245
I988
sVNaruto kun hr
p1246
I989
sVSaber EX
p1247
I990
sVGuts
p1248
I991
sVScott pilgrim EX3
p1249
I992
sVKenoh EX2
p1250
I993
sVLf2 - davis
p1251
I994
sVSs6 shisyun-abab
p1252
I995
sVDuck king
p1253
I4007
sVRei
p1254
I996
sVNanoha takamachi EX3
p1255
I156
sVMoriya b style
p1256
I998
sVPyron
p1257
I4880
sVYuuka kazami
p1258
I999
sVRider
p1259
I1000
sVGokussj4d
p1260
I1001
sVSf4 omni
p1261
I1002
sVSarashina EX
p1262
I1003
sVGavora
p1263
I1004
sVTylor
p1264
I4806
sVKaguya houraisan EX3
p1265
I1006
sVA.b.a
p1266
I1007
sVFilea EX3
p1267
I1008
sVGeki
p1268
I3400
sVBlackmore
p1269
I1010
sVG project
p1270
I1011
sVShin golem
p1271
I4760
sVHu-ama EX3
p1272
I3401
sVFeilong sfa
p1273
I1014
sVBlitztank-n
p1274
I1015
sVOyashirorika EX
p1275
I1016
sVKung fu rabbit
p1276
I1017
sVJustice ao
p1277
I1018
sVOmake
p1278
I1019
sVRyuuoutan
p1279
I4203
sVTessa
p1280
I1020
sVSkullman
p1281
I1021
sVGeki f22
p1282
I1022
sVDragon claw EX3
p1283
I1023
sVOmni-psych justice
p1284
I1024
sVMasked rider blade
p1285
I1025
sVSissy EX3
p1286
I4600
sVPaul phoenix EX
p1287
I1026
sVEl stinger
p1288
I3802
sVLayban
p1289
I4886
sVRyo fu
p1290
I1029
sVKilla and ren EX
p1291
I1030
sVSimon B
p1292
I4795
sVHamster
p1293
I1031
sVDonatello DCAT
p1294
I1032
sVHol horse
p1295
I1033
sVHayate EX
p1296
I1034
sVZeus ex
p1297
I1035
sVKamishiro_kunagi
p1298
I1036
sVBlossom jp
p1299
I1037
sVKosanjou
p1300
I1038
sVDitto EX3
p1301
I1039
sVThing
p1302
I778
sVShingo
p1303
I1041
sVKlonoa
p1304
I2819
sVOrochimaru
p1305
I1042
sVDark cornian
p1306
I1043
sVSakura kinomoto
p1307
I1429
sVMiyazato erika EX
p1308
I4095
sVGoryujin
p1309
I1044
sVWreck-it ralph
p1310
I1045
sVNeva
p1311
I1046
sVYang K
p1312
I4867
sVMisuzu EX
p1313
I1047
sVMiku_tt
p1314
I1048
sVG_cyclone
p1315
I1049
sVNeko&mech_m
p1316
I3898
sVNi_san
p1317
I1050
sVAlucard EX3
p1318
I4861
sVWeiss guitly gear
p1319
I4791
sVFujiwara no mokou
p1320
I1052
sVRugal EX3
p1321
I3265
sVFps bison trooper EX
p1322
I4249
sVMatrix
p1323
I1054
sVChipp_arrange
p1324
I1055
sVZwei
p1325
I1056
sVJustice
p1326
I4766
sVAsterix
p1327
I1057
sVAntlar
p1328
I1058
sVDan NGPC
p1329
I4176
sVShishimaru
p1330
I1060
sVPowergirl
p1331
I1061
sVHulk
p1332
I2825
sVSatuzinki
p1333
I782
sVMictlan
p1334
I1393
sVSpecialist
p1335
I1064
sVCirno
p1336
I1065
sVRobo-jam
p1337
I1066
sVPiyokong
p1338
I4383
sVCaviar?
p1339
I1067
sVDies
p1340
I1068
sVMomizi-e
p1341
I1069
sVChoi special
p1342
I1070
sVRera ex
p1343
I1071
sVPredalien
p1344
I1072
sVReisen deadpool inaba
p1345
I785
sVFeli
p1346
I1074
sVVise
p1347
I1075
sVGigigear
p1348
I1076
sVJoker_nanaya
p1349
I1077
sVKung fu men
p1350
I1078
sVBruno bucciarati
p1351
I1079
sVShirai_kuroko
p1352
I1080
sVShaft
p1353
I1081
sVA-green EX3
p1354
I2793
sVMaster kojiroh
p1355
I1083
sVAi EX2
p1356
I3977
sVGenteki dan
p1357
I1084
sVPocket joker
p1358
I3756
sVEve
p1359
I1085
sVKrauser
p1360
I4335
sVDark excellent takuma
p1361
I1086
sVYoumu konpaku EX
p1362
I1087
sVOnsokumaru
p1363
I1088
sVGoofy
p1364
I1089
sVBloodia EX3
p1365
I2285
sVSonozaki_mion
p1366
I1091
sVThe grandmapocalypse
p1367
I2950
sVApocalypse
p1368
I1092
sVBlodia-k
p1369
I2705
sVLei-lei
p1370
I4832
sVDuke
p1371
I1094
sVSerio
p1372
I3412
sVChain combo yuyuko
p1373
I1096
sVBoss sagat
p1374
I1097
sVMaster shake
p1375
I2303
sVGlenn
p1376
I2706
sVRed hulk
p1377
I4631
sVSissy ex
p1378
I1099
sVHame-terry
p1379
I2135
sVKimelemaru EX3
p1380
I1100
sVStreet fighter is boring you idiots
p1381
I2032
sVHisame_shizumaru_ph_ai
p1382
I1102
sVKatana EX3
p1383
I1103
sVNighmare snake
p1384
I4041
sVDimlos EX
p1385
I1104
sVRyu plus
p1386
I1105
sVDr. doom mvc3
p1387
I2708
sVKanon
p1388
I4449
sVTerry 02
p1389
I3666
sVLimiter cut broly
p1390
I3916
sVPinkie pie
p1391
I1108
sVYawarakasensha
p1392
I4686
sVEri_hasumi
p1393
I1109
sVCar navi
p1394
I3417
sVLayla
p1395
I1111
sVMaebara_keiichi
p1396
I1112
sVZaku
p1397
I3418
sVKonngara
p1398
I1113
sVM-e-warlock
p1399
I4330
sVTarantula
p1400
I1115
sVPizza
p1401
I1116
sVLucifer EX
p1402
I3078
sVGarnet crow
p1403
I1118
sVTristan
p1404
I1119
sVDark saber
p1405
I1120
sVFrieza
p1406
I1121
sVGray fullbuster
p1407
I4326
sVMousse by ?
p1408
I4116
sVMunch
p1409
I1122
sVSmall akuma
p1410
I1123
sVLavos core
p1411
I4354
sVFlandre scarlet
p1412
I1124
sV1
p1413
I3123
sVDeluxe lin
p1414
I1126
sVYoshiyuki takagi
p1415
I1127
sVDeath machine mb-59
p1416
I4547
sVBeelzebub
p1417
I1128
sVKon-el
p1418
I1129
sVGaia
p1419
I1130
sVWapiko
p1420
I1131
sVMahvel sean
p1421
I1132
sVSanada kojiroh
p1422
I969
sVElfin ix
p1423
I1134
sVTank
p1424
I1135
sVMahvel ryu
p1425
I1136
sVGetsufuma
p1426
I1137
sVExocist(dnf)
p1427
I4545
sVTane
p1428
I4466
sVQuickman
p1429
I1138
sVBootleg
p1430
I1789
sVReptile mk2
p1431
I2718
sVWild woody
p1432
I1140
sVDancing banana
p1433
I1141
sVKai EX3
p1434
I1142
sVYukihime
p1435
I4732
sVYoung_rugal
p1436
I1143
sVBatman Normal
p1437
I3271
sVKasumi EX3
p1438
I4531
sVOld mechagodzilla
p1439
I1145
sVThe gandhara
p1440
I2720
sVShin
p1441
I1147
sVGomora
p1442
I1148
sVJean_pau
p1443
I1149
sVKamijo toma EX
p1444
I3316
sVKing 95
p1445
I4537
sVShadow vegeta
p1446
I4035
sVGalactus
p1447
I1151
sVPorygon-z EX2
p1448
I3425
sVStorm eagle
p1449
I1153
sVUesugi kensin EX
p1450
I1154
sVG.vise
p1451
I1155
sVMrkarate
p1452
I1156
sVYamamoto-f-burai
p1453
I1157
sVBowser
p1454
I3426
sVCathey
p1455
I1159
sVRing man
p1456
I1160
sVFix-it felix
p1457
I1161
sVKid gohan EX3
p1458
I4145
sVAxearmor
p1459
I1162
sVDq5-son
p1460
I1163
sVBarney
p1461
I3394
sVOrochi-ev
p1462
I1165
sVSilver surfer EX
p1463
I1167
sVBurner man
p1464
I1168
sVAbubo
p1465
I3979
sVGohan fight money
p1466
I1169
sVEvil zodiac
p1467
I1170
sVSango EX
p1468
I1171
sVKongara
p1469
I1172
sVTyrant J
p1470
I3903
sVSalty goku
p1471
I2722
sVMasked rider kabuto
p1472
I1173
sVHitosyura EX3
p1473
I1174
sVNayu mizuhara
p1474
I1175
sVSheen
p1475
I1177
sVKen & gang
p1476
I4107
sVKishimax
p1477
I1178
sVWolvenom
p1478
I1179
sVGodzilla EX
p1479
I1180
sVHover
p1480
I1181
sVLomias
p1481
I1182
sVRyo945
p1482
I1183
sVTrunks
p1483
I2704
sVKangaroo
p1484
I4628
sVDark sakura
p1485
I1185
sVKeeper of k
p1486
I1186
sVPenta
p1487
I1187
sVRegin
p1488
I1188
sVIchigo EX
p1489
I4585
sVPatchouli
p1490
I4865
sVHibiki
p1491
I3616
sVPerfecti ex
p1492
I3547
sVDan CVS
p1493
I1190
sVReal Shuma
p1494
I4322
sVFireman EX3
p1495
I3557
sVChibiko
p1496
I3657
sVTsunade EX3
p1497
I1193
sVNeji Cosplay
p1498
I1194
sVRobo-ky EX
p1499
I1195
sVSlamdunk
p1500
I1196
sVWolvie
p1501
I3685
sVEcoco
p1502
I2727
sVKat
p1503
I1198
sVKraken
p1504
I1199
sVShinki
p1505
I1200
sVKoakuma_hsts
p1506
I3919
sVG. done
p1507
I1201
sVSimonkin2006
p1508
I1202
sVKula diana
p1509
I4718
sVSimonkin2005
p1510
I1203
sVPsylocke EX2
p1511
I1204
sVFurudo_erika EX3
p1512
I4667
sVBatsu EX2
p1513
I3661
sVScream
p1514
I1206
sVShura
p1515
I3385
sVSinclair
p1516
I3433
sVRed snake
p1517
I1207
sVHattori-hanzo
p1518
I1208
sVLuigi NGPC
p1519
I1209
sVJu do man
p1520
I2054
sVSnake man
p1521
I4823
sVFortuna_suwako
p1522
I1211
sVMirai trunks
p1523
I1212
sVRaph EX2
p1524
I1213
sVMinakata moriya
p1525
I1214
sVMouri motonari
p1526
I1215
sVAokiji kuzan
p1527
I1216
sVM-lancer
p1528
I1217
sVAnother igniz EX2
p1529
I4451
sVDuane!
p1530
I4720
sVVarnage
p1531
I3751
sVJackal
p1532
I4439
sVMicky13
p1533
I3437
sVKarman-cole
p1534
I1221
sVSoushihan k.s.k 12p color
p1535
I1222
sVMasta gambit
p1536
I1223
sVTizoc
p1537
I1224
sVKamek
p1538
I4695
sVDiamondeye
p1539
I4405
sVUsapi-
p1540
I4784
sVKanade
p1541
I1226
sVSasuke ex
p1542
I4912
sVKoizumi itsuki
p1543
I1227
sVMvc2 iceman
p1544
I1229
sVDonald
p1545
I3375
sVDarkwing duck EX
p1546
I1231
sVIronhide
p1547
I4904
sVIroquois pliskin
p1548
I4908
sVInfinity mijinion
p1549
I4752
sVGoodman EX
p1550
I3801
sVArrange_remilia
p1551
I1233
sVKen
p1552
I1234
sVSuperoverlord meep
p1553
I1235
sVDragon_warrior(dnf) +q
p1554
I1236
sVPocket terry
p1555
I1237
sVMinoriko aki
p1556
I1238
sVOwada nana
p1557
I1239
sVKillerbee
p1558
I1240
sVAlien baltan 6th
p1559
I4843
sVTBonne
p1560
I1242
sVGajeel
p1561
I4646
sVReimi
p1562
I1243
sVD4 kirby
p1563
I52
sVLion(coh)
p1564
I59
sVLady deathstrike
p1565
I2737
sVMark sein
p1566
I1247
sVKyle dunamis
p1567
I3948
sVLelouch
p1568
I811
sVSugoi cirno
p1569
I1249
sVBubble slime
p1570
I1250
sVCockle
p1571
I1251
sVAyako
p1572
I4192
sVDinotank
p1573
I1252
sVSkullomania
p1574
I680
sVFat boo
p1575
I4187
sVMf viga
p1576
I1254
sVEddie mvc
p1577
I1255
sVDragon waifu
p1578
I1256
sVLicht
p1579
I4890
sVElement kofm
p1580
I3688
sVPikachu EX2
p1581
I1257
sVGrand superior ultimate man
p1582
I1999
sVRugal b.
p1583
I1258
sVMai_k
p1584
I1259
sVAngelia
p1585
I1260
sVNew age king
p1586
I1261
sVFcmeirin EX2
p1587
I3447
sVRidley zm
p1588
I4626
sVS.o.g
p1589
I2063
sVZangief EX3
p1590
I1264
sVRick simpsons
p1591
I1265
sVErim
p1592
I1266
sVMariabell armitage
p1593
I1267
sVNick commando EX
p1594
I2647
sVBlue destiny 2
p1595
I1268
sVHeavy d! EX3
p1596
I1269
sVKurama
p1597
I1270
sVMegamami
p1598
I1271
sVSakuya ex
p1599
I1272
sVMeifang dhq
p1600
I1273
sVKyon_ak
p1601
I1274
sVAdelheid EX
p1602
I256
sVSupreme gogeta v1.5
p1603
I4778
sVMegaroman
p1604
I4435
sVTaki EX3
p1605
I4906
sVPhantomsheet
p1606
I1276
sVTrunks EX3
p1607
I1277
sVThe deadly dragon
p1608
I3934
sVMissing iq gomes
p1609
I4480
sVHiman zellode
p1610
I4751
sVTeam u zako
p1611
I4382
sVSubaru
p1612
I2193
sVSounanda
p1613
I4308
sVLacerta Misty
p1614
I3341
sVLeona ex
p1615
I3451
sVYu-lan
p1616
I1280
sVReon
p1617
I1282
sVCandyman
p1618
I3941
sVUltraman gaia_a
p1619
I331
sVZangief maskered
p1620
I335
sVAlucard SOTN
p1621
I2910
sVShinGouki
p1622
I4687
sVThe territorial mammoth
p1623
I4553
sVMoleman
p1624
I1286
sVMasked rider agito EX3
p1625
I1287
sVTokido saya
p1626
I1288
sVHimekawa kotone
p1627
I1289
sVSasuke Cosplay
p1628
I1290
sVBombman
p1629
I1291
sVKuroko EX2
p1630
I690
sVKotoe
p1631
I1292
sVGi-le-farg
p1632
I4173
sVD4 reimu
p1633
I3339
sVA-rei
p1634
I1434
sVKenshiro
p1635
I4571
sVVebel
p1636
I2635
sVGranzon
p1637
I1294
sVPatrick
p1638
I3755
sVLeopaldon
p1639
I4498
sVDevo
p1640
I3926
sVBrainiac
p1641
I4270
sVMiles
p1642
I1297
sVHinata natumi
p1643
I1298
sVThe mythical dacentrurian
p1644
I1299
sVZweizergain
p1645
I1300
sVMonster ball
p1646
I1301
sVOhaou
p1647
I3900
sVShin meep140
p1648
I3725
sVSeven
p1649
I1302
sVBenimaru EX3
p1650
I2751
sVChiffon
p1651
I1304
sVNinja megazord
p1652
I4054
sVYorihime watatsuki
p1653
I4763
sVShar-makai EX3
p1654
I1306
sVSsj3 gotenks
p1655
I4242
sVW.krauser
p1656
I1307
sVPentagon & black hole
p1657
I1308
sVMagma
p1658
I1309
sVShen EX2
p1659
I1435
sVZombie
p1660
I2227
sVArmored gohan
p1661
I1311
sVYueng soi leng
p1662
I1312
sVKrauser 98
p1663
I2074
sVAn ordinary sonic the hedgehog
p1664
I3540
sVGodzillaEX
p1665
I1315
sVSteel
p1666
I2754
sVTora
p1667
I4425
sVSuwako ai
p1668
I1317
sVJason todd
p1669
I2166
sVBatman beyond
p1670
I4782
sVShiva
p1671
I1320
sVWinggod kanna
p1672
I1321
sVDarthvader
p1673
I2077
sVDeluxe chipp
p1674
I1323
sVMobo
p1675
I4518
sVTrapsatoko
p1676
I1324
sVRin natsume
p1677
I3907
sVTomoko
p1678
I635
sVOrochi iori EX
p1679
I4603
sVCci saisyu
p1680
I4513
sVAccelerator EX3
p1681
I3889
sVDk
p1682
I1328
sVDavid bell
p1683
I657
sVZ gundam
p1684
I666
sVZ-ton 2nd
p1685
I1331
sVYuri945
p1686
I1332
sVRenamon
p1687
I1333
sVDeath13
p1688
I1439
sVGenpaku
p1689
I1335
sVJamian di corvus
p1690
I1336
sVKurohige
p1691
I693
sVSketch turner
p1692
I1338
sVChaoz_gf
p1693
I1339
sVArch mage alice
p1694
I1340
sVDuck king pne
p1695
I4649
sVEnja
p1696
I1342
sVHotaru
p1697
I1343
sVSuper hyper ultra mega awesome wtf barney
p1698
I1344
sVSamurai pizza cats
p1699
I1345
sVSasuke kun
p1700
I3968
sVNami
p1701
I1347
sVKamen rider kabuto
p1702
I1348
sVMvc2 megaman
p1703
I774
sVStrider H
p1704
I1350
sVHaggar sf2
p1705
I1351
sVSad claps
p1706
I1352
sVSoujiro
p1707
I4252
sVB.jenet
p1708
I1353
sVMisaka
p1709
I4564
sVMasked_dedede
p1710
I1354
sVWulong
p1711
I1355
sVBuguu
p1712
I3946
sVKou EX3
p1713
I1356
sVShinobu
p1714
I1357
sVTsugumi
p1715
I834
sVShin bison
p1716
I2081
sVKimexemaru
p1717
I1360
sVKilyousuke ex
p1718
I1361
sVSaimon
p1719
I3933
sVD'
p1720
I1363
sVPsychic psycho
p1721
I4913
sVDantalion_alice
p1722
I1444
sVSean matsuda
p1723
I4201
sVAlice's gensokyo
p1724
I1366
sVCelesty
p1725
I889
sVLuka
p1726
I1368
sVSatuzinki_nesmario
p1727
I4650
sVDeejay sfa
p1728
I1369
sVSailor venus EX
p1729
I4075
sVShin vega
p1730
I4844
sVIzzy blue
p1731
I2943
sVHaohmaru
p1732
I1370
sVMaster ryu
p1733
I935
sVInjya 1p
p1734
I1372
sVIngrid
p1735
I3086
sVTrainheartnet
p1736
I3784
sVLieselotte_achenbach
p1737
I1090
sVMoraga
p1738
I1375
sVCv wakamoto
p1739
I1376
sVDonatello 0d
p1740
I1378
sVMegaman fp
p1741
I1379
sVBloo ex
p1742
I980
sVFlan Scarlet
p1743
I1381
sVRolf
p1744
I4682
sVVenomscorp
p1745
I1382
sVRoll
p1746
I1013
sVPein nzc
p1747
I1385
sVJeice
p1748
I1386
sVKazuya akatsuki +q
p1749
I1387
sVOssan
p1750
I4651
sVMatou sakura EX
p1751
I1388
sVHaohmaru 98
p1752
I1389
sVPocket Sakura
p1753
I1390
sVSasuke 0d
p1754
I1391
sVSakashita
p1755
I1392
sVSuper girl
p1756
I1063
sVMima
p1757
I1394
sV95ani
p1758
I1395
sVSatsuki vp EX3
p1759
I1396
sVAsura
p1760
I1397
sVYuri
p1761
I1398
sVMpccgenerals
p1762
I1399
sVCard hero
p1763
I1400
sVFreedom gundam
p1764
I1401
sVBlade rider
p1765
I4225
sVDarkseid
p1766
I2776
sVBatman 2
p1767
I1404
sVSnakeeyes
p1768
I1405
sVDongdong
p1769
I1406
sVIgnis
p1770
I1407
sVFire quacker
p1771
I3917
sVRobocop
p1772
I4845
sVBlack adam
p1773
I1408
sVIgniz
p1774
I1409
sVRaiden EX2
p1775
I1410
sVAkane
p1776
I1411
sVKrang
p1777
I1412
sVOrtega ex
p1778
I3477
sVSlalingaru
p1779
I1150
sVFf1 tung fu rue
p1780
I4678
sVNamor
p1781
I4698
sVSuneo
p1782
I1415
sVSuper vegeta ai-barbatos
p1783
I1416
sVArashi EX
p1784
I1452
sVYuyuko saigyouji
p1785
I1976
sVMaverick zero
p1786
I1418
sVAsha
p1787
I2827
sVJoe F22
p1788
I1419
sVAngel
p1789
I1420
sVJet jaguar
p1790
I2869
sVShadow geist
p1791
I1421
sVVivi_ornitier
p1792
I1422
sVHighway star
p1793
I1423
sVCheapest kfm!!!
p1794
I1425
sVYukari Tanizaki
p1795
I1426
sVPheus_mor
p1796
I1427
sVMiduma
p1797
I1428
sVSilverbloome
p1798
I3549
sVKasen EX
p1799
I1430
sVRobo-segalow
p1800
I1431
sVTerry ex02
p1801
I2961
sVJyubei yagyu EX3
p1802
I1432
sVGrant
p1803
I1433
sVSunflower fairy
p1804
I3243
sVBilly lee
p1805
I1293
sVGod gundam EX
p1806
I4076
sVLucifer
p1807
I1310
sVS-len
p1808
I1436
sVYamcha
p1809
I1437
sVIkumi tatikawa
p1810
I1319
sVSolid snake EX
p1811
I4905
sVGreen lantern gg
p1812
I1334
sVDee bee kaw
p1813
I1440
sVSniper
p1814
I1441
sVRamon 71113
p1815
I1442
sVVirtus
p1816
I4639
sVKonoha
p1817
I1443
sVPantyhose taro
p1818
I4140
sVClayface
p1819
I1364
sVQueen beryl
p1820
I1445
sVStickykeys
p1821
I1446
sVDeluxe ai
p1822
I1447
sVAlien_z-ton
p1823
I3924
sVAthena X2
p1824
I1448
sVViewtiful joe
p1825
I1460
sVFred Krueger
p1826
I3937
sVYuki morikawa
p1827
I1450
sVAlucard
p1828
I1451
sVItachi
p1829
I4648
sVKing of zero
p1830
I1417
sVNeo EX
p1831
I1453
sVWashizuka
p1832
I2017
sVSatsujinki
p1833
I1455
sVUrban champion
p1834
I1456
sVSalamandra_fe
p1835
I1457
sVRamon EX3
p1836
I1458
sVXerxes
p1837
I1459
sVAgito_of_the_dark
p1838
I4565
sVTear
p1839
I1449
sVYuri di aaaaaaa
p1840
I4837
sVGrand master ryu
p1841
I2783
sVYoko EX
p1842
I1463
sVRoll EX
p1843
I1464
sVBob wilson EX2
p1844
I1461
sVShikieiki yamaxanadu
p1845
I1466
sVEriol hiiragizawa
p1846
I1467
sVCurly brace EX3
p1847
I1468
sVChizuru 71113
p1848
I2785
sVAnanzi
p1849
I2098
sVKencyan
p1850
I1469
sVNew rubber soul
p1851
I1470
sVUkitake
p1852
I4580
sVLa mascara
p1853
I1471
sVSephiroth EX3
p1854
I1472
sVKane
p1855
I1473
sVKawajirikosaku EX3
p1856
I1474
sVSideswipe
p1857
I1475
sVSerika
p1858
I2759
sVIkaruga satuki
p1859
I1477
sVImouto EX3
p1860
I1465
sVAkari kamigishi
p1861
I1478
sVRasetsu
p1862
I3997
sVNeo dio EX3
p1863
I4459
sVPerfectakishimai
p1864
I1480
sVKiyoko
p1865
I1970
sVKitanaininjya
p1866
I1481
sV20 (dr. gero)
p1867
I1482
sVAmber lamps
p1868
I4549
sVRei-kugo
p1869
I1483
sVYamcha by tomur
p1870
I1484
sVJoker_shiki
p1871
I1485
sVChunli_a
p1872
I1486
sVRichard myer
p1873
I4018
sVRemilia
p1874
I2119
sVPapillon
p1875
I2789
sVNero chaos
p1876
I1488
sVDrew
p1877
I1489
sVHoraizon ver1.02
p1878
I1490
sVSkelegon
p1879
I1491
sVNaya tatca nanafe
p1880
I1492
sVKouma kishima
p1881
I582
sVGaogaigar
p1882
I1493
sVCleric
p1883
I1494
sVBowling ball
p1884
I1495
sVZangief
p1885
I1496
sVChen the weasel
p1886
I1497
sVDream bison
p1887
I2790
sVSuper metroid
p1888
I1500
sVBagira_ex
p1889
I1501
sVTyrant EX
p1890
I1502
sVAsh 2
p1891
I1503
sVRalf 2k2
p1892
I4369
sVDead geese
p1893
I1504
sVSword impulse
p1894
I1505
sVCommon akuma
p1895
I1506
sVDabura EX3
p1896
I4629
sVRoast_uncle
p1897
I1979
sVTetris
p1898
I1507
sVBroccalon EX3
p1899
I1508
sVMakoto EX3
p1900
I1509
sVPrincess
p1901
I1510
sVSuper soldier
p1902
I4352
sVChousokabe motochika
p1903
I1511
sVYet another igniz
p1904
I1512
sVUltraseven_a
p1905
I1513
sVJean grey
p1906
I1184
sVTerumi
p1907
I1514
sVSawada
p1908
I4113
sVNecoarc
p1909
I1515
sVMore Evil Ryu
p1910
I1516
sVMr. increible
p1911
I4703
sVStimpy
p1912
I1517
sVQuicksilver
p1913
I1518
sVJaguar junichi
p1914
I1519
sVAbobo 0D
p1915
I1520
sVDr.manhattan
p1916
I4826
sVAbigail
p1917
I869
sVM.bison
p1918
I2107
sVEvabeatrice
p1919
I3987
sVTrishula,doragon of the ice barrier
p1920
I1522
sVRon max
p1921
I1523
sVMoogle
p1922
I1524
sVFortress maximus
p1923
I1525
sVAllen o'neill
p1924
I1526
sVZebura
p1925
I3461
sVMvc2 cyclops
p1926
I1527
sVSeikimatu guile
p1927
I1528
sVKenbo
p1928
I1529
sVSailor uranus
p1929
I1530
sVKenshi
p1930
I1531
sVMr1 daz bones
p1931
I1532
sVBad mr frosty
p1932
I3952
sVWolverine_cota
p1933
I1318
sVDragon claw
p1934
I4168
sVToyohime EX2
p1935
I1534
sVSaiki
p1936
I1535
sVShizuha EX3
p1937
I1536
sVWaki-miko
p1938
I3738
sVSuper androide 17 hd
p1939
I1537
sVBalrog sf2
p1940
I1538
sVWonder woman
p1941
I1539
sVSyaoran
p1942
I4245
sVBlack widow
p1943
I1541
sVMasked rider hibiki(emanon)
p1944
I3500
sVChintao FF
p1945
I1542
sVHamburglar
p1946
I1543
sVCreeper
p1947
I1544
sVLuise
p1948
I2797
sVToki
p1949
I4127
sVBotan
p1950
I4635
sVDevil seaman
p1951
I1545
sVMr satan
p1952
I3522
sVDark karin
p1953
I1546
sVMega tigerzord
p1954
I4881
sVSaku
p1955
I1548
sVGiant katamari of random characters
p1956
I4902
sVCaptain commando
p1957
I1550
sVAlbus
p1958
I1551
sVTusk soldier
p1959
I4749
sVUbu
p1960
I4742
sVJazu
p1961
I1552
sVRiot
p1962
I1553
sVChucky
p1963
I4486
sVHuey freeman
p1964
I3970
sVVoid
p1965
I1556
sVBobby
p1966
I1557
sVEagle-sabu
p1967
I3930
sVIkumi amasawa
p1968
I1558
sVKanon EX3
p1969
I2093
sVJin bros
p1970
I4552
sVMidknight
p1971
I1561
sVBlood
p1972
I1563
sVBlack manta
p1973
I3935
sVGod vega
p1974
I2474
sVRodimus prime
p1975
I1565
sVCarol
p1976
I1566
sVLei lei
p1977
I4812
sVRion
p1978
I1568
sVMacheta
p1979
I1569
sVRoppen heimer EX FF
p1980
I1570
sVPiccolo EX3
p1981
I4597
sVGoku ssj 3
p1982
I4573
sVMary EX3
p1983
I1571
sVC.dome
p1984
I4044
sVS.geist
p1985
I1572
sVNico robin
p1986
I3504
sVBlack mask
p1987
I3995
sVSenna(coh)
p1988
I1573
sVTiki
p1989
I1574
sVG-gonzales2
p1990
I4790
sVMaherl
p1991
I1575
sVRutee
p1992
I1577
sVSuper sayajin 4
p1993
I4811
sVMs.archer
p1994
I4605
sVTenshi
p1995
I4099
sVElita one
p1996
I1580
sVScarlet devil
p1997
I1581
sVZeeky h. bomb
p1998
I1582
sVBoring sdk mukurou
p1999
I1583
sVVega mvc2
p2000
I1584
sVNachi
p2001
I4092
sVAnji
p2002
I1585
sVGundog
p2003
I1586
sVGuy
p2004
I3429
sVJiraiya
p2005
I3261
sVJoseph joestar EX3
p2006
I1587
sVAmerican idiot
p2007
I4785
sVJet-stingray
p2008
I1589
sVSakura haruno nzc
p2009
I1590
sVPsycho shredder[s] 3.0
p2010
I1591
sVKazami yuuka
p2011
I1592
sVFelix the cat EX3
p2012
I1593
sVGi gi
p2013
I1594
sVMvc2 captain america
p2014
I1595
sVYouhei 1p
p2015
I1596
sVRonove
p2016
I1597
sVShiena bee
p2017
I1598
sVMike tyson
p2018
I2806
sVInfant mutant
p2019
I1600
sVGeneshic gaogaiger
p2020
I1601
sVScarlet spider
p2021
I3971
sVAndy_xiii
p2022
I3508
sVSenel
p2023
I1603
sVHel'lauren
p2024
I1604
sVGutsman
p2025
I1605
sVKinoko
p2026
I1606
sVSolitaire
p2027
I1607
sVRockman x
p2028
I1608
sVFrieza EX3
p2029
I1609
sVTeam ryuko
p2030
I4019
sVZinsuke
p2031
I1611
sVBuu Hyper Dimension
p2032
I1612
sVTakuan_osho
p2033
I2123
sVTokinomiya kamui
p2034
I1614
sVJudith
p2035
I1616
sVSon of sun
p2036
I4831
sVThe pacifier
p2037
I4507
sVB.dosa
p2038
I1617
sVGonzales s-r
p2039
I3187
sVBasara
p2040
I1618
sVYumi
p2041
I1619
sVSuper mario EX3
p2042
I1620
sVSittara
p2043
I2124
sVHouoh
p2044
I4735
sVAnna ex
p2045
I1622
sVMahvel elena
p2046
I1623
sVRugal bernstein EX3
p2047
I1624
sVPocket chunli
p2048
I1625
sV17th angel
p2049
I1626
sVWyvern
p2050
I1627
sVKoakuma_ac
p2051
I1628
sVThe joker EX3
p2052
I1629
sVTabasa
p2053
I4220
sVSatomi yajima
p2054
I1630
sVBattousai
p2055
I1632
sVMastr Hand
p2056
I729
sVYanpeko na hibikisan
p2057
I1633
sVBalrog f
p2058
I1634
sVDrake
p2059
I1635
sVOrsted_w
p2060
I3327
sVJhons lee
p2061
I4418
sVCharlotte
p2062
I2897
sVYoma komatsu
p2063
I1636
sVViga
p2064
I1637
sVMr_shihan_ky
p2065
I1638
sVKaptain k.rool
p2066
I1639
sVSenna_ai
p2067
I1640
sVBristol weller
p2068
I1641
sVEbe
p2069
I1642
sVArthur EX
p2070
I1643
sVAngela EX3
p2071
I1644
sVProducer
p2072
I1645
sVSuper buu
p2073
I946
sVRiesz
p2074
I1648
sVDeluxe athena
p2075
I1649
sVGeese xi
p2076
I1650
sVGod yuri
p2077
I1651
sVLightning bd
p2078
I1652
sVBig zam
p2079
I2131
sVTloz link
p2080
I1655
sVMedusa
p2081
I1656
sVWorld-chang
p2082
I1657
sVCursor
p2083
I4516
sVLittle busters! ce
p2084
I4386
sVCvs yun
p2085
I2547
sVShazzer EX3
p2086
I1661
sVTyrant_a
p2087
I1662
sVE. honda
p2088
I1663
sVCaptain america b
p2089
I1664
sVMari
p2090
I1665
sVEvil ranger
p2091
I1666
sVYellow-pipo
p2092
I470
sVSuper nightmare geese
p2093
I1668
sVLunasa
p2094
I1669
sVSupreme vegito
p2095
I1670
sVSerika_os
p2096
I2917
sV1.0
p2097
I3312
sVOrochi yuyuko
p2098
I3640
sVMeira
p2099
I1671
sVPocket tylor
p2100
I1672
sVMarx
p2101
I1673
sVBerserk
p2102
I1674
sVJin CVS TAG
p2103
I1675
sVCycloid omega EX
p2104
I1676
sVDana dee
p2105
I1677
sVSuave dude
p2106
I1678
sVHeat-genblem
p2107
I1679
sVMech-hisui EX
p2108
I1680
sVFamicom wars
p2109
I1681
sVHaru-chan
p2110
I1682
sVVeku
p2111
I4336
sVA-heart
p2112
I1684
sVDark magician girl
p2113
I4048
sVAirou ver2.11
p2114
I4544
sVStrider hien
p2115
I1685
sVBenimaru 98
p2116
I2876
sVChen_ai EX3
p2117
I1687
sVKasumi wpr
p2118
I1688
sVNamihei
p2119
I1689
sVGolden axe
p2120
I2824
sVSkapon
p2121
I1690
sVAkuma
p2122
I1691
sVRoa EX3
p2123
I1692
sVWar EX2
p2124
I1693
sVEarl
p2125
I1694
sVSteven seagal
p2126
I4615
sVKoopa clown car
p2127
I1696
sVThiele
p2128
I1698
sVPeijin-san
p2129
I1699
sVM-monk
p2130
I4666
sVSs6 aisya
p2131
I1700
sVKanae EX3
p2132
I1701
sVFerroman
p2133
I1702
sVGozu
p2134
I1703
sVLittle nemo
p2135
I1704
sVSupreme goku
p2136
I1705
sVLord slug
p2137
I2974
sVNekonin ex
p2138
I1706
sVRock
p2139
I4774
sVLoud demon
p2140
I3002
sVLeonardo
p2141
I1708
sVMomiji inubashiri
p2142
I2828
sVBatman EX3
p2143
I1710
sVRambo
p2144
I1711
sVAnpanman
p2145
I1712
sVRogue SP
p2146
I1713
sVHeidern_ex
p2147
I3521
sVAsutorea EX3
p2148
I1715
sVStarfy
p2149
I1716
sVCid highwind
p2150
I3915
sVElpizo
p2151
I2140
sVCrocodile
p2152
I1718
sVAlter amiba
p2153
I1719
sVWatatsuki no toyohime
p2154
I4124
sVChili n pepper
p2155
I1720
sV2k
p2156
I2141
sVGg-wind
p2157
I1721
sVTiberius
p2158
I1722
sVSanic boom
p2159
I1723
sVCyber-woo
p2160
I1724
sVKingslime
p2161
I1725
sVMagnus
p2162
I4514
sVAltered Amiba
p2163
I4001
sVStorm_cota
p2164
I1727
sVPepe
p2165
I4117
sVAlbiole
p2166
I1728
sVMoses maddigan
p2167
I1729
sVDudley Puppy
p2168
I4167
sVYashiro
p2169
I1730
sVMasked rider agito
p2170
I1731
sVD kanna
p2171
I3998
sVBaki-hanma
p2172
I1732
sVAdo
p2173
I1733
sVJack frost
p2174
I4323
sVEleicia
p2175
I3330
sVChouji
p2176
I3927
sVAoko_monk_style
p2177
I1734
sVEagle f22
p2178
I1735
sVMajin-etna
p2179
I1736
sVDark Stimpy
p2180
I1737
sVLilith
p2181
I1738
sVMedicine melancholy
p2182
I1739
sVAstaroth
p2183
I3957
sVNess
p2184
I1740
sVCharlotte m
p2185
I4857
sVG-gonzales
p2186
I1742
sVKemular
p2187
I1743
sVSagat
p2188
I1744
sVSailor mercury EX2
p2189
I4254
sVGh-golden silver
p2190
I1745
sVSasquatch
p2191
I1746
sVShizuha
p2192
I1747
sVAmingo
p2193
I1748
sVBifrost
p2194
I1749
sVGoketuji
p2195
I1750
sVKyoko_typea
p2196
I1751
sVLf2 - freeze
p2197
I1753
sVKyoko_typek
p2198
I1754
sVHakurou
p2199
I3972
sVPotemkin
p2200
I2156
sVIsaiah bradley
p2201
I1756
sVGeese howard EX2
p2202
I1757
sVB.jenet_n
p2203
I4086
sVWarlock
p2204
I770
sVTrue saber
p2205
I3954
sVZaku Cosplay
p2206
I4261
sVGod-gundam
p2207
I1759
sVDaimaoh
p2208
I3974
sVHarry
p2209
I1760
sVRinfa
p2210
I1761
sVKyoko_typey
p2211
I1762
sVStrike freedom nitori
p2212
I1763
sVGoenitz EX3
p2213
I1764
sVMr buu EX3
p2214
I4157
sVKawashima-san EX3
p2215
I1765
sVKawashima-san EX2
p2216
I4169
sVKenny mccormick
p2217
I1766
sVXeona
p2218
I1767
sVDeluxe kung fu man
p2219
I1768
sVNanoha xp
p2220
I4780
sVBruce banner
p2221
I4619
sVRyu NXC
p2222
I4764
sVFurude rika
p2223
I1770
sVBulbasaur
p2224
I4856
sVSaito
p2225
I1773
sVHayato MVC
p2226
I1005
sVAi
p2227
I2840
sVToro inoue
p2228
I1775
sVMaster juzo
p2229
I1776
sVThe freezing august
p2230
I1777
sVGiano
p2231
I4801
sVApocalypse EX2
p2232
I1779
sVKamui
p2233
I1780
sVClassic wagyan
p2234
I1781
sVEarthworm jim
p2235
I1782
sVTakano_miyo
p2236
I1783
sVXiaoyen
p2237
I1784
sVZantetsu
p2238
I1785
sVCharles
p2239
I4883
sVSymbiote thanos
p2240
I4504
sVCustom shinobi shou
p2241
I1787
sVKohaku iqs
p2242
I4878
sVMinoriko(ai)
p2243
I1788
sVThe red dragon
p2244
I1028
sVMaster mecha sonic
p2245
I1790
sVAnti.guile.zangief
p2246
I2019
sVMask the griffon EX3
p2247
I1791
sVLuke skywalker EX3
p2248
I1792
sVHina
p2249
I1793
sVBlob
p2250
I4347
sVSwordman (waifu)
p2251
I3773
sVSsj goku z2 ex
p2252
I1794
sVBloo
p2253
I3577
sVBrago
p2254
I1796
sVChiduru
p2255
I1797
sVThe tick
p2256
I1798
sVJake
p2257
I1799
sVAnnie murakami
p2258
I1800
sVZx
p2259
I1801
sVKaigen EX3
p2260
I913
sVRubber soul
p2261
I1802
sVAboras
p2262
I4391
sVWario 64
p2263
I4392
sVYunfei
p2264
I4162
sVRodan
p2265
I3656
sVTung fu rue
p2266
I1806
sVRaphael 0d
p2267
I3665
sVBoss zeroko
p2268
I1808
sVArx-7
p2269
I1809
sVSubaru mikage
p2270
I1810
sVGengetu EX
p2271
I4135
sVOmegamon EX
p2272
I4692
sVSlimeknight
p2273
I1811
sVSymbiote onslaught
p2274
I1812
sVReas
p2275
I1813
sVAlex
p2276
I1814
sVGyan
p2277
I1815
sVLasher
p2278
I2584
sVVoltorb
p2279
I1479
sVYamame
p2280
I3543
sVNeco-misaka
p2281
I1818
sVGosunkugi
p2282
I4920
sVElement
p2283
I1819
sVCorin
p2284
I1820
sVBirdie sfa
p2285
I1821
sVErisnomia
p2286
I1822
sVFernandeath
p2287
I1823
sVArigato usagi
p2288
I1824
sVDio di musca
p2289
I1825
sVAnonym
p2290
I1826
sVRaptorking-petshop
p2291
I3545
sVPickle
p2292
I1827
sVAxel stone
p2293
I1828
sVMr_shihan
p2294
I1829
sVAvdul
p2295
I4390
sVMary
p2296
I2809
sVGodslayer shin meep140
p2297
I4895
sVCammy NXC
p2298
I1830
sVDevilbat-schilt
p2299
I4123
sVRobo-ky XX
p2300
I1832
sVCustom ddv shadow master
p2301
I2784
sVRuckus
p2302
I1833
sVDesteny remilia
p2303
I1834
sVMaxime
p2304
I4365
sVOnpu segawa
p2305
I405
sVRid hershel
p2306
I1835
sVMimic
p2307
I4842
sVKamen rider joker
p2308
I1837
sVRobinmask
p2309
I1838
sVNf-kyo EX3
p2310
I1839
sVShadow sumou
p2311
I4055
sVFalco la pasione(nagiai)
p2312
I768
sVXavier pendragon
p2313
I1840
sVAnother blood k
p2314
I3876
sVSpera
p2315
I3883
sVOrochimaru nzc
p2316
I4868
sVGon the dinosaur
p2317
I3415
sVKishimax EX2
p2318
I1843
sVSkeletor dx
p2319
I11
sVTaku
p2320
I4011
sVPocchi
p2321
I4613
sVLucifeller_ex
p2322
I1846
sVUnknown
p2323
I4776
sVKamishiro_aya
p2324
I4282
sVFirestar
p2325
I35
sVMira
p2326
I2167
sVRock-man
p2327
I1851
sVIzayoi sakuya
p2328
I4109
sVKuanyinshen_nagiai
p2329
I57
sVDongdong'
p2330
I62
sVHyuuga hinata
p2331
I4360
sVSuper sonic EX3
p2332
I1855
sVChippzanuff
p2333
I71
sVSon goku
p2334
I1857
sVNucoarc
p2335
I1858
sVTrist
p2336
I4762
sVGeegus
p2337
I1860
sVFang 0d
p2338
I1861
sVSantaurus
p2339
I1862
sVJin kazama
p2340
I1863
sVZelos(you-ki_ai)
p2341
I4898
sVElla
p2342
I1864
sVNorimaro MVC3
p2343
I4374
sVElle
p2344
I4543
sVMutron kun
p2345
I1866
sVLightning cb
p2346
I4239
sVBrazer
p2347
I1868
sVSuper3 goku EX
p2348
I1869
sVAchi cirno
p2349
I1870
sVAkiha
p2350
I1871
sVScott pilgrim
p2351
I1872
sVNagamine nozomi
p2352
I1873
sVAlvan EX
p2353
I4511
sVKung lao
p2354
I1875
sVAmiba EX
p2355
I161
sVMiyako
p2356
I165
sVAthena_96
p2357
I1878
sVRyo EX2
p2358
I4324
sVPelecanus
p2359
I4589
sVWhite buffalo
p2360
I1881
sVOrione
p2361
I4389
sVVegalunker
p2362
I1882
sVAngus
p2363
I1883
sVMaggyo EX
p2364
I810
sVDios
p2365
I2170
sVUltimate aizen
p2366
I2533
sVJhon
p2367
I1884
sVChibi vegito
p2368
I1885
sVPocket Dan
p2369
I1886
sVWolf
p2370
I1887
sVTorao onigawara
p2371
I1888
sVDeath EX3
p2372
I4294
sVAgent smith
p2373
I4246
sVDebonea
p2374
I4550
sVWonder Woman Reloaded
p2375
I3808
sVGogeta mvc
p2376
I1891
sVAtomic r chelnov
p2377
I1892
sVTetsu yatogi
p2378
I4445
sVJagyuta EX2
p2379
I1893
sVReicubas
p2380
I1894
sVDonald mcdonald
p2381
I1895
sVJagi bike
p2382
I2803
sVR.lightning
p2383
I1896
sVHomero
p2384
I1897
sVCyber-peacock
p2385
I265
sVMetal sonic mk3
p2386
I1899
sVArchetype:earth
p2387
I4342
sVHugo dc
p2388
I4630
sVOrochi ball
p2389
I1901
sVDaimon 98
p2390
I4029
sVJon arbuckle
p2391
I4399
sVD'raven
p2392
I1904
sVVita
p2393
I1905
sV98se
p2394
I1658
sVRina
p2395
I4700
sVOnslaught
p2396
I1907
sVAdam EX3
p2397
I1908
sVSai EX2
p2398
I334
sVF.o.e._meso
p2399
I1910
sVOsiti
p2400
I1911
sVHiro-ex
p2401
I1912
sVYaridovich
p2402
I1913
sVDestoroyah ex
p2403
I1914
sVRobo
p2404
I374
sVTatsuo
p2405
I934
sVBattler ushiromiya
p2406
I1917
sVIsabeau
p2407
I2178
sVKyuketsuki_satsuki
p2408
I1919
sVSsj vegeto
p2409
I3556
sVRyu hayabusa x
p2410
I1921
sVGeneral
p2411
I1922
sVMo-mo-dainamaitu EX3
p2412
I1923
sVNitori(emanon)
p2413
I2890
sVKyoko_typea EX3
p2414
I1533
sVLenja
p2415
I1924
sVDiablo_skeleton
p2416
I4825
sVMeta jade
p2417
I2181
sVGeese ex xi
p2418
I1927
sVSyuzo matsuoka
p2419
I4634
sVAladdin EX3
p2420
I1928
sVRemy sf3
p2421
I1929
sVSyobo-n
p2422
I2182
sVToguro 80%
p2423
I1931
sVSupernovice
p2424
I1867
sVSamus
p2425
I1932
sVGlacius
p2426
I468
sVHibiki EX3
p2427
I4152
sVDally
p2428
I1934
sVSoy milk
p2429
I1935
sVHelion
p2430
I1936
sVGill hero
p2431
I3561
sVArena
p2432
I1937
sVGaibon
p2433
I4000
sVAmon
p2434
I1938
sVDemitri EX3
p2435
I3481
sVCharlie
p2436
I508
sVHuman paladin
p2437
I1940
sVBloodia
p2438
I1941
sVMagneto_cota
p2439
I3113
sVMeth Blue Ranger
p2440
I1942
sVSeravy
p2441
I537
sVHijiri byakuren
p2442
I1944
sVShin marie
p2443
I1945
sVJonathon Morris
p2444
I1946
sVKisarah-n
p2445
I558
sVAthena945
p2446
I1948
sVRoomi kof
p2447
I1949
sVIncredible power kyo
p2448
I1950
sVGargoyle
p2449
I577
sVArima_meirin
p2450
I4609
sVArina
p2451
I1952
sVBlack_widoraemon
p2452
I1953
sVClark
p2453
I4171
sVAgito of the dark
p2454
I1954
sVDio M
p2455
I1955
sVKongman EX3
p2456
I614
sVEnja ex
p2457
I1957
sVLucy diclonius
p2458
I4200
sVCammy_a
p2459
I1958
sVDokuro chan
p2460
I627
sVMiffy
p2461
I3344
sVKfm iwbtg
p2462
I1960
sVSatori EX
p2463
I3566
sVPupazz
p2464
I4266
sVMr.mannequin
p2465
I1963
sVNaomi
p2466
I1964
sVGo_shin
p2467
I1965
sVVegeta ultra ssj
p2468
I4808
sVTerry EX3
p2469
I659
sVCaptain atlantis
p2470
I4476
sVMystia EX
p2471
I1967
sVMakoto(*zenkai*)
p2472
I1968
sVToy
p2473
I1969
sVHanayama EX3
p2474
I1166
sVManjimaru EX3
p2475
I1540
sVGill sf3
p2476
I1414
sVLihua
p2477
I1972
sVKousaku
p2478
I663
sVBloodbane
p2479
I1974
sVSuicider raoh
p2480
I4788
sVBaby commando
p2481
I939
sVBastion
p2482
I1975
sVMuhi EX
p2483
I4429
sVTom
p2484
I4150
sVLeone abbacchio ex
p2485
I3951
sVSaki
p2486
I1977
sVSub-zero CVW
p2487
I4818
sVLord.misyaguzi
p2488
I1978
sVMurakumo-abk EX2
p2489
I3035
sVFelden
p2490
I3949
sVSayia-f
p2491
I1980
sVYellow devil
p2492
I4111
sVElement ma
p2493
I1982
sVLabyrinth
p2494
I1983
sVClone koa
p2495
I1984
sVMercurius
p2496
I1985
sVKomachi_raoh
p2497
I1986
sVRistar
p2498
I4570
sVDan smith, the tyrant
p2499
I1987
sVSanosuke EX3
p2500
I2134
sVQ-mantha
p2501
I1988
sVSsfiix' rainbow
p2502
I1989
sVHammerin' harry
p2503
I3869
sVAiri
p2504
I1990
sVTwilight sparkle
p2505
I1991
sVHaruhi suzumiya EX
p2506
I851
sVShinobi
p2507
I1993
sVMakendo2
p2508
I862
sVSynn
p2509
I2196
sVAsahina mikuru EX
p2510
I868
sVT.hawk sf2
p2511
I3204
sVBirdie
p2512
I1997
sVZangoose EX3
p2513
I1998
sVRoad runner
p2514
I881
sVAkari EX
p2515
I2000
sVDhalsim R
p2516
I2001
sVSmoker
p2517
I2002
sVAnother clone ash
p2518
I443
sVNeo Sonic
p2519
I2003
sVShockwave
p2520
I2004
sVAmaterasu
p2521
I2879
sVNikumaru
p2522
I2006
sVAnguirus
p2523
I4548
sVShigen EX3
p2524
I2007
sVChun li xi
p2525
I929
sVLilith aensland
p2526
I2009
sVJohnny maximum
p2527
I4368
sVPower kung fu man
p2528
I3922
sVSmall Ryu
p2529
I2013
sVGekka suika
p2530
I2659
sVVega geegus
p2531
I4539
sVPoison ivy
p2532
I2015
sVCci mr.big
p2533
I2016
sVSnake eyes
p2534
I1454
sVMictlan EX
p2535
I2018
sVJohn crawley
p2536
I4319
sVMary deiyon
p2537
I1755
sVKing EX2
p2538
I4275
sVKing EX3
p2539
I2021
sVTenma-sama
p2540
I2022
sVSasquatch 71113
p2541
I2023
sVFaud EX3
p2542
I2024
sVMinotaur
p2543
I2025
sVSlug wanzer
p2544
I4853
sVCommissioner gordon
p2545
I2027
sVKyouken wakamoto
p2546
I2028
sVWarcueid t
p2547
I4871
sVRanma +
p2548
I3921
sVLegion
p2549
I2029
sVAmakusa ex
p2550
I2203
sVJuralian
p2551
I2031
sVErile
p2552
I4443
sVSanji 13
p2553
I1101
sVZero ariel
p2554
I2033
sVAdvent cloud
p2555
I1549
sVYui_kutuna
p2556
I2034
sVVegeta EX3
p2557
I2035
sVP4 hero
p2558
I2036
sVArrange_unknown
p2559
I2037
sVKumi
p2560
I2038
sV!
p2561
I2039
sVYuki nagato
p2562
I2040
sVA-yuki
p2563
I2041
sVThunder-iku
p2564
I2042
sVMs. fanservice
p2565
I2043
sVDragon ken
p2566
I2044
sVBonus
p2567
I2045
sVMegaman plus
p2568
I2046
sVOmega god ken
p2569
I2047
sVGreat s. man
p2570
I4679
sVAska EX2
p2571
I1176
sVSephiroth AK
p2572
I2049
sVLety
p2573
I1795
sVGromit
p2574
I2050
sVRyu DG
p2575
I2052
sVHanyuu
p2576
I4307
sVSatsuki
p2577
I3648
sVNeo-dio
p2578
I2053
sVAsh of blueblood
p2579
I1210
sVSeikimatsukyu-seisya kenshirou
p2580
I4060
sVSlash-beast
p2581
I2885
sVRick strowd EX3
p2582
I2056
sVKaede
p2583
I2057
sVSailor pluto
p2584
I2058
sVDon
p2585
I2059
sVCaramelman no.2
p2586
I4122
sVAkuma shin
p2587
I3535
sVTony won
p2588
I2060
sVSantaurus EX3
p2589
I3893
sVNu-13 EX
p2590
I2061
sVReal chibi scex
p2591
I2062
sVP-silver
p2592
I1263
sVHourai-car
p2593
I2064
sVTiria
p2594
I2065
sVUnyuho-l
p2595
I2066
sVBlack ranger
p2596
I2067
sVAka
p2597
I1278
sVSlarin
p2598
I2069
sVGouki sf3
p2599
I4191
sVEddie
p2600
I3471
sVRyu_a
p2601
I2070
sVLavia
p2602
I2071
sVPepe EX3
p2603
I2072
sVSailor mars EX
p2604
I2073
sVSaya EX
p2605
I1314
sVF.tarantula
p2606
I2075
sVDeath-stuff
p2607
I2076
sVReal beavis
p2608
I1322
sVHotaru futaba
p2609
I2078
sVKill bill o-ren_ishii
p2610
I2014
sVUltimate sula
p2611
I4721
sVPeter griffin
p2612
I4146
sVOrder-sol
p2613
I957
sVTyrant marco
p2614
I4384
sVAzrael
p2615
I3498
sVSpiral mvc2
p2616
I2082
sVA-minagi
p2617
I2083
sVKyko waifu
p2618
I4527
sVOrchid
p2619
I2212
sVLeonardo 0d
p2620
I2084
sVB.swordsman
p2621
I2085
sVCrashman
p2622
I2086
sVYumel
p2623
I2087
sVDurian EX3
p2624
I2892
sVChaos satellite
p2625
I2089
sVDaos
p2626
I2090
sVKirara EX3
p2627
I2091
sVA Bison
p2628
I2092
sVKudora
p2629
I3626
sVKyo EX3
p2630
I2094
sVPoppy
p2631
I4274
sVBenimaru
p2632
I2095
sVSouthside jim
p2633
I4492
sVZerozuchi
p2634
I2096
sVDi gi charat
p2635
I2894
sVMech rugal
p2636
I3593
sVFuuma
p2637
I4601
sVMech-hisui
p2638
I2097
sVNega ryo
p2639
I4012
sVRare Sophitia
p2640
I2099
sVHadou-ken
p2641
I2100
sVDark-baltan
p2642
I4064
sVD4 reimu EX3
p2643
I668
sVHachune miku
p2644
I3699
sVHyouken
p2645
I2103
sVMorilen
p2646
I4731
sVSchlussel
p2647
I3136
sVYuuka
p2648
I2105
sVKensou ex
p2649
I4739
sVSailor moon EX
p2650
I2106
sVTrue k'
p2651
I1521
sVSaya_g
p2652
I2108
sVDaimon 71113
p2653
I2109
sVTest a.i.
p2654
I2110
sVArabian moon
p2655
I2217
sVHagure metal king
p2656
I2111
sVDio v
p2657
I2112
sVVayeate
p2658
I2101
sVMr. big
p2659
I2114
sVRoppen heimer EX
p2660
I2115
sVCapt Commando
p2661
I3595
sVMichael
p2662
I2117
sVNecro
p2663
I2118
sVLen and w. len
p2664
I1576
sVLightning
p2665
I4911
sVKomachi
p2666
I2120
sVUnyuho
p2667
I4840
sVMajin Virginia
p2668
I2121
sVUltraman jack
p2669
I4378
sVSaizo ryo
p2670
I2122
sVPepe-h
p2671
I3405
sVBao
p2672
I1613
sVVice EX3
p2673
I1621
sVCustom omk beatrice EX3
p2674
I2125
sVKen sf3
p2675
I1567
sVHakolen-sbs EX3
p2676
I2126
sVHakolen-sbs EX2
p2677
I2127
sVTeipa
p2678
I2128
sVGo badaa ba
p2679
I2129
sVRare nabeatu
p2680
I2130
sVNagato yuki
p2681
I1654
sVC-19
p2682
I2132
sVKazama kazuki EX3
p2683
I2133
sVKurihan
p2684
I4556
sVEvil ryu ssf'2 plus
p2685
I4428
sVSonic 2 style sonic
p2686
I4404
sVDisc
p2687
I2136
sVOswald
p2688
I2138
sVAdon sfa
p2689
I2224
sVTamara
p2690
I4799
sVJigglypuff EX2
p2691
I3174
sVCci kula
p2692
I4419
sVSatan(zayin)
p2693
I1717
sVBoo ssj
p2694
I4156
sVCustom ssfiv oni
p2695
I2142
sVYouko
p2696
I2143
sVPunisher
p2697
I2144
sVFighter fly
p2698
I2145
sVJones ex
p2699
I2147
sVDandy j
p2700
I2148
sVGato z2
p2701
I2149
sVKamek EX3
p2702
I4747
sVNinja turtles
p2703
I4211
sVSs6 sei-abab
p2704
I4248
sVRakugaki
p2705
I2151
sVMr.karateka
p2706
I2152
sVPsyqhical
p2707
I2153
sVZonu
p2708
I2154
sVBeatrice
p2709
I4727
sVArgento
p2710
I2155
sVCham cham
p2711
I4068
sVSailor mars
p2712
I3890
sVDaisy EX3
p2713
I2157
sVGod alosson
p2714
I2158
sVCci mature
p2715
I2159
sVTatsuki
p2716
I2160
sVSuper goku
p2717
I2102
sVGarlic jr
p2718
I2162
sVMiles edgeworth
p2719
I2163
sVHei meiling
p2720
I2781
sVKirikou EX3
p2721
I2164
sVDark Slayer
p2722
I2165
sVCaptain agent
p2723
I3967
sVKishima_kouma
p2724
I1850
sVIchigo Kurosaki
p2725
I4709
sVTenshi baiken
p2726
I3605
sVDantel
p2727
I4058
sVCharlotte ex
p2728
I2169
sVKeith wayne EX2
p2729
I3906
sVShermie
p2730
I1316
sVShishio
p2731
I977
sVToki jj
p2732
I2173
sVDark chun-li
p2733
I2174
sVCool
p2734
I2460
sVSuika ibuki
p2735
I2176
sVGeese CVS
p2736
I146
sVArrange_shiori
p2737
I1918
sVVegeta ssj5
p2738
I2179
sVEx apollo
p2739
I1562
sVChloe valens
p2740
I1926
sVKawashima-san
p2741
I1930
sVGhoston
p2742
I2183
sVYouhei
p2743
I3976
sVMetallo
p2744
I2184
sVTowa
p2745
I2185
sVNina
p2746
I2186
sVCutie honey
p2747
I4257
sVHuryou hatune
p2748
I2187
sVFungi
p2749
I3607
sVAngela EX
p2750
I2189
sVNatsumi EX
p2751
I2190
sVChang
p2752
I2191
sVOmega red mvc2
p2753
I3101
sVSupreme gt vegeta
p2754
I4478
sVVenom MMV
p2755
I2194
sVHaohmaru CVS
p2756
I2195
sVMagikarp
p2757
I1847
sVCci kasumi
p2758
I2197
sVRyu SF4
p2759
I2198
sVGustab munchausen
p2760
I2199
sVRugal
p2761
I2200
sVHeavyarmscustom
p2762
I2201
sVEx-malin
p2763
I4814
sVDante2
p2764
I2030
sVMuscle power
p2765
I2204
sVCless alvein
p2766
I2205
sVMisuzu
p2767
I2051
sVMasked rider 555_z
p2768
I2207
sVEvil dan
p2769
I2208
sVMokou EX
p2770
I3938
sVRichter belmont
p2771
I2210
sVTanuki
p2772
I2211
sVTrue power sol
p2773
I1659
sVTormentor jinmen
p2774
I2763
sVLynn 02
p2775
I2213
sVMissingno.
p2776
I2214
sVTails s2
p2777
I2215
sVYumemi
p2778
I2216
sVHugo
p2779
I4836
sVShiny diamond
p2780
I4805
sVVeigue_lungberg
p2781
I2218
sVBubbles DG
p2782
I2219
sVDan hibiki
p2783
I2220
sVBlaze agent
p2784
I2221
sVUltraman dyna
p2785
I2222
sVKaede ngbc
p2786
I2223
sVAxel
p2787
I2139
sVOhga
p2788
I2225
sVStingray
p2789
I2226
sVPlastic man
p2790
I4206
sVCell Hyper Dimension
p2791
I1579
sVBurter
p2792
I2068
sVC. shrd
p2793
I4197
sVSaba
p2794
I4737
sVVergil2
p2795
I2913
sVYuri sakazaki EX2
p2796
I2230
sVDisrupter
p2797
I2231
sVGowcaizer
p2798
I2232
sVGuardian
p2799
I2233
sVWaddledee EX3
p2800
I2234
sVAstonishing Cyclops
p2801
I4674
sVLehyu EX3
p2802
I4014
sVKaeru(chrono)
p2803
I2235
sVMr.big
p2804
I4673
sVNega peach EX3
p2805
I2236
sVPocket Cloud
p2806
I4839
sVJuggernaut mvc2
p2807
I2237
sVGameboy
p2808
I2409
sVChibi naruto
p2809
I2239
sVDirty kf man
p2810
I4417
sVIari
p2811
I2240
sVBerserker
p2812
I4415
sVAssasincross
p2813
I2914
sVOkubo kumi
p2814
I4710
sVSailor jupiter EX
p2815
I2243
sVVoltz
p2816
I2244
sVHulk ex
p2817
I2245
sVYugi(emanon)
p2818
I2246
sVAyu&misuzu&mizuka
p2819
I2247
sVArcher
p2820
I2248
sVClark Steel XIII
p2821
I3892
sVYuen-joe
p2822
I4215
sVJp Polnareff
p2823
I4758
sVCpt.falcon
p2824
I2251
sVShiiko yuzuki
p2825
I2252
sVSimon belmont
p2826
I3352
sVMr.saikyo
p2827
I2253
sVMB-02
p2828
I2254
sVOni inomura
p2829
I2255
sVMakishi masao
p2830
I2256
sVJean pielle
p2831
I4133
sVPucca-toppo
p2832
I2257
sVHinata Shippuden
p2833
I2258
sVYuri EX2
p2834
I2259
sVSymbiote spider-man
p2835
I2260
sVDoomsday
p2836
I2916
sVGuevara
p2837
I2262
sVChonrei W
p2838
I4237
sVKagami EX3
p2839
I4885
sVPossessed heita
p2840
I2264
sVRyu Master
p2841
I2265
sVHoly ken
p2842
I4112
sVRocket tank
p2843
I2266
sVDark ash
p2844
I3887
sVColossus mvc2 ex
p2845
I2267
sVNrvnqsr chaos
p2846
I2268
sVWyler
p2847
I2269
sVFukumen senshi
p2848
I4532
sVSolid snake
p2849
I2270
sVIron_miyako
p2850
I4376
sVYuri lowell
p2851
I2271
sVCirnoJ
p2852
I2272
sVCafelier
p2853
I2273
sVDis astranagant
p2854
I1313
sVDracula EX2
p2855
I4919
sVArc vp
p2856
I2275
sVSundown-kid
p2857
I3190
sVCrazy rugal
p2858
I2276
sVA ninja
p2859
I2277
sVKnyacki
p2860
I2278
sVGoa
p2861
I2279
sVAkaitsuki EX
p2862
I2280
sVFlan
p2863
I4870
sVBattler
p2864
I2281
sVUmvc_suika
p2865
I2282
sVGriffon
p2866
I2283
sVBloodia EX2
p2867
I2284
sVGundam epyon
p2868
I2528
sVOda nobunaga EX
p2869
I2535
sVZero maverick hunter
p2870
I2585
sVSuper3 goku
p2871
I2288
sVRaidou
p2872
I4074
sVLf2 - firen
p2873
I2289
sVM_canon
p2874
I3910
sVAsuka
p2875
I2293
sVYukari ex
p2876
I2294
sVSoldier
p2877
I2295
sVA-agito
p2878
I2296
sVKurahashi tokimi
p2879
I2297
sVAo-takagami
p2880
I2298
sVSpiderman
p2881
I2299
sVHarpagos
p2882
I2300
sVValgar reinhart
p2883
I1253
sVUltimat goku
p2884
I2922
sVKim
p2885
I2301
sVDoom vega
p2886
I2302
sVMisaka mikoto
p2887
I2146
sVMyuu
p2888
I4523
sVToejam
p2889
I2304
sVYu asuka
p2890
I2305
sVWarewarenocolibri
p2891
I3706
sVSub-zero EX3
p2892
I4312
sVJill ex
p2893
I2307
sVCaptain marvel
p2894
I2308
sVGagi_fe
p2895
I2309
sVMaxim kischine
p2896
I3630
sVFelix the cat
p2897
I4276
sVCyndaquil
p2898
I2311
sVDeath
p2899
I4612
sVAkane satomura EX2
p2900
I4120
sVRuputna
p2901
I2313
sVStern
p2902
I3631
sVBlockhead
p2903
I2314
sVArrange_marisa
p2904
I2315
sVRed arremer
p2905
I3632
sVUltron
p2906
I3839
sVVega
p2907
I2317
sVEvil ryu sf3
p2908
I2318
sVJagi sama
p2909
I2319
sVSaltdonald
p2910
I2320
sVChiel
p2911
I2321
sVDr.doom
p2912
I4554
sVEiki-judgment
p2913
I2322
sVAdon ca
p2914
I2323
sVUndead jason voorhees
p2915
I2324
sVCustom-bsreimu
p2916
I4059
sVSaiyaman
p2917
I3423
sVRyu
p2918
I3842
sVSaizo
p2919
I2757
sVMegaman EX2
p2920
I2328
sVOswald_deadly
p2921
I4768
sVGillius
p2922
I846
sVDudley streets
p2923
I1939
sVMysty_monkstyle
p2924
I2209
sVWalkyrie EX2
p2925
I4602
sVStupid little drill tank
p2926
I2332
sVPocket Akuma
p2927
I2333
sVGoku ssj3 EX2
p2928
I2800
sVTobikage
p2929
I2335
sVHirasawa_yui
p2930
I4155
sVExtrahighfairy
p2931
I2336
sVSakaki
p2932
I2337
sVRed skull
p2933
I2338
sVYagami iori
p2934
I2339
sVMad dog
p2935
I2340
sVCheddah gief
p2936
I1646
sVMr.big EX3
p2937
I2342
sVGodman
p2938
I2343
sVNot so hyper commando team
p2939
I1916
sVZombies
p2940
I4431
sVKazama sogetsu
p2941
I3638
sVLeonardo EX
p2942
I2896
sVKarla
p2943
I2346
sVShizuha aki
p2944
I4434
sVCrazy-shin
p2945
I4522
sVSilver surfer
p2946
I2347
sVGustab m.
p2947
I2348
sVShiki vp
p2948
I700
sVSuper big bird
p2949
I4769
sVRatix
p2950
I2350
sVTurbo bonkers
p2951
I2351
sVCody(neoneo)
p2952
I1012
sVYuki kushinada
p2953
I4716
sVNeco-arc chaos
p2954
I2354
sVRyougi_shiki
p2955
I2355
sVShin gouki ssf'2 plus
p2956
I2356
sVIronfist ryu
p2957
I2357
sVBass
p2958
I2358
sVDaimon
p2959
I2359
sVSuper-japanese
p2960
I2934
sVSieger EX2
p2961
I2360
sVDoragory
p2962
I4618
sVSekkimaru
p2963
I1971
sVKill bill uma-ex
p2964
I2361
sVGod tewi
p2965
I4519
sVKim kap hwan
p2966
I220
sVS-yuuka
p2967
I4575
sVHinako 2k3
p2968
I3523
sVYuyuko & youmu
p2969
I2362
sVMagaki xi
p2970
I2363
sVKunagi
p2971
I4046
sVKyosuke
p2972
I2364
sVArrange_misuzu
p2973
I4238
sVPooh
p2974
I2365
sVSakuya.brando
p2975
I2366
sVMagic dunker EX
p2976
I2367
sVEtrigan
p2977
I2368
sVNash shadow
p2978
I2369
sVPatchouli_swr
p2979
I2370
sVAmi ex
p2980
I2371
sVShinshi
p2981
I4118
sVRydia of mist
p2982
I2372
sVSon goku EX3
p2983
I3646
sVUltraman agul
p2984
I2373
sVTwitch waifu chan-hd
p2985
I2374
sVNyoki
p2986
I3512
sVUminin
p2987
I2375
sVDecade as kuuga
p2988
I2376
sVJon talbain
p2989
I3886
sVThe Colonel
p2990
I4129
sVZako-dan
p2991
I3124
sVKirikou
p2992
I2380
sVArcadboy
p2993
I2381
sVRazor claws
p2994
I2382
sVMageko
p2995
I2263
sVDaimajin
p2996
I2383
sVDivekick kfm
p2997
I2384
sVIron man z
p2998
I2385
sVKagami EX2
p2999
I2386
sVMokou fujiwara EX3
p3000
I2388
sVMiopinja
p3001
I4641
sVChun-li jj
p3002
I2389
sVRalf EX3
p3003
I1610
sVSheana
p3004
I4852
sVUesugi kensin EX G
p3005
I2391
sVYukkuriyukarin
p3006
I2392
sVPaul phoenix
p3007
I2393
sVGezorah
p3008
I2394
sVEvil ryu
p3009
I3237
sVKobuta
p3010
I3629
sVTourney pikachu
p3011
I2396
sVRoyal air king EX3
p3012
I3953
sVJuggy
p3013
I2397
sVSonic mvc
p3014
I4359
sVYuri di aaaaaa ex
p3015
I4049
sVAlter wind
p3016
I2399
sVKongou
p3017
I44
sVGliformoth EX3
p3018
I2400
sVElque
p3019
I3832
sVAlice margatroid
p3020
I3963
sVFoz
p3021
I2402
sVAnimus EX3
p3022
I2403
sVMami
p3023
I2404
sVReptile EX3
p3024
I3654
sVEvil guire
p3025
I2406
sVAkatsuki
p3026
I2407
sVCci xiangfei
p3027
I3305
sVRock EX2
p3028
I3201
sVCaptain marvell
p3029
I4889
sVHoly flandre
p3030
I2410
sVMiko hd
p3031
I2411
sVCho-kichiku toki
p3032
I2412
sVSsj4 goten
p3033
I2413
sVUmvc_gouki
p3034
I2415
sVMaster marco
p3035
I2416
sVSyoh
p3036
I2417
sVShen EX
p3037
I2418
sVZeldia 0D
p3038
I2419
sVKagura
p3039
I2420
sVUzume
p3040
I2421
sVKaede kasiwagi
p3041
I4357
sVSimmon
p3042
I2423
sVHiziri
p3043
I2424
sVImouto
p3044
I2425
sVDonatello
p3045
I2426
sVKing_leo
p3046
I4779
sVRaizen
p3047
I2427
sVUltraman 1st
p3048
I2428
sVBionicles
p3049
I2429
sVHeihachi m
p3050
I2430
sVBrass
p3051
I2431
sVColonel sanders
p3052
I2432
sVFirebrand
p3053
I4922
sVTerry_ff3rb
p3054
I2433
sVMakoto mizoguchi
p3055
I2434
sVKing
p3056
I4426
sVJulius belmont
p3057
I2435
sVFighter
p3058
I4707
sVSakata gintoki
p3059
I4053
sVEvil ken
p3060
I1053
sVLipsyncher
p3061
I4658
sVTurn-x
p3062
I2438
sVJin O
p3063
I2439
sVPiccoloco
p3064
I4578
sVDark arcueid mk2
p3065
I2440
sVForte cross rockman.exe
p3066
I4611
sVMina EX2
p3067
I3660
sVHonda tadakatsu
p3068
I2442
sVMask the griffon
p3069
I2443
sVOmega god ryu
p3070
I2955
sVClark 98
p3071
I2445
sVKubikiri basara KOF
p3072
I4520
sVLuigi
p3073
I4244
sVMc hisui
p3074
I3517
sVEyedol
p3075
I2448
sVEvil donald
p3076
I2449
sVHaruno sakura
p3077
I4272
sVMegamami EX2
p3078
I4131
sVPetshop
p3079
I2451
sVMay(ac)
p3080
I2452
sVThe guy
p3081
I4744
sVKrusty
p3082
I2453
sVGeneral bush
p3083
I2957
sVUmbreon
p3084
I2455
sVMattrex
p3085
I2456
sVMiyako(coh)
p3086
I2457
sVK' dempsey
p3087
I2458
sVAkane tendo
p3088
I4436
sVSupreme gogeta
p3089
I4115
sVGen kiba
p3090
I2459
sVShiki Ryougi
p3091
I3548
sVDreamform sula
p3092
I4593
sVSuperman
p3093
I2461
sVMoonmillenniummon
p3094
I2462
sVMaria EX2
p3095
I2463
sVSasuke
p3096
I4736
sVGuldin EX2
p3097
I2464
sVOrochi tenko
p3098
I1241
sVStrong guy
p3099
I2465
sVK' EX3
p3100
I3683
sVKensuke kudou
p3101
I2466
sVP3 heroine
p3102
I2467
sVIceclimber
p3103
I2469
sVMajor alan dutch schaefer
p3104
I2470
sVCyrax umk3
p3105
I2471
sVHitsugaya
p3106
I2472
sVWar
p3107
I4660
sVYue EX3
p3108
I1027
sVSaki EX2
p3109
I1564
sVMusashi
p3110
I4021
sVGalford nrf
p3111
I2475
sVZankuro ex
p3112
I2476
sVIgniz scarlet
p3113
I2477
sVNoriko nijou
p3114
I2478
sVSailor moon EX2
p3115
I1859
sVWashizuka xi
p3116
I3694
sVElongated man
p3117
I4680
sVYusha
p3118
I1841
sVYoshitora
p3119
I4563
sVDoruge
p3120
I3568
sVGochack bigbomb
p3121
I4738
sVKyoko
p3122
I2482
sVFordy-z
p3123
I2484
sVRogue
p3124
I2485
sVShin gouki EX2
p3125
I2486
sVJin chonrei
p3126
I2487
sVMorrigan nxc
p3127
I2488
sVPepito EX2
p3128
I2489
sVWreck-it ralph EX3
p3129
I2841
sVBaby bonnie hood EX3
p3130
I4189
sVLink tloz
p3131
I2491
sVAxel 'hawk' stone
p3132
I4645
sVRobo-mizuchi
p3133
I2492
sVKaguya houraisan
p3134
I2493
sVKim EX
p3135
I1383
sVUndeadhero
p3136
I2495
sVOrochi
p3137
I4781
sVTokiko
p3138
I2497
sVG rugal
p3139
I3006
sVSauri
p3140
I2581
sVZoma
p3141
I2498
sVHana akuma
p3142
I2499
sVCueca
p3143
I2500
sVKenshiro 64
p3144
I4910
sVKungfumithra
p3145
I2501
sVBig ptolemaic tank
p3146
I4846
sVWing.0
p3147
I4380
sVSupergirl
p3148
I2502
sVSailor saturn
p3149
I2503
sVKing lion ngbc
p3150
I4003
sVFubuki
p3151
I2504
sVTron Bonne MVC2
p3152
I4705
sVMouri alice
p3153
I2505
sVSatsuki yumiduka EX
p3154
I4065
sVOld
p3155
I2507
sVBeavis EX3
p3156
I2508
sVBeavis EX2
p3157
I2509
sVVirginia
p3158
I2601
sVSaint kyo
p3159
I4285
sVShoujo genkai
p3160
I2511
sVGarner
p3161
I4914
sVMaster sakura
p3162
I2512
sVLiu yungmie
p3163
I3482
sVMichael jackson
p3164
I3382
sVCvs sakura
p3165
I2513
sVRin_tohsaka
p3166
I3891
sVEvil reiji oyama
p3167
I1191
sVMaster hand
p3168
I2515
sVRobo-sol
p3169
I4105
sVMudman
p3170
I4165
sVOkina
p3171
I2516
sVKyo xi
p3172
I2517
sVZeldia
p3173
I4184
sVOyashiro_chie
p3174
I104
sVPikkon
p3175
I4726
sVCola
p3176
I2519
sVKotone
p3177
I3659
sVAngry video game nerd
p3178
I3671
sVJinmen
p3179
I4341
sVCci jhun EX3
p3180
I2522
sVYashiro nanakase EX3
p3181
I2523
sVArcueid
p3182
I2524
sVMisty
p3183
I3672
sVRemilia scarlet
p3184
I132
sVSabretooth
p3185
I4210
sVMukai
p3186
I4286
sVElena_n
p3187
I147
sVLee Cosplay
p3188
I4377
sVRocky balboa
p3189
I2530
sVTanya
p3190
I2531
sVDaniel
p3191
I2532
sVGrebam
p3192
I2483
sVSlash
p3193
I2534
sVUltra super3 goku
p3194
I2286
sVThe scyther
p3195
I4387
sVYue CC
p3196
I2536
sVIori 71113
p3197
I2537
sVTwelve EX3
p3198
I2538
sVIkki
p3199
I2539
sVRyu hell
p3200
I2540
sVHotaru Futaba J
p3201
I2541
sVJohnny cage EX
p3202
I4582
sVKiriko
p3203
I2542
sVTwintail
p3204
I2543
sVLast adult goku
p3205
I2544
sVJames jerkenson
p3206
I4517
sVMysterious budo
p3207
I2545
sVChizuruxxx
p3208
I2546
sVChiyo mihama EX
p3209
I4005
sVZoffy
p3210
I3674
sVReal Ryu
p3211
I2548
sVCody_a
p3212
I2549
sVThalia
p3213
I2550
sVLambdadelta
p3214
I2551
sVRangle EX3
p3215
I2552
sVGenyew
p3216
I4108
sVRock(mkii)
p3217
I1845
sVScarlet dragon EX3
p3218
I2554
sV9
p3219
I2555
sVUmvc_aya
p3220
I258
sVHakureimu
p3221
I2557
sVIbuki sf3
p3222
I744
sVMienshao
p3223
I4444
sVExistence-less
p3224
I3721
sVLemeza
p3225
I2559
sVMajic-pot
p3226
I4263
sVThunder mask
p3227
I2976
sVKongman
p3228
I2561
sVThierry henry
p3229
I2562
sVAmato
p3230
I2563
sVFullmoon_suika
p3231
I2564
sVMr burns
p3232
I4636
sVGreen lantern
p3233
I2565
sVThe world-dio EX3
p3234
I2566
sVMaster taekuk
p3235
I2567
sVSanosuke
p3236
I4510
sVRaphael
p3237
I4694
sVMr. bean
p3238
I2568
sVScopedog
p3239
I2569
sVThwomp
p3240
I2570
sVDlanor a. knox
p3241
I327
sVSkapokan
p3242
I2572
sVClawbear
p3243
I337
sVW buffalo_n
p3244
I2574
sV009
p3245
I4161
sVHammer bro
p3246
I2575
sVHatate_himekaidou
p3247
I2576
sVAtusi
p3248
I2578
sVMr.karate EX2
p3249
I4723
sVKars
p3250
I2579
sVMedamaoyaji
p3251
I2580
sVNabeatu
p3252
I4591
sVGully
p3253
I4142
sVNeyufeulle
p3254
I2583
sVAkira
p3255
I303
sVMystic gohan
p3256
I420
sVOchamaro
p3257
I4691
sVIronpatriot
p3258
I2586
sVSol
p3259
I2587
sVWafu
p3260
I2588
sVRinrin
p3261
I2589
sVAkira kogami
p3262
I2661
sVRay mcdogall
p3263
I2591
sVRemilya scarlet
p3264
I2592
sVGiro
p3265
I2593
sVHikaru EX3
p3266
I4351
sVCarol stanzack
p3267
I3925
sVTrap master makoto
p3268
I4855
sVArmgon
p3269
I2595
sVBlue ranger
p3270
I4557
sVEdonokiba
p3271
I2596
sVFang
p3272
I2597
sVShingo 98
p3273
I4793
sVCharizard
p3274
I2598
sVLenalee-mvc EX3
p3275
I2599
sVMasako(emanon)
p3276
I2600
sVAk man
p3277
I4685
sVPredator
p3278
I2510
sVChipp zanuff h
p3279
I2602
sVK.m.mioh
p3280
I3996
sVMora_g
p3281
I1554
sVTingle
p3282
I2604
sVKitaro EX3
p3283
I2605
sVGotenks ssj
p3284
I2606
sVAlvein
p3285
I4022
sVZeroko EX3
p3286
I2607
sVE nagamori
p3287
I2608
sVSpawn CVG
p3288
I4872
sVTam tam
p3289
I2610
sVSento kun
p3290
I2611
sVFelicia EX2
p3291
I2612
sVPuss in boots
p3292
I2613
sVBlack demonica
p3293
I3686
sVTnok
p3294
I2615
sVKogasa_f
p3295
I3943
sVRorschach
p3296
I2616
sVJurane
p3297
I4500
sVArcbeetle
p3298
I2617
sVAyumu kasuga EX
p3299
I4446
sVNero DMC4
p3300
I4622
sVNaitou
p3301
I2619
sVAbui
p3302
I2620
sVBlaque
p3303
I562
sVMike haggar EX3
p3304
I2622
sVOmega tiger woods
p3305
I2623
sVTarantulra_dfo
p3306
I4277
sVDevil jin
p3307
I1902
sVDon patch
p3308
I2624
sVAwakened torao
p3309
I2625
sVAioria de leo
p3310
I4180
sVSilvermoon
p3311
I2627
sVChipp
p3312
I2628
sVClassic batman
p3313
I2629
sVRip_saber
p3314
I2630
sVAlien mefilas
p3315
I2631
sVArmor jack
p3316
I4572
sVMarshal law
p3317
I2632
sVTsu-
p3318
I2633
sVYoshi EX2
p3319
I1498
sVSailor mars k
p3320
I580
sVAndore jr
p3321
I2636
sVThor
p3322
I2637
sVGold warmachine
p3323
I2638
sVBilly
p3324
I655
sVYoukanman
p3325
I3478
sVRoyal guard
p3326
I667
sVLucario
p3327
I2641
sVKracko
p3328
I673
sVKanaka
p3329
I2643
sVReika murasame EX
p3330
I4623
sVSyllin
p3331
I2644
sVAcguy
p3332
I2645
sVMitsuji tanimati
p3333
I2646
sVNanmushi
p3334
I3901
sVF.o.e.
p3335
I4015
sVTin star
p3336
I2648
sVBlack rabite
p3337
I2649
sVChill penguin
p3338
I4343
sVTakiyasya
p3339
I4267
sVBlubberman
p3340
I724
sVSuper-8
p3341
I2651
sVJack in dia
p3342
I2652
sVShimako
p3343
I2653
sVArrange_mishio
p3344
I2995
sVYawara
p3345
I2655
sVOmega Woods
p3346
I2656
sVMeiya
p3347
I2657
sVHugo EX
p3348
I3959
sVTallgeese
p3349
I4409
sVKirara
p3350
I1647
sVGhost rider
p3351
I4490
sVAndroid 16 ai-barbatos
p3352
I4668
sVAndo
p3353
I803
sVMariko konjou
p3354
I4562
sVJoe EX3
p3355
I2662
sVShintaro
p3356
I4317
sVNogami_aoi
p3357
I4204
sVRyu 98
p3358
I2664
sVKaisensei ken
p3359
I840
sVChildre inarabitta
p3360
I2666
sVZangeese EX2
p3361
I847
sVBlaze EX2
p3362
I2206
sVJack13
p3363
I860
sVAndy
p3364
I2669
sVEx adamas
p3365
I2670
sVNatalia glinka
p3366
I465
sVGenkai
p3367
I4900
sVChichi EX3
p3368
I871
sVBonegolem
p3369
I2673
sVBasilisk-s[0.98] EX3
p3370
I4170
sVHyper neo-kamek
p3371
I2675
sVWiler
p3372
I2676
sVSailor mercury k
p3373
I412
sVSankuro yorozu
p3374
I3942
sVYami yugi
p3375
I2679
sVLambda 11
p3376
I2680
sVTetsu yatoji
p3377
I2681
sVK'
p3378
I3244
sVCar navi EX
p3379
I2682
sVBomber man
p3380
I4655
sVSakura EX2
p3381
I2683
sVMai_shiranui EX3
p3382
I4287
sVHol horse & boingo
p3383
I4505
sVTiblekun
p3384
I2685
sVOdie
p3385
I954
sVLin EX3
p3386
I2687
sVGodmars
p3387
I2688
sVApollo
p3388
I180
sVModel z
p3389
I2690
sVMaria EX
p3390
I3728
sVEiji mk
p3391
I985
sVChen-mao
p3392
I2693
sVFrankenstein
p3393
I2694
sVColossus
p3394
I2695
sVSs6 renfa EX2
p3395
I2696
sVMr.karate
p3396
I2697
sVToguro 100%
p3397
I2698
sVBoggy
p3398
I4104
sVShin akuma
p3399
I1051
sVDonkey kong EX2
p3400
I2700
sVTu shou
p3401
I2048
sVParasite
p3402
I3964
sVLotus master
p3403
I2702
sVIggy
p3404
I4568
sVDhaos RD
p3405
I2577
sVJado
p3406
I4576
sVJimmy
p3407
I3458
sVGohan school
p3408
I1093
sVGambit MVC2
p3409
I1098
sVRoa
p3410
I4372
sVIzanagi
p3411
I2707
sVKy Kiske
p3412
I1106
sVMia touma
p3413
I2709
sVLucifer 2
p3414
I2710
sVKaf ka
p3415
I2711
sVBurai_yamamoto
p3416
I4464
sVLion
p3417
I3894
sVYusuke urameshi
p3418
I2714
sVPower lyzer
p3419
I2715
sVV2ab
p3420
I2716
sVKorokoromushi
p3421
I4877
sVDorothy
p3422
I4676
sVHonki-ultraman
p3423
I4712
sVStarsavior
p3424
I4084
sVAkari kamigishi EX3
p3425
I1146
sVHeika-ss
p3426
I2721
sVNeco
p3427
I4177
sVShaq
p3428
I4284
sVRyuuguu rena
p3429
I2723
sVOshawott
p3430
I3708
sVEnegori
p3431
I2725
sVParace
p3432
I2726
sVShingetter1
p3433
I3032
sVLaststarman
p3434
I4789
sVRascal
p3435
I1197
sVFygar
p3436
I2728
sVBurnie
p3437
I2729
sVHal jordan
p3438
I2730
sVBloo xiii
p3439
I2731
sVSula
p3440
I2732
sVKyo_99xi
p3441
I2733
sVMeteor
p3442
I2734
sVFrankenroid
p3443
I316
sVGeese_ff3rb
p3444
I2735
sVRobin_mask
p3445
I2736
sVProtectos
p3446
I4897
sVSazabi EX3
p3447
I1246
sVSupermario64
p3448
I2738
sVMiyako arrange abyss
p3449
I4413
sVGarmraid
p3450
I3205
sVLf2 - bat
p3451
I4356
sVRatking
p3452
I2740
sVEtomo shuko EX3
p3453
I4031
sVBatgirl
p3454
I4501
sVMorrigan Aensland
p3455
I2741
sVClonekyo xi
p3456
I2742
sVVulture
p3457
I2743
sVKill bill uma
p3458
I2744
sVKaonasi
p3459
I4442
sVChronoforce
p3460
I2746
sVCho-kichiku masamune EX3
p3461
I2747
sVCm punk
p3462
I2748
sVBoring sdk shiina yuya
p3463
I3999
sVKarin CVS
p3464
I1327
sVShantotto
p3465
I2749
sVDante D4
p3466
I4078
sVRyu EX3
p3467
I2750
sVMasked rider 1st
p3468
I1303
sVBlue blood
p3469
I2752
sVWonder boy shion
p3470
I2753
sVMeiya_striker
p3471
I2665
sVSaki mitonoya
p3472
I2755
sVKing kong
p3473
I2756
sVMorph
p3474
I4848
sVDeadpool EX
p3475
I2758
sVHamtaro
p3476
I4482
sVThawk sfa
p3477
I2760
sVKung fu fiunn
p3478
I2762
sVKuanyinshen
p3479
I4746
sVA-rock
p3480
I4683
sVHyper kagami
p3481
I2764
sVLyzer
p3482
I2765
sVSyouzan matsuo
p3483
I2766
sVK-series
p3484
I2767
sVRen mizusaka
p3485
I2768
sVAura
p3486
I2769
sVKilyousuke
p3487
I2770
sVChaka EX3
p3488
I2771
sVJohann EX3
p3489
I2772
sVKoneko
p3490
I2773
sVBoulma
p3491
I4370
sVJyubei yagyu
p3492
I2774
sVLavos spawn
p3493
I4858
sVThe red skull
p3494
I2775
sVSuper #13
p3495
I1403
sVMetalgear rex
p3496
I2777
sVGeneral_l
p3497
I1667
sVJ'onn j'onnz
p3498
I2329
sVSpongebob
p3499
I4318
sVTwitch waifu chan-sd
p3500
I2779
sVElza kanagusuku
p3501
I2780
sVAkaitsuki
p3502
I3409
sVPiccolo
p3503
I4701
sVSenna
p3504
I2582
sVEvil ken ssf'2 plus
p3505
I1346
sVNao EX3
p3506
I4741
sVPesoguin
p3507
I2782
sVStrawbelly jam
p3508
I2330
sVMizuki EX2
p3509
I1462
sVM. bison
p3510
I3945
sVAngel ryu
p3511
I4627
sVKrillin
p3512
I421
sVFamardy
p3513
I2787
sVAlien borg
p3514
I4620
sVSara_cat EX
p3515
I2788
sVSophitia
p3516
I1487
sVBernkastel
p3517
I1499
sVShion
p3518
I4711
sVAlcott
p3519
I2791
sVNacht_jaeger1.29
p3520
I2792
sVHige
p3521
I4862
sVJeff howard
p3522
I4024
sVLeon EX
p3523
I1082
sVDare devil
p3524
I4530
sVScene
p3525
I4675
sVHoujuu nue H
p3526
I2794
sVGuldin
p3527
I4269
sVPeketo
p3528
I3991
sVO_flan-var.2
p3529
I2795
sVYukino
p3530
I2796
sVBlack-rock_shooter
p3531
I2422
sVHatchetman
p3532
I1547
sVGuile machine
p3533
I2799
sVMegatron
p3534
I4807
sVKuwabara
p3535
I1555
sVJuggernaut ex
p3536
I2802
sVMisaka mikoto EX2
p3537
I2684
sVThe dazzler
p3538
I3958
sVPulunis
p3539
I2804
sVRyu mvc1
p3540
I4487
sVNanase
p3541
I4371
sVMagaki EX2
p3542
I2805
sVChonshu EX3
p3543
I4469
sVRikku
p3544
I1599
sVRaphael EX
p3545
I2807
sVGarfield
p3546
I2808
sVCvs blaze
p3547
I1615
sVH-duolon
p3548
I2810
sVHiryu EX2
p3549
I2699
sVHan EX3
p3550
I2811
sVChie_rumiko
p3551
I2812
sVAkito(coh)
p3552
I2813
sVOuyang feng
p3553
I2814
sVAn ogre
p3554
I2815
sVMito_mashiro
p3555
I2816
sVRobo rock
p3556
I2817
sVKeine kamishirasawa(keln)
p3557
I2818
sVRuriko
p3558
I1660
sVCheng_fu
p3559
I4485
sVAntimage
p3560
I2820
sVAzteca
p3561
I2821
sVKanoko hosokawa
p3562
I2822
sVLight yagami
p3563
I2823
sVAnnoying orange
p3564
I473
sVSentry
p3565
I1697
sVDoppo orochi
p3566
I4447
sVH_gate_0350
p3567
I2826
sVHiei EX
p3568
I2026
sVWakko
p3569
I1709
sVGorilla
p3570
I4097
sVDante 4
p3571
I2830
sVToki hakurei
p3572
I2831
sVMazinger-z ex
p3573
I4136
sVYujiro-hanma
p3574
I2832
sVPeppercat
p3575
I947
sVStone_bonus
p3576
I4234
sVTrevor B
p3577
I2834
sVGeneral blue
p3578
I2835
sVKanae
p3579
I2836
sVFull armor ciel
p3580
I2837
sVThe nightmare
p3581
I4916
sVC-stm-00x
p3582
I4854
sVSabu EX3
p3583
I2838
sVMokou fujiwara
p3584
I1189
sVCc iron clara
p3585
I1774
sVLf2 - rudolf
p3586
I1778
sVPicurin
p3587
I2842
sVSf4 vega
p3588
I2843
sVAl
p3589
I4087
sVRikuo
p3590
I3897
sVHaruhi suzumiya
p3591
I4045
sVIria
p3592
I4332
sVUppercut
p3593
I2847
sVKyoshiro ex
p3594
I2341
sVD4 roll
p3595
I2849
sVImperfect cell
p3596
I2850
sVLf2 - henry
p3597
I2851
sVHwoarang
p3598
I2852
sVNecorsair
p3599
I2712
sVKanorin
p3600
I3785
sVRip Saber
p3601
I2854
sVHourai-car EX2
p3602
I2855
sVChina kohaku
p3603
I3955
sVNanoha tsukikage
p3604
I2856
sVNicola zaza
p3605
I4624
sVCyberdemon
p3606
I4471
sVGenma saotome
p3607
I2857
sVJin
p3608
I184
sVBospider
p3609
I4887
sVSaya(p_ai)
p3610
I4231
sVBrimstone
p3611
I2861
sVR-unagi
p3612
I3024
sVExtramyon
p3613
I4114
sVCarriage driver
p3614
I4765
sVTiger mm
p3615
I4688
sVOrochi akuma
p3616
I2864
sVMultiple man
p3617
I2865
sVNoroko EX3
p3618
I2866
sVMamizou EX
p3619
I4559
sVNash
p3620
I3026
sVAyu tsukimiya
p3621
I2868
sVRelly
p3622
I435
sVFreddie mercury
p3623
I2618
sVMtguile
p3624
I2870
sVIceman cota
p3625
I2871
sVAndy bogard rb
p3626
I2872
sVKoyomi mizuhara
p3627
I2873
sVLizardman
p3628
I4461
sVSho ryu
p3629
I2874
sVNoa
p3630
I4604
sVHakumen
p3631
I1305
sVGoddman batman
p3632
I3152
sVRekka
p3633
I1695
sVCyborg superman
p3634
I2877
sVRyousan gata patchouli
p3635
I2878
sVKenoh
p3636
I3944
sVQueen the spade
p3637
I4093
sVHisame shizumaru ex2
p3638
I2005
sVKinyo roadshow
p3639
I4592
sVAnd 18
p3640
I2881
sVKungfugirl uzuki
p3641
I3814
sVNeo meep140
p3642
I4824
sVHattori hanzou ph ai
p3643
I4821
sVTora shou
p3644
I2882
sVCius
p3645
I2883
sVLord zedd
p3646
I2884
sVAnother agito
p3647
I2055
sVGolgo13
p3648
I4874
sVAlpha candy
p3649
I2886
sVCrea-f
p3650
I322
sVBurger king
p3651
I4901
sVVictor ortega
p3652
I2888
sVMugetu
p3653
I2889
sVWarakia
p3654
I4427
sVThin nen
p3655
I2291
sVGrimace
p3656
I2891
sVSensei ken
p3657
I2088
sVYumina
p3658
I2893
sVFreedom
p3659
I4026
sVAnother cirno
p3660
I3302
sVBlack moth
p3661
I633
sVBig bear 0D
p3662
I2895
sVAsuta-san
p3663
I3730
sVYukkuri
p3664
I1281
sVBully in the launderette
p3665
I2898
sVKyo
p3666
I2899
sVBaruganodon_ex
p3667
I2900
sVKano EX
p3668
I4475
sVNazrin
p3669
I2902
sVDrdoom
p3670
I2689
sVMegaman.exe EX
p3671
I4079
sVSilversamurai
p3672
I2353
sVThe thing
p3673
I4082
sVKurorim
p3674
I2924
sVBalrog_a
p3675
I2904
sVKenshin uesugi
p3676
I2905
sVThe mask of ero
p3677
I4043
sVHaruka
p3678
I2907
sVTakumi hattori
p3679
I2908
sVAchamo
p3680
I2909
sVShiki tohno iqs
p3681
I4344
sVTouko matsudaira
p3682
I2352
sVCammy EX3
p3683
I4091
sVMad grinder
p3684
I2344
sVRenji
p3685
I2911
sVGustavo
p3686
I4034
sVAlena
p3687
I4761
sVIrori
p3688
I2229
sVSuper gotenks
p3689
I3734
sVMaster god ryu
p3690
I2241
sVRax coswell
p3691
I4400
sVKureha EX3
p3692
I2915
sVMimizuku_teacher
p3693
I4141
sVDemiurgos
p3694
I1218
sVBlue eyes white karin
p3695
I4463
sVJack-hamma
p3696
I2918
sVGoenitz
p3697
I4299
sV(sman) EX3
p3698
I2919
sVVan platin
p3699
I2920
sVMecha-gorilla
p3700
I2921
sVMinis mahn
p3701
I4032
sVDown
p3702
I2923
sVOnslaught 2
p3703
I2925
sVJagi
p3704
I2926
sVLeo bradlay
p3705
I2927
sVRanmaru
p3706
I4013
sVJam(ac)
p3707
I2929
sVEvil Vegeta
p3708
I4888
sVHonda asuka
p3709
I2931
sVNests-rugal
p3710
I2932
sVZan-b
p3711
I2933
sVBarom1
p3712
I4918
sVOro
p3713
I4385
sVGoku transformer
p3714
I2930
sVLink
p3715
I2935
sVRock EX
p3716
I2936
sVGhost kick
p3717
I2937
sVOrochi vega
p3718
I2938
sVGulpfer
p3719
I3904
sVChunli 3so
p3720
I2739
sVKyo-1
p3721
I2940
sVOrc
p3722
I2941
sVLina
p3723
I2942
sVDoraemon EX3
p3724
I353
sVAndroid 16
p3725
I2944
sVCyborg_t-8p
p3726
I2945
sVBousou oni-chiduru K
p3727
I2946
sVGiant jackson
p3728
I1358
sVAnother suwako
p3729
I2331
sVSkiboots
p3730
I4595
sVImr-765-s_kisaragi
p3731
I2948
sVLight
p3732
I894
sVToyotomi hideyoshi
p3733
I2951
sVMars people
p3734
I2952
sVTrunks ssj4
p3735
I2953
sVFrank archer
p3736
I2954
sVAndroid 18
p3737
I2444
sVCyber shredder
p3738
I4621
sVLf2 - louis
p3739
I3826
sVUltra ssj5 vegeta
p3740
I2958
sVYun
p3741
I2959
sVKenshi ex
p3742
I4235
sVYue
p3743
I2960
sVDeluxe adon
p3744
I1995
sVMr. game & watch plus
p3745
I4640
sVKuando
p3746
I3419
sVAmakusa
p3747
I2962
sVKirisima kyoko
p3748
I2963
sVYukari
p3749
I4373
sVWave man
p3750
I1683
sVSpin youmu
p3751
I2965
sVHeavy rob
p3752
I2966
sVDeath13 EX3
p3753
I2967
sVFlan ex
p3754
I2969
sVAthena fake
p3755
I2970
sVKinopio
p3756
I4437
sVLion_gunta
p3757
I306
sVS.clara
p3758
I195
sVSayuri kurata
p3759
I4491
sVWu-ling
p3760
I2973
sVIshtar
p3761
I1402
sVKefka palazzo
p3762
I2975
sVEliza EX
p3763
I2560
sVZero Hotaru
p3764
I2977
sVGotenks gt
p3765
I2978
sVAlvin the chipmunk
p3766
I2979
sVOrsted
p3767
I3044
sVConker
p3768
I2981
sVKusanagi EX
p3769
I976
sVKaname madoka EX
p3770
I3809
sVSuper-Mario
p3771
I604
sVHol 'butt king' funtimes
p3772
I2984
sVDq5-daughter
p3773
I3379
sVP-ciel
p3774
I2985
sVSub-zero mk2
p3775
I2947
sVShadow dio
p3776
I4061
sVAkari
p3777
I2987
sVTiti
p3778
I4101
sVYoko yuki
p3779
I2990
sVNorimaro EX3
p3780
I2991
sVReika EX3
p3781
I2992
sVNimuge president
p3782
I4224
sVHisui
p3783
I2993
sVT-h-m-a
p3784
I2994
sVNico
p3785
I2660
sVTerryman
p3786
I2996
sVQbee c.v.
p3787
I2997
sV2nd death star
p3788
I2998
sVStrider hiryu
p3789
I2999
sVKira
p3790
I3000
sVAgrias
p3791
I4268
sVBerserker EX
p3792
I3001
sVScorpion CVW
p3793
I4126
sVEvil dooby dummy
p3794
I1707
sVCoil
p3795
I3003
sVYuri_96
p3796
I4632
sVDeath ogre
p3797
I3004
sVBlanka
p3798
I373
sVSieger
p3799
I4296
sVEdward newgate
p3800
I3007
sVHazama
p3801
I3008
sVGeisya
p3802
I452
sVBurnin' leo
p3803
I3010
sVApe man
p3804
I3749
sVShiki_kageya
p3805
I3370
sVH_yujiro
p3806
I3793
sVWildcat
p3807
I3012
sVSs6 rinrin
p3808
I193
sVJurarus
p3809
I4130
sVDrunken master
p3810
I3014
sVSpelunker
p3811
I3015
sVKarnov ex
p3812
I3016
sVWangchang EX
p3813
I3652
sVSion tatari EX
p3814
I4577
sVScharlachrot
p3815
I393
sVPocket Felicia
p3816
I3017
sVPyro
p3817
I3018
sVPandon fe
p3818
I3019
sVDonaiya
p3819
I4558
sVKyoso(n-cube ai)
p3820
I3020
sVHol horse EX
p3821
I3021
sVInjya
p3822
I3022
sVNakoruru ex EX3
p3823
I3023
sVTalonarten
p3824
I2862
sVKim hoon EX
p3825
I3025
sVYurung
p3826
I2867
sVZero Cloud
p3827
I3027
sVHaruka_amami
p3828
I3028
sVOgre
p3829
I3029
sVWolfgang krauser EX
p3830
I3030
sVAlbion
p3831
I3031
sVUsada hikaru
p3832
I4828
sVTao jun EX
p3833
I2192
sVRev saizo
p3834
I4794
sVBlizzard
p3835
I3033
sVKaname madoka
p3836
I3034
sVMecha dragon
p3837
I2906
sVMorgiana EX2
p3838
I3036
sVMakoto nanaya
p3839
I1341
sVIbuki suika nightmare
p3840
I3037
sVZenith
p3841
I3038
sVMoguera
p3842
I4903
sVMinmin
p3843
I3039
sVChris_gb
p3844
I3040
sVAracne de tarantula
p3845
I4699
sVNeko
p3846
I4016
sVBaki-hanma ex
p3847
I3041
sVWong fei hung
p3848
I4241
sVSylphie
p3849
I4025
sVRockman
p3850
I3043
sV2ban-tan
p3851
I2980
sVYoung Heihachi
p3852
I3045
sVYuki fujiwara
p3853
I3046
sVCassius bright
p3854
I3047
sVAlpaca
p3855
I3390
sVMasaki anzu EX3
p3856
I3049
sVCondor
p3857
I4528
sVYoriko-mvc EX3
p3858
I3050
sVAlex mercer
p3859
I4328
sVAgony
p3860
I4042
sVKaori
p3861
I3051
sVDiokles
p3862
I1852
sVCliff-tsunade-godaime
p3863
I3053
sVNoah
p3864
I4851
sVCchouou
p3865
I3054
sVByakuya kuchiki
p3866
I1898
sVYako_katsuragi
p3867
I4515
sVSonozaki_shion
p3868
I3057
sVOnslaught 1st
p3869
I3731
sVGato ex
p3870
I4226
sVDate masamune
p3871
I4894
sVRosie
p3872
I3058
sVAoko
p3873
I3096
sVRyoko(mugen)
p3874
I3060
sVMaat
p3875
I4199
sVTukuyo
p3876
I3061
sVMetaknight
p3877
I3062
sVKusanagi
p3878
I3063
sVTas_ken
p3879
I4786
sVBloody flandre
p3880
I3065
sVAsamiya saki x
p3881
I3066
sVJo jo
p3882
I3067
sVPlatinum the trinity
p3883
I3068
sVJedah
p3884
I3069
sVHouoh EX
p3885
I3070
sVAgrias BC
p3886
I4229
sVRbff master geese
p3887
I3072
sVYacopu
p3888
I3073
sVShinjuro
p3889
I3074
sVEko
p3890
I3075
sVPorky minch
p3891
I3076
sVRuili EX3
p3892
I1842
sVPocket Ken
p3893
I3077
sVRyu sf3
p3894
I1117
sVTodo EX
p3895
I3079
sVShin scrub ken
p3896
I4066
sVSuper3 goku EX3
p3897
I3080
sVMudman ngbc
p3898
I3081
sVQ
p3899
I3082
sVKendo&kyudo
p3900
I3083
sVKoryu
p3901
I3084
sVNatsu
p3902
I3239
sVSakazaki ryo
p3903
I3986
sVSpider-man 2099
p3904
I800
sVRigby
p3905
I3087
sVKazama sogetsu EX3
p3906
I3088
sVShrek
p3907
I3089
sVScarlet dragon
p3908
I3090
sVAner rolange
p3909
I3091
sVRock of spirit
p3910
I3092
sVSuperbot
p3911
I4289
sVThe fabled sagileocorn
p3912
I3093
sVReptile
p3913
I3094
sVChibi kuroko
p3914
I2496
sVFamily dog
p3915
I3095
sV94_flan
p3916
I3059
sVPerfectakishimai 2
p3917
I2982
sVCrystal
p3918
I3909
sVKira daidoji
p3919
I3097
sVBoring kagekiyo
p3920
I2594
sVKid trunks
p3921
I3099
sVSuperboy
p3922
I3100
sVVergil EX3
p3923
I3766
sVRain mk2
p3924
I4121
sVLion magnus
p3925
I3102
sVRoza
p3926
I3103
sVShikamaru
p3927
I4587
sVShadow lady
p3928
I3104
sVAhojingod
p3929
I3105
sVFaust(ac)
p3930
I3106
sVHisui aa
p3931
I3107
sVMichelangelo 0d
p3932
I4472
sVRegina
p3933
I4503
sVYadamon
p3934
I3109
sVAkiba
p3935
I3110
sVAleti
p3936
I3111
sVSvc genjyuro
p3937
I4546
sVChange dragon
p3938
I2801
sVRx-78-2 gundam
p3939
I2378
sVAya
p3940
I3115
sVSagat SF4
p3941
I4057
sVHoppy
p3942
I3116
sVBlaziken
p3943
I449
sVJa-koh
p3944
I3118
sVOmega EX
p3945
I4643
sVKagetsura
p3946
I3119
sVPhysalis
p3947
I3120
sVPolon
p3948
I4183
sVFinal
p3949
I4815
sVGuillotine gen
p3950
I3121
sVFreeman_n
p3951
I3122
sVImit ultraman
p3952
I1125
sVGod gundam
p3953
I1114
sVEve silvan
p3954
I4088
sVBlossom DG
p3955
I4102
sVToguro 30%
p3956
I4233
sVJyuzumaru
p3957
I3126
sVBoss gustab m.
p3958
I3127
sVYuiran
p3959
I4195
sVAsagi asagiri
p3960
I3128
sVRick
p3961
I3129
sVPrometheus
p3962
I3130
sVKusanagi EX3
p3963
I4205
sVSquall
p3964
I3131
sVWaha- EX3
p3965
I3132
sVGundamexia
p3966
I3133
sVGori
p3967
I3071
sVBristol-d
p3968
I3134
sVLeona
p3969
I2447
sVHyper omega chaos hiryu
p3970
I3139
sVFat albert
p3971
I509
sVItoko_nagiai
p3972
I1726
sVAbyss_sh
p3973
I3138
sVDestoroyah_ex
p3974
I2527
sVDan 0d
p3975
I3140
sVCloud strife
p3976
I3141
sVHasshie
p3977
I3142
sVHinata
p3978
I4882
sVChibi suika
p3979
I4813
sVShen xi
p3980
I4416
sVSatsuki shindou
p3981
I3143
sVLittle busters!
p3982
I3144
sVReiji
p3983
I77
sVKitanaitaru
p3984
I3146
sVUdonge_a
p3985
I4610
sVGliz
p3986
I3148
sVSissy
p3987
I4230
sVGod kula
p3988
I4750
sVEharu_ai
p3989
I4512
sVAdam
p3990
I3150
sVParagus
p3991
I3151
sVMother
p3992
I114
sVGaia EX3
p3993
I3153
sVHeihachi CVS
p3994
I3154
sVHawkman
p3995
I3155
sVEnlightened sun wu kong
p3996
I3156
sVAnakaris
p3997
I3157
sVRobin
p3998
I3158
sVSilver horns
p3999
I3988
sVSai
p4000
I3160
sVVp frey
p4001
I3161
sVLyndis EX
p4002
I3162
sVKonata
p4003
I3163
sVRazorclaws
p4004
I3164
sVCf-len
p4005
I3165
sVKakashi hatake
p4006
I3166
sVRydia EX3
p4007
I3167
sVRb2_geese
p4008
I3168
sVTeh ryu
p4009
I3169
sVGaia EX2
p4010
I3681
sVKill bill jhonny_mo
p4011
I3171
sVTeam nicktoon
p4012
I4457
sVWraith
p4013
I4393
sVChrome dome EX
p4014
I2327
sVUltimate weapon chise
p4015
I4800
sVEsmeralda
p4016
I3175
sVAner rolange EX3
p4017
I3176
sVRyuko2nd
p4018
I4331
sVKaede_hioh
p4019
I4052
sVEva-05
p4020
I3178
sVNamazu
p4021
I4363
sVCapsule monster
p4022
I3180
sVHanzo EX
p4023
I3181
sVEva-03
p4024
I3182
sVCoolseven
p4025
I4838
sVWolverine
p4026
I3183
sVBilly 'big bang' blitz
p4027
I3184
sVOriginal vega
p4028
I3185
sVCheng
p4029
I3186
sVD4?roll?
p4030
I1424
sVG-adelheid
p4031
I3188
sVTorozo
p4032
I3538
sVGyaban
p4033
I4590
sVMystic son gohan
p4034
I3191
sVOtane oume
p4035
I4227
sVPateta
p4036
I3192
sVSmoke mk2
p4037
I3193
sVPocket Morrigan
p4038
I4320
sVSilver samurai
p4039
I3194
sVAoc
p4040
I3195
sVA-lee
p4041
I3196
sVReimu-q
p4042
I1578
sVKaname
p4043
I3197
sVKohaku EX2
p4044
I3198
sVHyoga de cisne
p4045
I3199
sVNinja nwa
p4046
I3200
sVHei_f
p4047
I923
sVRock EX3
p4048
I3202
sVZabogar
p4049
I3611
sVG-akiha
p4050
I3203
sVMageko EX
p4051
I3689
sVKungFu Man
p4052
I4430
sVYoshi
p4053
I2290
sVMagneto mvc2
p4054
I3206
sVAselia
p4055
I3207
sVJupiter
p4056
I4339
sVMac os-x siam
p4057
I3209
sVFordy
p4058
I3210
sVDead vega
p4059
I2010
sVUnderdog
p4060
I4915
sVHelion z
p4061
I3211
sVAssiette
p4062
I3212
sVMizuki
p4063
I69
sVHarima
p4064
I4132
sVFernandeath 2
p4065
I3215
sVRobert945
p4066
I3216
sVKouryu
p4067
I4594
sVPacman
p4068
I3217
sVIce EX3
p4069
I3218
sVPikopiko EX3
p4070
I3219
sVZero Marrow
p4071
I2161
sVAty
p4072
I2326
sVMilitsa_patchouli
p4073
I3220
sVJohnny cage
p4074
I1836
sVMajin vegeta EX3
p4075
I2839
sVSenator
p4076
I3222
sVNanoha takamachi
p4077
I3223
sVRagna bloodedge
p4078
I2626
sVTerry bogard
p4079
I3753
sVMasked rider 555(emanon)
p4080
I3787
sVAlien metron
p4081
I3225
sVFinal zone boss s1
p4082
I3226
sVShin mr. karate
p4083
I4039
sVZabel ex
p4084
I3227
sVKula xiii
p4085
I4670
sVGreat gohan
p4086
I4251
sVNaruto kid
p4087
I4875
sVGehorsam
p4088
I3230
sVCyborg EX
p4089
I3231
sVKonan
p4090
I3232
sVKenshi 1p
p4091
I3233
sVInternational karateka
p4092
I3234
sVCho-kichiku masamune
p4093
I2104
sVCommode serika
p4094
I3236
sVSachiel
p4095
I3624
sVThe undertaker
p4096
I819
sVDokuo_ver1.39
p4097
I4493
sVSonia rotd
p4098
I2988
sVMasamichi oyama
p4099
I3240
sVJohnny bravo
p4100
I3241
sVVixen
p4101
I3242
sVThe Sailor Man
p4102
I2274
sVSilhouette
p4103
I641
sVIkadevil
p4104
I3245
sVMasaru_takahara
p4105
I3246
sVShitan uzuki
p4106
I3247
sVSonic EX2
p4107
I3248
sVPerfect storm x
p4108
I1373
sVDark order sol
p4109
I251
sVAya syameimaru
p4110
I2609
sVFreya diamond
p4111
I3251
sVSailor mars EX2
p4112
I3252
sVBinjyobrothers
p4113
I3253
sVDynamo
p4114
I3254
sVPekomaru
p4115
I3255
sVHayao 12p color
p4116
I3256
sVWhispy woods
p4117
I2654
sVMizore s.
p4118
I3258
sVGalvatron
p4119
I3259
sVSaori - athena
p4120
I3260
sVSaiyajin
p4121
I2713
sVKrizalid N
p4122
I3263
sVKen mvc
p4123
I2398
sVGeese 98
p4124
I3264
sVRalf 2k2 EX
p4125
I3048
sVIkkaku
p4126
I650
sVMeu(you-ki)
p4127
I312
sVTien
p4128
I3928
sVEmily
p4129
I3268
sVSuper man
p4130
I4477
sVR.king
p4131
I3269
sVShana
p4132
I3270
sVKenshin
p4133
I4534
sVMusashi akatsuki
p4134
I2964
sVShantae
p4135
I29
sVMyth blue ranger
p4136
I3272
sVAssassin
p4137
I1890
sVAi momoyama
p4138
I3962
sVHashi EX3
p4139
I3274
sVMuhi
p4140
I4085
sVUtsuho reiuji
p4141
I3982
sVUchiha sasuke
p4142
I3276
sVNanaya_s
p4143
I3277
sVHawk
p4144
I3278
sVKusaregedo EX
p4145
I3279
sVPoring
p4146
I3280
sVFray
p4147
I3281
sVOrochi head
p4148
I3282
sVNo.8
p4149
I2387
sVSue sakamoto
p4150
I396
sVCiel EX
p4151
I3285
sVGhetto Warmachine 420
p4152
I3286
sVUltrassjgoku
p4153
I3363
sVShadowman cfas
p4154
I4358
sVJohn anderson
p4155
I3287
sVChaos
p4156
I2401
sVLancer EX2
p4157
I4438
sVSharaku
p4158
I2553
sVChaos Blanka
p4159
I3289
sVSpiny
p4160
I427
sVGouki sf
p4161
I3291
sVOshima
p4162
I4538
sVKy
p4163
I3292
sVLeo EX2
p4164
I3293
sVTenko
p4165
I2614
sVMai S
p4166
I3295
sVUme
p4167
I3296
sVZazie muhaba
p4168
I3297
sVArcueid_brunestud
p4169
I3298
sVAccelerator
p4170
I3299
sVMarvel frozen
p4171
I4830
sVNero
p4172
I2080
sVKanako yasaka EX3
p4173
I1275
sVVenom
p4174
I3300
sVObstinate_tank
p4175
I4333
sVBarts
p4176
I3715
sVMaraiah
p4177
I4119
sVScorponok
p4178
I4379
sVDragon EX2
p4179
I4077
sVRyoko ex EX3
p4180
I514
sVZinc
p4181
I3304
sVRyo-sakazaki
p4182
I2408
sVPeter
p4183
I3306
sVCrispy
p4184
I3307
sVHayato mvc2
p4185
I4797
sVWonder momo
p4186
I3309
sVLynn baker
p4187
I3797
sVFinal sigma w
p4188
I3311
sVTaideo EX
p4189
I559
sVThe world-dio
p4190
I3796
sVMr. fantastic
p4191
I4311
sVPielle
p4192
I3208
sVStarship-kirby
p4193
I4455
sVJin EX
p4194
I4258
sVSanada_yukimura
p4195
I4083
sVTriceratops
p4196
I3317
sVGoodman
p4197
I3318
sVVanilla h
p4198
I2880
sVJin CVS
p4199
I3320
sVShion EX3
p4200
I3321
sVPrimeus
p4201
I623
sVCharging chuck
p4202
I3323
sVKirby c
p4203
I3324
sVSasuke uchiha
p4204
I3325
sVRouwe_n
p4205
I3895
sVBlodia
p4206
I431
sVMelty_magic_tenko
p4207
I3328
sVThe end
p4208
I3329
sVSonic the hedgehog
p4209
I4096
sVMaster chief
p4210
I1560
sVLian
p4211
I3331
sVSpider-man
p4212
I3332
sVDarkseid IS
p4213
I3333
sVKarin EX3
p4214
I3334
sVGogeta super saiyan 3
p4215
I3969
sVThe king
p4216
I3335
sVDeliza
p4217
I1059
sVDuane
p4218
I3337
sVYoung joseph
p4219
I3338
sVCurehappy
p4220
I1476
sVZlorf rerpf
p4221
I1903
sVOld robo-ky
p4222
I2603
sVCactuar
p4223
I2829
sVShadowroo (pf 3)
p4224
I3932
sVReminya
p4225
I3343
sVComrade athena
p4226
I4063
sVMr. bear
p4227
I3273
sVMega vegeta
p4228
I4194
sVEuphoria the everlasting
p4229
I3345
sVCaptainAmerica
p4230
I4089
sVHyper rare akuma
p4231
I3346
sVKing 13
p4232
I3347
sVGaragaranda
p4233
I3348
sVRouga(coh)
p4234
I3349
sVSparkster
p4235
I3350
sVCarmilla
p4236
I3351
sVSs6 ren
p4237
I3214
sVWing zero
p4238
I3353
sVDbloodbane
p4239
I3354
sVPrincess silver
p4240
I3355
sVMima EX
p4241
I3356
sVAvdol ver 2001/01/30 by camrat
p4242
I4149
sVLion sora
p4243
I4584
sVRin rin
p4244
I3357
sVPsychopath kyo
p4245
I3179
sVMarvel spider-man
p4246
I4625
sVMai tokiha ex
p4247
I3358
sVMokoi
p4248
I1758
sVFirestorm
p4249
I3360
sVMarona
p4250
I1559
sVShiki EX2
p4251
I3362
sVShishimaru EX
p4252
I807
sVAkari ichijo
p4253
I4313
sVJuugo
p4254
I4702
sVOozura bebi
p4255
I3366
sVLee_chen
p4256
I3365
sVCielo
p4257
I1874
sVUltimate armor x
p4258
I3056
sVRhadamantis
p4259
I3367
sVRin EX
p4260
I3085
sVMamiya
p4261
I4395
sVMishio
p4262
I3368
sVRiggs
p4263
I3369
sVMexican typhoon
p4264
I866
sVShanoa
p4265
I2844
sVAlder(seraph)
p4266
I3371
sVPop
p4267
I3372
sVKaiba seto
p4268
I3373
sVRebecca
p4269
I4253
sVKunagi-f.o
p4270
I3374
sVDixie kong
p4271
I4292
sVLafiras
p4272
I3376
sVMarvin the martian
p4273
I4402
sVKintaro
p4274
I3377
sVP. chunli
p4275
I3378
sVThe manticore, the queen, and the dragon
p4276
I1296
sVOmni-psych super dizzy lv 3
p4277
I3380
sVShuma MVC3
p4278
I1225
sVRaidou EX
p4279
I4020
sVNeo y&m
p4280
I1816
sVJubilee
p4281
I3383
sVJay Flash
p4282
I3384
sVRaydric_and_archer
p4283
I4414
sVByakuya
p4284
I3386
sVYuka takeuchi
p4285
I3387
sVVegeta
p4286
I3388
sVSumo
p4287
I4147
sVSsj5 goku
p4288
I2701
sVGouki
p4289
I3108
sVAlien queen
p4290
I3391
sVProofed up matt
p4291
I271
sVMudman EX3
p4292
I972
sVYagami_if
p4293
I2377
sVDonkey kong
p4294
I3395
sVShimo EX3
p4295
I3396
sVZz_gundam
p4296
I3397
sVWonder momo EX
p4297
I3398
sVDemitri maximoff
p4298
I3860
sVAnother igniz
p4299
I3399
sVGalford
p4300
I1009
sVGoat
p4301
I4798
sVG akiha nightmare
p4302
I2334
sVKrillin EX3
p4303
I3402
sVWaluigi
p4304
I4704
sVKitana
p4305
I3403
sVAmingo MVC2
p4306
I3404
sVNatsu EX2
p4307
I3950
sVVanessa
p4308
I3406
sVUltraman
p4309
I3407
sVChun-li
p4310
I4080
sVGenkai_shihan
p4311
I3408
sVKamiccolo
p4312
I4280
sVNoob saibot mk2
p4313
I3436
sVShinji_san
p4314
I3736
sVAthena x
p4315
I3410
sVJill
p4316
I3411
sVDeluxe cassandra
p4317
I4803
sVKazuya mishima
p4318
I4397
sVStefanie
p4319
I3229
sVPsycho mkiii
p4320
I1095
sVSaki tsuzura
p4321
I3413
sVNaruto uzumaki
p4322
I4298
sVSayuri bernstein
p4323
I3414
sVRimururu
p4324
I3416
sVK9999
p4325
I1110
sVManami kusunoki
p4326
I3114
sVPrince of all saiyans
p4327
I2859
sVYami_miko
p4328
I4771
sVAnge EX
p4329
I3420
sVGelato
p4330
I4567
sVDee bee kaw EX3
p4331
I3421
sVRyoko EX
p4332
I3422
sVWong_fei_h
p4333
I1139
sVLuke EX
p4334
I3424
sVKeel
p4335
I1152
sVGoku gt
p4336
I1158
sVBullseye
p4337
I3427
sVCyber shredder 2.1
p4338
I3428
sVE-terry 71113
p4339
I4315
sVZou
p4340
I3430
sVGrand_diable
p4341
I3431
sVSuperman hero
p4342
I4724
sVPeach toadstool EX3
p4343
I4375
sVShazam
p4344
I3432
sVAlex sf3
p4345
I2137
sVNekomo
p4346
I3434
sVPingu
p4347
I3435
sVShimo EX
p4348
I355
sVGoku nex
p4349
I2250
sVSakura 98
p4350
I3815
sVSuparfcmeirin ver.1.15
p4351
I3439
sVAndroid 16 EX3
p4352
I3440
sVKaede+z_n
p4353
I3441
sVTrigger
p4354
I3117
sVCliff-zabuza-nzc
p4355
I3600
sVRaiden EX
p4356
I3442
sVMonk EX3
p4357
I3443
sVEgith
p4358
I3444
sVShishioh
p4359
I3445
sVUnlucky glauber
p4360
I3724
sVHugo andore jr. ff2
p4361
I3446
sVSpidermanu
p4362
I1262
sVThouther
p4363
I4139
sVDeathmask
p4364
I3173
sVSnorlax EX2
p4365
I3055
sVCc medusa
p4366
I3448
sVAsagi kun
p4367
I3449
sVCustom getsufuma
p4368
I3450
sVJuggernaut
p4369
I4458
sVAladdin
p4370
I1279
sVGlacial_girl
p4371
I3452
sVLelouch EX
p4372
I3453
sVJoachim
p4373
I3454
sVJimmy lee
p4374
I3455
sVIzumi konata
p4375
I3456
sVDark athena 2nd
p4376
I3457
sVNagato yuki EX
p4377
I3125
sVRandy m. green
p4378
I3460
sVChibi nazrin
p4379
I2949
sVDeluxe burter
p4380
I3462
sVDoppo orochi EX3
p4381
I3463
sVCyborg kung fu man
p4382
I4288
sVMissmarvel
p4383
I3464
sVRyu CVS
p4384
I4733
sVRaine
p4385
I3465
sVAthena EX3
p4386
I3466
sVSailor jupiter k
p4387
I3696
sVVh_mami EX
p4388
I3467
sVMaplestory mage
p4389
I3468
sVSpy-dama EX
p4390
I4775
sVGodzilla
p4391
I4329
sVHisui EX
p4392
I2939
sVAiant
p4393
I3469
sVRegin EX2
p4394
I4696
sVJuli
p4395
I3470
sVMayura
p4396
I1377
sVPocket Ryu
p4397
I1772
sVChansey
p4398
I3473
sVIronman EX
p4399
I3474
sVMillia
p4400
I3475
sVLloyd irving
p4401
I3476
sVAbobo
p4402
I1413
sVCrawdo
p4403
I1880
sVHaoumaru
p4404
I3479
sVVoltage zero
p4405
I4669
sVThe world of arien
p4406
I3825
sVViolent ryu
p4407
I3480
sVZero hotaru EX3
p4408
I2079
sVLion-o
p4409
I4213
sVShingo EX2
p4410
I2242
sVMandoraf-f
p4411
I3483
sVTouka
p4412
I3484
sVSanada kojiroh s-style
p4413
I3485
sVSuper masao
p4414
I4884
sVSailor mercury EX
p4415
I3486
sVMai maino
p4416
I3487
sVWang-fu
p4417
I4896
sVJecht EX
p4418
I3488
sVNukesaku EX2
p4419
I3489
sVAtsuko tomohara
p4420
I3490
sVRyu Evil
p4421
I3491
sVHeart-armardi
p4422
I3492
sVRajaamaki
p4423
I3827
sVAxl
p4424
I3493
sVMoyomoto
p4425
I4499
sVSanae_x
p4426
I3224
sVRancid
p4427
I3494
sVByrne
p4428
I4295
sVSs3youmu
p4429
I3495
sVKim sueil
p4430
I3496
sVHoujuu nue
p4431
I4216
sVCapella
p4432
I502
sVPocket Tessa
p4433
I4654
sVFujibayashi suzu
p4434
I3499
sVFlamme
p4435
I4829
sVShenlong
p4436
I4672
sVZuityou no ryukoteam
p4437
I4151
sVOmanyte
p4438
I4309
sVZangief sf2
p4439
I4440
sVHugo sf3
p4440
I3502
sVShogun EX3
p4441
I3503
sVSion
p4442
I4819
sVGuile_a
p4443
I3505
sVAura 2nd revival
p4444
I4271
sVToss kong
p4445
I3506
sVIsao jinrai
p4446
I3507
sVRaval
p4447
I1602
sVChenshiro
p4448
I3509
sVKaigen
p4449
I4770
sVBarbie
p4450
I4030
sVPuri*princess
p4451
I3511
sVGhiaccio
p4452
I201
sVTsukishima koko
p4453
I1631
sVLili
p4454
I3513
sVKrillin UB22
p4455
I3830
sVCless ndx
p4456
I3515
sVMoriya ex
p4457
I2446
sVRobo-mukai
p4458
I4125
sVKy and sol
p4459
I3516
sVHomer simpson
p4460
I4350
sVKhan EX3
p4461
I4222
sVL.c.kiso
p4462
I3518
sVGer
p4463
I4697
sVAsellus EX
p4464
I3519
sVBig volfogg
p4465
I3520
sVRaiden
p4466
I1714
sVKrayce
p4467
I2778
sVCaptain.cat.kit
p4468
I4827
sVJun
p4469
I4334
sVKing godzilla
p4470
I4452
sVSpider girl
p4471
I3524
sVDogma
p4472
I4283
sVF91
p4473
I3525
sV7th heaven ciel
p4474
I3526
sVSsj three broli
p4475
I3527
sVKana-chan dhq EX3
p4476
I1752
sVHan baedal
p4477
I3529
sVHuman bo
p4478
I3530
sVSolitary-zero
p4479
I2468
sVJotaro
p4480
I3532
sVGel
p4481
I3533
sVJuri pf
p4482
I3534
sVKensou
p4483
I4281
sVSenna vp
p4484
I3536
sVI-no(ac)
p4485
I3537
sVBloodtide
p4486
I1771
sVSannomiya_shiho
p4487
I3539
sVPocket Ibuki
p4488
I321
sVMario 119
p4489
I3541
sVRasetsumaru
p4490
I3542
sVBlue mary
p4491
I3189
sVStg-zero-
p4492
I3544
sVDragon
p4493
I4361
sVFootee
p4494
I3546
sVMurasa EX
p4495
I3754
sVAkuma SF4
p4496
I3965
sVGoku EX3
p4497
I4340
sVCci hinako
p4498
I1848
sVKam'lanaut
p4499
I3550
sVFuhashitei
p4500
I3985
sVSuika_ibuki
p4501
I3551
sVVega Mask
p4502
I3552
sVMorrigan EX
p4503
I3553
sVFire_fairy
p4504
I4103
sVAna
p4505
I4196
sVFusagiko
p4506
I3554
sVNouka
p4507
I3555
sVJ.p.polnareff
p4508
I1920
sVGuy_cecil
p4509
I1192
sVS.sinclair
p4510
I3558
sVGelonimon
p4511
I3559
sVGiorno giovanna
p4512
I3560
sVHulk mvc2
p4513
I4614
sVAdon f22
p4514
I2414
sVGenma human by jhfer
p4515
I3563
sVLf2 - julian
p4516
I3564
sVAsagi EX3
p4517
I3565
sVHiryu
p4518
I1961
sVElirin
p4519
I3567
sVSparta_heika
p4520
I2480
sVAcirno_3.5
p4521
I3569
sVOoze-o
p4522
I3570
sVTia langray
p4523
I4526
sVJubei
p4524
I3571
sVRudra-suija
p4525
I4406
sVIrriana
p4526
I2249
sVShanghai
p4527
I3572
sVRobo rock type-2
p4528
I3573
sVMaster krauser
p4529
I3574
sVUltimate cap
p4530
I4297
sVGoku z2 EX3
p4531
I3575
sVKirakira
p4532
I3576
sVSuave dude EX
p4533
I4713
sVBs kung fu man
p4534
I3578
sVWriggle-e
p4535
I3579
sVJin kisaragi
p4536
I3580
sVArthas
p4537
I4644
sVPokita
p4538
I3581
sVD-rugal
p4539
I3582
sVUtsuho_b
p4540
I3583
sVBrahms
p4541
I3584
sVXstranger
p4542
I3585
sVSteve
p4543
I4850
sVLobo
p4544
I3586
sVKang rotd
p4545
I4484
sVUmvc_hulk
p4546
I3588
sVSora com
p4547
I3589
sVShaolon
p4548
I3590
sVSakura Kasugano
p4549
I3591
sVAe86
p4550
I4304
sVNayuta
p4551
I3592
sVSetsuna hsr
p4552
I2390
sVSuzushina yuriko
p4553
I2292
sVGaits
p4554
I2116
sVYoko asagiri
p4555
I3596
sVPiccolo sb
p4556
I3597
sVUnzan&ichirin
p4557
I3598
sVRachel alucard
p4558
I3599
sVExredking
p4559
I4714
sVNaitou ex
p4560
I3601
sVNecochaosblackg666mk2
p4561
I3602
sVMary 2k2
p4562
I4408
sVSailor mercury
p4563
I3603
sVFlygon
p4564
I3604
sVKilla and ren
p4565
I2168
sVKiba
p4566
I4909
sVArale
p4567
I2188
sVThe creepy clock
p4568
I1769
sVShin EX
p4569
I3608
sVNina EX
p4570
I4293
sVMurakumo-abk
p4571
I3610
sVSpin youmu EX
p4572
I1804
sVDooby dummy
p4573
I3612
sVGeki de oso
p4574
I3613
sVSub-zero EX
p4575
I3147
sVNightmare-gamera_ex
p4576
I3614
sVShiratama20
p4577
I3615
sVKinopio EX
p4578
I241
sVDee jay
p4579
I3617
sVFaud
p4580
I3618
sVBoggy b
p4581
I3619
sVHoly strider
p4582
I3620
sVRyoga hibiki
p4583
I3621
sVZankuro
p4584
I3622
sVZangoose
p4585
I3149
sVMichael_roa_valdamjong
p4586
I3623
sVNakoruru
p4587
I4090
sVDesperado+
p4588
I3625
sVWeiss dhq
p4589
I2287
sVVenom scorpion
p4590
I3627
sVAvalanche
p4591
I3628
sVAvdol
p4592
I3905
sVMycale
p4593
I2306
sVHatsune miku
p4594
I2310
sVDai rai oh
p4595
I1803
sVShao kahn
p4596
I2316
sVLucifer EX3
p4597
I3633
sVSlash EX
p4598
I3634
sVAoi_amatu
p4599
I3635
sVNagae iku
p4600
I1133
sVAnnie hamilton
p4601
I3636
sVGigant
p4602
I3637
sVAnother kung fu girl z
p4603
I2345
sVGohan ssj5
p4604
I3639
sVGohan ssj4
p4605
I4671
sVSuper skrull
p4606
I3641
sVMarcia
p4607
I3642
sVAndy_ff3rb
p4608
I3643
sVYtp robotnik
p4609
I4617
sVGuerrilla
p4610
I3644
sVDougster
p4611
I33
sVHashi
p4612
I4148
sVZao-long
p4613
I3647
sVSs6 renfa
p4614
I4541
sVAnother blood
p4615
I3975
sVBad megaman
p4616
I3649
sVDr.gero EX3
p4617
I3650
sVLucky 71113
p4618
I3651
sVOlof
p4619
I4381
sVLf2 - firzen
p4620
I3653
sVNucrear cirno EX
p4621
I4300
sVGreen ranger
p4622
I2405
sVReptile EX2
p4623
I3655
sVKaori&shiori EX
p4624
I2490
sVNameless 02
p4625
I4110
sVSabotage
p4626
I2863
sVMega weapon
p4627
I3658
sVZan-b EX
p4628
I2437
sVRolento
p4629
I2441
sVTitan the great
p4630
I1205
sVM.bison sf2ww
p4631
I3662
sVBaiken(ac)
p4632
I3663
sVRyoko(fhd)
p4633
I3664
sVIshida uryu
p4634
I1817
sVBroken
p4635
I4137
sVChuu
p4636
I1807
sVDiablo
p4637
I4642
sVTin's fernandeath
p4638
I2011
sVBikeman
p4639
I3667
sVKraft
p4640
I3668
sVMash figaro
p4641
I3669
sVAzteca EX
p4642
I2514
sVQ-bee ex
p4643
I3853
sVBlues hablam
p4644
I2520
sVRei EX
p4645
I2525
sVNess EX3
p4646
I3389
sVBilly two moons
p4647
I3673
sVGerdon di yeah
p4648
I887
sVHyper commando team
p4649
I3675
sVChrysalis EX
p4650
I1107
sVDet. garret laurel
p4651
I4262
sVAnaroguma
p4652
I652
sVUshio
p4653
I3678
sVSnow
p4654
I3679
sVTeam reimisen
p4655
I4579
sVIceman SP
p4656
I1653
sVAbyss EX
p4657
I3682
sVMarisa,k
p4658
I552
sVAsuras
p4659
I3684
sVAsborb
p4660
I2481
sVTrouble man
p4661
I4303
sVLuise EX2
p4662
I3687
sVMarisa EX
p4663
I4134
sVPeketo EX3
p4664
I4036
sVEin
p4665
I3262
sVDeath black shot
p4666
I4759
sVChaka
p4667
I3994
sVSukunyan
p4668
I4849
sVDawn
p4669
I3692
sVBokosuka wars
p4670
I3693
sVVritra
p4671
I3691
sVC.commando
p4672
I3695
sVShaq Diesel
p4673
I4069
sVTakuma
p4674
I3697
sVMaggyo IX
p4675
I3698
sVSaizo_hattori
p4676
I3528
sVFlen_d
p4677
I2677
sVSimple
p4678
I3700
sVNoel vermillion
p4679
I3701
sVEtomo shuko
p4680
I3702
sVKamille
p4681
I3703
sVZaku EX3
p4682
I3704
sVKokesz
p4683
I3705
sVDink smallwood
p4684
I2719
sVEremes_guile
p4685
I1831
sVBlack tiger
p4686
I3707
sVEternal little girl
p4687
I4652
sVMichael jordan
p4688
I2724
sVGikoneko
p4689
I3961
sVGiratina
p4690
I3709
sVKathryne_keyron
p4691
I4174
sVPerfect cell EX3
p4692
I3710
sVDarkman
p4693
I3711
sVAoba
p4694
I4154
sVSeyren_windsor
p4695
I4070
sVEvil ryu ssf'2 plus EX3
p4696
I3145
sVSwordsman
p4697
I4138
sVForte
p4698
I3713
sVNf-kyo
p4699
I3714
sVSho nuff
p4700
I3859
sVKana orikura
p4701
I4212
sVPisaci
p4702
I436
sVKisume EX
p4703
I3716
sVD Chun-li
p4704
I3717
sVAbyss form 1
p4705
I3718
sVTengu man
p4706
I3719
sVWooden_doll
p4707
I3720
sVHomura EX
p4708
I1219
sVGlaceon
p4709
I4681
sVHinata wakaba
p4710
I3722
sVMukai EX3
p4711
I3723
sVKazama kazuki
p4712
I2454
sVKatura hageteru
p4713
I4816
sVGeese EX3
p4714
I2529
sVShikyoh
p4715
I3726
sVDinozord EX
p4716
I3727
sVMiko
p4717
I2846
sVWaddledee
p4718
I4907
sVAgumon
p4719
I2983
sVZein_dael
p4720
I2150
sVSteely dan
p4721
I3729
sVCelsius
p4722
I4407
sVSavage hulk
p4723
I4569
sVKoi reika
p4724
I2473
sVC3reimu
p4725
I4008
sVHeaddy
p4726
I3733
sVOmega goenitz
p4727
I1365
sVMeirin EX
p4728
I3735
sVKonata EX
p4729
I2745
sVYakui-san
p4730
I3737
sVKou EX
p4731
I720
sVAmon EX2
p4732
I3739
sVHoly akuma
p4733
I4441
sVSkaxl roa
p4734
I3740
sVSasuke storm
p4735
I3741
sVKiruo_v1.18
p4736
I3742
sVAika toarcreat
p4737
I3743
sVCco
p4738
I3744
sVOozaru
p4739
I3745
sVLiu kang
p4740
I3981
sVRyu XIII
p4741
I3746
sVErza scarlet
p4742
I3747
sVDrill asamin
p4743
I3748
sVMami tomoe ai
p4744
I3011
sVNaomi EX2
p4745
I3750
sVSaint-of-silver
p4746
I3752
sVMuaythaiman
p4747
I4448
sVJohnny
p4748
I3501
sVPulse-k
p4749
I4403
sVWhite buffalo EX3
p4750
I4433
sVGod ken
p4751
I4256
sVGeese mk ii
p4752
I884
sVVorgasm
p4753
I3052
sVDemoniho
p4754
I3172
sVSon gohan EX3
p4755
I4349
sVTalon
p4756
I3758
sVCless-f
p4757
I3759
sVRaph
p4758
I3760
sVSayo chan
p4759
I3761
sVZatanna EX3
p4760
I3762
sVHu-ama
p4761
I3763
sVStinko man - 20x6
p4762
I3764
sVGolems
p4763
I4783
sVHeitasupermode
p4764
I3765
sVSion eltnam atlasia EX
p4765
I2479
sVInvader remi
p4766
I3767
sVDao-long
p4767
I28
sVGregorius:nmky
p4768
I3769
sVCarnage MMV
p4769
I3770
sVGreen lantern js
p4770
I4560
sVSakuya_izayoi
p4771
I738
sVJuan
p4772
I3771
sVA-utsuho
p4773
I1220
sVOmega red
p4774
I4017
sVChadha
p4775
I1786
sVHellboy
p4776
I3774
sVSandman
p4777
I3775
sVMakendo
p4778
I3776
sVTestament
p4779
I3870
sVRyo(mkii)
p4780
I4062
sVKamen rider kaixa
p4781
I3777
sVMukuro EX G
p4782
I1230
sVAkatuki zetu
p4783
I3779
sVJuda-(nericya)
p4784
I3871
sVNew Nakoruru
p4785
I3781
sVKagami
p4786
I3782
sVFrostman
p4787
I3783
sVNanase EX
p4788
I4243
sVYukari_swr
p4789
I4314
sVAlexa
p4790
I3786
sVTerry rogers
p4791
I3177
sVPrinny
p4792
I3788
sVDaimon EX2
p4793
I2558
sVGallon EX2
p4794
I4302
sVAmy
p4795
I4186
sVDark phoenix
p4796
I3790
sVSeth SF4
p4797
I3791
sVBelmont trusdale
p4798
I602
sVCheatman
p4799
I320
sVYouki-so-suika
p4800
I3794
sVCook kawasaki
p4801
I3795
sVShredder
p4802
I3159
sVMillia Rage
p4803
I3310
sVRob lucci
p4804
I3798
sVClara
p4805
I1956
sVNormal Ryu
p4806
I4892
sVKenji
p4807
I3799
sVEva-01
p4808
I3800
sVDark champion
p4809
I2228
sVSagat_a
p4810
I4098
sVS.p.o. ryu
p4811
I2968
sVGreen arrow
p4812
I3804
sVRario
p4813
I4232
sVEva-00
p4814
I3805
sVAdel-haaaaai
p4815
I3806
sVLeviathan
p4816
I3807
sVAnastasia
p4817
I2860
sVSeiya
p4818
I491
sVRockula
p4819
I2848
sVSailor venus
p4820
I3810
sVNucrear cirno
p4821
I3923
sVRavange
p4822
I3811
sVYagumo_ex
p4823
I3812
sVJenny
p4824
I3813
sVTen
p4825
I2590
sVDual koa(v0.5.2)
p4826
I3438
sVPoison qyc
p4827
I3816
sVBuggy
p4828
I3817
sVRamda EX3
p4829
I4250
sVAnother blood q
p4830
I3818
sVLuke skywalker
p4831
I3819
sVKirin
p4832
I3820
sVNeji
p4833
I3275
sVKing lion
p4834
I686
sVIkemen
p4835
I3822
sVShaq fu EX3
p4836
I3823
sVAtatatatatatata
p4837
I3824
sVMichelangelo
p4838
I3326
sVAwaken satsuki
p4839
I1362
sVCaster
p4840
I3931
sVGhost nappa EX
p4841
I3828
sVAbareimu
p4842
I4841
sVIvy
p4843
I4876
sVJesse
p4844
I4677
sVAtari dragon
p4845
I3990
sVFilz-rout
p4846
I3510
sVBubsy bobcat
p4847
I3514
sVVertigo
p4848
I3929
sVEleking
p4849
I4188
sVBang EX2
p4850
I3831
sVAoshi
p4851
I2761
sVCable
p4852
I3833
sVLf2 - john
p4853
I3834
sVShinji_san EX
p4854
I3835
sVJulian solo poseidon
p4855
I4047
sVMiyabi
p4856
I3836
sVShaky jake
p4857
I4596
sVViper
p4858
I3170
sVCc iron ryuji
p4859
I4598
sVNick commando EX FF
p4860
I3838
sVYuri sakazaki EX3
p4861
I2202
sVMike Haggar
p4862
I3840
sVAbsolute_white_len
p4863
I3841
sVCirno brando
p4864
I3587
sVKanna_kouryu
p4865
I3843
sVGhetto warmachine
p4866
I3789
sVArrange_ayu
p4867
I3844
sVGiant Ultraman
p4868
I586
sVReject no. 253
p4869
I3845
sVCaptainamerica EX3
p4870
I2379
sVShanghai doll
p4871
I3908
sVAsh crimson
p4872
I3846
sVAkashima
p4873
I3847
sVGanjou dan
p4874
I3848
sVShirakawa kotori
p4875
I2678
sVMarin
p4876
I3849
sVMario
p4877
I3850
sVButt-head
p4878
I3851
sVMomo-kirby
p4879
I3852
sVSaya IX
p4880
I961
sVTiger
p4881
I4181
sVAlt(hana-ai)
p4882
I3855
sVCaptain_heart
p4883
I3821
sVPill
p4884
I1805
sVZangief cfj
p4885
I3856
sVMaria
p4886
I3857
sVKratos
p4887
I4599
sVWhite len k
p4888
I3858
sVSagat f22
p4889
I2020
sVKim kaphwan CVS2
p4890
I539
sVAce
p4891
I3861
sVGn-pioneer-r
p4892
I4223
sVProfessor x
p4893
I3863
sVCode-holder
p4894
I4506
sVR.jackal
p4895
I3864
sVBlue colonel
p4896
I3865
sVGades
p4897
I3866
sVTain-ren
p4898
I3867
sVSaten_level5
p4899
I3361
sVKarin
p4900
I3868
sVNightwolf
p4901
I3772
sVKazuya
p4902
I1588
sVSailor moon k
p4903
I3780
sVKamui tenrou
p4904
I3609
sVTamara EX2
p4905
I2113
sVBoring vigilante EX3
p4906
I4353
sVFake okami
p4907
I4366
sVFulgore
p4908
I3882
sVSakon
p4909
I2658
sVWell
p4910
I3803
sVArturo
p4911
I3872
sVErmac
p4912
I3873
sVRyoko
p4913
I3874
sVPrivate
p4914
I3875
sVDocock
p4915
I4773
sVNightmare gamera
p4916
I4422
sVOpera elmer
p4917
I3878
sVGatocyu
p4918
I3879
sVIk borodin
p4919
I4470
sVSue-zo
p4920
I3880
sVGoku ssj5
p4921
I3881
sVHugo andore jr.
p4922
I3606
sVGoku ssj3
p4923
I4717
sVAgeha
p4924
I3884
sVDaiyousei EX
p4925
I3885
sa(dp4926
I0
g2
sI1
g3
sI2
g4
sI3
g5
sI4
g6
sI5
g7
sI6
g8
sI7
g9
sI8
g10
sI9
g11
sI10
g12
sI11
g2319
sI12
g14
sI13
g15
sI14
g18
sI15
g19
sI16
g20
sI17
g22
sI18
g23
sI19
g24
sI20
g25
sI21
g26
sI22
g27
sI23
g28
sI24
g29
sI25
g30
sI26
g31
sI27
g32
sI28
g4767
sI29
g4135
sI30
g34
sI31
g35
sI32
g36
sI33
g4611
sI34
g40
sI35
g2325
sI36
g42
sI37
g43
sI38
g44
sI39
g45
sI40
g46
sI41
g47
sI42
g49
sI43
g50
sI44
g3017
sI45
g53
sI46
g55
sI47
g57
sI48
g312
sI49
g59
sI50
g60
sI51
g61
sI52
g1563
sI53
g67
sI54
g68
sI55
g69
sI56
g70
sI57
g2329
sI58
g72
sI59
g1564
sI60
g74
sI61
g75
sI62
g2330
sI63
g77
sI64
g78
sI65
g79
sI66
g80
sI67
g81
sI68
g83
sI69
g4063
sI70
g85
sI71
g2333
sI72
g87
sI73
g88
sI74
g772
sI75
g90
sI76
g91
sI77
g3983
sI78
g93
sI79
g95
sI80
g96
sI81
g99
sI82
g102
sI83
g103
sI84
g105
sI85
g106
sI86
g110
sI87
g111
sI88
g112
sI89
g113
sI90
g114
sI91
g117
sI92
g118
sI93
g119
sI94
g120
sI95
g121
sI96
g122
sI97
g123
sI98
g124
sI99
g126
sI100
g127
sI101
g128
sI102
g130
sI103
g131
sI104
g3174
sI105
g133
sI106
g134
sI107
g135
sI108
g136
sI109
g137
sI110
g138
sI111
g139
sI112
g141
sI113
g143
sI114
g3992
sI115
g144
sI116
g145
sI117
g147
sI118
g148
sI119
g150
sI120
g151
sI121
g152
sI122
g153
sI123
g154
sI124
g156
sI125
g157
sI126
g158
sI127
g159
sI128
g160
sI129
g162
sI130
g163
sI131
g164
sI132
g3184
sI133
g167
sI134
g168
sI135
g169
sI136
g170
sI137
g171
sI138
g172
sI139
g176
sI140
g177
sI141
g178
sI142
g179
sI143
g495
sI144
g181
sI145
g183
sI146
g2736
sI147
g3187
sI148
g187
sI149
g188
sI150
g189
sI151
g190
sI152
g191
sI153
g192
sI154
g193
sI155
g194
sI156
g1255
sI157
g196
sI158
g197
sI159
g198
sI160
g199
sI161
g2355
sI162
g201
sI163
g203
sI164
g204
sI165
g2356
sI166
g206
sI167
g207
sI168
g208
sI169
g209
sI170
g211
sI171
g213
sI172
g214
sI173
g215
sI174
g216
sI175
g217
sI176
g218
sI177
g219
sI178
g221
sI179
g222
sI180
g3388
sI181
g223
sI182
g225
sI183
g226
sI184
g3608
sI185
g227
sI186
g228
sI187
g229
sI188
g231
sI189
g232
sI190
g233
sI191
g234
sI192
g235
sI193
g3808
sI194
g236
sI195
g3758
sI196
g238
sI197
g241
sI198
g242
sI199
g243
sI200
g244
sI201
g4452
sI202
g247
sI203
g248
sI204
g249
sI205
g250
sI206
g251
sI207
g252
sI208
g254
sI209
g255
sI210
g257
sI211
g258
sI212
g261
sI213
g262
sI214
g263
sI215
g264
sI216
g265
sI217
g266
sI218
g267
sI219
g268
sI220
g2966
sI221
g270
sI222
g271
sI223
g272
sI224
g273
sI225
g275
sI226
g276
sI227
g277
sI228
g279
sI229
g280
sI230
g281
sI231
g283
sI232
g284
sI233
g286
sI234
g287
sI235
g288
sI236
g290
sI237
g291
sI238
g292
sI239
g294
sI240
g295
sI241
g4578
sI242
g297
sI243
g298
sI244
g299
sI245
g300
sI246
g301
sI247
g302
sI248
g305
sI249
g306
sI250
g307
sI251
g4109
sI252
g309
sI253
g310
sI254
g311
sI255
g58
sI256
g1602
sI257
g314
sI258
g3220
sI259
g316
sI260
g317
sI261
g318
sI262
g320
sI263
g321
sI264
g325
sI265
g2385
sI266
g328
sI267
g329
sI268
g331
sI269
g332
sI270
g333
sI271
g4291
sI272
g338
sI273
g339
sI274
g341
sI275
g342
sI276
g343
sI277
g346
sI278
g348
sI279
g349
sI280
g351
sI281
g352
sI282
g353
sI283
g354
sI284
g355
sI285
g356
sI286
g357
sI287
g358
sI288
g360
sI289
g361
sI290
g362
sI291
g364
sI292
g365
sI293
g750
sI294
g368
sI295
g369
sI296
g372
sI297
g374
sI298
g375
sI299
g376
sI300
g377
sI301
g378
sI302
g379
sI303
g3255
sI304
g380
sI305
g382
sI306
g3757
sI307
g384
sI308
g385
sI309
g386
sI310
g387
sI311
g388
sI312
g4127
sI313
g390
sI314
g391
sI315
g392
sI316
g3443
sI317
g394
sI318
g395
sI319
g396
sI320
g4799
sI321
g4488
sI322
g3650
sI323
g401
sI324
g403
sI325
g404
sI326
g407
sI327
g3241
sI328
g411
sI329
g412
sI330
g413
sI331
g1619
sI332
g415
sI333
g416
sI334
g2398
sI335
g1620
sI336
g419
sI337
g3243
sI338
g421
sI339
g422
sI340
g423
sI341
g425
sI342
g427
sI343
g428
sI344
g429
sI345
g430
sI346
g431
sI347
g432
sI348
g433
sI349
g434
sI350
g435
sI351
g437
sI352
g438
sI353
g3724
sI354
g441
sI355
g4348
sI356
g442
sI357
g444
sI358
g576
sI359
g448
sI360
g449
sI361
g450
sI362
g451
sI363
g456
sI364
g457
sI365
g458
sI366
g459
sI367
g460
sI368
g461
sI369
g464
sI370
g465
sI371
g466
sI372
g467
sI373
g3798
sI374
g2404
sI375
g469
sI376
g470
sI377
g471
sI378
g472
sI379
g473
sI380
g475
sI381
g476
sI382
g477
sI383
g478
sI384
g479
sI385
g481
sI386
g482
sI387
g484
sI388
g485
sI389
g486
sI390
g488
sI391
g489
sI392
g490
sI393
g3815
sI394
g493
sI395
g496
sI396
g4150
sI397
g501
sI398
g502
sI399
g503
sI400
g506
sI401
g507
sI402
g509
sI403
g510
sI404
g511
sI405
g2305
sI406
g513
sI407
g514
sI408
g515
sI409
g516
sI410
g518
sI411
g519
sI412
g3373
sI413
g523
sI414
g524
sI415
g525
sI416
g528
sI417
g531
sI418
g532
sI419
g533
sI420
g3256
sI421
g3512
sI422
g536
sI423
g537
sI424
g538
sI425
g540
sI426
g541
sI427
g4160
sI428
g543
sI429
g544
sI430
g545
sI431
g4206
sI432
g547
sI433
g549
sI434
g550
sI435
g3622
sI436
g4702
sI437
g554
sI438
g556
sI439
g558
sI440
g559
sI441
g560
sI442
g16
sI443
g2518
sI444
g563
sI445
g565
sI446
g567
sI447
g504
sI448
g571
sI449
g3943
sI450
g573
sI451
g574
sI452
g3802
sI453
g578
sI454
g579
sI455
g580
sI456
g584
sI457
g585
sI458
g586
sI459
g589
sI460
g590
sI461
g592
sI462
g593
sI463
g594
sI464
g595
sI465
g3366
sI466
g597
sI467
g599
sI468
g2426
sI469
g604
sI470
g2092
sI471
g605
sI472
g606
sI473
g3564
sI474
g608
sI475
g609
sI476
g610
sI477
g612
sI478
g613
sI479
g615
sI480
g616
sI481
g618
sI482
g619
sI483
g620
sI484
g621
sI485
g622
sI486
g623
sI487
g626
sI488
g627
sI489
g629
sI490
g630
sI491
g4818
sI492
g632
sI493
g634
sI494
g635
sI495
g639
sI496
g640
sI497
g642
sI498
g643
sI499
g644
sI500
g646
sI501
g647
sI502
g4432
sI503
g651
sI504
g652
sI505
g653
sI506
g654
sI507
g655
sI508
g2436
sI509
g3971
sI510
g658
sI511
g870
sI512
g660
sI513
g661
sI514
g4180
sI515
g663
sI516
g664
sI517
g665
sI518
g666
sI519
g667
sI520
g668
sI521
g670
sI522
g672
sI523
g673
sI524
g674
sI525
g806
sI526
g676
sI527
g677
sI528
g678
sI529
g680
sI530
g682
sI531
g683
sI532
g684
sI533
g686
sI534
g687
sI535
g688
sI536
g689
sI537
g2441
sI538
g693
sI539
g4890
sI540
g695
sI541
g696
sI542
g697
sI543
g700
sI544
g702
sI545
g703
sI546
g706
sI547
g709
sI548
g710
sI549
g711
sI550
g712
sI551
g713
sI552
g4658
sI553
g714
sI554
g716
sI555
g717
sI556
g718
sI557
g719
sI558
g2445
sI559
g4189
sI560
g722
sI561
g723
sI562
g3303
sI563
g725
sI564
g727
sI565
g728
sI566
g730
sI567
g731
sI568
g732
sI569
g733
sI570
g734
sI571
g161
sI572
g736
sI573
g737
sI574
g738
sI575
g739
sI576
g740
sI577
g2449
sI578
g742
sI579
g743
sI580
g3320
sI581
g745
sI582
g1881
sI583
g747
sI584
g748
sI585
g749
sI586
g4868
sI587
g751
sI588
g752
sI589
g754
sI590
g758
sI591
g759
sI592
g760
sI593
g762
sI594
g763
sI595
g765
sI596
g766
sI597
g767
sI598
g768
sI599
g769
sI600
g770
sI601
g771
sI602
g4798
sI603
g773
sI604
g3771
sI605
g775
sI606
g777
sI607
g778
sI608
g779
sI609
g780
sI610
g781
sI611
g782
sI612
g783
sI613
g784
sI614
g2456
sI615
g786
sI616
g787
sI617
g788
sI618
g789
sI619
g790
sI620
g792
sI621
g793
sI622
g794
sI623
g4201
sI624
g796
sI625
g798
sI626
g245
sI627
g2460
sI628
g802
sI629
g804
sI630
g807
sI631
g808
sI632
g809
sI633
g3661
sI634
g811
sI635
g1678
sI636
g813
sI637
g814
sI638
g815
sI639
g817
sI640
g818
sI641
g4103
sI642
g821
sI643
g823
sI644
g824
sI645
g825
sI646
g826
sI647
g827
sI648
g828
sI649
g829
sI650
g4126
sI651
g831
sI652
g4652
sI653
g833
sI654
g834
sI655
g3324
sI656
g837
sI657
g1683
sI658
g840
sI659
g2469
sI660
g841
sI661
g842
sI662
g843
sI663
g2478
sI664
g844
sI665
g845
sI666
g1684
sI667
g3326
sI668
g2643
sI669
g851
sI670
g853
sI671
g854
sI672
g855
sI673
g3328
sI674
g860
sI675
g861
sI676
g862
sI677
g865
sI678
g866
sI679
g869
sI680
g1574
sI681
g1101
sI682
g872
sI683
g873
sI684
g874
sI685
g875
sI686
g4834
sI687
g877
sI688
g879
sI689
g882
sI690
g1630
sI691
g884
sI692
g885
sI693
g1691
sI694
g887
sI695
g888
sI696
g889
sI697
g890
sI698
g891
sI699
g892
sI700
g2948
sI701
g895
sI702
g896
sI703
g897
sI704
g899
sI705
g900
sI706
g901
sI707
g902
sI708
g905
sI709
g909
sI710
g910
sI711
g911
sI712
g912
sI713
g913
sI714
g914
sI715
g915
sI716
g916
sI717
g917
sI718
g918
sI719
g919
sI720
g4731
sI721
g920
sI722
g921
sI723
g922
sI724
g3340
sI725
g924
sI726
g925
sI727
g976
sI728
g927
sI729
g2056
sI730
g930
sI731
g931
sI732
g932
sI733
g1007
sI734
g934
sI735
g935
sI736
g936
sI737
g937
sI738
g4771
sI739
g942
sI740
g943
sI741
g944
sI742
g945
sI743
g946
sI744
g3222
sI745
g947
sI746
g948
sI747
g949
sI748
g950
sI749
g951
sI750
g952
sI751
g953
sI752
g954
sI753
g956
sI754
g957
sI755
g958
sI756
g959
sI757
g960
sI758
g961
sI759
g1173
sI760
g963
sI761
g1184
sI762
g1191
sI763
g968
sI764
g969
sI765
g971
sI766
g974
sI767
g975
sI768
g2312
sI769
g977
sI770
g2204
sI771
g979
sI772
g980
sI773
g981
sI774
g1703
sI775
g984
sI776
g985
sI777
g987
sI778
g1302
sI779
g989
sI780
g991
sI781
g659
sI782
g1333
sI783
g995
sI784
g996
sI785
g1345
sI786
g999
sI787
g1000
sI788
g1001
sI789
g1002
sI790
g1003
sI791
g1004
sI792
g1005
sI793
g1006
sI794
g933
sI795
g1008
sI796
g1009
sI797
g1010
sI798
g1012
sI799
g1015
sI800
g3904
sI801
g1018
sI802
g1020
sI803
g3353
sI804
g1022
sI805
g1024
sI806
g1025
sI807
g4252
sI808
g1027
sI809
g1028
sI810
g2364
sI811
g1568
sI812
g1034
sI813
g1035
sI814
g1036
sI815
g1038
sI816
g1039
sI817
g1041
sI818
g1042
sI819
g4096
sI820
g1044
sI821
g1045
sI822
g1046
sI823
g1048
sI824
g1049
sI825
g1050
sI826
g1051
sI827
g1052
sI828
g1054
sI829
g1055
sI830
g940
sI831
g1056
sI832
g1057
sI833
g1058
sI834
g1715
sI835
g1060
sI836
g1061
sI837
g1062
sI838
g1063
sI839
g1064
sI840
g3359
sI841
g1066
sI842
g1067
sI843
g1069
sI844
g1070
sI845
g1072
sI846
g2922
sI847
g3361
sI848
g1075
sI849
g1076
sI850
g1078
sI851
g2506
sI852
g1080
sI853
g1081
sI854
g1082
sI855
g1083
sI856
g1084
sI857
g1085
sI858
g1086
sI859
g1087
sI860
g3363
sI861
g1090
sI862
g2508
sI863
g1093
sI864
g1094
sI865
g1095
sI866
g4264
sI867
g1098
sI868
g2510
sI869
g1917
sI870
g1102
sI871
g3368
sI872
g1106
sI873
g1109
sI874
g1110
sI875
g1111
sI876
g1113
sI877
g1115
sI878
g1116
sI879
g1118
sI880
g1119
sI881
g2514
sI882
g1121
sI883
g1122
sI884
g4752
sI885
g1126
sI886
g1127
sI887
g4648
sI888
g1128
sI889
g1725
sI890
g1130
sI891
g1131
sI892
g1132
sI893
g1134
sI894
g3732
sI895
g1135
sI896
g1137
sI897
g1138
sI898
g1139
sI899
g1140
sI900
g1141
sI901
g1142
sI902
g1143
sI903
g1144
sI904
g1145
sI905
g1146
sI906
g1147
sI907
g1149
sI908
g180
sI909
g1151
sI910
g1152
sI911
g1153
sI912
g1154
sI913
g2260
sI914
g1156
sI915
g1157
sI916
g1159
sI917
g1160
sI918
g1161
sI919
g1162
sI920
g1164
sI921
g1165
sI922
g1168
sI923
g4047
sI924
g1170
sI925
g1171
sI926
g1172
sI927
g1174
sI928
g1175
sI929
g2525
sI930
g1178
sI931
g1179
sI932
g1180
sI933
g1181
sI934
g2405
sI935
g1733
sI936
g1185
sI937
g1186
sI938
g1188
sI939
g2481
sI940
g967
sI941
g1192
sI942
g1194
sI943
g1196
sI944
g1197
sI945
g1198
sI946
g2073
sI947
g3575
sI948
g1200
sI949
g1202
sI950
g1205
sI951
g1206
sI952
g1207
sI953
g1208
sI954
g3385
sI955
g1210
sI956
g1211
sI957
g2613
sI958
g1214
sI959
g669
sI960
g1217
sI961
g4880
sI962
g1218
sI963
g1219
sI964
g1220
sI965
g1221
sI966
g1222
sI967
g1223
sI968
g1225
sI969
g1422
sI970
g1226
sI971
g1227
sI972
g4292
sI973
g1229
sI974
g1230
sI975
g1231
sI976
g3769
sI977
g2731
sI978
g1234
sI979
g1235
sI980
g1742
sI981
g1237
sI982
g1238
sI983
g1239
sI984
g1240
sI985
g3391
sI986
g1243
sI987
g1244
sI988
g1245
sI989
g1246
sI990
g1247
sI991
g1248
sI992
g1249
sI993
g1250
sI994
g1251
sI995
g1252
sI996
g1254
sI997
g195
sI998
g1256
sI999
g1258
sI1000
g1259
sI1001
g1260
sI1002
g1261
sI1003
g1262
sI1004
g1263
sI1005
g2226
sI1006
g1265
sI1007
g1266
sI1008
g1267
sI1009
g4300
sI1010
g1269
sI1011
g1270
sI1012
g2952
sI1013
g1746
sI1014
g1273
sI1015
g1274
sI1016
g1275
sI1017
g1276
sI1018
g1277
sI1019
g1278
sI1020
g1280
sI1021
g1281
sI1022
g1282
sI1023
g1283
sI1024
g1284
sI1025
g1285
sI1026
g1287
sI1027
g3108
sI1028
g2244
sI1029
g1290
sI1030
g1291
sI1031
g1293
sI1032
g1294
sI1033
g1295
sI1034
g1296
sI1035
g1297
sI1036
g1298
sI1037
g1299
sI1038
g1300
sI1039
g1301
sI1040
g988
sI1041
g1303
sI1042
g1305
sI1043
g1306
sI1044
g1309
sI1045
g1310
sI1046
g1311
sI1047
g1313
sI1048
g1314
sI1049
g1315
sI1050
g1317
sI1051
g3399
sI1052
g1320
sI1053
g3060
sI1054
g1323
sI1055
g1324
sI1056
g1325
sI1057
g1327
sI1058
g1328
sI1059
g4217
sI1060
g1330
sI1061
g1331
sI1062
g871
sI1063
g1756
sI1064
g1335
sI1065
g1336
sI1066
g1337
sI1067
g1339
sI1068
g1340
sI1069
g1341
sI1070
g1342
sI1071
g1343
sI1072
g1344
sI1073
g997
sI1074
g1346
sI1075
g1347
sI1076
g1348
sI1077
g1349
sI1078
g1350
sI1079
g1351
sI1080
g1352
sI1081
g1353
sI1082
g3523
sI1083
g1355
sI1084
g1357
sI1085
g1359
sI1086
g1361
sI1087
g1362
sI1088
g1363
sI1089
g1364
sI1090
g1737
sI1091
g1366
sI1092
g1368
sI1093
g3408
sI1094
g1371
sI1095
g4320
sI1096
g1373
sI1097
g1374
sI1098
g3409
sI1099
g1378
sI1100
g1380
sI1101
g2553
sI1102
g1382
sI1103
g1383
sI1104
g1385
sI1105
g1386
sI1106
g3412
sI1107
g4650
sI1108
g1391
sI1109
g1393
sI1110
g4325
sI1111
g1395
sI1112
g1396
sI1113
g1398
sI1114
g3953
sI1115
g1400
sI1116
g1401
sI1117
g3894
sI1118
g1403
sI1119
g1404
sI1120
g1405
sI1121
g1406
sI1122
g1409
sI1123
g1410
sI1124
g1412
sI1125
g3952
sI1126
g1414
sI1127
g1415
sI1128
g1417
sI1129
g1418
sI1130
g1419
sI1131
g1420
sI1132
g1421
sI1133
g4600
sI1134
g1423
sI1135
g1424
sI1136
g1425
sI1137
g1426
sI1138
g1429
sI1139
g4333
sI1140
g1432
sI1141
g1433
sI1142
g1434
sI1143
g1436
sI1144
g581
sI1145
g1439
sI1146
g3425
sI1147
g1441
sI1148
g1442
sI1149
g1443
sI1150
g1779
sI1151
g1447
sI1152
g4335
sI1153
g1449
sI1154
g1450
sI1155
g1451
sI1156
g1452
sI1157
g1453
sI1158
g4336
sI1159
g1455
sI1160
g1456
sI1161
g1457
sI1162
g1459
sI1163
g1460
sI1164
g498
sI1165
g1462
sI1166
g2474
sI1167
g1463
sI1168
g1464
sI1169
g1466
sI1170
g1467
sI1171
g1468
sI1172
g1469
sI1173
g1472
sI1174
g1473
sI1175
g1474
sI1176
g2571
sI1177
g1475
sI1178
g1477
sI1179
g1478
sI1180
g1479
sI1181
g1480
sI1182
g1481
sI1183
g1482
sI1184
g1906
sI1185
g1485
sI1186
g1486
sI1187
g1487
sI1188
g1488
sI1189
g3584
sI1190
g1493
sI1191
g3167
sI1192
g4509
sI1193
g1497
sI1194
g1498
sI1195
g1499
sI1196
g1500
sI1197
g3435
sI1198
g1503
sI1199
g1504
sI1200
g1505
sI1201
g1507
sI1202
g1508
sI1203
g1510
sI1204
g1511
sI1205
g4630
sI1206
g1514
sI1207
g1517
sI1208
g1518
sI1209
g1519
sI1210
g2579
sI1211
g1522
sI1212
g1523
sI1213
g1524
sI1214
g1525
sI1215
g1526
sI1216
g1527
sI1217
g1528
sI1218
g3694
sI1219
g4708
sI1220
g4773
sI1221
g1534
sI1222
g1535
sI1223
g1536
sI1224
g1537
sI1225
g4278
sI1226
g1541
sI1227
g1543
sI1228
g535
sI1229
g1544
sI1230
g4782
sI1231
g1546
sI1232
g1029
sI1233
g1551
sI1234
g1552
sI1235
g1553
sI1236
g1554
sI1237
g1555
sI1238
g1556
sI1239
g1557
sI1240
g1558
sI1241
g3098
sI1242
g1560
sI1243
g1562
sI1244
g64
sI1245
g73
sI1246
g3447
sI1247
g1566
sI1248
g1032
sI1249
g1569
sI1250
g1570
sI1251
g1571
sI1252
g1573
sI1253
g2883
sI1254
g1576
sI1255
g1577
sI1256
g1578
sI1257
g1581
sI1258
g1583
sI1259
g1584
sI1260
g1585
sI1261
g1586
sI1262
g4362
sI1263
g2592
sI1264
g1590
sI1265
g1591
sI1266
g1592
sI1267
g1593
sI1268
g1595
sI1269
g1596
sI1270
g1597
sI1271
g1598
sI1272
g1599
sI1273
g1600
sI1274
g1601
sI1275
g4173
sI1276
g1606
sI1277
g1607
sI1278
g2597
sI1279
g4370
sI1280
g1616
sI1281
g3664
sI1282
g1617
sI1283
g406
sI1284
g414
sI1285
g418
sI1286
g1624
sI1287
g1625
sI1288
g1626
sI1289
g1627
sI1290
g1628
sI1291
g1629
sI1292
g1631
sI1293
g1805
sI1294
g1637
sI1295
g512
sI1296
g4276
sI1297
g1642
sI1298
g1643
sI1299
g1644
sI1300
g1645
sI1301
g1646
sI1302
g1649
sI1303
g3468
sI1304
g1651
sI1305
g3631
sI1306
g1654
sI1307
g1656
sI1308
g1657
sI1309
g1658
sI1310
g1807
sI1311
g1661
sI1312
g1662
sI1313
g2854
sI1314
g2605
sI1315
g1665
sI1316
g2730
sI1317
g1668
sI1318
g1933
sI1319
g1810
sI1320
g1671
sI1321
g1672
sI1322
g2608
sI1323
g1674
sI1324
g1676
sI1325
g812
sI1326
g816
sI1327
g3464
sI1328
g1682
sI1329
g838
sI1330
g847
sI1331
g1685
sI1332
g1686
sI1333
g1687
sI1334
g1812
sI1335
g1689
sI1336
g1690
sI1337
g886
sI1338
g1692
sI1339
g1693
sI1340
g1694
sI1341
g3839
sI1342
g1696
sI1343
g1697
sI1344
g1698
sI1345
g1699
sI1346
g3505
sI1347
g1701
sI1348
g1702
sI1349
g983
sI1350
g1704
sI1351
g1705
sI1352
g1706
sI1353
g1708
sI1354
g1710
sI1355
g1711
sI1356
g1713
sI1357
g1714
sI1358
g3728
sI1359
g1190
sI1360
g1717
sI1361
g1718
sI1362
g4839
sI1363
g1720
sI1364
g1819
sI1365
g4727
sI1366
g1724
sI1367
g1129
sI1368
g1726
sI1369
g1728
sI1370
g1732
sI1371
g1183
sI1372
g1734
sI1373
g4108
sI1374
g1199
sI1375
g1738
sI1376
g1739
sI1377
g4396
sI1378
g1740
sI1379
g1741
sI1380
g1236
sI1381
g1743
sI1382
g1745
sI1383
g3135
sI1384
g1073
sI1385
g1747
sI1386
g1748
sI1387
g1749
sI1388
g1751
sI1389
g1752
sI1390
g1753
sI1391
g1754
sI1392
g1755
sI1393
g1334
sI1394
g1757
sI1395
g1758
sI1396
g1759
sI1397
g1760
sI1398
g1761
sI1399
g1762
sI1400
g1763
sI1401
g1764
sI1402
g3761
sI1403
g3495
sI1404
g1767
sI1405
g1768
sI1406
g1769
sI1407
g1770
sI1408
g1773
sI1409
g1774
sI1410
g1775
sI1411
g1776
sI1412
g1777
sI1413
g4402
sI1414
g2476
sI1415
g1782
sI1416
g1783
sI1417
g1830
sI1418
g1786
sI1419
g1788
sI1420
g1789
sI1421
g1791
sI1422
g1792
sI1423
g1793
sI1424
g4030
sI1425
g1794
sI1426
g1795
sI1427
g1796
sI1428
g1797
sI1429
g1307
sI1430
g1799
sI1431
g1800
sI1432
g1802
sI1433
g1803
sI1434
g1634
sI1435
g1659
sI1436
g1808
sI1437
g1809
sI1438
g852
sI1439
g1688
sI1440
g1813
sI1441
g1814
sI1442
g1815
sI1443
g1817
sI1444
g1722
sI1445
g1820
sI1446
g1821
sI1447
g1822
sI1448
g1824
sI1449
g1839
sI1450
g1827
sI1451
g1828
sI1452
g1784
sI1453
g1831
sI1454
g2534
sI1455
g1833
sI1456
g1834
sI1457
g1835
sI1458
g1836
sI1459
g1837
sI1460
g1825
sI1461
g1844
sI1462
g3509
sI1463
g1842
sI1464
g1843
sI1465
g1860
sI1466
g1845
sI1467
g1846
sI1468
g1847
sI1469
g1850
sI1470
g1851
sI1471
g1853
sI1472
g1854
sI1473
g1855
sI1474
g1856
sI1475
g1857
sI1476
g4220
sI1477
g1859
sI1478
g1861
sI1479
g2279
sI1480
g1864
sI1481
g1866
sI1482
g1867
sI1483
g1869
sI1484
g1870
sI1485
g1871
sI1486
g1872
sI1487
g3516
sI1488
g1876
sI1489
g1877
sI1490
g1878
sI1491
g1879
sI1492
g1880
sI1493
g1882
sI1494
g1883
sI1495
g1884
sI1496
g1885
sI1497
g1886
sI1498
g3319
sI1499
g3517
sI1500
g1888
sI1501
g1889
sI1502
g1890
sI1503
g1891
sI1504
g1893
sI1505
g1894
sI1506
g1895
sI1507
g1898
sI1508
g1899
sI1509
g1900
sI1510
g1901
sI1511
g1903
sI1512
g1904
sI1513
g1905
sI1514
g1907
sI1515
g1909
sI1516
g1910
sI1517
g1912
sI1518
g1913
sI1519
g1914
sI1520
g1915
sI1521
g2651
sI1522
g1920
sI1523
g1921
sI1524
g1922
sI1525
g1923
sI1526
g1924
sI1527
g1926
sI1528
g1927
sI1529
g1928
sI1530
g1929
sI1531
g1930
sI1532
g1931
sI1533
g2414
sI1534
g1935
sI1535
g1936
sI1536
g1937
sI1537
g1939
sI1538
g1940
sI1539
g1941
sI1540
g2475
sI1541
g1943
sI1542
g1945
sI1543
g1946
sI1544
g1947
sI1545
g1951
sI1546
g1953
sI1547
g3532
sI1548
g1955
sI1549
g2555
sI1550
g1957
sI1551
g1958
sI1552
g1961
sI1553
g1962
sI1554
g3281
sI1555
g3535
sI1556
g1965
sI1557
g1966
sI1558
g1968
sI1559
g4250
sI1560
g4210
sI1561
g1971
sI1562
g2739
sI1563
g1972
sI1564
g3109
sI1565
g1975
sI1566
g1976
sI1567
g2675
sI1568
g1978
sI1569
g1979
sI1570
g1980
sI1571
g1983
sI1572
g1985
sI1573
g1988
sI1574
g1989
sI1575
g1991
sI1576
g2664
sI1577
g1992
sI1578
g4042
sI1579
g2791
sI1580
g1996
sI1581
g1997
sI1582
g1998
sI1583
g1999
sI1584
g2000
sI1585
g2002
sI1586
g2003
sI1587
g2006
sI1588
g4902
sI1589
g2008
sI1590
g2009
sI1591
g2010
sI1592
g2011
sI1593
g2012
sI1594
g2013
sI1595
g2014
sI1596
g2015
sI1597
g2016
sI1598
g2017
sI1599
g3544
sI1600
g2019
sI1601
g2020
sI1602
g4447
sI1603
g2023
sI1604
g2024
sI1605
g2025
sI1606
g2026
sI1607
g2027
sI1608
g2028
sI1609
g2029
sI1610
g3003
sI1611
g2031
sI1612
g2032
sI1613
g2672
sI1614
g2034
sI1615
g3547
sI1616
g2035
sI1617
g2038
sI1618
g2040
sI1619
g2041
sI1620
g2042
sI1621
g2673
sI1622
g2045
sI1623
g2046
sI1624
g2047
sI1625
g2048
sI1626
g2049
sI1627
g2050
sI1628
g2051
sI1629
g2052
sI1630
g2054
sI1631
g4453
sI1632
g2055
sI1633
g2057
sI1634
g2058
sI1635
g2059
sI1636
g2063
sI1637
g2064
sI1638
g2065
sI1639
g2066
sI1640
g2067
sI1641
g2068
sI1642
g2069
sI1643
g2070
sI1644
g2071
sI1645
g2072
sI1646
g2936
sI1647
g3350
sI1648
g2074
sI1649
g2075
sI1650
g2076
sI1651
g2077
sI1652
g2078
sI1653
g4656
sI1654
g2681
sI1655
g2080
sI1656
g2081
sI1657
g2082
sI1658
g2394
sI1659
g2773
sI1660
g3558
sI1661
g2086
sI1662
g2087
sI1663
g2088
sI1664
g2089
sI1665
g2090
sI1666
g2091
sI1667
g3497
sI1668
g2093
sI1669
g2094
sI1670
g2095
sI1671
g2099
sI1672
g2100
sI1673
g2101
sI1674
g2102
sI1675
g2103
sI1676
g2104
sI1677
g2105
sI1678
g2106
sI1679
g2107
sI1680
g2108
sI1681
g2109
sI1682
g2110
sI1683
g3750
sI1684
g2112
sI1685
g2115
sI1686
g1033
sI1687
g2117
sI1688
g2118
sI1689
g2119
sI1690
g2121
sI1691
g2122
sI1692
g2123
sI1693
g2124
sI1694
g2125
sI1695
g3633
sI1696
g2127
sI1697
g3565
sI1698
g2128
sI1699
g2129
sI1700
g2131
sI1701
g2132
sI1702
g2133
sI1703
g2134
sI1704
g2135
sI1705
g2136
sI1706
g2138
sI1707
g3794
sI1708
g2141
sI1709
g3569
sI1710
g2143
sI1711
g2144
sI1712
g2145
sI1713
g2146
sI1714
g4466
sI1715
g2148
sI1716
g2149
sI1717
g2693
sI1718
g2152
sI1719
g2153
sI1720
g2155
sI1721
g2157
sI1722
g2158
sI1723
g2159
sI1724
g2160
sI1725
g2161
sI1726
g3972
sI1727
g2164
sI1728
g2166
sI1729
g2167
sI1730
g2169
sI1731
g2170
sI1732
g2172
sI1733
g2173
sI1734
g2177
sI1735
g2178
sI1736
g2179
sI1737
g2180
sI1738
g2181
sI1739
g2182
sI1740
g2184
sI1741
g220
sI1742
g2186
sI1743
g2187
sI1744
g2188
sI1745
g2190
sI1746
g2191
sI1747
g2192
sI1748
g2193
sI1749
g2194
sI1750
g2195
sI1751
g2196
sI1752
g4476
sI1753
g2197
sI1754
g2198
sI1755
g2537
sI1756
g2201
sI1757
g2202
sI1758
g4248
sI1759
g2207
sI1760
g2209
sI1761
g2210
sI1762
g2211
sI1763
g2212
sI1764
g2213
sI1765
g2215
sI1766
g2217
sI1767
g2218
sI1768
g2219
sI1769
g4568
sI1770
g2223
sI1771
g4486
sI1772
g4397
sI1773
g2225
sI1774
g3585
sI1775
g2228
sI1776
g2229
sI1777
g2230
sI1778
g3586
sI1779
g2232
sI1780
g2233
sI1781
g2234
sI1782
g2235
sI1783
g2236
sI1784
g2237
sI1785
g2238
sI1786
g4775
sI1787
g2241
sI1788
g2243
sI1789
g1430
sI1790
g2245
sI1791
g2247
sI1792
g2248
sI1793
g2249
sI1794
g2252
sI1795
g2573
sI1796
g2254
sI1797
g2255
sI1798
g2256
sI1799
g2257
sI1800
g2258
sI1801
g2259
sI1802
g2261
sI1803
g4595
sI1804
g4572
sI1805
g4884
sI1806
g2266
sI1807
g4636
sI1808
g2268
sI1809
g2269
sI1810
g2270
sI1811
g2273
sI1812
g2274
sI1813
g2275
sI1814
g2276
sI1815
g2277
sI1816
g4280
sI1817
g4634
sI1818
g2281
sI1819
g2283
sI1820
g2284
sI1821
g2285
sI1822
g2286
sI1823
g2287
sI1824
g2288
sI1825
g2289
sI1826
g2290
sI1827
g2292
sI1828
g2293
sI1829
g2294
sI1830
g2298
sI1831
g4685
sI1832
g2300
sI1833
g2302
sI1834
g2303
sI1835
g2306
sI1836
g4074
sI1837
g2308
sI1838
g2309
sI1839
g2310
sI1840
g2313
sI1841
g3118
sI1842
g3892
sI1843
g2318
sI1844
g13
sI1845
g3217
sI1846
g2322
sI1847
g2757
sI1848
g4498
sI1849
g41
sI1850
g2724
sI1851
g2327
sI1852
g3862
sI1853
g71
sI1854
g76
sI1855
g2332
sI1856
g86
sI1857
g2334
sI1858
g2335
sI1859
g3115
sI1860
g2337
sI1861
g2338
sI1862
g2339
sI1863
g2340
sI1864
g2342
sI1865
g146
sI1866
g2345
sI1867
g2424
sI1868
g2347
sI1869
g2348
sI1870
g2349
sI1871
g2350
sI1872
g2351
sI1873
g2352
sI1874
g4257
sI1875
g2354
sI1876
g200
sI1877
g205
sI1878
g2357
sI1879
g210
sI1880
g4403
sI1881
g2360
sI1882
g2362
sI1883
g2363
sI1884
g2367
sI1885
g2368
sI1886
g2369
sI1887
g2370
sI1888
g2371
sI1889
g274
sI1890
g4137
sI1891
g2376
sI1892
g2377
sI1893
g2379
sI1894
g2380
sI1895
g2381
sI1896
g2383
sI1897
g2384
sI1898
g3866
sI1899
g2386
sI1900
g345
sI1901
g2389
sI1902
g3307
sI1903
g4221
sI1904
g2392
sI1905
g2393
sI1906
g344
sI1907
g2396
sI1908
g2397
sI1909
g417
sI1910
g2399
sI1911
g2400
sI1912
g2401
sI1913
g2402
sI1914
g2403
sI1915
g468
sI1916
g2939
sI1917
g2406
sI1918
g2737
sI1919
g2408
sI1920
g4508
sI1921
g2410
sI1922
g2411
sI1923
g2412
sI1924
g2415
sI1925
g529
sI1926
g2740
sI1927
g2418
sI1928
g2420
sI1929
g2421
sI1930
g2741
sI1931
g2423
sI1932
g2425
sI1933
g602
sI1934
g2428
sI1935
g2429
sI1936
g2430
sI1937
g2432
sI1938
g2434
sI1939
g2923
sI1940
g2437
sI1941
g2438
sI1942
g2440
sI1943
g690
sI1944
g2442
sI1945
g2443
sI1946
g2444
sI1947
g720
sI1948
g2446
sI1949
g2447
sI1950
g2448
sI1951
g741
sI1952
g2451
sI1953
g2452
sI1954
g2454
sI1955
g2455
sI1956
g4805
sI1957
g2457
sI1958
g2459
sI1959
g800
sI1960
g2462
sI1961
g4518
sI1962
g819
sI1963
g2465
sI1964
g2466
sI1965
g2467
sI1966
g850
sI1967
g2471
sI1968
g2472
sI1969
g2473
sI1970
g1865
sI1971
g2963
sI1972
g2477
sI1973
g698
sI1974
g2479
sI1975
g2482
sI1976
g1785
sI1977
g2486
sI1978
g2488
sI1979
g1897
sI1980
g2491
sI1981
g986
sI1982
g2493
sI1983
g2494
sI1984
g2495
sI1985
g2496
sI1986
g2497
sI1987
g2499
sI1988
g2501
sI1989
g2502
sI1990
g2504
sI1991
g2505
sI1992
g1079
sI1993
g2507
sI1994
g1092
sI1995
g3744
sI1996
g1100
sI1997
g2512
sI1998
g2513
sI1999
g1582
sI2000
g2515
sI2001
g2516
sI2002
g2517
sI2003
g2519
sI2004
g2520
sI2005
g3638
sI2006
g2522
sI2007
g2524
sI2008
g1177
sI2009
g2526
sI2010
g4059
sI2011
g4638
sI2012
g1224
sI2013
g2529
sI2014
g2610
sI2015
g2532
sI2016
g2533
sI2017
g1832
sI2018
g2535
sI2019
g2246
sI2020
g4889
sI2021
g2539
sI2022
g2540
sI2023
g2541
sI2024
g2542
sI2025
g2543
sI2026
g3568
sI2027
g2545
sI2028
g2546
sI2029
g2549
sI2030
g2764
sI2031
g2551
sI2032
g1381
sI2033
g2554
sI2034
g2556
sI2035
g2557
sI2036
g2558
sI2037
g2559
sI2038
g2560
sI2039
g2561
sI2040
g2562
sI2041
g2563
sI2042
g2564
sI2043
g2565
sI2044
g2566
sI2045
g2567
sI2046
g2568
sI2047
g2569
sI2048
g3401
sI2049
g2572
sI2050
g2574
sI2051
g2767
sI2052
g2575
sI2053
g2578
sI2054
g1520
sI2055
g3647
sI2056
g2582
sI2057
g2583
sI2058
g2584
sI2059
g2585
sI2060
g2588
sI2061
g2590
sI2062
g2591
sI2063
g1589
sI2064
g2593
sI2065
g2594
sI2066
g2595
sI2067
g2596
sI2068
g2792
sI2069
g2598
sI2070
g2601
sI2071
g2602
sI2072
g2603
sI2073
g2604
sI2074
g1663
sI2075
g2606
sI2076
g2607
sI2077
g1673
sI2078
g2609
sI2079
g4408
sI2080
g4172
sI2081
g1716
sI2082
g2616
sI2083
g2617
sI2084
g2620
sI2085
g2621
sI2086
g2622
sI2087
g2623
sI2088
g3657
sI2089
g2625
sI2090
g2626
sI2091
g2627
sI2092
g2628
sI2093
g1969
sI2094
g2630
sI2095
g2632
sI2096
g2634
sI2097
g2638
sI2098
g1849
sI2099
g2640
sI2100
g2641
sI2101
g2658
sI2102
g2717
sI2103
g2645
sI2104
g4093
sI2105
g2648
sI2106
g2650
sI2107
g1918
sI2108
g2652
sI2109
g2653
sI2110
g2654
sI2111
g2656
sI2112
g2657
sI2113
g4905
sI2114
g2659
sI2115
g2660
sI2116
g4554
sI2117
g2662
sI2118
g2663
sI2119
g1874
sI2120
g2666
sI2121
g2668
sI2122
g2670
sI2123
g2033
sI2124
g2043
sI2125
g2674
sI2126
g2676
sI2127
g2677
sI2128
g2678
sI2129
g2679
sI2130
g2680
sI2131
g2079
sI2132
g2682
sI2133
g2683
sI2134
g2500
sI2135
g1379
sI2136
g2687
sI2137
g4345
sI2138
g2688
sI2139
g2787
sI2140
g2151
sI2141
g2156
sI2142
g2695
sI2143
g2696
sI2144
g2697
sI2145
g2698
sI2146
g2887
sI2147
g2699
sI2148
g2700
sI2149
g2701
sI2150
g4720
sI2151
g2705
sI2152
g2706
sI2153
g2707
sI2154
g2708
sI2155
g2710
sI2156
g2200
sI2157
g2713
sI2158
g2714
sI2159
g2715
sI2160
g2716
sI2161
g4071
sI2162
g2718
sI2163
g2719
sI2164
g2721
sI2165
g2722
sI2166
g1669
sI2167
g2326
sI2168
g4565
sI2169
g2728
sI2170
g2365
sI2171
g340
sI2172
g308
sI2173
g2732
sI2174
g2733
sI2175
g705
sI2176
g2735
sI2177
g908
sI2178
g2407
sI2179
g2738
sI2180
g363
sI2181
g2417
sI2182
g2422
sI2183
g2742
sI2184
g2744
sI2185
g2745
sI2186
g2746
sI2187
g2748
sI2188
g4567
sI2189
g2750
sI2190
g2751
sI2191
g2752
sI2192
g3833
sI2193
g1612
sI2194
g2755
sI2195
g2756
sI2196
g2509
sI2197
g2758
sI2198
g2759
sI2199
g2760
sI2200
g2761
sI2201
g2762
sI2202
g4861
sI2203
g2550
sI2204
g2765
sI2205
g2766
sI2206
g3362
sI2207
g2768
sI2208
g2769
sI2209
g2924
sI2210
g2771
sI2211
g2772
sI2212
g2619
sI2213
g2775
sI2214
g2776
sI2215
g2777
sI2216
g2778
sI2217
g2655
sI2218
g2781
sI2219
g2782
sI2220
g2783
sI2221
g2784
sI2222
g2785
sI2223
g2786
sI2224
g2689
sI2225
g2788
sI2226
g2789
sI2227
g1660
sI2228
g4809
sI2229
g3688
sI2230
g2796
sI2231
g2797
sI2232
g2798
sI2233
g2799
sI2234
g2800
sI2235
g2803
sI2236
g2805
sI2237
g2807
sI2238
g721
sI2239
g2809
sI2240
g2811
sI2241
g3690
sI2242
g4410
sI2243
g2815
sI2244
g2816
sI2245
g2817
sI2246
g2818
sI2247
g2819
sI2248
g2820
sI2249
g4526
sI2250
g4349
sI2251
g2824
sI2252
g2825
sI2253
g2827
sI2254
g2828
sI2255
g2829
sI2256
g2830
sI2257
g2832
sI2258
g2833
sI2259
g2834
sI2260
g2835
sI2261
g505
sI2262
g2837
sI2263
g2995
sI2264
g2840
sI2265
g2841
sI2266
g2843
sI2267
g2845
sI2268
g2846
sI2269
g2847
sI2270
g2849
sI2271
g2851
sI2272
g2852
sI2273
g2853
sI2274
g4102
sI2275
g2856
sI2276
g2858
sI2277
g2859
sI2278
g2860
sI2279
g2861
sI2280
g2862
sI2281
g2864
sI2282
g2865
sI2283
g2866
sI2284
g2867
sI2285
g1365
sI2286
g3194
sI2287
g4589
sI2288
g2871
sI2289
g2873
sI2290
g4053
sI2291
g3655
sI2292
g4553
sI2293
g2875
sI2294
g2876
sI2295
g2877
sI2296
g2878
sI2297
g2879
sI2298
g2880
sI2299
g2881
sI2300
g2882
sI2301
g2885
sI2302
g2886
sI2303
g1375
sI2304
g2889
sI2305
g2890
sI2306
g4593
sI2307
g2893
sI2308
g2894
sI2309
g2895
sI2310
g4594
sI2311
g2898
sI2312
g166
sI2313
g2901
sI2314
g2903
sI2315
g2904
sI2316
g4596
sI2317
g2907
sI2318
g2908
sI2319
g2909
sI2320
g2910
sI2321
g2911
sI2322
g2913
sI2323
g2914
sI2324
g2915
sI2325
g939
sI2326
g4072
sI2327
g4014
sI2328
g2920
sI2329
g3498
sI2330
g3508
sI2331
g3729
sI2332
g2926
sI2333
g2927
sI2334
g4302
sI2335
g2929
sI2336
g2931
sI2337
g2932
sI2338
g2933
sI2339
g2934
sI2340
g2935
sI2341
g3594
sI2342
g2937
sI2343
g2938
sI2344
g3684
sI2345
g4603
sI2346
g2943
sI2347
g2946
sI2348
g2947
sI2349
g436
sI2350
g2950
sI2351
g2951
sI2352
g3682
sI2353
g3672
sI2354
g2954
sI2355
g2955
sI2356
g2956
sI2357
g2957
sI2358
g2958
sI2359
g2959
sI2360
g2961
sI2361
g2964
sI2362
g2969
sI2363
g2970
sI2364
g2972
sI2365
g2974
sI2366
g2975
sI2367
g2976
sI2368
g2977
sI2369
g2978
sI2370
g2979
sI2371
g2980
sI2372
g2982
sI2373
g2984
sI2374
g2985
sI2375
g2987
sI2376
g2988
sI2377
g4293
sI2378
g3939
sI2379
g4870
sI2380
g2992
sI2381
g2993
sI2382
g2994
sI2383
g2996
sI2384
g2997
sI2385
g2998
sI2386
g2999
sI2387
g4149
sI2388
g3000
sI2389
g3002
sI2390
g4552
sI2391
g3005
sI2392
g3006
sI2393
g3007
sI2394
g3008
sI2395
g617
sI2396
g3011
sI2397
g3013
sI2398
g4123
sI2399
g3016
sI2400
g3018
sI2401
g4156
sI2402
g3021
sI2403
g3022
sI2404
g3023
sI2405
g4622
sI2406
g3025
sI2407
g3026
sI2408
g4182
sI2409
g2808
sI2410
g3030
sI2411
g3031
sI2412
g3032
sI2413
g3033
sI2414
g4514
sI2415
g3034
sI2416
g3035
sI2417
g3036
sI2418
g3037
sI2419
g3038
sI2420
g3039
sI2421
g3040
sI2422
g3531
sI2423
g3042
sI2424
g3043
sI2425
g3044
sI2426
g3045
sI2427
g3047
sI2428
g3048
sI2429
g3049
sI2430
g3050
sI2431
g3051
sI2432
g3052
sI2433
g3054
sI2434
g3055
sI2435
g3057
sI2436
g1158
sI2437
g4628
sI2438
g3062
sI2439
g3063
sI2440
g3065
sI2441
g4629
sI2442
g3068
sI2443
g3069
sI2444
g3737
sI2445
g3071
sI2446
g4457
sI2447
g3969
sI2448
g3075
sI2449
g3076
sI2450
g1215
sI2451
g3079
sI2452
g3080
sI2453
g3082
sI2454
g4712
sI2455
g3084
sI2456
g3085
sI2457
g3086
sI2458
g3087
sI2459
g3090
sI2460
g2734
sI2461
g3093
sI2462
g3094
sI2463
g3095
sI2464
g3097
sI2465
g3099
sI2466
g3101
sI2467
g3102
sI2468
g4479
sI2469
g3103
sI2470
g3104
sI2471
g3105
sI2472
g3106
sI2473
g4724
sI2474
g1974
sI2475
g3111
sI2476
g3112
sI2477
g3113
sI2478
g3114
sI2479
g4765
sI2480
g4520
sI2481
g4660
sI2482
g3122
sI2483
g3192
sI2484
g3123
sI2485
g3124
sI2486
g3125
sI2487
g3126
sI2488
g3127
sI2489
g3128
sI2490
g4624
sI2491
g3131
sI2492
g3133
sI2493
g3134
sI2494
g109
sI2495
g3136
sI2496
g3914
sI2497
g3138
sI2498
g3141
sI2499
g3142
sI2500
g3143
sI2501
g3145
sI2502
g3148
sI2503
g3149
sI2504
g3151
sI2505
g3153
sI2506
g48
sI2507
g3155
sI2508
g3156
sI2509
g3157
sI2510
g3278
sI2511
g3160
sI2512
g3162
sI2513
g3165
sI2514
g4642
sI2515
g3168
sI2516
g3171
sI2517
g3172
sI2518
g132
sI2519
g3176
sI2520
g4644
sI2521
g149
sI2522
g3180
sI2523
g3181
sI2524
g3182
sI2525
g4645
sI2526
g165
sI2527
g3974
sI2528
g2868
sI2529
g4714
sI2530
g3189
sI2531
g3190
sI2532
g3191
sI2533
g2366
sI2534
g3193
sI2535
g2869
sI2536
g3196
sI2537
g3197
sI2538
g3198
sI2539
g3199
sI2540
g3200
sI2541
g3201
sI2542
g3203
sI2543
g3204
sI2544
g3205
sI2545
g3207
sI2546
g3208
sI2547
g2085
sI2548
g3211
sI2549
g3212
sI2550
g3213
sI2551
g3214
sI2552
g3215
sI2553
g4158
sI2554
g3218
sI2555
g3219
sI2556
g315
sI2557
g3221
sI2558
g4793
sI2559
g3225
sI2560
g3763
sI2561
g3228
sI2562
g3229
sI2563
g3230
sI2564
g3231
sI2565
g3233
sI2566
g3234
sI2567
g3235
sI2568
g3238
sI2569
g3239
sI2570
g3240
sI2571
g410
sI2572
g3242
sI2573
g420
sI2574
g3244
sI2575
g3246
sI2576
g3247
sI2577
g3405
sI2578
g3248
sI2579
g3250
sI2580
g3251
sI2581
g3140
sI2582
g3504
sI2583
g3254
sI2584
g2278
sI2585
g2870
sI2586
g3258
sI2587
g3259
sI2588
g3260
sI2589
g3261
sI2590
g4825
sI2591
g3263
sI2592
g3264
sI2593
g3265
sI2594
g3920
sI2595
g3269
sI2596
g3271
sI2597
g3272
sI2598
g3274
sI2599
g3275
sI2600
g3276
sI2601
g3158
sI2602
g3279
sI2603
g4222
sI2604
g3282
sI2605
g3283
sI2606
g3284
sI2607
g3286
sI2608
g3287
sI2609
g4110
sI2610
g3289
sI2611
g3290
sI2612
g3291
sI2613
g3292
sI2614
g4165
sI2615
g3294
sI2616
g3296
sI2617
g3298
sI2618
g3623
sI2619
g3301
sI2620
g3302
sI2621
g724
sI2622
g3304
sI2623
g3305
sI2624
g3308
sI2625
g3309
sI2626
g4078
sI2627
g3311
sI2628
g3312
sI2629
g3313
sI2630
g3314
sI2631
g3315
sI2632
g3317
sI2633
g3318
sI2634
g1037
sI2635
g1636
sI2636
g3321
sI2637
g3322
sI2638
g3323
sI2639
g836
sI2640
g848
sI2641
g3327
sI2642
g857
sI2643
g3329
sI2644
g3331
sI2645
g3332
sI2646
g3333
sI2647
g1594
sI2648
g3336
sI2649
g3337
sI2650
g260
sI2651
g3341
sI2652
g3342
sI2653
g3343
sI2654
g4117
sI2655
g3345
sI2656
g3346
sI2657
g3347
sI2658
g4909
sI2659
g2530
sI2660
g3785
sI2661
g3262
sI2662
g3355
sI2663
g1043
sI2664
g3358
sI2665
g3471
sI2666
g3360
sI2667
g1074
sI2668
g1089
sI2669
g3364
sI2670
g3365
sI2671
g116
sI2672
g1103
sI2673
g3369
sI2674
g1123
sI2675
g3371
sI2676
g3372
sI2677
g4677
sI2678
g4875
sI2679
g3375
sI2680
g3376
sI2681
g3377
sI2682
g3379
sI2683
g3381
sI2684
g3537
sI2685
g3384
sI2686
g1209
sI2687
g3386
sI2688
g3387
sI2689
g3670
sI2690
g3389
sI2691
g278
sI2692
g1241
sI2693
g3392
sI2694
g3393
sI2695
g3394
sI2696
g3395
sI2697
g3396
sI2698
g3397
sI2699
g3549
sI2700
g3400
sI2701
g4288
sI2702
g3403
sI2703
g381
sI2704
g1483
sI2705
g1369
sI2706
g1376
sI2707
g3411
sI2708
g1387
sI2709
g3413
sI2710
g3414
sI2711
g3415
sI2712
g3599
sI2713
g4121
sI2714
g3418
sI2715
g3419
sI2716
g3420
sI2717
g366
sI2718
g1431
sI2719
g4684
sI2720
g1440
sI2721
g3426
sI2722
g1471
sI2723
g3429
sI2724
g4688
sI2725
g3431
sI2726
g3432
sI2727
g1502
sI2728
g3436
sI2729
g3437
sI2730
g3438
sI2731
g3439
sI2732
g3440
sI2733
g3441
sI2734
g3442
sI2735
g3444
sI2736
g3445
sI2737
g1565
sI2738
g3448
sI2739
g3720
sI2740
g3452
sI2741
g3455
sI2742
g3456
sI2743
g3457
sI2744
g3458
sI2745
g4729
sI2746
g3460
sI2747
g3461
sI2748
g3462
sI2749
g3465
sI2750
g3467
sI2751
g1650
sI2752
g3469
sI2753
g3470
sI2754
g1666
sI2755
g3472
sI2756
g3473
sI2757
g2919
sI2758
g3475
sI2759
g1858
sI2760
g3477
sI2761
g4851
sI2762
g3478
sI2763
g2774
sI2764
g3481
sI2765
g3482
sI2766
g3483
sI2767
g3484
sI2768
g3485
sI2769
g3486
sI2770
g3487
sI2771
g3488
sI2772
g3489
sI2773
g3490
sI2774
g3492
sI2775
g3494
sI2776
g1766
sI2777
g3496
sI2778
g4467
sI2779
g3500
sI2780
g3501
sI2781
g2720
sI2782
g3507
sI2783
g1841
sI2784
g2301
sI2785
g1848
sI2786
g399
sI2787
g3513
sI2788
g3515
sI2789
g1875
sI2790
g1887
sI2791
g3519
sI2792
g3520
sI2793
g1354
sI2794
g3526
sI2795
g3529
sI2796
g3530
sI2797
g1948
sI2798
g972
sI2799
g3533
sI2800
g2928
sI2801
g3938
sI2802
g3536
sI2803
g2382
sI2804
g3539
sI2805
g3542
sI2806
g2018
sI2807
g3545
sI2808
g3546
sI2809
g2296
sI2810
g3548
sI2811
g3550
sI2812
g3551
sI2813
g3552
sI2814
g3553
sI2815
g3554
sI2816
g3555
sI2817
g3556
sI2818
g3557
sI2819
g1304
sI2820
g3560
sI2821
g3561
sI2822
g3562
sI2823
g3563
sI2824
g2120
sI2825
g1332
sI2826
g3567
sI2827
g1787
sI2828
g2142
sI2829
g4223
sI2830
g3571
sI2831
g3572
sI2832
g3574
sI2833
g440
sI2834
g3577
sI2835
g3578
sI2836
g3579
sI2837
g3580
sI2838
g3583
sI2839
g4075
sI2840
g2227
sI2841
g3129
sI2842
g3587
sI2843
g3588
sI2844
g4265
sI2845
g926
sI2846
g4717
sI2847
g3593
sI2848
g4819
sI2849
g3595
sI2850
g3596
sI2851
g3597
sI2852
g3598
sI2853
g293
sI2854
g3601
sI2855
g3602
sI2856
g3604
sI2857
g3607
sI2858
g371
sI2859
g4327
sI2860
g4817
sI2861
g3611
sI2862
g3824
sI2863
g4626
sI2864
g3616
sI2865
g3617
sI2866
g3618
sI2867
g3826
sI2868
g3621
sI2869
g1790
sI2870
g3624
sI2871
g3625
sI2872
g3626
sI2873
g3627
sI2874
g3629
sI2875
g715
sI2876
g2116
sI2877
g3634
sI2878
g3635
sI2879
g2521
sI2880
g4198
sI2881
g3640
sI2882
g3644
sI2883
g3645
sI2884
g3646
sI2885
g2581
sI2886
g3649
sI2887
g839
sI2888
g3652
sI2889
g3653
sI2890
g2413
sI2891
g3656
sI2892
g2624
sI2893
g3658
sI2894
g2635
sI2895
g3662
sI2896
g2942
sI2897
g2062
sI2898
g3665
sI2899
g3666
sI2900
g3667
sI2901
g955
sI2902
g3669
sI2903
g224
sI2904
g3675
sI2905
g3676
sI2906
g3837
sI2907
g3678
sI2908
g3679
sI2909
g3680
sI2910
g1621
sI2911
g3685
sI2912
g174
sI2913
g2795
sI2914
g2813
sI2915
g3692
sI2916
g2836
sI2917
g2096
sI2918
g3696
sI2919
g3698
sI2920
g3699
sI2921
g3700
sI2922
g2884
sI2923
g3702
sI2924
g3674
sI2925
g3703
sI2926
g3704
sI2927
g3705
sI2928
g1187
sI2929
g3707
sI2930
g3714
sI2931
g3709
sI2932
g3710
sI2933
g3711
sI2934
g2960
sI2935
g3715
sI2936
g3716
sI2937
g3717
sI2938
g3718
sI2939
g4392
sI2940
g3721
sI2941
g3722
sI2942
g3723
sI2943
g1731
sI2944
g3725
sI2945
g3726
sI2946
g3727
sI2947
g3775
sI2948
g3731
sI2949
g4379
sI2950
g1367
sI2951
g3733
sI2952
g3734
sI2953
g3735
sI2954
g3736
sI2955
g3070
sI2956
g587
sI2957
g3083
sI2958
g3740
sI2959
g3741
sI2960
g3743
sI2961
g1801
sI2962
g3747
sI2963
g3748
sI2964
g4134
sI2965
g3751
sI2966
g3752
sI2967
g3753
sI2968
g4811
sI2969
g3754
sI2970
g3755
sI2971
g367
sI2972
g637
sI2973
g3760
sI2974
g2137
sI2975
g3762
sI2976
g3227
sI2977
g3764
sI2978
g3765
sI2979
g3766
sI2980
g3851
sI2981
g3768
sI2982
g3917
sI2983
g4719
sI2984
g3772
sI2985
g3774
sI2986
g805
sI2987
g3777
sI2988
g4098
sI2989
g1203
sI2990
g3779
sI2991
g3780
sI2992
g3781
sI2993
g3783
sI2994
g3784
sI2995
g3344
sI2996
g3786
sI2997
g3787
sI2998
g3788
sI2999
g3789
sI3000
g3790
sI3001
g3792
sI3002
g2140
sI3003
g3795
sI3004
g3797
sI3005
g982
sI3006
g3139
sI3007
g3800
sI3008
g3801
sI3009
g37
sI3010
g3803
sI3011
g4744
sI3012
g3807
sI3013
g1047
sI3014
g3810
sI3015
g3811
sI3016
g3812
sI3017
g3816
sI3018
g3817
sI3019
g3818
sI3020
g3820
sI3021
g3821
sI3022
g3822
sI3023
g3823
sI3024
g3612
sI3025
g3825
sI3026
g3620
sI3027
g3827
sI3028
g3828
sI3029
g3829
sI3030
g3830
sI3031
g3831
sI3032
g3433
sI3033
g3835
sI3034
g3836
sI3035
g2489
sI3036
g3838
sI3037
g3840
sI3038
g3841
sI3039
g3843
sI3040
g3844
sI3041
g3847
sI3042
g246
sI3043
g3850
sI3044
g3767
sI3045
g3852
sI3046
g3853
sI3047
g3854
sI3048
g4125
sI3049
g3856
sI3050
g3858
sI3051
g3861
sI3052
g4753
sI3053
g3863
sI3054
g3865
sI3055
g4365
sI3056
g4258
sI3057
g3868
sI3058
g3872
sI3059
g3916
sI3060
g3874
sI3061
g3876
sI3062
g3877
sI3063
g3878
sI3064
g596
sI3065
g3880
sI3066
g3881
sI3067
g3882
sI3068
g3883
sI3069
g3884
sI3070
g3885
sI3071
g3967
sI3072
g3887
sI3073
g3888
sI3074
g3889
sI3075
g3890
sI3076
g3891
sI3077
g3893
sI3078
g1402
sI3079
g3895
sI3080
g3897
sI3081
g3898
sI3082
g3899
sI3083
g3900
sI3084
g3901
sI3085
g4260
sI3086
g1735
sI3087
g3905
sI3088
g3906
sI3089
g3907
sI3090
g3908
sI3091
g3909
sI3092
g3910
sI3093
g3912
sI3094
g3913
sI3095
g3915
sI3096
g3873
sI3097
g3919
sI3098
g447
sI3099
g3921
sI3100
g3922
sI3101
g2753
sI3102
g3925
sI3103
g3926
sI3104
g3928
sI3105
g3929
sI3106
g3930
sI3107
g3931
sI3108
g4289
sI3109
g3934
sI3110
g3935
sI3111
g3936
sI3112
g397
sI3113
g2439
sI3114
g4326
sI3115
g3940
sI3116
g3942
sI3117
g4354
sI3118
g3944
sI3119
g3946
sI3120
g3947
sI3121
g3950
sI3122
g3951
sI3123
g1413
sI3124
g2991
sI3125
g4377
sI3126
g3957
sI3127
g3958
sI3128
g3960
sI3129
g3961
sI3130
g3962
sI3131
g3964
sI3132
g3965
sI3133
g3966
sI3134
g3968
sI3135
g694
sI3136
g2647
sI3137
g803
sI3138
g3973
sI3139
g3970
sI3140
g3975
sI3141
g3976
sI3142
g3977
sI3143
g3981
sI3144
g3982
sI3145
g4696
sI3146
g3984
sI3147
g4575
sI3148
g3986
sI3149
g4585
sI3150
g3990
sI3151
g3991
sI3152
g3632
sI3153
g3993
sI3154
g3994
sI3155
g3995
sI3156
g3996
sI3157
g3997
sI3158
g3998
sI3159
g4802
sI3160
g4000
sI3161
g4001
sI3162
g4002
sI3163
g4003
sI3164
g4004
sI3165
g4005
sI3166
g4006
sI3167
g4007
sI3168
g4008
sI3169
g4009
sI3170
g4858
sI3171
g4011
sI3172
g4754
sI3173
g4364
sI3174
g2691
sI3175
g4016
sI3176
g4017
sI3177
g4791
sI3178
g4020
sI3179
g4245
sI3180
g4022
sI3181
g4023
sI3182
g4024
sI3183
g4026
sI3184
g4027
sI3185
g4028
sI3186
g4029
sI3187
g2039
sI3188
g4031
sI3189
g4491
sI3190
g2857
sI3191
g4034
sI3192
g4036
sI3193
g4037
sI3194
g4039
sI3195
g4040
sI3196
g4041
sI3197
g4043
sI3198
g4044
sI3199
g4045
sI3200
g4046
sI3201
g3028
sI3202
g4048
sI3203
g4050
sI3204
g2511
sI3205
g3450
sI3206
g4054
sI3207
g4055
sI3208
g4192
sI3209
g4057
sI3210
g4058
sI3211
g4061
sI3212
g4062
sI3213
g84
sI3214
g4237
sI3215
g4065
sI3216
g4066
sI3217
g4068
sI3218
g4069
sI3219
g4070
sI3220
g4073
sI3221
g140
sI3222
g4076
sI3223
g4077
sI3224
g4426
sI3225
g4081
sI3226
g4082
sI3227
g4084
sI3228
g186
sI3229
g4319
sI3230
g4088
sI3231
g4089
sI3232
g4090
sI3233
g4091
sI3234
g4092
sI3235
g463
sI3236
g4094
sI3237
g3009
sI3238
g239
sI3239
g3902
sI3240
g4099
sI3241
g4100
sI3242
g4101
sI3243
g1804
sI3244
g3378
sI3245
g4104
sI3246
g4105
sI3247
g4106
sI3248
g4107
sI3249
g569
sI3250
g426
sI3251
g4111
sI3252
g4112
sI3253
g4113
sI3254
g4114
sI3255
g4115
sI3256
g4116
sI3257
g336
sI3258
g4118
sI3259
g4119
sI3260
g4120
sI3261
g2005
sI3262
g4665
sI3263
g4122
sI3264
g4124
sI3265
g1321
sI3266
g389
sI3267
g1204
sI3268
g4129
sI3269
g4131
sI3270
g4132
sI3271
g1437
sI3272
g4136
sI3273
g4227
sI3274
g4139
sI3275
g4833
sI3276
g4142
sI3277
g4143
sI3278
g4144
sI3279
g4145
sI3280
g4146
sI3281
g4147
sI3282
g4148
sI3283
g494
sI3284
g499
sI3285
g4151
sI3286
g4152
sI3287
g4155
sI3288
g929
sI3289
g4159
sI3290
g542
sI3291
g4161
sI3292
g4163
sI3293
g4164
sI3294
g1166
sI3295
g4166
sI3296
g4167
sI3297
g4168
sI3298
g4169
sI3299
g4170
sI3300
g4174
sI3301
g650
sI3302
g3660
sI3303
g662
sI3304
g4181
sI3305
g3027
sI3306
g4183
sI3307
g4184
sI3308
g691
sI3309
g4186
sI3310
g4803
sI3311
g4188
sI3312
g2097
sI3313
g1232
sI3314
g692
sI3315
g1148
sI3316
g1444
sI3317
g4196
sI3318
g4197
sI3319
g98
sI3320
g4199
sI3321
g4200
sI3322
g795
sI3323
g4202
sI3324
g4203
sI3325
g4204
sI3326
g4838
sI3327
g2060
sI3328
g4207
sI3329
g4208
sI3330
g2175
sI3331
g4211
sI3332
g4212
sI3333
g4213
sI3334
g4214
sI3335
g4216
sI3336
g868
sI3337
g4218
sI3338
g4219
sI3339
g1633
sI3340
g881
sI3341
g1614
sI3342
g894
sI3343
g4225
sI3344
g2461
sI3345
g4229
sI3346
g4231
sI3347
g4232
sI3348
g4233
sI3349
g4234
sI3350
g4235
sI3351
g4236
sI3352
g2826
sI3353
g4238
sI3354
g4239
sI3355
g4240
sI3356
g4241
sI3357
g4244
sI3358
g4247
sI3359
g679
sI3360
g4249
sI3361
g4899
sI3362
g4251
sI3363
g4153
sI3364
g1031
sI3365
g4256
sI3366
g4255
sI3367
g4259
sI3368
g4262
sI3369
g4263
sI3370
g3805
sI3371
g4266
sI3372
g4267
sI3373
g4268
sI3374
g4270
sI3375
g1545
sI3376
g4272
sI3377
g4274
sI3378
g4275
sI3379
g3773
sI3380
g4277
sI3381
g497
sI3382
g3164
sI3383
g4281
sI3384
g4282
sI3385
g1515
sI3386
g4284
sI3387
g4285
sI3388
g4286
sI3389
g4646
sI3390
g3855
sI3391
g4290
sI3392
g125
sI3393
g1228
sI3394
g1461
sI3395
g4294
sI3396
g4295
sI3397
g4296
sI3398
g4297
sI3399
g4299
sI3400
g1268
sI3401
g1272
sI3402
g4303
sI3403
g4305
sI3404
g4306
sI3405
g2671
sI3406
g4308
sI3407
g4309
sI3408
g4311
sI3409
g3502
sI3410
g4315
sI3411
g4316
sI3412
g1372
sI3413
g4321
sI3414
g4323
sI3415
g2317
sI3416
g4324
sI3417
g1394
sI3418
g1397
sI3419
g3746
sI3420
g4329
sI3421
g4331
sI3422
g4332
sI3423
g2917
sI3424
g4334
sI3425
g1448
sI3426
g1454
sI3427
g4337
sI3428
g4338
sI3429
g2004
sI3430
g4340
sI3431
g4341
sI3432
g4344
sI3433
g1516
sI3434
g4346
sI3435
g4347
sI3436
g4313
sI3437
g1533
sI3438
g4826
sI3439
g4351
sI3440
g4352
sI3441
g4353
sI3442
g4356
sI3443
g4357
sI3444
g4358
sI3445
g4359
sI3446
g4361
sI3447
g1587
sI3448
g4366
sI3449
g4367
sI3450
g4368
sI3451
g1615
sI3452
g4371
sI3453
g4372
sI3454
g4373
sI3455
g4374
sI3456
g4375
sI3457
g4376
sI3458
g3407
sI3459
g566
sI3460
g4378
sI3461
g1925
sI3462
g4380
sI3463
g4381
sI3464
g4383
sI3465
g4385
sI3466
g4386
sI3467
g4388
sI3468
g4389
sI3469
g4393
sI3470
g4395
sI3471
g2600
sI3472
g633
sI3473
g4398
sI3474
g4399
sI3475
g4400
sI3476
g4401
sI3477
g1778
sI3478
g3325
sI3479
g4404
sI3480
g4407
sI3481
g2435
sI3482
g3163
sI3483
g4411
sI3484
g4412
sI3485
g4413
sI3486
g4415
sI3487
g4416
sI3488
g4418
sI3489
g4419
sI3490
g4420
sI3491
g4421
sI3492
g4422
sI3493
g4424
sI3494
g4427
sI3495
g4429
sI3496
g4430
sI3497
g707
sI3498
g2615
sI3499
g4434
sI3500
g1944
sI3501
g4748
sI3502
g4440
sI3503
g4441
sI3504
g1986
sI3505
g4443
sI3506
g4445
sI3507
g4446
sI3508
g2022
sI3509
g4448
sI3510
g4846
sI3511
g4451
sI3512
g2986
sI3513
g4454
sI3514
g4847
sI3515
g4456
sI3516
g4459
sI3517
g3074
sI3518
g4462
sI3519
g4464
sI3520
g4465
sI3521
g2147
sI3522
g1952
sI3523
g2968
sI3524
g4471
sI3525
g4473
sI3526
g4474
sI3527
g4475
sI3528
g4676
sI3529
g4477
sI3530
g4478
sI3531
g347
sI3532
g4480
sI3533
g4481
sI3534
g4482
sI3535
g2587
sI3536
g4484
sI3537
g4485
sI3538
g4032
sI3539
g4487
sI3540
g1664
sI3541
g4489
sI3542
g4490
sI3543
g2280
sI3544
g4492
sI3545
g2291
sI3546
g4494
sI3547
g1492
sI3548
g3091
sI3549
g1798
sI3550
g4499
sI3551
g4501
sI3552
g4502
sI3553
g4503
sI3554
g4506
sI3555
g4507
sI3556
g2409
sI3557
g1495
sI3558
g4510
sI3559
g4511
sI3560
g4512
sI3561
g2431
sI3562
g350
sI3563
g4515
sI3564
g4516
sI3565
g4517
sI3566
g2463
sI3567
g4519
sI3568
g3120
sI3569
g4521
sI3570
g4522
sI3571
g4524
sI3572
g4527
sI3573
g4528
sI3574
g4529
sI3575
g4531
sI3576
g4532
sI3577
g2253
sI3578
g4534
sI3579
g4535
sI3580
g4536
sI3581
g4538
sI3582
g4539
sI3583
g4540
sI3584
g4541
sI3585
g4542
sI3586
g4544
sI3587
g4864
sI3588
g4546
sI3589
g4547
sI3590
g4548
sI3591
g4549
sI3592
g4551
sI3593
g2636
sI3594
g964
sI3595
g2661
sI3596
g4555
sI3597
g4556
sI3598
g4557
sI3599
g4558
sI3600
g4355
sI3601
g4560
sI3602
g4561
sI3603
g4563
sI3604
g4564
sI3605
g2726
sI3606
g4922
sI3607
g2749
sI3608
g4569
sI3609
g4904
sI3610
g4571
sI3611
g4049
sI3612
g4573
sI3613
g4574
sI3614
g4576
sI3615
g4577
sI3616
g1491
sI3617
g4579
sI3618
g4580
sI3619
g4581
sI3620
g4582
sI3621
g4583
sI3622
g4584
sI3623
g4586
sI3624
g4095
sI3625
g4588
sI3626
g2629
sI3627
g4590
sI3628
g4591
sI3629
g3010
sI3630
g2896
sI3631
g2902
sI3632
g2905
sI3633
g4597
sI3634
g4598
sI3635
g4599
sI3636
g4601
sI3637
g4602
sI3638
g2941
sI3639
g4604
sI3640
g2098
sI3641
g4606
sI3642
g4607
sI3643
g4608
sI3644
g4610
sI3645
g173
sI3646
g2983
sI3647
g4613
sI3648
g2577
sI3649
g4616
sI3650
g4617
sI3651
g4618
sI3652
g3813
sI3653
g4620
sI3654
g3024
sI3655
g4623
sI3656
g2265
sI3657
g1496
sI3658
g4627
sI3659
g3177
sI3660
g3067
sI3661
g1513
sI3662
g4631
sI3663
g4632
sI3664
g4633
sI3665
g2267
sI3666
g1389
sI3667
g4639
sI3668
g4640
sI3669
g4641
sI3670
g864
sI3671
g3178
sI3672
g3183
sI3673
g4647
sI3674
g3210
sI3675
g4649
sI3676
g92
sI3677
g966
sI3678
g4653
sI3679
g4654
sI3680
g553
sI3681
g4010
sI3682
g4657
sI3683
g3100
sI3684
g4659
sI3685
g1501
sI3686
g3293
sI3687
g4662
sI3688
g1580
sI3689
g4051
sI3690
g383
sI3691
g4671
sI3692
g4669
sI3693
g4670
sI3694
g3116
sI3695
g4672
sI3696
g4387
sI3697
g4674
sI3698
g4675
sI3699
g2644
sI3700
g4678
sI3701
g4679
sI3702
g4680
sI3703
g4681
sI3704
g4682
sI3705
g4683
sI3706
g2891
sI3707
g4686
sI3708
g3430
sI3709
g4690
sI3710
g4692
sI3711
g4693
sI3712
g858
sI3713
g4698
sI3714
g4699
sI3715
g4176
sI3716
g4703
sI3717
g4704
sI3718
g4705
sI3719
g4706
sI3720
g4707
sI3721
g3224
sI3722
g4710
sI3723
g4711
sI3724
g4360
sI3725
g1648
sI3726
g4715
sI3727
g4716
sI3728
g3390
sI3729
g4721
sI3730
g3663
sI3731
g3869
sI3732
g685
sI3733
g4726
sI3734
g3689
sI3735
g4728
sI3736
g4314
sI3737
g4730
sI3738
g1938
sI3739
g4732
sI3740
g4734
sI3741
g4735
sI3742
g4736
sI3743
g4737
sI3744
g4738
sI3745
g4739
sI3746
g4741
sI3747
g4742
sI3748
g4743
sI3749
g3804
sI3750
g4745
sI3751
g1531
sI3752
g4746
sI3753
g4079
sI3754
g4495
sI3755
g1638
sI3756
g1358
sI3757
g155
sI3758
g4756
sI3759
g4757
sI3760
g4758
sI3761
g4759
sI3762
g4760
sI3763
g4761
sI3764
g4762
sI3765
g4764
sI3766
g3923
sI3767
g4766
sI3768
g1071
sI3769
g4768
sI3770
g4769
sI3771
g4772
sI3772
g4901
sI3773
g2251
sI3774
g4776
sI3775
g4777
sI3776
g4778
sI3777
g4781
sI3778
g1030
sI3779
g4783
sI3780
g4903
sI3781
g4785
sI3782
g4786
sI3783
g4787
sI3784
g1736
sI3785
g3600
sI3786
g4790
sI3787
g4080
sI3788
g4792
sI3789
g4866
sI3790
g4796
sI3791
g4797
sI3792
g735
sI3793
g3806
sI3794
g4800
sI3795
g4801
sI3796
g4190
sI3797
g4187
sI3798
g4804
sI3799
g4807
sI3800
g4808
sI3801
g1550
sI3802
g1288
sI3803
g4910
sI3804
g4812
sI3805
g4814
sI3806
g4815
sI3807
g4816
sI3808
g2375
sI3809
g3770
sI3810
g4820
sI3811
g4822
sI3812
g4823
sI3813
g4824
sI3814
g3641
sI3815
g4350
sI3816
g4827
sI3817
g4828
sI3818
g4830
sI3819
g4831
sI3820
g4832
sI3821
g4883
sI3822
g4835
sI3823
g4836
sI3824
g4837
sI3825
g4406
sI3826
g3739
sI3827
g4423
sI3828
g4841
sI3829
g17
sI3830
g4455
sI3831
g4850
sI3832
g3019
sI3833
g4852
sI3834
g4853
sI3835
g4854
sI3836
g4856
sI3837
g483
sI3838
g4860
sI3839
g2906
sI3840
g4862
sI3841
g4863
sI3842
g2918
sI3843
g4865
sI3844
g4867
sI3845
g4869
sI3846
g4872
sI3847
g4873
sI3848
g4874
sI3849
g4876
sI3850
g4877
sI3851
g4878
sI3852
g4879
sI3853
g4643
sI3854
g746
sI3855
g4882
sI3856
g4885
sI3857
g4886
sI3858
g4888
sI3859
g4700
sI3860
g4298
sI3861
g4891
sI3862
g601
sI3863
g4893
sI3864
g4895
sI3865
g4896
sI3866
g4897
sI3867
g4898
sI3868
g4900
sI3869
g2503
sI3870
g4779
sI3871
g4784
sI3872
g4911
sI3873
g4912
sI3874
g4913
sI3875
g4914
sI3876
g2314
sI3877
g285
sI3878
g4917
sI3879
g4918
sI3880
g4920
sI3881
g4921
sI3882
g4908
sI3883
g2315
sI3884
g4924
sI3885
g4925
sI3886
g2989
sI3887
g2844
sI3888
g439
sI3889
g1681
sI3890
g2712
sI3891
g3166
sI3892
g2821
sI3893
g2589
sI3894
g3417
sI3895
g4205
sI3896
g1176
sI3897
g3590
sI3898
g1316
sI3899
g907
sI3900
g1647
sI3901
g3334
sI3902
g923
sI3903
g1470
sI3904
g3719
sI3905
g4592
sI3906
g2729
sI3907
g1677
sI3908
g4871
sI3909
g3918
sI3910
g2874
sI3911
g699
sI3912
g1059
sI3913
g324
sI3914
g185
sI3915
g2150
sI3916
g1390
sI3917
g1771
sI3918
g237
sI3919
g1506
sI3920
g830
sI3921
g2548
sI3922
g2528
sI3923
g4821
sI3924
g1823
sI3925
g3267
sI3926
g1640
sI3927
g2176
sI3928
g4128
sI3929
g4848
sI3930
g1967
sI3931
g4840
sI3932
g4224
sI3933
g1719
sI3934
g1608
sI3935
g1973
sI3936
g1201
sI3937
g1826
sI3938
g2770
sI3939
g405
sI3940
g400
sI3941
g1618
sI3942
g3374
sI3943
g3295
sI3944
g3636
sI3945
g3510
sI3946
g1712
sI3947
g636
sI3948
g1567
sI3949
g2490
sI3950
g4307
sI3951
g2485
sI3952
g1932
sI3953
g3012
sI3954
g2205
sI3955
g3603
sI3956
g941
sI3957
g2183
sI3958
g3538
sI3959
g3348
sI3960
g462
sI3961
g4689
sI3962
g4138
sI3963
g3020
sI3964
g3402
sI3965
g4496
sI3966
g1023
sI3967
g2723
sI3968
g1700
sI3969
g4215
sI3970
g1964
sI3971
g2021
sI3972
g2199
sI3973
g129
sI3974
g2208
sI3975
g4615
sI3976
g2743
sI3977
g1356
sI3978
g66
sI3979
g1465
sI3980
g557
sI3981
g4740
sI3982
g4141
sI3983
g1040
sI3984
g1017
sI3985
g4500
sI3986
g3903
sI3987
g1919
sI3988
g3999
sI3989
g313
sI3990
g4845
sI3991
g3528
sI3992
g978
sI3993
g648
sI3994
g4667
sI3995
g1987
sI3996
g3280
sI3997
g1862
sI3998
g2171
sI3999
g3463
sI4000
g2433
sI4001
g2163
sI4002
g322
sI4003
g3150
sI4004
g269
sI4005
g3209
sI4006
g455
sI4007
g1253
sI4008
g4725
sI4009
g591
sI4010
g409
sI4011
g2320
sI4012
g2639
sI4013
g3706
sI4014
g2802
sI4015
g3335
sI4016
g3846
sI4017
g4774
sI4018
g1873
sI4019
g2030
sI4020
g4279
sI4021
g3110
sI4022
g3285
sI4023
g1068
sI4024
g3522
sI4025
g3849
sI4026
g3659
sI4027
g577
sI4028
g774
sI4029
g2390
sI4030
g4450
sI4031
g3453
sI4032
g3701
sI4033
g898
sI4034
g3686
sI4035
g1446
sI4036
g4664
sI4037
g182
sI4038
g1065
sI4039
g4083
sI4040
g370
sI4041
g1384
sI4042
g3860
sI4043
g3677
sI4044
g1984
sI4045
g3591
sI4046
g2971
sI4047
g4855
sI4048
g2113
sI4049
g3015
sI4050
g1053
sI4051
g583
sI4052
g4019
sI4053
g3059
sI4054
g1652
sI4055
g2311
sI4056
g1107
sI4057
g3941
sI4058
g2727
sI4059
g2916
sI4060
g2580
sI4061
g3776
sI4062
g4780
sI4063
g4226
sI4064
g2642
sI4065
g3154
sI4066
g3896
sI4067
g500
sI4068
g2711
sI4069
g4673
sI4070
g4695
sI4071
g883
sI4072
g546
sI4073
g846
sI4074
g2872
sI4075
g1729
sI4076
g1806
sI4077
g4179
sI4078
g3466
sI4079
g3671
sI4080
g4310
sI4081
g564
sI4082
g3673
sI4083
g4195
sI4084
g3424
sI4085
g4140
sI4086
g2203
sI4087
g3589
sI4088
g3954
sI4089
g4230
sI4090
g4587
sI4091
g3683
sI4092
g2001
sI4093
g3637
sI4094
g446
sI4095
g1308
sI4096
g4209
sI4097
g3570
sI4098
g4810
sI4099
g1995
sI4100
g562
sI4101
g3778
sI4102
g3955
sI4103
g4504
sI4104
g3398
sI4105
g3169
sI4106
g408
sI4107
g1476
sI4108
g3216
sI4109
g2328
sI4110
g4625
sI4111
g2492
sI4112
g2842
sI4113
g1908
sI4114
g3613
sI4115
g3089
sI4116
g1408
sI4117
g2165
sI4118
g2981
sI4119
g4177
sI4120
g2900
sI4121
g3924
sI4122
g2586
sI4123
g2299
sI4124
g2154
sI4125
g4458
sI4126
g3793
sI4127
g1949
sI4128
g552
sI4129
g2990
sI4130
g3809
sI4131
g3078
sI4132
g4064
sI4133
g2831
sI4134
g4663
sI4135
g2271
sI4136
g3573
sI4137
g4635
sI4138
g4697
sI4139
g4363
sI4140
g1818
sI4141
g3693
sI4142
g3253
sI4143
g906
sI4144
g1105
sI4145
g1458
sI4146
g2612
sI4147
g4287
sI4148
g4612
sI4149
g4242
sI4150
g2484
sI4151
g4437
sI4152
g2427
sI4153
g526
sI4154
g4694
sI4155
g2930
sI4156
g2694
sI4157
g2214
sI4158
g89
sI4159
g904
sI4160
g835
sI4161
g3245
sI4162
g2264
sI4163
g903
sI4164
g508
sI4165
g3170
sI4166
g115
sI4167
g2168
sI4168
g1934
sI4169
g2216
sI4170
g3370
sI4171
g2453
sI4172
g832
sI4173
g1632
sI4174
g4691
sI4175
g202
sI4176
g1329
sI4177
g3427
sI4178
g62
sI4179
g104
sI4180
g3310
sI4181
g4881
sI4182
g100
sI4183
g3948
sI4184
g3173
sI4185
g1117
sI4186
g4795
sI4187
g1575
sI4188
g4849
sI4189
g3130
sI4190
g761
sI4191
g2599
sI4192
g1572
sI4193
g701
sI4194
g4228
sI4195
g3959
sI4196
g4505
sI4197
g2793
sI4198
g1155
sI4199
g3875
sI4200
g2458
sI4201
g1723
sI4202
g776
sI4203
g1279
sI4204
g3357
sI4205
g3963
sI4206
g2790
sI4207
g575
sI4208
g65
sI4209
g998
sI4210
g3185
sI4211
g2703
sI4212
g4701
sI4213
g4409
sI4214
g491
sI4215
g2822
sI4216
g4431
sI4217
g810
sI4218
g443
sI4219
g755
sI4220
g2053
sI4221
g259
sI4222
g4461
sI4223
g4892
sI4224
g3782
sI4225
g1765
sI4226
g3870
sI4227
g4035
sI4228
g323
sI4229
g3886
sI4230
g3987
sI4231
g3610
sI4232
g4813
sI4233
g3956
sI4234
g3576
sI4235
g3742
sI4236
g296
sI4237
g2838
sI4238
g2973
sI4239
g2346
sI4240
g527
sI4241
g3848
sI4242
g1655
sI4243
g4788
sI4244
g3073
sI4245
g1942
sI4246
g2373
sI4247
g1104
sI4248
g2704
sI4249
g1322
sI4250
g4829
sI4251
g4086
sI4252
g1707
sI4253
g4269
sI4254
g2189
sI4255
g990
sI4256
g4751
sI4257
g2747
sI4258
g4194
sI4259
g820
sI4260
g570
sI4261
g2206
sI4262
g4651
sI4263
g3226
sI4264
g822
sI4265
g625
sI4266
g2464
sI4267
g3339
sI4268
g3791
sI4269
g3527
sI4270
g1641
sI4271
g4444
sI4272
g3077
sI4273
g63
sI4274
g2631
sI4275
g2538
sI4276
g2897
sI4277
g3306
sI4278
g175
sI4279
g938
sI4280
g4312
sI4281
g4483
sI4282
g2324
sI4283
g4472
sI4284
g3428
sI4285
g3159
sI4286
g3186
sI4287
g3382
sI4288
g4382
sI4289
g3911
sI4290
g638
sI4291
g1016
sI4292
g4271
sI4293
g4570
sI4294
g2372
sI4295
g4428
sI4296
g3799
sI4297
g4530
sI4298
g4322
sI4299
g3697
sI4300
g4621
sI4301
g1014
sI4302
g4794
sI4303
g4661
sI4304
g4550
sI4305
g849
sI4306
g764
sI4307
g2576
sI4308
g1613
sI4309
g4438
sI4310
g757
sI4311
g4191
sI4312
g2892
sI4313
g4253
sI4314
g4789
sI4315
g4339
sI4316
g1099
sI4317
g3356
sI4318
g3499
sI4319
g2536
sI4320
g4038
sI4321
g487
sI4322
g1494
sI4323
g2174
sI4324
g2358
sI4325
g1233
sI4326
g1407
sI4327
g1182
sI4328
g3859
sI4329
g4391
sI4330
g1399
sI4331
g4018
sI4332
g3592
sI4333
g4175
sI4334
g4469
sI4335
g1360
sI4336
g2111
sI4337
g539
sI4338
g1011
sI4339
g4056
sI4340
g4497
sI4341
g3179
sI4342
g2387
sI4343
g3338
sI4344
g3681
sI4345
g708
sI4346
g453
sI4347
g2250
sI4348
g1189
sI4349
g4755
sI4350
g4460
sI4351
g3266
sI4352
g1902
sI4353
g4906
sI4354
g1411
sI4355
g1167
sI4356
g3451
sI4357
g3041
sI4358
g4154
sI4359
g3014
sI4360
g2331
sI4361
g4493
sI4362
g624
sI4363
g4021
sI4364
g1114
sI4365
g2304
sI4366
g4907
sI4367
g572
sI4368
g2527
sI4369
g1892
sI4370
g3491
sI4371
g3541
sI4372
g3410
sI4373
g3749
sI4374
g2343
sI4375
g4343
sI4376
g2850
sI4377
g3188
sI4378
g2669
sI4379
g4178
sI4380
g3147
sI4381
g4619
sI4382
g1611
sI4383
g1338
sI4384
g2614
sI4385
g3713
sI4386
g2084
sI4387
g3195
sI4388
g303
sI4389
g2361
sI4390
g2295
sI4391
g2262
sI4392
g2263
sI4393
g4013
sI4394
g282
sI4395
g4261
sI4396
g1163
sI4397
g4318
sI4398
g402
sI4399
g2391
sI4400
g3691
sI4401
g962
sI4402
g4273
sI4403
g4749
sI4404
g2686
sI4405
g1539
sI4406
g4525
sI4407
g4722
sI4408
g4562
sI4409
g3349
sI4410
g1213
sI4411
g744
sI4412
g1133
sI4413
g3449
sI4414
g4283
sI4415
g2812
sI4416
g3980
sI4417
g2810
sI4418
g2061
sI4419
g2692
sI4420
g607
sI4421
g97
sI4422
g4916
sI4423
g867
sI4424
g108
sI4425
g1667
sI4426
g3056
sI4427
g3654
sI4428
g2685
sI4429
g2483
sI4430
g4052
sI4431
g2940
sI4432
g424
sI4433
g4750
sI4434
g2944
sI4435
g1604
sI4436
g3088
sI4437
g3756
sI4438
g4157
sI4439
g1532
sI4440
g4439
sI4441
g4733
sI4442
g3459
sI4443
g2552
sI4444
g3223
sI4445
g2378
sI4446
g3299
sI4447
g3566
sI4448
g4747
sI4449
g1388
sI4450
g726
sI4451
g1529
sI4452
g4470
sI4453
g373
sI4454
g799
sI4455
g4193
sI4456
g704
sI4457
g4012
sI4458
g4369
sI4459
g1863
sI4460
g522
sI4461
g3628
sI4462
g521
sI4463
g3695
sI4464
g3416
sI4465
g614
sI4466
g1428
sI4467
g641
sI4468
g517
sI4469
g3543
sI4470
g4919
sI4471
g3606
sI4472
g3932
sI4473
g970
sI4474
g534
sI4475
g3668
sI4476
g2470
sI4477
g4130
sI4478
g2754
sI4479
g94
sI4480
g1609
sI4481
g756
sI4482
g3476
sI4483
g474
sI4484
g4545
sI4485
g3559
sI4486
g1963
sI4487
g3540
sI4488
g330
sI4489
g992
sI4490
g3351
sI4491
g3759
sI4492
g2633
sI4493
g4097
sI4494
g256
sI4495
g289
sI4496
g656
sI4497
g657
sI4498
g1639
sI4499
g4425
sI4500
g3297
sI4501
g3454
sI4502
g304
sI4503
g3933
sI4504
g2240
sI4505
g3383
sI4506
g4894
sI4507
g2037
sI4508
g52
sI4509
g1088
sI4510
g3236
sI4511
g2353
sI4512
g3989
sI4513
g1680
sI4514
g2162
sI4515
g3867
sI4516
g2083
sI4517
g3206
sI4518
g1675
sI4519
g2965
sI4520
g3072
sI4521
g480
sI4522
g2945
sI4523
g2888
sI4524
g335
sI4525
g631
sI4526
g4523
sI4527
g2618
sI4528
g3857
sI4529
g230
sI4530
g3524
sI4531
g1438
sI4532
g2848
sI4533
g1120
sI4534
g4133
sI4535
g859
sI4536
g359
sI4537
g1445
sI4538
g4162
sI4539
g2531
sI4540
g530
sI4541
g4614
sI4542
g1150
sI4543
g2344
sI4544
g2114
sI4545
g1427
sI4546
g3937
sI4547
g1416
sI4548
g2523
sI4549
g1868
sI4550
g2374
sI4551
g729
sI4552
g1970
sI4553
g1623
sI4554
g2912
sI4555
g398
sI4556
g2684
sI4557
g3270
sI4558
g3819
sI4559
g3619
sI4560
g4770
sI4561
g628
sI4562
g3354
sI4563
g3119
sI4564
g1709
sI4565
g1838
sI4566
g253
sI4567
g4330
sI4568
g3404
sI4569
g4723
sI4570
g2498
sI4571
g1635
sI4572
g3316
sI4573
g1982
sI4574
g1212
sI4575
g2967
sI4576
g3406
sI4577
g3814
sI4578
g3064
sI4579
g4655
sI4580
g1852
sI4581
g600
sI4582
g3202
sI4583
g878
sI4584
g4243
sI4585
g1489
sI4586
g452
sI4587
g3927
sI4588
g1026
sI4589
g2359
sI4590
g4033
sI4591
g3252
sI4592
g3639
sI4593
g3092
sI4594
g4067
sI4595
g3730
sI4596
g4857
sI4597
g1981
sI4598
g4859
sI4599
g4887
sI4600
g1286
sI4601
g2637
sI4602
g2925
sI4603
g1679
sI4604
g3630
sI4605
g1994
sI4606
g1097
sI4607
g393
sI4608
g1136
sI4609
g2450
sI4610
g3985
sI4611
g3066
sI4612
g2899
sI4613
g2321
sI4614
g4513
sI4615
g2126
sI4616
g1193
sI4617
g4609
sI4618
g2962
sI4619
g2221
sI4620
g3514
sI4621
g3738
sI4622
g3300
sI4623
g3330
sI4624
g3605
sI4625
g4246
sI4626
g1588
sI4627
g3511
sI4628
g1484
sI4629
g1896
sI4630
g2388
sI4631
g1377
sI4632
g3796
sI4633
g82
sI4634
g2419
sI4635
g1950
sI4636
g3232
sI4637
g1013
sI4638
g753
sI4639
g1816
sI4640
g3745
sI4641
g3001
sI4642
g4637
sI4643
g3945
sI4644
g4537
sI4645
g3132
sI4646
g1561
sI4647
g797
sI4648
g1829
sI4649
g1695
sI4650
g1727
sI4651
g1750
sI4652
g4687
sI4653
g1125
sI4654
g4433
sI4655
g3380
sI4656
g649
sI4657
g1242
sI4658
g3061
sI4659
g801
sI4660
g3107
sI4661
g1216
sI4662
g142
sI4663
g1096
sI4664
g551
sI4665
g445
sI4666
g2130
sI4667
g1512
sI4668
g3352
sI4669
g4405
sI4670
g4085
sI4671
g4605
sI4672
g4436
sI4673
g2804
sI4674
g2801
sI4675
g3525
sI4676
g3422
sI4677
g4844
sI4678
g1780
sI4679
g2570
sI4680
g3117
sI4681
g4709
sI4682
g1744
sI4683
g3480
sI4684
g337
sI4685
g3277
sI4686
g1392
sI4687
g1622
sI4688
g3615
sI4689
g568
sI4690
g1019
sI4691
g3257
sI4692
g2272
sI4693
g327
sI4694
g3237
sI4695
g1538
sI4696
g4394
sI4697
g4463
sI4698
g1781
sI4699
g3845
sI4700
g2395
sI4701
g3503
sI4702
g4254
sI4703
g1911
sI4704
g4304
sI4705
g3152
sI4706
g993
sI4707
g3058
sI4708
g107
sI4709
g2725
sI4710
g2814
sI4711
g3518
sI4712
g3423
sI4713
g4533
sI4714
g4559
sI4715
g582
sI4716
g2953
sI4717
g4923
sI4718
g1509
sI4719
g334
sI4720
g1530
sI4721
g2611
sI4722
g326
sI4723
g3249
sI4724
g4342
sI4725
g588
sI4726
g3175
sI4727
g2709
sI4728
g1021
sI4729
g1124
sI4730
g611
sI4731
g2646
sI4732
g1435
sI4733
g4384
sI4734
g240
sI4735
g2044
sI4736
g3096
sI4737
g2794
sI4738
g3121
sI4739
g2649
sI4740
g56
sI4741
g3506
sI4742
g1960
sI4743
g973
sI4744
g3081
sI4745
g928
sI4746
g3479
sI4747
g2702
sI4748
g39
sI4749
g1959
sI4750
g3988
sI4751
g1610
sI4752
g1549
sI4753
g675
sI4754
g1195
sI4755
g319
sI4756
g520
sI4757
g1077
sI4758
g2823
sI4759
g4666
sI4760
g1271
sI4761
g3687
sI4762
g2336
sI4763
g1653
sI4764
g2222
sI4765
g3614
sI4766
g1326
sI4767
g791
sI4768
g2921
sI4769
g2949
sI4770
g4449
sI4771
g4328
sI4772
g1091
sI4773
g4915
sI4774
g2139
sI4775
g4390
sI4776
g2323
sI4777
g54
sI4778
g1603
sI4779
g3046
sI4780
g2220
sI4781
g3137
sI4782
g1670
sI4783
g4763
sI4784
g1540
sI4785
g2007
sI4786
g3879
sI4787
g965
sI4788
g2480
sI4789
g3434
sI4790
g1990
sI4791
g1319
sI4792
g184
sI4793
g3273
sI4794
g3834
sI4795
g1292
sI4796
g876
sI4797
g4185
sI4798
g4301
sI4799
g2690
sI4800
g4015
sI4801
g2231
sI4802
g785
sI4803
g4317
sI4804
g681
sI4805
g2780
sI4806
g1264
sI4807
g3534
sI4808
g2468
sI4809
g1108
sI4810
g994
sI4811
g1993
sI4812
g1977
sI4813
g3979
sI4814
g2763
sI4815
g3949
sI4816
g4713
sI4817
g893
sI4818
g2487
sI4819
g4442
sI4820
g454
sI4821
g3643
sI4822
g492
sI4823
g1521
sI4824
g3642
sI4825
g2416
sI4826
g1916
sI4827
g4468
sI4828
g3832
sI4829
g4435
sI4830
g4171
sI4831
g2036
sI4832
g1370
sI4833
g21
sI4834
g603
sI4835
g671
sI4836
g2779
sI4837
g1840
sI4838
g4025
sI4839
g2806
sI4840
g2667
sI4841
g4842
sI4842
g2307
sI4843
g1559
sI4844
g1730
sI4845
g1772
sI4846
g3146
sI4847
g863
sI4848
g3474
sI4849
g4668
sI4850
g4543
sI4851
g3864
sI4852
g3004
sI4853
g2544
sI4854
g3582
sI4855
g3268
sI4856
g2224
sI4857
g2185
sI4858
g3493
sI4859
g880
sI4860
g561
sI4861
g1318
sI4862
g3521
sI4863
g51
sI4864
g101
sI4865
g1490
sI4866
g1112
sI4867
g1312
sI4868
g2316
sI4869
g645
sI4870
g2863
sI4871
g2547
sI4872
g3288
sI4873
g33
sI4874
g3648
sI4875
g4087
sI4876
g4843
sI4877
g3421
sI4878
g2242
sI4879
g38
sI4880
g1257
sI4881
g1954
sI4882
g3978
sI4883
g2239
sI4884
g4414
sI4885
g2839
sI4886
g1289
sI4887
g3609
sI4888
g3708
sI4889
g3029
sI4890
g1579
sI4891
g856
sI4892
g4806
sI4893
g598
sI4894
g3871
sI4895
g2297
sI4896
g4417
sI4897
g3446
sI4898
g2341
sI4899
g548
sI4900
g3367
sI4901
g3651
sI4902
g1956
sI4903
g3842
sI4904
g1547
sI4905
g1811
sI4906
g1605
sI4907
g4718
sI4908
g1548
sI4909
g4566
sI4910
g3144
sI4911
g2665
sI4912
g1542
sI4913
g1721
sI4914
g3161
sI4915
g4060
sI4916
g3581
sI4917
g212
sI4918
g3712
sI4919
g2855
sI4920
g2282
sI4921
g1169
sI4922
g3053
sI4923
g555
sa.