(lp0
(dp1
VKasumi 98
p2
I0
sVNinja nwa
p3
I3200
sVGadisii
p4
I1
sVT. kawk
p5
I2
sVScopedog-rsc
p6
I3
sVLf2 - deep
p7
I4
sVLucky colt
p8
I5
sVFf mai shiranui
p9
I6
sVArmor Guts
p10
I7
sVHaohmaru EX
p11
I8
sVS.sinclair EX
p12
I9
sVIka musume
p13
I10
sVChar's z'gok
p14
I1844
sVHikaru
p15
I493
sVScarecrow
p16
I12
sVSheep the royal
p17
I13
sVRyo
p18
I3829
sVBlack joker
p19
I14
sVMulan
p20
I15
sVSledge
p21
I16
sVGuy mk ii
p22
I17
sVClaus
p23
I18
sVUltraman jack_a
p24
I19
sVHeavyarms custom
p25
I20
sVBlack polnareff
p26
I21
sVRonald
p27
I22
sVShigen
p28
I23
sVDhaos ND3
p29
I24
sVAzami
p30
I25
sVAruru(yuka)
p31
I27
sVKitsune
p32
I4873
sVShantae
p33
I29
sVBaltan
p34
I30
sVSheng long
p35
I31
sVWonderman
p36
I32
sVMordecai
p37
I3009
sVUzumaki naruto
p38
I4748
sVBonobono
p39
I34
sVWolfgang Krauser
p40
I1849
sVFakir
p41
I36
sVBlade
p42
I37
sVPocket Gouki
p43
I38
sVAoi matsubara
p44
I39
sVHiei
p45
I40
sVRoadsign
p46
I41
sVKeiji
p47
I2506
sVXenophage
p48
I42
sVThanoseid
p49
I43
sVSuper buu
p50
I946
sVObsidian
p51
I4508
sVSammo-hacka
p52
I45
sVSakura Cosplay
p53
I4777
sVMister king
p54
I46
sVGoku ssj5 EX
p55
I4740
sVSion tatari EX2
p56
I47
sVKen EX3
p57
I255
sVPsyduck
p58
I49
sVSatsuki yumiduka
p59
I50
sVItachi uchiha nzc
p60
I51
sVThe batman
p61
I4178
sVEvil q
p62
I4273
sVMech zangief
p63
I1244
sVForte.exe
p64
I4208
sVBroli
p65
I3978
sVThe mask
p66
I53
sVPaul
p67
I54
sVRubette EX2
p68
I55
sVChar's zaku
p69
I56
sVDies irae
p70
I1853
sVBenimaru945
p71
I58
sVArrange_alice
p72
I1245
sVCrazy mukuro
p73
I60
sVShiki
p74
I61
sVKid gohan ssj1
p75
I1854
sVSatoko
p76
I63
sVBlack-rock_shooter
p77
I2422
sVChinese gouki
p78
I64
sVRiesbyfe stridberg
p79
I65
sVKinniku suguru
p80
I66
sVGen shougo
p81
I67
sVSoujiro EX3
p82
I4633
sVBloodrayne
p83
I68
sVKenpachi
p84
I3213
sVShizuka
p85
I70
sVTaki
p86
I1856
sVGideon
p87
I72
sVSegalow
p88
I73
sVSuper vegeta EX3
p89
I4158
sVRotom
p90
I75
sVShadow geist
p91
I1421
sVGrievous
p92
I76
sVDeath adder
p93
I3676
sVKohaku
p94
I78
sVZeus
p95
I4479
sVMokou fujiwara
p96
I1189
sVKim XIII
p97
I79
sVKung fu man neo
p98
I80
sVSyakoya
p99
I4421
sVNosferu
p100
I3319
sVLeo FM
p101
I81
sVGolrio
p102
I4182
sVDan mk ii
p103
I4864
sVDormammu-r
p104
I82
sVRamparudo
p105
I83
sVAkiko EX
p106
I4179
sVSachiko
p107
I84
sVShiki tohno
p108
I85
sVMech gouki
p109
I4708
sVSquirtle
p110
I4424
sVGanondorf
p111
I86
sVBc-sakura
p112
I87
sVEx-kyo
p113
I88
sVXiayu
p114
I89
sVEx-kyo(jin-typea)
p115
I90
sVHulk 2099
p116
I4166
sVG_orochi
p117
I2671
sVHato sabure
p118
I91
sVYuka
p119
I92
sVAtomos
p120
I93
sVAzure
p121
I94
sVValdoll
p122
I95
sVHonda ex
p123
I96
sVHancock EX
p124
I97
sVCustom sd luffy
p125
I98
sVSion tatari
p126
I3392
sVRanma saotome EX2
p127
I99
sVCaptain caveman
p128
I100
sVAkane inuwaka
p129
I101
sVShadow agent
p130
I3973
sVThe moon
p131
I102
sVElisabeth
p132
I103
sVGodzilla_ex
p133
I2518
sVMike Tyson IWBTG
p134
I105
sVFff
p135
I106
sVRadel
p136
I107
sVElla
p137
I1864
sVBaby bonnie hood
p138
I108
sVYatteyaru-death
p139
I109
sVArchangel
p140
I110
sVGohan  grande normale
p141
I111
sVJet
p142
I112
sVKon
p143
I4662
sVMagic dunker EX FF
p144
I113
sVMadoka kaname_ai
p145
I115
sVKana-chan dhq
p146
I116
sVBraun
p147
I1865
sVArima_miyako
p148
I117
sVBou ken
p149
I118
sVToki 2
p150
I2521
sVBoon
p151
I119
sVM-gato
p152
I120
sVD.hibiki
p153
I121
sVAlessi
p154
I122
sVKou
p155
I123
sVKeion chan
p156
I3757
sVAlsa
p157
I124
sVNirvana
p158
I125
sVMiyako yoshika
p159
I126
sVZeppeli ex
p160
I127
sVCvs shiva
p161
I128
sVEvil Ryu SF4
p162
I571
sVSailor jupiter EX2
p163
I129
sVSorluska EX2
p164
I130
sVKarina toyota
p165
I131
sVA-green
p166
I2526
sVBack beard
p167
I2312
sVNarukana EX3
p168
I133
sVOgre
p169
I3029
sVApplejack
p170
I134
sVMichaelangelo
p171
I135
sVSailor chibi moon
p172
I136
sVRaptor
p173
I137
sVLeon c
p174
I138
sVSquall EX2
p175
I3645
sVRyoko kano EX2
p176
I2912
sVHarley quinn
p177
I4278
sVCci shermie
p178
I139
sVHoimislime
p179
I140
sVShadow x
p180
I141
sVPaprika
p181
I142
sVKain
p182
I908
sVTurf EX3
p183
I144
sVDark magician girl
p184
I4048
sVKool aid man
p185
I4037
sVDooj mustachio
p186
I145
sVVega 2
p187
I4792
sV95
p188
I3914
sVRenna
p189
I3228
sVGouki x
p190
I148
sVMery
p191
I149
sVGuy CVS
p192
I150
sVKatakura kojuro
p193
I151
sVWalkure
p194
I152
sVButtercup DG
p195
I153
sVDeadpool mvc3
p196
I154
sVPrizm-star
p197
I155
sVMu 12
p198
I997
sVHitosyura ex
p199
I157
sVPopeye
p200
I158
sVMarona(beta)
p201
I159
sVGundam rx-78 gp02a
p202
I160
sVZatracenie EX2
p203
I1876
sVDevilch
p204
I162
sVMotaro
p205
I4175
sVWasp
p206
I163
sVTokiko EX2
p207
I164
sVMasked rider ryuki(emanon)
p208
I1877
sVEx keine
p209
I166
sVPresea combatir
p210
I167
sVBilly kane ffsp
p211
I168
sVRuby heart mvc3
p212
I169
sVDiba
p213
I1879
sVUroboros
p214
I170
sVMargaretha_solin
p215
I171
sVMasaki anzu
p216
I172
sVMiduma EX3
p217
I173
sVRera EX3
p218
I174
sVShadow EX3
p219
I175
sVEagle
p220
I176
sVKuma CVS
p221
I177
sVSpace warrior
p222
I3235
sVShiori misaka
p223
I178
sVKai
p224
I179
sVMami EX
p225
I181
sVBebum ryo
p226
I2903
sVRokurouta
p227
I182
sVMokou EX H
p228
I183
sVMiranda
p229
I185
sVIronman
p230
I186
sVKay
p231
I187
sVRock volnutt
p232
I188
sVSub-zero
p233
I189
sVMongori EX
p234
I190
sVWily
p235
I191
sVMarian
p236
I192
sVShadow kouma
p237
I194
sVNoel
p238
I3918
sVEharu EX3
p239
I196
sVYuki kushinada
p240
I4716
sVAkai maho
p241
I4734
sVSa-x
p242
I197
sVCatwoman EX
p243
I198
sVReal gloria
p244
I199
sVCarlos
p245
I200
sVHibiki-san
p246
I626
sVPerfect cell
p247
I3042
sVNanaya toki
p248
I202
sVCloud (3d)
p249
I203
sVIdaten
p250
I204
sVMulchi fe
p251
I205
sVDhalsims
p252
I206
sVAoba EX2
p253
I207
sVDeluxe lucia fernandez
p254
I4566
sVBobby mk ii
p255
I208
sVBlack widow EX
p256
I209
sVMomasusta
p257
I4494
sVSpy larue e
p258
I210
sVPerson-lichkeit
p259
I211
sVKensou EX3
p260
I4221
sVEdward elrick
p261
I2650
sVIrene
p262
I212
sVArrange_godzilla
p263
I213
sVUltraman_a
p264
I214
sVBilly kane
p265
I215
sVDark karin EX2
p266
I4863
sVVixen
p267
I3242
sVTamao mitsurugi
p268
I216
sVHiguresan
p269
I217
sVAngela belti
p270
I218
sVElektra
p271
I219
sVKen X
p272
I4004
sVMomo-len_ver1.39
p273
I221
sVMade multi
p274
I222
sVNecorsair
p275
I2712
sVRock howard EX2
p276
I223
sVGen sfa
p277
I224
sVMawile
p278
I1889
sVShuma
p279
I225
sVMain Man Knuckles
p280
I226
sVSalty Goku GT
p281
I227
sVNyamo EX
p282
I2691
sVNakoruru EX2
p283
I228
sVNakoruru EX3
p284
I229
sVKlaus garcia
p285
I230
sVP tabasa
p286
I4394
sVGaira
p287
I231
sV'gou no ken' kenshirou
p288
I232
sVWarachia
p289
I3877
sVVidel fight money
p290
I233
sVRoy wilson
p291
I234
sVHerb
p292
I235
sVEl_yukari
p293
I4495
sVKyo 98
p294
I236
sVDiyaa man
p295
I237
sVKiller whale
p296
I238
sVShuma MVC3
p297
I1225
sVOgre akuma
p298
I239
sVKotiya sanae
p299
I240
sVNeji Cosplay
p300
I1194
sVDora
p301
I4236
sVEmerald
p302
I242
sVTensi
p303
I243
sVRaoh sai
p304
I244
sVF.killerbee
p305
I245
sVBrunestud arcueid
p306
I246
sVToron
p307
I247
sVMugen de saikyou no lemirya
p308
I4388
sVKasumi ex
p309
I4502
sVDitto
p310
I248
sVAnthony hawk
p311
I249
sVKliff
p312
I250
sVSandrock
p313
I2172
sVSeth
p314
I252
sVKung fu man v-ism
p315
I253
sVRyofu
p316
I254
sVBroly
p317
I48
sVIceman
p318
I3989
sVWeregarurumon
p319
I257
sVFangore
p320
I2556
sVJamm
p321
I259
sVNameless
p322
I260
sVDuke nukem
p323
I261
sVTamika
p324
I4755
sVBuront
p325
I262
sVCustom ssfiv abel
p326
I263
sVKoishi_b
p327
I4002
sVKirigamine kiriko
p328
I4228
sVGohan zeta
p329
I3913
sVKikyo_ex
p330
I264
sVSmall ryu EX3
p331
I4722
sVShikamaru nara
p332
I4693
sVWind-se
p333
I266
sVSuper vegetto ag
p334
I267
sVYoshimitsu
p335
I4488
sVDerp
p336
I268
sVShandera-k
p337
I269
sV<> ( 0)<>/2
p338
I270
sVDizzy
p339
I4719
sVWarlock-k
p340
I4524
sVRainbow
p341
I4684
sVCheep-chomp
p342
I272
sVUm-krizalid-2k1
p343
I273
sVTiger EX
p344
I2171
sVMaxima EX3
p345
I274
sVOotani reimu
p346
I275
sVVaisaga
p347
I276
sVCursehead
p348
I1900
sVBsb ridley
p349
I277
sVGen
p350
I3531
sVStevareno
p351
I278
sVBilly two moons (jp)
p352
I279
sVTenkochan EX
p353
I3562
sVAwaken satsuki
p354
I1362
sVBrocken
p355
I280
sVScorpion EX2
p356
I281
sVScorpion EX3
p357
I282
sVSyo hayate EX
p358
I283
sVElisabeth EX3
p359
I284
sVPlok
p360
I285
sVAzusa
p361
I286
sVN.boss
p362
I287
sVBra 18
p363
I4536
sVDeidara nzc
p364
I288
sVHyperbattlecyborg
p365
I289
sVHydron
p366
I290
sVPsychociel
p367
I2180
sVWashizuka b style
p368
I291
sVKatana
p369
I292
sVDhaos
p370
I2971
sVChun-lee dark bolt
p371
I294
sVMelusine
p372
I295
sVEva-02 EX3
p373
I4040
sVGertrud
p374
I2858
sVMajin boo EX3
p375
I296
sVHiedano akyu
p376
I297
sVKinu_ex
p377
I298
sVUmvc_youmu
p378
I299
sVKing ghidorah
p379
I300
sVMiyuki
p380
I301
sVGoku z2
p381
I302
sVAisha
p382
I304
sVGaits z
p383
I2703
sVShizumaru ex
p384
I305
sVBirdie EX3
p385
I3690
sVRei ayanami
p386
I307
sVMai 2k2
p387
I308
sVSuzuki megumi
p388
I309
sVRozaly
p389
I310
sVUnkoman
p390
I311
sVMaori
p391
I3266
sVRimle
p392
I313
sVJackie Drunken Fist
p393
I314
sVMature
p394
I315
sVFrankenroid
p395
I316
sVKiki de appendix
p396
I317
sVEvil homer
p397
I318
sVCyborg_d-9f
p398
I319
sVGonzales
p399
I3112
sVHanayama
p400
I4555
sVChan
p401
I3940
sVRaoh
p402
I323
sVNair
p403
I4398
sVNail
p404
I324
sVSoma cruz ex
p405
I325
sVDeluxe tetsu yatogi
p406
I3939
sVSpacemouse deluxe
p407
I1283
sVGaira EX2
p408
I326
sVTruck
p409
I4106
sVSilversamurai mvc2
p410
I4010
sVDark baltan
p411
I2571
sVTeoc reisen
p412
I328
sVStoneaxe
p413
I329
sVBekkamu2
p414
I330
sVTokinomiya kamui EX3
p415
I1284
sVCci kim
p416
I332
sVBridget
p417
I333
sVDark eternal champion
p418
I1909
sVChansey
p419
I3473
sVDuo lon
p420
I1285
sVCammy
p421
I336
sVTotoro
p422
I2573
sVGod_gundom
p423
I338
sVJin saotome
p424
I339
sVKill bill gogo
p425
I340
sVMayor of earth
p426
I4432
sVRikard
p427
I341
sVWar
p428
I4660
sVGaisei
p429
I3250
sVGoat_b
p430
I342
sVRalf
p431
I343
sVRugagaga!!
p432
I344
sVJudgment EX3
p433
I345
sVSonic
p434
I346
sVYumeji kurokouchi
p435
I347
sVYuiren
p436
I348
sVBimmy Lee
p437
I349
sVSeth EX3
p438
I350
sVKizaru borsalino
p439
I2349
sVMirror cube square
p440
I351
sVVile EX3
p441
I352
sVAthena asamiya
p442
I3888
sVGochack bigbomb
p443
I4738
sVGohan saiya-jin ex
p444
I2833
sVHomura & friends
p445
I354
sVG silver
p446
I356
sVNegative shin
p447
I4218
sVJudgment
p448
I357
sVPhobos(yanagi_ai)
p449
I4665
sVZuepia
p450
I4094
sVIron lantern
p451
I3098
sVLilly kane
p452
I359
sVLady aozaki
p453
I360
sVThe flash
p454
I361
sVRoyal air king
p455
I362
sVBroly lssj3
p456
I4586
sVJhons lee
p457
I4418
sVKyle the squirtle
p458
I4820
sVE Ken
p459
I4006
sVStorm-owl
p460
I363
sVFurudo_erika
p461
I364
sVDonkeykongjr EX
p462
I365
sVGuile cvs2
p463
I366
sVNise athena
p464
I367
sVVanillaIce
p465
I368
sVK joker
p466
I3960
sVMakoto sawatari
p467
I369
sVKotonoha katsura
p468
I370
sVUltraman dyna_a
p469
I371
sVNatasha
p470
I372
sVRyugen
p471
I1915
sVLegion EX3
p472
I375
sVA-unagi
p473
I376
sVA-kain
p474
I377
sVFinn and jake
p475
I378
sVKazami yuka_ns
p476
I379
sVDead kung fu man EX3
p477
I4483
sVMiroku
p478
I380
sVWarmachine MVC2
p479
I381
sVYoumu konpaku
p480
I382
sVOrochi(rance)
p481
I383
sVGloria EX3
p482
I384
sVSimon Belmondo
p483
I4521
sVSonson
p484
I385
sVVenom GG
p485
I386
sVHeavyarms
p486
I3837
sVAlex_a
p487
I387
sVCody EX
p488
I388
sVLililen
p489
I389
sVOverlord
p490
I4321
sVBender
p491
I390
sVLf2 - dennis
p492
I391
sVMs.valliere
p493
I392
sVJotaro kujo
p494
I4214
sVScharlachrot
p495
I393
sVStake
p496
I394
sVDhaos PS
p497
I3283
sV98
p498
I143
sVShocker
p499
I395
sVChizuru kagura
p500
I1164
sVNeodio
p501
I3284
sVKyoko_sakura EX
p502
I4067
sVJunichi
p503
I397
sVCharlie EX3
p504
I398
sVIvonne
p505
I399
sVGiron
p506
I447
sVDiggle
p507
I2261
sVBaki-hanma EX3
p508
I400
sVEddie DD
p509
I401
sVBane
p510
I4164
sVBlackheart
p511
I402
sVBang
p512
I403
sVHokutomaru
p513
I404
sVCpt. falcon
p514
I1295
sVEgg chamber
p515
I406
sVAsh
p516
I407
sVOmega
p517
I408
sVKoishi_b EX3
p518
I409
sVLf2 - woody
p519
I4468
sVThouther 2
p520
I410
sVKnight
p521
I411
sVRadish ssj4
p522
I4756
sVGold lightan
p523
I4462
sVLucy
p524
I4460
sVCecil_damon
p525
I413
sVUltraman tarou
p526
I414
sVQb
p527
I415
sVPikopiko
p528
I4153
sVCaptain america
p529
I4240
sVWalkyrie
p530
I416
sVRei chibi
p531
I1925
sVEve EX3
p532
I4540
sVRugal b. EX
p533
I417
sVCobra
p534
I418
sVTumbleweed
p535
I419
sVMystic gohan
p536
I420
sVRasputin
p537
I4474
sVGuldo
p538
I1228
sVFaydal
p539
I422
sVMetal mario
p540
I423
sVRoomi
p541
I424
sVChameleon DS
p542
I4337
sVOmega_rugal EX
p543
I425
sVNarukana
p544
I426
sVReisen-e
p545
I3290
sVStraight cougar
p546
I428
sVAcid
p547
I429
sVDevil_daigo EX
p548
I430
sVMaster ken
p549
I4072
sVCinnamon
p550
I432
sVNeff
p551
I433
sVMini zeroko
p552
I434
sVRelly
p553
I435
sVPisaci
p554
I436
sVWild.o.yashiro
p555
I3680
sVRughadjeen
p556
I437
sVKung flappy man
p557
I438
sVBriaaaaaaaaaaaaaaaaan ex
p558
I3980
sVClark steel
p559
I439
sVSpawn CVG
p560
I4872
sVBarbarccia
p561
I440
sVLex luthor
p562
I441
sVDudley streets
p563
I1939
sVBarts EX3
p564
I4100
sVServbot
p565
I444
sVMike bison
p566
I4081
sVWally West
p567
I445
sVRuquia ex
p568
I3459
sVLi xiangfei
p569
I446
sVBurai yamamoto
p570
I4689
sVSonic EX3
p571
I3249
sVBig
p572
I4260
sVYamazaki 71113
p573
I448
sVSailor venus k
p574
I4367
sVSodom sfa
p575
I450
sVCharlotte Aulin
p576
I451
sVNanaya shiki
p577
I4207
sVGohan ssj5
p578
I3639
sVFlonne
p579
I358
sVAnimus
p580
I4027
sVEcoco EX3
p581
I453
sVOyashirorika
p582
I454
sVDaiyousei_hsts
p583
I455
sVLt.kurosawa EX
p584
I4051
sVPepsi man
p585
I456
sVGorimaru jr
p586
I457
sVGardevoir EX3
p587
I458
sVYashiro 2k2
p588
I4725
sVGigapowier loves dark ruler
p589
I459
sVFelicueid
p590
I460
sVNana diclonius
p591
I4009
sVDate masamune_ch
p592
I461
sVRen idagawa
p593
I462
sVKszsk-shuko
p594
I463
sVErmac mk2
p595
I464
sVBeast
p596
I3064
sVYuusuke
p597
I466
sVLegendary super saiyan akuma
p598
I467
sVDark donald
p599
I4581
sVNaruto kun
p600
I3862
sVLyndis
p601
I1933
sVX
p602
I469
sVViolent dan
p603
I471
sVAoko 7thmoonstyle
p604
I472
sVTsubaki yayoi
p605
I4420
sVBatista
p606
I474
sVWild ken ex
p607
I475
sVShiki nanaya
p608
I476
sVKanji
p609
I4730
sVYou are already dead
p610
I477
sVYuki ex EX3
p611
I478
sVFire sonic
p612
I4465
sVRyoko asakura
p613
I479
sVJabu
p614
I480
sVSakuya izayoi EX3
p615
I481
sVElirin EX3
p616
I482
sVRin
p617
I483
sVKarai EX2
p618
I484
sVLegendary super saiyan
p619
I485
sVSailor venus EX2
p620
I486
sVEvil kung fu man mkii
p621
I4362
sVMiu_kurosaki
p622
I4265
sVJoe higashi
p623
I487
sVSaishu
p624
I488
sVOtane
p625
I4561
sVNishiura baseball`s
p626
I489
sVDarth vader
p627
I490
sVLin EX
p628
I4525
sVMaster toadman
p629
I492
sVM-griffon
p630
I3472
sVBuntaro EX
p631
I442
sVYashiro EX2
p632
I494
sVDoge
p633
I3947
sVSakura EX3
p634
I2972
sVTheskiver
p635
I4290
sVSion eltnam atlasia EX
p636
I2479
sVKaioh-retsu
p637
I495
sVMr. buu
p638
I496
sVZorororonoa
p639
I4467
sVGn-pioneer
p640
I497
sVBlack_k'
p641
I498
sVNatsuka fuou
p642
I499
sVCocodrilo
p643
I4869
sVMissingnumber
p644
I500
sVUfo
p645
I501
sVThe joker
p646
I3993
sVItoko_nagiai
p647
I1726
sVFliz
p648
I4656
sVTatsuki Arisawa
p649
I3301
sVSheeva
p650
I503
sVKamui EX3
p651
I504
sVRasho-zero
p652
I505
sVLee f22
p653
I506
sVMilan flare
p654
I507
sVPulseman
p655
I4496
sVMeep140 s-type
p656
I4497
sVHayato
p657
I510
sVG rugal CVS
p658
I511
sVDrew 0D
p659
I512
sVCyborg t-8p
p660
I513
sVDragon EX3
p661
I3303
sVSuika
p662
I515
sVTarnished ryu
p663
I516
sVKnuckles custom
p664
I517
sVChonshu ex
p665
I518
sVTios
p666
I519
sVGulool ja ja
p667
I520
sVChrome dome
p668
I959
sVKoopa troopa djhr
p669
I521
sVTheThing
p670
I4835
sVDragon EX
p671
I522
sVCapella
p672
I502
sVTakuma 2002
p673
I524
sVG-adelhell
p674
I4753
sVAgent p
p675
I526
sVK_reimu
p676
I527
sVNeku sakuraba
p677
I528
sVBlack magician girl
p678
I3359
sVS-kishima_kouma
p679
I529
sVGoten gt nex
p680
I4804
sVHong krizalid
p681
I530
sVBasilisk-s[0.98]
p682
I531
sVTretista-kelverian
p683
I532
sVHauzer
p684
I3732
sVTamamo-no-mae
p685
I533
sVDemitri
p686
I534
sVCruelty blood arcueid
p687
I535
sVZidane
p688
I536
sVMaster lue
p689
I1943
sVRage rock ex
p690
I3308
sVGundam zeta
p691
I3314
sVChiester410
p692
I538
sVSaki-mvc
p693
I540
sVKatsura kotonoha
p694
I541
sVGadis
p695
I542
sVRyuken
p696
I1973
sVT ninja
p697
I3911
sVKohaku vp EX3
p698
I543
sVSakuya_swr
p699
I4193
sVKimala the bouncer
p700
I544
sVAnge EX3
p701
I545
sVCell junior
p702
I4456
sVLf2 - louisx
p703
I2175
sVWhip
p704
I546
sVS-tomy
p705
I3497
sVLoud Demon M1
p706
I4345
sVKim hoon EX FF
p707
I547
sVDokuganp
p708
I548
sVDespero
p709
I549
sVTakuma945 EX3
p710
I550
sVVergil
p711
I551
sVDoraemon
p712
I553
sVZangief sf4
p713
I2875
sVPeach mizuki
p714
I554
sVCondor heads
p715
I555
sVGaap
p716
I556
sVFlan-b
p717
I557
sVNumber muncher
p718
I1947
sV1.0
p719
I3312
sVShaoran lee
p720
I560
sVRyo 98
p721
I561
sVAstro
p722
I2621
sVTf2 - sniper
p723
I563
sVBlue suede goo
p724
I4450
sVRugal bernstein
p725
I564
sVRobert nbc
p726
I565
sVChaves
p727
I4551
sVMystique
p728
I566
sVBattle mahoro EX
p729
I567
sVSuperpez
p730
I568
sVLio convoy
p731
I569
sVKatima
p732
I570
sVBoxer
p733
I3792
sVZodd
p734
I572
sVGray fly
p735
I573
sVWatern
p736
I574
sVKyle broflovski
p737
I575
sVMarrow
p738
I576
sVZabi
p739
I1951
sVRockman x EX2
p740
I578
sVKasai
p741
I579
sVMephisto
p742
I4411
sVJazz EX3
p743
I581
sVKomepo
p744
I3854
sVFire heart
p745
I583
sVGalivan
p746
I584
sVR.mika
p747
I585
sVSoul ninja mk2
p748
I293
sVKnuckles EX3
p749
I587
sVDonovan
p750
I588
sVYang
p751
I4638
sVPan transform
p752
I589
sVDirtyfat
p753
I4219
sVDialog
p754
I4481
sVCurfue
p755
I4310
sVEarth-suika
p756
I590
sVZoro roronoa
p757
I591
sVMaxima ex
p758
I592
sVSolisr8000
p759
I4190
sVOmanyte EX3
p760
I593
sVReal zeroko
p761
I594
sVReimu hakurei EX
p762
I4306
sVRai ex
p763
I595
sVAku-amakusa
p764
I596
sVYukari yakumo
p765
I597
sVAnother kyo
p766
I598
sVDorniar ex
p767
I599
sVZatracenie
p768
I600
sVNega peach
p769
I601
sVMike macho haggar
p770
I74
sVCless
p771
I603
sVAl azif
p772
I4028
sVMax eagle
p773
I605
sVMetagang
p774
I4202
sVAyane_ikuse EX
p775
I606
sVRighteous ken
p776
I607
sVXehrnyth
p777
I608
sVRenamon Dv2
p778
I609
sVSaku EX2
p779
I610
sVMongul
p780
I611
sVThe kung fu man
p781
I612
sVSamwell han
p782
I613
sVMarco EX
p783
I4802
sVRyuho
p784
I615
sVSpiral
p785
I616
sVDevil daimajin
p786
I617
sVNanaya_reaver
p787
I618
sVYurika kirishima
p788
I619
sVFranky CM
p789
I4767
sVBig bomberder
p790
I620
sVProfessor farnsworth
p791
I621
sVThe atom
p792
I622
sVNagaoka shiho
p793
I3322
sVD EX
p794
I624
sVBizarro
p795
I4647
sVHimegami aisa
p796
I625
sVRobert garcia EX2
p797
I4454
sVZappa
p798
I1959
sVJill roberts
p799
I4659
sVDracula
p800
I628
sVShinsaku maekawa
p801
I629
sV250% b.weapon
p802
I2986
sVKaku
p803
I525
sVB-cirno
p804
I630
sVSnoopy
p805
I631
sVJames
p806
I632
sVFiona mayfield
p807
I4217
sVAlakazam
p808
I634
sVAkainu sakazuki
p809
I1325
sVGoku
p810
I636
sVHonedge
p811
I637
sVMo-mo-
p812
I638
sVMajin vegeta ssj6
p813
I1326
sVZankuro EX2
p814
I639
sVRin EX2
p815
I640
sVDio S
p816
I1962
sVKyoudou senna
p817
I4259
sVJoe higashi EX3
p818
I642
sVPocket chunli
p819
I1625
sV(sman)
p820
I4264
sVRouwe EX3
p821
I643
sVItoko
p822
I644
sVFenice
p823
I645
sVHinako shijo
p824
I646
sVFaust
p825
I647
sVUltraman gaia
p826
I648
sVCaptain ginyu
p827
I649
sVLugia
p828
I3920
sVDiablo_skeleton EX3
p829
I651
sVGreen lantern lucario
p830
I4172
sVLayzner_tyanko ai
p831
I653
sVNu 13
p832
I654
sVTyoukesin EX3
p833
I4160
sVSarashina
p834
I2639
sVMina
p835
I656
sVKazama
p836
I1329
sVClown
p837
I2887
sVKasumi todo
p838
I658
sVMokey d. luffy
p839
I660
sVBiscuit-oliva
p840
I661
sVRio hinayama
p841
I662
sVCondor EX
p842
I664
sVMiacis
p843
I665
sVMint
p844
I4073
sVOmega_rugal
p845
I1330
sVUme_age18
p846
I2640
sVTao jun
p847
I4305
sVWerleck EX3
p848
I1966
sVDaigo ken
p849
I669
sVMagatu
p850
I1438
sVPogo
p851
I670
sVLuke cage
p852
I671
sVSpitfire_m
p853
I672
sVOx
p854
I2642
sVChintao
p855
I3712
sVSerika EX2
p856
I4535
sVF_gills
p857
I674
sVKubikiri basara EX
p858
I675
sVKarate kenji dhq
p859
I676
sVCaster_extra
p860
I4847
sVGet in the robot you idiot
p861
I3670
sVIroha
p862
I677
sVW.nut
p863
I678
sVFreedom -meteor-
p864
I4423
sVChiyo-chichi
p865
I3336
sVKen MVC3
p866
I679
sVSkullomania
p867
I680
sVUkyo tachibana EX3
p868
I1062
sVNinja EX3
p869
I682
sVSaber
p870
I683
sVMai-ling
p871
I684
sVGundam double zeta
p872
I685
sVTrident
p873
I4796
sVShin gouki
p874
I687
sVDiglett
p875
I4583
sVWing
p876
I688
sVZeroko
p877
I4859
sVKurokishi
p878
I689
sVReika
p879
I4071
sVYu-by
p880
I691
sVVakishim
p881
I692
sVBushou
p882
I1337
sVReiko
p883
I694
sVGrappler shiki
p884
I695
sVVegeta z2
p885
I696
sVMr.karate EX3
p886
I697
sVShang tsung
p887
I698
sVEpyon
p888
I699
sVAstranalent
p889
I4817
sVGotenks ssj EX
p890
I3342
sVHeat man
p891
I701
sVZeorymer
p892
I702
sVMudman_n
p893
I703
sVIyo
p894
I4033
sVSpider-carnage
p895
I704
sVLeona xiii
p896
I705
sVAlice
p897
I706
sVCorona
p898
I707
sVKuuga
p899
I4163
sVFatter Albert
p900
I4159
sVAquaman
p901
I708
sVKobun 43
p902
I4143
sVUltraman tiga
p903
I3899
sVVegeta ssj3
p904
I2177
sVLancer
p905
I709
sVCustom experimental trf2 beatrice
p906
I710
sVNeco-arc
p907
I711
sVBrokken
p908
I712
sVHeart
p909
I713
sVYami_miko EX
p910
I714
sVChrysalis
p911
I715
sVHitosyura
p912
I716
sVYusha30
p913
I717
sVMr.ganon
p914
I718
sVD-rugal EX3
p915
I719
sVR. lilith
p916
I721
sVAkiha EX
p917
I722
sVRouga zanma
p918
I723
sVRozwel
p919
I3902
sVPatchouli_k
p920
I725
sVBubblum
p921
I726
sVKyosuke shigure
p922
I2845
sVSonans
p923
I728
sVWing gundam zero custom
p924
I4745
sVSentinel
p925
I3288
sVBai-hu EX
p926
I730
sVShishiwakamaru
p927
I731
sVGuerrero divino del dragn
p928
I732
sVCiel EX3
p929
I794
sVShinzero
p930
I734
sVOnodera ren
p931
I735
sVSuija
p932
I736
sVA-ko
p933
I737
sVGouken
p934
I4279
sVMaximum maxime
p935
I2325
sVPopura
p936
I830
sVSumiremaru
p937
I739
sVAlissa
p938
I740
sVDeluxe may
p939
I741
sVMahvel ken
p940
I742
sVTina
p941
I743
sVFenri-lunaedge
p942
I745
sVSamchay ex
p943
I746
sVIrori EX3
p944
I747
sVMonami ogura
p945
I748
sVSion(coh)
p946
I749
sVGardevoir dx
p947
I750
sVDante M
p948
I751
sVCube
p949
I752
sVWyler xi ver
p950
I2901
sVLee
p951
I753
sVLiu-kang
p952
I754
sVBenimaru EX
p953
I755
sVDio brando
p954
I756
sVE.honda sf2
p955
I757
sVRumia
p956
I758
sVUltraman tiga_a
p957
I4401
sVLiza
p958
I760
sVDaffy duck
p959
I4787
sVShampoo
p960
I3677
sVAlucard RAI
p961
I940
sVOboromaru
p962
I763
sVGogeta ssj4
p963
I764
sVBardock EX3
p964
I4473
sVAkashi_kaoru
p965
I765
sVKohaku K
p966
I2798
sVSirohime
p967
I4743
sVThe real doom
p968
I766
sVCola Fe
p969
I767
sVChiko
p970
I727
sVDudley K
p971
I769
sVRemy
p972
I3992
sVYui_kutuna EX
p973
I771
sVAlien guts(blue_no9)
p974
I772
sVFalse valkyrie
p975
I773
sVSean matsuda
p976
I4201
sVHotaride
p977
I1349
sVRacheal mc
p978
I775
sVSun god
p979
I776
sVS_youmu
p980
I1981
sVK EX
p981
I777
sVRemi
p982
I1040
sVJack turner ex
p983
I779
sVOmega Cloud Strife
p984
I4255
sVJulius emery
p985
I780
sVH_witch
p986
I4489
sVJyashinsai
p987
I781
sVKain blade
p988
I4706
sVBonobono EX3
p989
I4810
sVHisame shizumaru
p990
I783
sVBuroli
p991
I784
sVRugal.b
p992
I1073
sVMiko EX
p993
I786
sVTamtam
p994
I787
sVReproduction gogeta
p995
I788
sVTakuma945
p996
I789
sVAyane wp
p997
I790
sVBig chicken
p998
I791
sVIchi
p999
I792
sVKyouki
p1000
I793
sVSquidward
p1001
I733
sVDream v
p1002
I795
sVKung fu master
p1003
I796
sVSetsuna
p1004
I797
sVRindou
p1005
I4338
sVC3po & r2d2
p1006
I798
sVDurian
p1007
I4637
sVByakuren hijiri
p1008
I4301
sVMako
p1009
I799
sVKousonsyou
p1010
I4291
sVUrien
p1011
I3984
sVOpirus element
p1012
I801
sVHybrid
p1013
I802
sVRan yakumo
p1014
I4728
sVInsane hiryu
p1015
I804
sVMiyuki EX
p1016
I3966
sVSonya
p1017
I805
sVVegeta gt
p1018
I806
sVGamera
p1019
I4588
sVSorluska
p1020
I808
sVYuna
p1021
I809
sVMarvel Marrow
p1022
I1232
sVShimakaze
p1023
I3364
sVWhite len EX
p1024
I1248
sVToki
p1025
I4127
sVCapmurica
p1026
I812
sVEmily barnet
p1027
I813
sVChameleon
p1028
I814
sVMaster barnes
p1029
I2634
sVNeo dio
p1030
I815
sVSonGohan
p1031
I816
sVReisen_swr
p1032
I3983
sVSatsujinki EX3
p1033
I817
sVIggy ex
p1034
I818
sVMr.satan EX3
p1035
I2663
sVThe undertaker
p1036
I819
sVMr.heart
p1037
I820
sVMature CVS
p1038
I821
sVShar-makai
p1039
I822
sVBonus kun EX2
p1040
I823
sVKung fu girl
p1041
I824
sVSppaman
p1042
I825
sVKagami ex
p1043
I826
sVJazu EX3
p1044
I827
sVSodom
p1045
I4050
sVSuwako
p1046
I828
sVSion_tatari
p1047
I829
sVNamek gohan
p1048
I831
sVRocky
p1049
I832
sVRugal CVS
p1050
I833
sVBlack zero
p1051
I3912
sVKingbehinnmoth
p1052
I835
sVMohikan
p1053
I836
sVRedking
p1054
I837
sVPsychotic ryu
p1055
I838
sVPopeye the sailor
p1056
I839
sVMaster god ken
p1057
I4038
sVStan
p1058
I841
sVMagma-dragoon
p1059
I842
sVKim kaphwan EX3
p1060
I843
sVJack lantern EX3
p1061
I844
sVEric cartman
p1062
I3768
sVMars people EX3
p1063
I845
sVCutman
p1064
I1384
sVHyper neo-kamek EX3
p1065
I2667
sVPractice Vegeta
p1066
I848
sVDarkwing duck
p1067
I849
sVReptos
p1068
I4757
sVCyberwarren
p1069
I850
sVNobuko(emanon)
p1070
I1992
sVRey mysterio
p1071
I852
sVBriaaaaaaaaaaaaaaaaan
p1072
I853
sVBarbatos_goetia
p1073
I854
sVKathumi orochi
p1074
I855
sVJay garrick
p1075
I856
sVFranko
p1076
I857
sVWhite Buffalo M1
p1077
I858
sVSquall JP
p1078
I859
sVHe-man
p1079
I4509
sVEx snow
p1080
I2668
sVBattle dome
p1081
I861
sVMike EX2
p1082
I4772
sVZ-akuma EX
p1083
I1994
sVEvil barney
p1084
I863
sVMegu asuhara
p1085
I864
sVMonkey.d.luffy
p1086
I865
sVKyko
p1087
I4663
sVJinbei
p1088
I4606
sVMashiro
p1089
I867
sVOmega goenitz
p1090
I1365
sVNanaya-kamen
p1091
I4316
sVDemiurgos
p1092
I1218
sVProject_f
p1093
I681
sVEiji EX3
p1094
I870
sVSeth ex
p1095
I2672
sVRaiya
p1096
I4247
sVShiranui mai
p1097
I4144
sVRouge unsou
p1098
I872
sVMadiesha
p1099
I4056
sVNeco chaos
p1100
I4809
sVSoulgen
p1101
I873
sVShin eddie
p1102
I874
sVAsutorea
p1103
I875
sVMiki sayaka
p1104
I4866
sVMrheart
p1105
I876
sVAdon
p1106
I4364
sVRajaayuri
p1107
I877
sVCci jhun
p1108
I878
sVAdom
p1109
I4185
sVMai-ling EX
p1110
I879
sVSuper Skrull MVC
p1111
I880
sVZangoose EX2
p1112
I4533
sVAndrew
p1113
I882
sVZantetsu ex
p1114
I883
sVTyssa willing
p1115
I2674
sVKhan ex
p1116
I4729
sVM-e-reptos
p1117
I4653
sVBrian griffin
p1118
I885
sVGrebam EX
p1119
I886
sVDeath force
p1120
I888
sVRila
p1121
I1367
sVNecoarc_abyss
p1122
I890
sVKanna
p1123
I891
sVJoker EX3
p1124
I892
sVAtomic dust amiba
p1125
I4412
sVDaisy dw
p1126
I893
sVHarman
p1127
I895
sVUzaku
p1128
I4608
sVJhons lee EX3
p1129
I896
sVNightmare the jujin lv3
p1130
I897
sVChaos hiryu
p1131
I898
sVKazuma EX
p1132
I899
sVRequiem giorno(amaai)
p1133
I900
sVKazu
p1134
I901
sVMamiya EX
p1135
I902
sVWif
p1136
I903
sVKung fu head
p1137
I904
sVCombo man
p1138
I905
sVKfmsp
p1139
I906
sVGeese EX2
p1140
I3315
sVGeese Howard
p1141
I907
sVHeavy strike
p1142
I4542
sVBig bear
p1143
I909
sVW arcueid
p1144
I910
sVWild-dachon
p1145
I911
sVTsukuyo
p1146
I912
sVPikaman
p1147
I4198
sVArchetype earth_r
p1148
I914
sVAkys
p1149
I915
sVMaximune
p1150
I2436
sVUltraman tarou_a
p1151
I916
sVKaguya houraisan EX
p1152
I917
sVHiel_mk
p1153
I918
sVBriaaaaaaaaaaaaaaaaan EX3
p1154
I919
sVIngrid EX2
p1155
I4396
sVIngrid EX3
p1156
I920
sVSorami
p1157
I4128
sVNobunaga
p1158
I3294
sVRb2bob
p1159
I4355
sVTenko-abab
p1160
I922
sVPolnareff
p1161
I924
sVHikkoshi_baba
p1162
I925
sVCaptain kidd
p1163
I926
sVZangeese
p1164
I759
sVShartel
p1165
I927
sVTerry bogard EX2
p1166
I928
sVOmni-psych chipp
p1167
I3896
sVModoi-san
p1168
I2008
sVAlyssa ex
p1169
I930
sVJack-hamma ex
p1170
I931
sVDrunk rock lee
p1171
I932
sVExtra usapi-
p1172
I933
sVBroccalon
p1173
I4327
sVDeadpool
p1174
I1371
sVLeo
p1175
I761
sVHarry EX3
p1176
I936
sVMomimomi
p1177
I937
sVJessica
p1178
I2928
sVDr.gero
p1179
I938
sVLarcen
p1180
I4348
sVCody CFJ2
p1181
I1359
sVMarie EX
p1182
I762
sVDan
p1183
I941
sVAtari dragon EX2
p1184
I4616
sVAndroid 18 EX3
p1185
I942
sVDr.minerva
p1186
I4754
sVTsukushi_mio
p1187
I943
sVEfreet
p1188
I944
sVMahvel chun li
p1189
I945
sVBruce shotoman
p1190
I1374
sVBaragon
p1191
I948
sVMaster zibaku rugal
p1192
I3936
sVReak.f
p1193
I949
sVHihumi
p1194
I2989
sVYoko
p1195
I950
sVOrochi-takashi
p1196
I951
sVGustoff EX3
p1197
I952
sVWanda
p1198
I953
sVBlack rugal
p1199
I2686
sVCyclops_cota
p1200
I955
sVZoma ga
p1201
I4822
sVBeauty queen etna
p1202
I956
sVBison
p1203
I4574
sVKyosuke pj
p1204
I4410
sVOmega agk
p1205
I958
sVChomper
p1206
I4661
sVKakyoin noriaki EX3
p1207
I960
sVGagi_ex
p1208
I962
sVMillia tnt
p1209
I963
sVTony Chopper
p1210
I964
sVSahad
p1211
I965
sVAlexey zalazof
p1212
I966
sVBobby ologun
p1213
I967
sVKarma_0.85
p1214
I2012
sVKraidgief
p1215
I968
sVRyuhi SD
p1216
I970
sVHaggar ex
p1217
I971
sVSmoo
p1218
I3393
sVBekkamu
p1219
I973
sVGouken sf4
p1220
I974
sVNenaikodareda
p1221
I975
sVUltraseven
p1222
I3313
sVOverlord laharl
p1223
I4325
sVShishin
p1224
I978
sVBinran
p1225
I979
sVLabyrinth 1p
p1226
I1380
sVTao
p1227
I981
sVGeorge
p1228
I982
sVShin kazuma
p1229
I983
sVTak
p1230
I984
sVYusuke
p1231
I2692
sVLupin the 3rd
p1232
I4657
sVDragon rider
p1233
I986
sVMaster kaede
p1234
I987
sVKoneko EX
p1235
I988
sVNaruto kun hr
p1236
I989
sVSaber EX
p1237
I990
sVGuts
p1238
I991
sVScott pilgrim EX3
p1239
I992
sVKenoh EX2
p1240
I993
sVLf2 - davis
p1241
I994
sVSs6 shisyun-abab
p1242
I995
sVDuck king
p1243
I4007
sVRei
p1244
I996
sVNanoha takamachi EX3
p1245
I156
sVMoriya b style
p1246
I998
sVYuuka kazami
p1247
I999
sVRider
p1248
I1000
sVGokussj4d
p1249
I1001
sVSf4 omni
p1250
I1002
sVSarashina EX
p1251
I1003
sVGavora
p1252
I1004
sVTylor
p1253
I4806
sVKaguya houraisan EX3
p1254
I1006
sVA.b.a
p1255
I1007
sVFilea EX3
p1256
I1008
sVGeki
p1257
I3400
sVBlackmore
p1258
I1010
sVG project
p1259
I1011
sVShin golem
p1260
I4760
sVHu-ama EX3
p1261
I3401
sVFeilong sfa
p1262
I1014
sVBlitztank-n
p1263
I1015
sVOyashirorika EX
p1264
I1016
sVKung fu rabbit
p1265
I1017
sVJustice ao
p1266
I1018
sVOmake
p1267
I1019
sVRyuuoutan
p1268
I4203
sVTessa
p1269
I1020
sVSkullman
p1270
I1021
sVGeki f22
p1271
I1022
sVDragon claw EX3
p1272
I1023
sVOmni-psych justice
p1273
I1024
sVMasked rider blade
p1274
I1025
sVSissy EX3
p1275
I4600
sVPaul phoenix EX
p1276
I1026
sVEl stinger
p1277
I3802
sVThe red dragon
p1278
I1028
sVRyo fu
p1279
I1029
sVKilla and ren EX
p1280
I1030
sVSimon B
p1281
I4795
sVHamster
p1282
I1031
sVDonatello DCAT
p1283
I1032
sVHol horse
p1284
I1033
sVHayate EX
p1285
I1034
sVZeus ex
p1286
I1035
sVKamishiro_kunagi
p1287
I1036
sVBlossom jp
p1288
I1037
sVKosanjou
p1289
I1038
sVDitto EX3
p1290
I1039
sVThing
p1291
I778
sVShingo
p1292
I1041
sVKlonoa
p1293
I2819
sVOrochimaru
p1294
I1042
sVDark cornian
p1295
I1043
sVSakura kinomoto
p1296
I1429
sVMiyazato erika EX
p1297
I4095
sVGoryujin
p1298
I1044
sVWreck-it ralph
p1299
I1045
sVNeva
p1300
I1046
sVWhispy woods
p1301
I2654
sVYang K
p1302
I4867
sVMisuzu EX
p1303
I1047
sVMiku_tt
p1304
I1048
sVG_cyclone
p1305
I1049
sVNeko&mech_m
p1306
I3898
sVNi_san
p1307
I1050
sVHiryu EX2
p1308
I2699
sVWeiss guitly gear
p1309
I4791
sVFujiwara no mokou
p1310
I1052
sVFps bison trooper EX
p1311
I4249
sVMatrix
p1312
I1054
sVChipp_arrange
p1313
I1055
sVZwei
p1314
I1056
sVJustice
p1315
I4766
sVAsterix
p1316
I1057
sVAntlar
p1317
I1058
sVDan NGPC
p1318
I4176
sVShishimaru
p1319
I1060
sVPowergirl
p1320
I1061
sVHulk
p1321
I2825
sVSatuzinki
p1322
I782
sVMictlan
p1323
I1393
sVSpecialist
p1324
I1064
sVCirno
p1325
I1065
sVRobo-jam
p1326
I1066
sVPiyokong
p1327
I4383
sVCaviar?
p1328
I1067
sVDies
p1329
I1068
sVMomizi-e
p1330
I1069
sVChoi special
p1331
I1070
sVRera ex
p1332
I1071
sVKingslime
p1333
I1725
sVPredalien
p1334
I1072
sVReisen deadpool inaba
p1335
I785
sVFeli
p1336
I1074
sVVise
p1337
I1075
sVGigigear
p1338
I1076
sVJoker_nanaya
p1339
I1077
sVKung fu men
p1340
I1078
sVBruno bucciarati
p1341
I1079
sVShirai_kuroko
p1342
I1080
sVShaft
p1343
I1081
sVA-green EX3
p1344
I2793
sVMaster kojiroh
p1345
I1083
sVGenteki dan
p1346
I1084
sVGuy_cecil
p1347
I1192
sVPocket joker
p1348
I3756
sVEve
p1349
I1085
sVKrauser
p1350
I4335
sVDark excellent takuma
p1351
I1086
sVYoumu konpaku EX
p1352
I1087
sVOnsokumaru
p1353
I1088
sVGoofy
p1354
I1089
sVSonozaki_mion
p1355
I1091
sVThe grandmapocalypse
p1356
I2950
sVApocalypse
p1357
I1092
sVBlodia-k
p1358
I2705
sVLei-lei
p1359
I4832
sVDuke
p1360
I1094
sVSerio
p1361
I3412
sVChain combo yuyuko
p1362
I1096
sVBoss sagat
p1363
I1097
sVMaster shake
p1364
I2303
sVGlenn
p1365
I2706
sVRed hulk
p1366
I4631
sVSissy ex
p1367
I1099
sVHame-terry
p1368
I2135
sVKimelemaru EX3
p1369
I1100
sVStreet fighter is boring you idiots
p1370
I2032
sVHisame_shizumaru_ph_ai
p1371
I1102
sVKatana EX3
p1372
I1103
sVDimlos EX
p1373
I1104
sVRyu plus
p1374
I1105
sVDr. doom mvc3
p1375
I2708
sVKanon
p1376
I4449
sVTerry 02
p1377
I3666
sVLimiter cut broly
p1378
I3916
sVPinkie pie
p1379
I1108
sVYawarakasensha
p1380
I4686
sVEri_hasumi
p1381
I1109
sVCar navi
p1382
I3417
sVLayla
p1383
I1111
sVMaebara_keiichi
p1384
I1112
sVShin bison
p1385
I2081
sVKonngara
p1386
I1113
sVM-e-warlock
p1387
I4330
sVTarantula
p1388
I1115
sVPizza
p1389
I1116
sVLucifer EX
p1390
I3078
sVGarnet crow
p1391
I1118
sVTristan
p1392
I1119
sVDark saber
p1393
I1120
sVFrieza
p1394
I1121
sVGray fullbuster
p1395
I4326
sVMousse by ?
p1396
I4116
sVMunch
p1397
I1122
sVSmall akuma
p1398
I1123
sVLavos core
p1399
I4354
sVFlandre scarlet
p1400
I1124
sV1
p1401
I3123
sVDeluxe lin
p1402
I1126
sVYoshiyuki takagi
p1403
I1127
sVDeath machine mb-59
p1404
I4547
sVBeelzebub
p1405
I1128
sVKon-el
p1406
I1129
sVGaia
p1407
I1130
sVWapiko
p1408
I1131
sVMahvel sean
p1409
I1132
sVSanada kojiroh
p1410
I969
sVElfin ix
p1411
I1134
sVTank
p1412
I1135
sVMahvel ryu
p1413
I1136
sVGetsufuma
p1414
I1137
sVDeathscythe
p1415
I3005
sVTane
p1416
I4466
sVQuickman
p1417
I1138
sVReptile mk2
p1418
I2718
sVWild woody
p1419
I1140
sVDancing banana
p1420
I1141
sVKai EX3
p1421
I1142
sVYukihime
p1422
I4732
sVYoung_rugal
p1423
I1143
sVMajin vegeta
p1424
I1144
sVKasumi EX3
p1425
I4531
sVOld mechagodzilla
p1426
I1145
sVThe gandhara
p1427
I2720
sVShin
p1428
I1147
sVGomora
p1429
I1148
sVJean_pau
p1430
I1149
sVKamijo toma EX
p1431
I3316
sVKing 95
p1432
I4537
sVShadow vegeta
p1433
I4035
sVGalactus
p1434
I1151
sVPorygon-z EX2
p1435
I3425
sVStorm eagle
p1436
I1153
sVUesugi kensin EX
p1437
I1154
sVG.vise
p1438
I1155
sVMrkarate
p1439
I1156
sVYamamoto-f-burai
p1440
I1157
sVBowser
p1441
I3426
sVCathey
p1442
I1159
sVRing man
p1443
I1160
sVFix-it felix
p1444
I1161
sVKid gohan EX3
p1445
I4145
sVAxearmor
p1446
I1162
sVDq5-son
p1447
I1163
sVBarney
p1448
I3394
sVOrochi-ev
p1449
I1165
sVSilver surfer EX
p1450
I1167
sVBurner man
p1451
I1168
sVAbubo
p1452
I3979
sVGohan fight money
p1453
I1169
sVEvil zodiac
p1454
I1170
sVSango EX
p1455
I1171
sVKongara
p1456
I1172
sVTyrant J
p1457
I3903
sVSalty goku
p1458
I2722
sVMasked rider kabuto
p1459
I1173
sVHitosyura EX3
p1460
I1174
sVNayu mizuhara
p1461
I1175
sVSheen
p1462
I1177
sVKen & gang
p1463
I4107
sVKishimax
p1464
I1178
sVWolvenom
p1465
I1179
sVGodzilla EX
p1466
I1180
sVHover
p1467
I1181
sVLomias
p1468
I1182
sVRyo945
p1469
I1183
sVTrunks
p1470
I2704
sVKangaroo
p1471
I4628
sVDark sakura
p1472
I1185
sVKeeper of k
p1473
I1186
sVZonu
p1474
I2154
sVPenta
p1475
I1187
sVRegin
p1476
I1188
sVIchigo EX
p1477
I4585
sVPatchouli
p1478
I4865
sVHibiki
p1479
I3616
sVBulbasaur
p1480
I4856
sVPerfecti ex
p1481
I3547
sVDan CVS
p1482
I1190
sVReal Shuma
p1483
I4322
sVShotoborg mk. ii
p1484
I2786
sVChibiko
p1485
I3657
sVTsunade EX3
p1486
I1193
sVBs kung fu man
p1487
I3578
sVRobo-ky EX
p1488
I1195
sVSlamdunk
p1489
I1196
sVEcoco
p1490
I2727
sVKat
p1491
I1198
sVKraken
p1492
I1199
sVShinki
p1493
I1200
sVKoakuma_hsts
p1494
I3919
sVG. done
p1495
I1201
sVSimonkin2006
p1496
I1202
sVKula diana
p1497
I4718
sVSimonkin2005
p1498
I1203
sVPsylocke EX2
p1499
I1204
sVFurudo_erika EX3
p1500
I4667
sVBatsu EX2
p1501
I3661
sVScream
p1502
I1206
sVShura
p1503
I3385
sVSinclair
p1504
I3433
sVRed snake
p1505
I1207
sVHattori-hanzo
p1506
I1208
sVLuigi NGPC
p1507
I1209
sVJu do man
p1508
I2054
sVSnake man
p1509
I4823
sVFortuna_suwako
p1510
I1211
sVMirai trunks
p1511
I1212
sVRaph EX2
p1512
I1213
sVMinakata moriya
p1513
I1214
sVMouri motonari
p1514
I1215
sVAokiji kuzan
p1515
I1216
sVM-lancer
p1516
I1217
sVAnother igniz EX2
p1517
I4451
sVShimo EX
p1518
I355
sVDuane!
p1519
I4720
sVVarnage
p1520
I3751
sVJackal
p1521
I4439
sVMicky13
p1522
I3437
sVKarman-cole
p1523
I1221
sVSoushihan k.s.k 12p color
p1524
I1222
sVMasta gambit
p1525
I1223
sVTizoc
p1526
I1224
sVKamek
p1527
I4695
sVDiamondeye
p1528
I4405
sVStone_bonus
p1529
I4234
sVKanade
p1530
I1226
sVD4 reimu EX3
p1531
I668
sVKoizumi itsuki
p1532
I1227
sVMvc2 iceman
p1533
I1229
sVMukuro EX G
p1534
I1230
sVDonald
p1535
I3375
sVDarkwing duck EX
p1536
I1231
sVInfinity mijinion
p1537
I4752
sVGoodman EX
p1538
I3801
sVArrange_remilia
p1539
I1233
sVKen
p1540
I1234
sVSuperoverlord meep
p1541
I1235
sVDragon_warrior(dnf) +q
p1542
I1236
sVPocket terry
p1543
I1237
sVMinoriko aki
p1544
I1238
sVOwada nana
p1545
I1239
sVKillerbee
p1546
I1240
sVAlien baltan 6th
p1547
I4843
sVTBonne
p1548
I1242
sVGajeel
p1549
I4646
sVReimi
p1550
I1243
sVD4 kirby
p1551
I52
sVLion(coh)
p1552
I59
sVLady deathstrike
p1553
I2737
sVMark sein
p1554
I1247
sVKyle dunamis
p1555
I3948
sVLelouch
p1556
I811
sVSugoi cirno
p1557
I1249
sVBubble slime
p1558
I1250
sVCockle
p1559
I1251
sVAyako
p1560
I4192
sVDinotank
p1561
I1252
sVFat boo
p1562
I4187
sVMf viga
p1563
I1254
sVEddie mvc
p1564
I1255
sVDragon waifu
p1565
I1256
sVBullseye
p1566
I3427
sVBoggy
p1567
I4104
sVPikachu EX2
p1568
I1257
sVGrand superior ultimate man
p1569
I1999
sVRugal b.
p1570
I1258
sVMai_k
p1571
I1259
sVAngelia
p1572
I1260
sVNew age king
p1573
I1261
sVFcmeirin EX2
p1574
I3447
sVRidley zm
p1575
I4626
sVS.o.g
p1576
I2063
sVZangief EX3
p1577
I1264
sVRick simpsons
p1578
I1265
sVErim
p1579
I1266
sVAi
p1580
I2840
sVMariabell armitage
p1581
I1267
sVNick commando EX
p1582
I2647
sVBlue destiny 2
p1583
I1268
sVHeavy d! EX3
p1584
I1269
sVKurama
p1585
I1270
sVMegamami
p1586
I1271
sVSakuya ex
p1587
I1272
sVMeifang dhq
p1588
I1273
sVKyon_ak
p1589
I1274
sVAdelheid EX
p1590
I256
sVSupreme gogeta v1.5
p1591
I4778
sVMegaroman
p1592
I4435
sVPhantomsheet
p1593
I1276
sVTrunks EX3
p1594
I1277
sVThe deadly dragon
p1595
I3934
sVMissing iq gomes
p1596
I4480
sVHiman zellode
p1597
I4751
sVTeam u zako
p1598
I4382
sVSubaru
p1599
I2193
sVSounanda
p1600
I4308
sVLeona ex
p1601
I3451
sVYu-lan
p1602
I1280
sVReon
p1603
I1282
sVCandyman
p1604
I3941
sVUltraman gaia_a
p1605
I331
sVZangief maskered
p1606
I335
sVAlucard SOTN
p1607
I2910
sVShinGouki
p1608
I4687
sVThe territorial mammoth
p1609
I4553
sVMoleman
p1610
I1286
sVMasked rider agito EX3
p1611
I1287
sVTokido saya
p1612
I1288
sVHimekawa kotone
p1613
I1289
sVSasuke Cosplay
p1614
I1290
sVBombman
p1615
I1291
sVKuroko EX2
p1616
I690
sVKotoe
p1617
I1292
sVGi-le-farg
p1618
I4173
sVD4 reimu
p1619
I3339
sVA-rei
p1620
I1434
sVKenshiro
p1621
I4571
sVVebel
p1622
I2635
sVAkuma SF4
p1623
I3965
sVGranzon
p1624
I1294
sVPatrick
p1625
I3755
sVLeopaldon
p1626
I4498
sVDevo
p1627
I3926
sVBrainiac
p1628
I4270
sVMiles
p1629
I1297
sVHinata natumi
p1630
I1298
sVThe mythical dacentrurian
p1631
I1299
sVZweizergain
p1632
I1300
sVMonster ball
p1633
I1301
sVOhaou
p1634
I3900
sVSeven
p1635
I1302
sVBenimaru EX3
p1636
I2751
sVChiffon
p1637
I1304
sVNinja megazord
p1638
I4054
sVYorihime watatsuki
p1639
I4763
sVShar-makai EX3
p1640
I1306
sVSsj3 gotenks
p1641
I4242
sVW.krauser
p1642
I1307
sVPentagon & black hole
p1643
I1308
sVMagma
p1644
I1309
sVShen EX2
p1645
I1435
sVKyoushirou senryou
p1646
I1686
sVArmored gohan
p1647
I1311
sVYueng soi leng
p1648
I1312
sVKrauser 98
p1649
I2074
sVAn ordinary sonic the hedgehog
p1650
I3540
sVGodzillaEX
p1651
I1315
sVSteel
p1652
I2754
sVTora
p1653
I4425
sVSuwako ai
p1654
I1317
sVBatman beyond
p1655
I4782
sVShiva
p1656
I1320
sVWinggod kanna
p1657
I1321
sVDarthvader
p1658
I2077
sVDeluxe chipp
p1659
I1323
sVMobo
p1660
I4518
sVTrapsatoko
p1661
I1324
sVRin natsume
p1662
I3907
sVTomoko
p1663
I635
sVOrochi iori EX
p1664
I4603
sVCci saisyu
p1665
I4513
sVAccelerator EX3
p1666
I3889
sVDk
p1667
I1328
sVDavid bell
p1668
I657
sVZ gundam
p1669
I666
sVZ-ton 2nd
p1670
I1331
sVYuri945
p1671
I1332
sVRenamon
p1672
I1333
sVDeath13
p1673
I1439
sVGenpaku
p1674
I1335
sVJamian di corvus
p1675
I1336
sVKurohige
p1676
I693
sVSketch turner
p1677
I1338
sVChaoz_gf
p1678
I1339
sVArch mage alice
p1679
I1340
sVDuck king pne
p1680
I4649
sVEnja
p1681
I1342
sVHotaru
p1682
I1343
sVSuper hyper ultra mega awesome wtf barney
p1683
I1344
sVSamurai pizza cats
p1684
I1345
sVSasuke kun
p1685
I3968
sVNami
p1686
I1347
sVKamen rider kabuto
p1687
I1348
sVMvc2 megaman
p1688
I774
sVStrider H
p1689
I1350
sVHaggar sf2
p1690
I1351
sVSad claps
p1691
I1352
sVSoujiro
p1692
I4252
sVB.jenet
p1693
I1353
sVMisaka
p1694
I4564
sVMasked_dedede
p1695
I1354
sVWulong
p1696
I1355
sVBuguu
p1697
I3946
sVKou EX3
p1698
I1356
sVShinobu
p1699
I1357
sVTsugumi
p1700
I834
sVAzrael
p1701
I3498
sVKimexemaru
p1702
I1360
sVKilyousuke ex
p1703
I1361
sVSaimon
p1704
I3933
sVD'
p1705
I1363
sVDantalion_alice
p1706
I1444
sVMakai
p1707
I4834
sVAlice's gensokyo
p1708
I1366
sVCelesty
p1709
I889
sVLuka
p1710
I1368
sVSatuzinki_nesmario
p1711
I4650
sVDeejay sfa
p1712
I1369
sVSailor venus EX
p1713
I4075
sVShin vega
p1714
I4844
sVIzzy blue
p1715
I2943
sVHaohmaru
p1716
I1370
sVMaster ryu
p1717
I935
sVInjya 1p
p1718
I1372
sVIngrid
p1719
I3086
sVTrainheartnet
p1720
I3784
sVLieselotte_achenbach
p1721
I1090
sVMoraga
p1722
I1375
sVCv wakamoto
p1723
I1376
sVDonatello 0d
p1724
I1378
sVMegaman fp
p1725
I1379
sVBloo ex
p1726
I980
sVFlan Scarlet
p1727
I1381
sVRolf
p1728
I4682
sVVenomscorp
p1729
I1382
sVSub-zero EX
p1730
I3147
sVRoll
p1731
I1013
sVPein nzc
p1732
I1385
sVJeice
p1733
I1386
sVKazuya akatsuki +q
p1734
I1387
sVYawara
p1735
I2655
sVMurasa EX
p1736
I3754
sVOssan
p1737
I4651
sVMatou sakura EX
p1738
I1388
sVHaohmaru 98
p1739
I1389
sVPocket Sakura
p1740
I1390
sVSasuke 0d
p1741
I1391
sVSakashita
p1742
I1392
sVSuper girl
p1743
I1063
sVMima
p1744
I1394
sV95ani
p1745
I1395
sVSatsuki vp EX3
p1746
I1396
sVAsura
p1747
I1397
sVYuri
p1748
I1398
sVMpccgenerals
p1749
I1399
sVCard hero
p1750
I1400
sVFreedom gundam
p1751
I1401
sVBlade rider
p1752
I4225
sVDarkseid
p1753
I2776
sVBatman 2
p1754
I1404
sVSnakeeyes
p1755
I1405
sVDongdong
p1756
I1406
sVIgnis
p1757
I1407
sVFire quacker
p1758
I3917
sVRobocop
p1759
I4845
sVBlack adam
p1760
I1408
sVIgniz
p1761
I1409
sVRaiden EX2
p1762
I1410
sVAkane
p1763
I1411
sVKrang
p1764
I1412
sVOrtega ex
p1765
I3477
sVSlalingaru
p1766
I1150
sVSabretooth
p1767
I4210
sVFf1 tung fu rue
p1768
I4678
sVNamor
p1769
I4698
sVSuneo
p1770
I1415
sVSuper vegeta ai-barbatos
p1771
I1416
sVArashi EX
p1772
I1452
sVYuyuko saigyouji
p1773
I1976
sVMaverick zero
p1774
I1418
sVAsha
p1775
I2827
sVJoe F22
p1776
I1419
sVAngel
p1777
I1420
sVJet jaguar
p1778
I2869
sVWashizuka
p1779
I2017
sVVivi_ornitier
p1780
I1422
sVHighway star
p1781
I1423
sVCheapest kfm!!!
p1782
I1425
sVYukari Tanizaki
p1783
I1426
sVPheus_mor
p1784
I1427
sVMiduma
p1785
I1428
sVSilverbloome
p1786
I3549
sVTien
p1787
I3928
sVKasen EX
p1788
I1430
sVRobo-segalow
p1789
I1431
sVTerry ex02
p1790
I2961
sVJyubei yagyu EX3
p1791
I1432
sVGrant
p1792
I1433
sVSunflower fairy
p1793
I3243
sVBilly lee
p1794
I1293
sVGod gundam EX
p1795
I4076
sVLucifer
p1796
I1310
sVS-len
p1797
I1436
sVYamcha
p1798
I1437
sVIkumi tatikawa
p1799
I1319
sVGreen lantern gg
p1800
I1334
sVDee bee kaw
p1801
I1440
sVSniper
p1802
I1441
sVRamon 71113
p1803
I1442
sVVirtus
p1804
I4639
sVKonoha
p1805
I1443
sVPantyhose taro
p1806
I4140
sVClayface
p1807
I1364
sVQueen beryl
p1808
I1445
sVStickykeys
p1809
I1446
sVDeluxe ai
p1810
I1447
sVAlien_z-ton
p1811
I3924
sVAthena X2
p1812
I1448
sVViewtiful joe
p1813
I1460
sVFred Krueger
p1814
I3937
sVYuki morikawa
p1815
I1450
sVAlucard
p1816
I1451
sVItachi
p1817
I4648
sVKing of zero
p1818
I1417
sVNeo EX
p1819
I1453
sVSnake eyes
p1820
I1454
sVSatsujinki
p1821
I1455
sVUrban champion
p1822
I1456
sVSalamandra_fe
p1823
I1457
sVRamon EX3
p1824
I1458
sVXerxes
p1825
I1459
sVTear
p1826
I1449
sVYuri di aaaaaaa
p1827
I4837
sVGrand master ryu
p1828
I2783
sVYoko EX
p1829
I1463
sVRoll EX
p1830
I1464
sVBob wilson EX2
p1831
I1461
sVShikieiki yamaxanadu
p1832
I1466
sVEriol hiiragizawa
p1833
I1467
sVCurly brace EX3
p1834
I1468
sVChizuru 71113
p1835
I2785
sVAnanzi
p1836
I2098
sVKencyan
p1837
I1469
sVNew rubber soul
p1838
I1470
sVUkitake
p1839
I4580
sVLa mascara
p1840
I1471
sVSephiroth EX3
p1841
I1472
sVKane
p1842
I1473
sVKawajirikosaku EX3
p1843
I1474
sVSideswipe
p1844
I1475
sVSerika
p1845
I2759
sVIkaruga satuki
p1846
I1477
sVImouto EX3
p1847
I1465
sVAkari kamigishi
p1848
I1478
sVRasetsu
p1849
I3997
sVNeo dio EX3
p1850
I4459
sVMisaka mikoto EX2
p1851
I2684
sVPerfectakishimai
p1852
I1480
sVKiyoko
p1853
I1970
sVKitanaininjya
p1854
I1481
sV20 (dr. gero)
p1855
I1482
sVAmber lamps
p1856
I4549
sVRei-kugo
p1857
I1483
sVYamcha by tomur
p1858
I1484
sVJoker_shiki
p1859
I1485
sVChunli_a
p1860
I1486
sVRichard myer
p1861
I4018
sVRemilia
p1862
I2119
sVPapillon
p1863
I2789
sVNero chaos
p1864
I1488
sVDrew
p1865
I1489
sVHoraizon ver1.02
p1866
I1490
sVSkelegon
p1867
I1491
sVNaya tatca nanafe
p1868
I1492
sVKouma kishima
p1869
I582
sVGaogaigar
p1870
I1493
sVCleric
p1871
I1494
sVBowling ball
p1872
I1495
sVZangief
p1873
I1496
sVChen the weasel
p1874
I1497
sVDream bison
p1875
I2790
sVSuper metroid
p1876
I1500
sVBagira_ex
p1877
I1501
sVTyrant EX
p1878
I1502
sVAsh 2
p1879
I1503
sVRalf 2k2
p1880
I4369
sVDead geese
p1881
I1504
sVSword impulse
p1882
I1505
sVCommon akuma
p1883
I1506
sVDabura EX3
p1884
I4629
sVRoast_uncle
p1885
I1979
sVAgito_of_the_dark
p1886
I4565
sVBroccalon EX3
p1887
I1508
sVMakoto EX3
p1888
I1509
sVPrincess
p1889
I1510
sVSuper soldier
p1890
I4352
sVChousokabe motochika
p1891
I1511
sVYet another igniz
p1892
I1512
sVMuhi
p1893
I4085
sVUltraseven_a
p1894
I1513
sVJean grey
p1895
I1184
sVTerumi
p1896
I1514
sVSawada
p1897
I4113
sVNecoarc
p1898
I1515
sVMore Evil Ryu
p1899
I1516
sVMr. increible
p1900
I4703
sVStimpy
p1901
I1517
sVQuicksilver
p1902
I1518
sVJaguar junichi
p1903
I1519
sVAbobo 0D
p1904
I1520
sVDr.manhattan
p1905
I4826
sVAbigail
p1906
I869
sVM.bison
p1907
I2107
sVEvabeatrice
p1908
I3987
sVTrishula,doragon of the ice barrier
p1909
I1522
sVRon max
p1910
I1523
sVMoogle
p1911
I1524
sVFortress maximus
p1912
I1525
sVAllen o'neill
p1913
I1526
sVZebura
p1914
I3461
sVMvc2 cyclops
p1915
I1527
sVSeikimatu guile
p1916
I1528
sVKenbo
p1917
I1529
sVSailor uranus
p1918
I1530
sVKenshi
p1919
I1531
sVMr1 daz bones
p1920
I1532
sVBad mr frosty
p1921
I3952
sVWolverine_cota
p1922
I1318
sVDragon claw
p1923
I4168
sVToyohime EX2
p1924
I1534
sVSaiki
p1925
I1535
sVShizuha EX3
p1926
I1536
sVWaki-miko
p1927
I3738
sVSuper androide 17 hd
p1928
I1537
sVBalrog sf2
p1929
I1538
sVWonder woman
p1930
I1539
sVSyaoran
p1931
I4245
sVBlack widow
p1932
I1541
sVMasked rider hibiki(emanon)
p1933
I3500
sVChintao FF
p1934
I1542
sVHamburglar
p1935
I1543
sVCreeper
p1936
I1544
sVBotan
p1937
I4635
sVDevil seaman
p1938
I1545
sVMr satan
p1939
I3522
sVDark karin
p1940
I1546
sVHatchetman
p1941
I1547
sVSaku
p1942
I1548
sVAdvent cloud
p1943
I1549
sVCaptain commando
p1944
I1550
sVAlbus
p1945
I1551
sVTusk soldier
p1946
I4749
sVUbu
p1947
I4742
sVJazu
p1948
I1552
sVRiot
p1949
I1553
sVF.tarantula
p1950
I2075
sVHuey freeman
p1951
I3970
sVVoid
p1952
I1556
sVBobby
p1953
I1557
sVEagle-sabu
p1954
I3930
sVIkumi amasawa
p1955
I1558
sVKanon EX3
p1956
I2093
sVJin bros
p1957
I4552
sVMidknight
p1958
I1561
sVBlood
p1959
I1563
sVBlack manta
p1960
I3935
sVGod vega
p1961
I2474
sVRodimus prime
p1962
I1565
sVCarol
p1963
I1566
sVLei lei
p1964
I4812
sVRion
p1965
I1568
sVMacheta
p1966
I1569
sVRoppen heimer EX FF
p1967
I1570
sVPiccolo EX3
p1968
I4597
sVGoku ssj 3
p1969
I4573
sVMary EX3
p1970
I1571
sVC.dome
p1971
I4044
sVMichael
p1972
I2117
sVS.geist
p1973
I1572
sVNico robin
p1974
I3504
sVBlack mask
p1975
I3995
sVSenna(coh)
p1976
I1573
sVTiki
p1977
I1574
sVG-gonzales2
p1978
I4790
sVMaherl
p1979
I1575
sVRutee
p1980
I1577
sVSuper sayajin 4
p1981
I4811
sVMs.archer
p1982
I4605
sVTenshi
p1983
I4099
sVElita one
p1984
I1580
sVScarlet devil
p1985
I1581
sVZeeky h. bomb
p1986
I1582
sVClark Steel XIII
p1987
I3892
sVVega mvc2
p1988
I1584
sVNachi
p1989
I4092
sVAnji
p1990
I1585
sVDokuo_ver1.39
p1991
I4493
sVGundog
p1992
I1586
sVGuy
p1993
I3429
sVJoseph joestar EX3
p1994
I1587
sVAmerican idiot
p1995
I4785
sVJet-stingray
p1996
I1589
sVSakura haruno nzc
p1997
I1590
sVPsycho shredder[s] 3.0
p1998
I1591
sVKazami yuuka
p1999
I1592
sVGod alosson
p2000
I2158
sVFelix the cat EX3
p2001
I1593
sVGi gi
p2002
I1594
sVMvc2 captain america
p2003
I1595
sVYouhei 1p
p2004
I1596
sVRonove
p2005
I1597
sVShiena bee
p2006
I1598
sVMike tyson
p2007
I2806
sVInfant mutant
p2008
I1600
sVGeneshic gaogaiger
p2009
I1601
sVScarlet spider
p2010
I3971
sVAndy_xiii
p2011
I3508
sVSenel
p2012
I1603
sVHel'lauren
p2013
I1604
sVGutsman
p2014
I1605
sVKinoko
p2015
I1606
sVSolitaire
p2016
I1607
sVRockman x
p2017
I1608
sVFrieza EX3
p2018
I1609
sVTeam ryuko
p2019
I4019
sVZinsuke
p2020
I1611
sVBuu Hyper Dimension
p2021
I1612
sVTakuan_osho
p2022
I2123
sVTokinomiya kamui
p2023
I1614
sVJudith
p2024
I1616
sVPolon
p2025
I4183
sVThe pacifier
p2026
I4507
sVB.dosa
p2027
I1617
sVGonzales s-r
p2028
I3187
sVBasara
p2029
I1618
sVYumi
p2030
I1619
sVSuper mario EX3
p2031
I1620
sVSittara
p2032
I2124
sVHouoh
p2033
I4735
sVAnna ex
p2034
I1622
sVMahvel elena
p2035
I1623
sVRugal bernstein EX3
p2036
I1624
sVKim EX
p2037
I1383
sV17th angel
p2038
I1626
sVWyvern
p2039
I1627
sVKoakuma_ac
p2040
I1628
sVThe joker EX3
p2041
I1629
sVTabasa
p2042
I4220
sVSatomi yajima
p2043
I1630
sVBattousai
p2044
I1632
sVMastr Hand
p2045
I729
sVYanpeko na hibikisan
p2046
I1633
sVBalrog f
p2047
I1634
sVDrake
p2048
I1635
sVOrsted_w
p2049
I3327
sVCharlotte
p2050
I2897
sVGeese EX3
p2051
I2529
sVViga
p2052
I1637
sVMr_shihan_ky
p2053
I1638
sVKaptain k.rool
p2054
I1639
sVSenna_ai
p2055
I1640
sVBristol weller
p2056
I1641
sVEbe
p2057
I1642
sVArthur EX
p2058
I1643
sVAngela EX3
p2059
I1644
sVProducer
p2060
I1645
sVKirara
p2061
I1647
sVRiesz
p2062
I1648
sVDeluxe athena
p2063
I1649
sVGeese xi
p2064
I1650
sVGod yuri
p2065
I1651
sVLightning bd
p2066
I1652
sVBig zam
p2067
I2131
sVTloz link
p2068
I1655
sVMedusa
p2069
I1656
sVWorld-chang
p2070
I1657
sVCursor
p2071
I4516
sV98se
p2072
I1658
sVLittle busters! ce
p2073
I4386
sVCvs yun
p2074
I2547
sVShazzer EX3
p2075
I1661
sVTyrant_a
p2076
I1662
sVE. honda
p2077
I1663
sVCaptain america b
p2078
I1664
sVMari
p2079
I1665
sVEvil ranger
p2080
I1666
sVYellow-pipo
p2081
I470
sVSuper nightmare geese
p2082
I1668
sVLunasa
p2083
I1669
sVSupreme vegito
p2084
I1670
sVMeira
p2085
I1671
sVPocket tylor
p2086
I1672
sVMarx
p2087
I1673
sVBerserk
p2088
I1674
sVJin CVS TAG
p2089
I1675
sVCycloid omega EX
p2090
I1676
sVDana dee
p2091
I1677
sVSuave dude
p2092
I1678
sVHeat-genblem
p2093
I1679
sVMech-hisui EX
p2094
I1680
sVFamicom wars
p2095
I1681
sVHaru-chan
p2096
I1682
sVVeku
p2097
I4336
sVA-heart
p2098
I1684
sVHomer simpson
p2099
I4350
sVAirou ver2.11
p2100
I4544
sVStrider hien
p2101
I1685
sVBenimaru 98
p2102
I2876
sVBig ptolemaic tank
p2103
I4846
sVKasumi wpr
p2104
I1688
sVNamihei
p2105
I1689
sVGolden axe
p2106
I2824
sVSkapon
p2107
I1690
sVAkuma
p2108
I1691
sVRoa EX3
p2109
I1692
sVWar EX2
p2110
I1693
sVEarl
p2111
I1694
sVSteven seagal
p2112
I4615
sVKoopa clown car
p2113
I1696
sVThiele
p2114
I1698
sVPeijin-san
p2115
I1699
sVM-monk
p2116
I4666
sVSs6 aisya
p2117
I1700
sVKanae EX3
p2118
I1701
sVFerroman
p2119
I1702
sVGozu
p2120
I1703
sVLittle nemo
p2121
I1704
sVSupreme goku
p2122
I1705
sVLord slug
p2123
I2974
sVNekonin ex
p2124
I1706
sVRock
p2125
I4774
sVLoud demon
p2126
I3002
sVLeonardo
p2127
I1708
sVGeneral blue
p2128
I2835
sVMomiji inubashiri
p2129
I2828
sVBatman EX3
p2130
I1710
sVRambo
p2131
I1711
sVAnpanman
p2132
I1712
sVRogue SP
p2133
I1713
sVHeidern_ex
p2134
I3521
sVAsutorea EX3
p2135
I1715
sVStarfy
p2136
I1716
sVCid highwind
p2137
I3915
sVElpizo
p2138
I2140
sVCrocodile
p2139
I1718
sVAlter amiba
p2140
I1719
sVWatatsuki no toyohime
p2141
I4124
sVChili n pepper
p2142
I1720
sV2k
p2143
I2141
sVGg-wind
p2144
I1721
sVTiberius
p2145
I1722
sVSanic boom
p2146
I1723
sVCyber-woo
p2147
I1724
sVToguro 30%
p2148
I4233
sVMagnus
p2149
I4514
sVSkywarp
p2150
I3137
sVStorm_cota
p2151
I1727
sVPepe
p2152
I4117
sVAlbiole
p2153
I1728
sVMoses maddigan
p2154
I1729
sVDudley Puppy
p2155
I4167
sVYashiro
p2156
I1730
sVMasked rider agito
p2157
I1731
sVD kanna
p2158
I3998
sVBaki-hanma
p2159
I1732
sVAdo
p2160
I1733
sVJack frost
p2161
I4323
sVEleicia
p2162
I3330
sVChouji
p2163
I3927
sVAoko_monk_style
p2164
I1734
sVEagle f22
p2165
I1735
sVMajin-etna
p2166
I1736
sVDark Stimpy
p2167
I1737
sVLilith
p2168
I1738
sVMedicine melancholy
p2169
I1739
sVAstaroth
p2170
I3957
sVNess
p2171
I1740
sVCharlotte m
p2172
I4857
sVG-gonzales
p2173
I1742
sVKemular
p2174
I1743
sVSagat
p2175
I1744
sVSailor mercury EX2
p2176
I4254
sVGh-golden silver
p2177
I1745
sVSasquatch
p2178
I1746
sVShizuha
p2179
I1747
sVAmingo
p2180
I1748
sVBifrost
p2181
I1749
sVGoketuji
p2182
I1750
sVKyoko_typea
p2183
I1751
sVLf2 - freeze
p2184
I1753
sVKyoko_typek
p2185
I1754
sVHakurou
p2186
I3972
sVPotemkin
p2187
I2156
sVIsaiah bradley
p2188
I1756
sVGeese howard EX2
p2189
I1757
sVB.jenet_n
p2190
I4086
sVWarlock
p2191
I770
sVTrue saber
p2192
I3954
sVZaku Cosplay
p2193
I4261
sVGod-gundam
p2194
I1759
sVDaimaoh
p2195
I3974
sVHarry
p2196
I1760
sVRinfa
p2197
I1761
sVKyoko_typey
p2198
I1762
sVStrike freedom nitori
p2199
I1763
sVGoenitz EX3
p2200
I1764
sVMr buu EX3
p2201
I4157
sVKawashima-san EX3
p2202
I1765
sVKawashima-san EX2
p2203
I4169
sVKenny mccormick
p2204
I1766
sVXeona
p2205
I1767
sVDeluxe kung fu man
p2206
I1768
sVNanoha xp
p2207
I4780
sVBruce banner
p2208
I4619
sVRyu NXC
p2209
I4764
sVFurude rika
p2210
I1770
sVBloodtide
p2211
I1771
sVSaito
p2212
I1773
sVHayato MVC
p2213
I1005
sVHotaru Futaba J
p2214
I2541
sVToro inoue
p2215
I1775
sVMaster juzo
p2216
I1776
sVThe freezing august
p2217
I1777
sVGiano
p2218
I4801
sVApocalypse EX2
p2219
I1779
sVKamui
p2220
I1780
sVClassic wagyan
p2221
I1781
sVEarthworm jim
p2222
I1782
sVC-stm-00x
p2223
I4854
sVTakano_miyo
p2224
I1783
sVXiaoyen
p2225
I1784
sVZantetsu
p2226
I1785
sVSymbiote thanos
p2227
I4504
sVCustom shinobi shou
p2228
I1787
sVMinoriko(ai)
p2229
I1788
sVBootleg
p2230
I1789
sVMaster mecha sonic
p2231
I1790
sVAnti.guile.zangief
p2232
I2019
sVSuper man
p2233
I4477
sVMask the griffon EX3
p2234
I1791
sVLuke skywalker EX3
p2235
I1792
sVHina
p2236
I1793
sVKensou
p2237
I4281
sVBlob
p2238
I4347
sVSwordman (waifu)
p2239
I3773
sVSsj goku z2 ex
p2240
I1794
sVBloo
p2241
I3577
sVBrago
p2242
I1796
sVChiduru
p2243
I1797
sVThe tick
p2244
I1798
sVJake
p2245
I1799
sVAnnie murakami
p2246
I1800
sVZx
p2247
I1801
sVKaigen EX3
p2248
I913
sVRubber soul
p2249
I1802
sVAboras
p2250
I4391
sVWario 64
p2251
I4392
sVYunfei
p2252
I4162
sVRodan
p2253
I3656
sVTung fu rue
p2254
I1806
sVRaphael 0d
p2255
I3665
sVBoss zeroko
p2256
I1808
sVArx-7
p2257
I1809
sVSubaru mikage
p2258
I1810
sVGengetu EX
p2259
I4135
sVOmegamon EX
p2260
I4692
sVSlimeknight
p2261
I1811
sVSymbiote onslaught
p2262
I1812
sVReas
p2263
I1813
sVAlex
p2264
I1814
sVGyan
p2265
I1815
sVLasher
p2266
I2584
sVVoltorb
p2267
I1479
sVNeco-misaka
p2268
I1818
sVElement
p2269
I1819
sVCorin
p2270
I1820
sVBirdie sfa
p2271
I1821
sVErisnomia
p2272
I1822
sVFernandeath
p2273
I1823
sVArigato usagi
p2274
I1824
sVDio di musca
p2275
I1825
sVAnonym
p2276
I1826
sVRaptorking-petshop
p2277
I3545
sVPickle
p2278
I1827
sVAxel stone
p2279
I1828
sVMr_shihan
p2280
I1829
sVAvdul
p2281
I4390
sVMary
p2282
I2809
sVCammy NXC
p2283
I1830
sVDevilbat-schilt
p2284
I4123
sVRobo-ky XX
p2285
I1832
sVCustom ddv shadow master
p2286
I2784
sVRuckus
p2287
I1833
sVDesteny remilia
p2288
I1834
sVOnpu segawa
p2289
I405
sVRid hershel
p2290
I1835
sVMimic
p2291
I4842
sVKamen rider joker
p2292
I1837
sVRobinmask
p2293
I1838
sVNf-kyo EX3
p2294
I1839
sVShadow sumou
p2295
I4055
sVFalco la pasione(nagiai)
p2296
I768
sVDress cinderella mio
p2297
I921
sVAnother blood k
p2298
I3876
sVSpera
p2299
I3883
sVOrochimaru nzc
p2300
I4868
sVGon the dinosaur
p2301
I3415
sVKishimax EX2
p2302
I1843
sVSkeletor dx
p2303
I11
sVTaku
p2304
I4011
sVPocchi
p2305
I4613
sVLucifeller_ex
p2306
I1846
sVUnknown
p2307
I4776
sVKamishiro_aya
p2308
I4282
sVFirestar
p2309
I35
sVMira
p2310
I2167
sVRock-man
p2311
I1851
sVIzayoi sakuya
p2312
I4109
sVKuanyinshen_nagiai
p2313
I57
sVDongdong'
p2314
I62
sVHyuuga hinata
p2315
I4360
sVSuper sonic EX3
p2316
I1855
sVChippzanuff
p2317
I71
sVSon goku
p2318
I1857
sVNucoarc
p2319
I1858
sVTrist
p2320
I4762
sVGeegus
p2321
I1860
sVFang 0d
p2322
I1861
sVSantaurus
p2323
I1862
sVJin kazama
p2324
I1863
sVJohnny cage
p2325
I1836
sVNorimaro MVC3
p2326
I4374
sVElle
p2327
I4543
sVMutron kun
p2328
I1866
sVLightning cb
p2329
I4239
sVBrazer
p2330
I1868
sVSuper3 goku EX
p2331
I1869
sVAchi cirno
p2332
I1870
sVAkiha
p2333
I1871
sVScott pilgrim
p2334
I1872
sVNagamine nozomi
p2335
I1873
sVAlvan EX
p2336
I4511
sVKung lao
p2337
I1875
sVAmiba EX
p2338
I161
sVMiyako
p2339
I165
sVAthena_96
p2340
I1878
sVRyo EX2
p2341
I4324
sVPelecanus
p2342
I4589
sVWhite buffalo
p2343
I1881
sVOrione
p2344
I4389
sVVegalunker
p2345
I1882
sVAngus
p2346
I1883
sVMaggyo EX
p2347
I810
sVDios
p2348
I2170
sVUltimate aizen
p2349
I2533
sVJhon
p2350
I1884
sVChibi vegito
p2351
I1885
sVPocket Dan
p2352
I1886
sVWolf
p2353
I1887
sVThin nen
p2354
I2291
sVTorao onigawara
p2355
I1888
sVDeath EX3
p2356
I4294
sVAgent smith
p2357
I4246
sVDebonea
p2358
I4550
sVWonder Woman Reloaded
p2359
I3808
sVGogeta mvc
p2360
I1891
sVAtomic r chelnov
p2361
I1892
sVTetsu yatogi
p2362
I4445
sVJagyuta EX2
p2363
I1893
sVReicubas
p2364
I1894
sVDonald mcdonald
p2365
I1895
sVR.lightning
p2366
I1896
sVHomero
p2367
I1897
sVCyber-peacock
p2368
I265
sVMetal sonic mk3
p2369
I1899
sVArchetype:earth
p2370
I4342
sVHugo dc
p2371
I4630
sVDaimon 98
p2372
I4029
sVJon arbuckle
p2373
I4399
sVZlorf rerpf
p2374
I1903
sVD'raven
p2375
I1904
sVVita
p2376
I1905
sVHaizilyo
p2377
I1906
sVRina
p2378
I4700
sVOnslaught
p2379
I1907
sVAdam EX3
p2380
I1908
sVSai EX2
p2381
I334
sVF.o.e._meso
p2382
I1910
sVOsiti
p2383
I1911
sVHiro-ex
p2384
I1912
sVYaridovich
p2385
I1913
sVDestoroyah ex
p2386
I1914
sVRobo
p2387
I374
sVTatsuo
p2388
I934
sVBattler ushiromiya
p2389
I1917
sVIsabeau
p2390
I2178
sVKyuketsuki_satsuki
p2391
I1919
sVSsj vegeto
p2392
I3556
sVRyu hayabusa x
p2393
I1921
sVGeneral
p2394
I1922
sVMo-mo-dainamaitu EX3
p2395
I1923
sVKyoko_typea EX3
p2396
I1533
sVLenja
p2397
I1924
sVDiablo_skeleton
p2398
I4825
sVMeta jade
p2399
I2181
sVGeese ex xi
p2400
I1927
sVSyuzo matsuoka
p2401
I4634
sVAladdin EX3
p2402
I1928
sVRemy sf3
p2403
I1929
sVSyobo-n
p2404
I2182
sVToguro 80%
p2405
I1931
sVSupernovice
p2406
I1867
sVSamus
p2407
I1932
sVGlacius
p2408
I468
sVHibiki EX3
p2409
I4152
sVDally
p2410
I1934
sVSoy milk
p2411
I1935
sVHelion
p2412
I1936
sVGill hero
p2413
I3561
sVArena
p2414
I1937
sVGaibon
p2415
I4000
sVAmon
p2416
I1938
sVDemitri EX3
p2417
I3481
sVCharlie
p2418
I508
sVHuman paladin
p2419
I1940
sVBloodia
p2420
I1941
sVMagneto_cota
p2421
I3113
sVMeth Blue Ranger
p2422
I1942
sVSeravy
p2423
I537
sVHijiri byakuren
p2424
I1944
sVShin marie
p2425
I1945
sVJonathon Morris
p2426
I1946
sVKisarah-n
p2427
I558
sVAthena945
p2428
I1948
sVRoomi kof
p2429
I1949
sVIncredible power kyo
p2430
I1950
sVGargoyle
p2431
I577
sVArima_meirin
p2432
I4609
sVArina
p2433
I1952
sVBlack_widoraemon
p2434
I1953
sVClark
p2435
I4171
sVAgito of the dark
p2436
I1954
sVDio M
p2437
I1955
sVKongman EX3
p2438
I614
sVEnja ex
p2439
I1957
sVLucy diclonius
p2440
I4200
sVCammy_a
p2441
I1958
sVDokuro chan
p2442
I627
sVMiffy
p2443
I3344
sVKfm iwbtg
p2444
I1960
sVSatori EX
p2445
I3566
sVPupazz
p2446
I4266
sVMr.mannequin
p2447
I1963
sVNaomi
p2448
I1964
sVGo_shin
p2449
I1965
sVVegeta ultra ssj
p2450
I4808
sVTerry EX3
p2451
I659
sVAsagi EX3
p2452
I3565
sVCaptain atlantis
p2453
I4476
sVMystia EX
p2454
I1967
sVMakoto(*zenkai*)
p2455
I1968
sVToy
p2456
I1969
sVHanayama EX3
p2457
I1166
sVManjimaru EX3
p2458
I1540
sVGill sf3
p2459
I1414
sVLihua
p2460
I1972
sVKousaku
p2461
I663
sVBloodbane
p2462
I1974
sVSuicider raoh
p2463
I4788
sVBastion
p2464
I1975
sVMuhi EX
p2465
I4429
sVTom
p2466
I4150
sVLeone abbacchio ex
p2467
I3951
sVSaki
p2468
I1977
sVSub-zero CVW
p2469
I4818
sVLord.misyaguzi
p2470
I1978
sVMurakumo-abk EX2
p2471
I3035
sVFelden
p2472
I3949
sVSayia-f
p2473
I1980
sVYellow devil
p2474
I4111
sVElement ma
p2475
I1982
sVLabyrinth
p2476
I1983
sVClone koa
p2477
I1984
sVMercurius
p2478
I1985
sVKomachi_raoh
p2479
I1986
sVDan smith, the tyrant
p2480
I1987
sVSanosuke EX3
p2481
I2134
sVQ-mantha
p2482
I1988
sVSsfiix' rainbow
p2483
I1989
sVHammerin' harry
p2484
I3869
sVAiri
p2485
I1990
sVTwilight sparkle
p2486
I1991
sVHaruhi suzumiya EX
p2487
I851
sVShinobi
p2488
I1993
sVMakendo2
p2489
I862
sVSynn
p2490
I2196
sVAsahina mikuru EX
p2491
I868
sVT.hawk sf2
p2492
I3204
sVBirdie
p2493
I1997
sVZangoose EX3
p2494
I1998
sVRoad runner
p2495
I881
sVAkari EX
p2496
I2000
sVDhalsim R
p2497
I2001
sVSmoker
p2498
I2002
sVAnother clone ash
p2499
I443
sVNeo Sonic
p2500
I2003
sVShockwave
p2501
I2004
sVAmaterasu
p2502
I2879
sVNikumaru
p2503
I2006
sVAnguirus
p2504
I4548
sVShigen EX3
p2505
I2007
sVKinyo roadshow
p2506
I4592
sVChun li xi
p2507
I929
sVLilith aensland
p2508
I2009
sVKirakira
p2509
I3576
sVJohnny maximum
p2510
I4368
sVPower kung fu man
p2511
I3922
sVSmall Ryu
p2512
I2013
sVVega geegus
p2513
I4539
sVPoison ivy
p2514
I2015
sVCci mr.big
p2515
I2016
sVIno
p2516
I4690
sVMictlan EX
p2517
I2018
sVJohn crawley
p2518
I4319
sVMary deiyon
p2519
I1755
sVKing EX2
p2520
I4275
sVKing EX3
p2521
I2021
sVTenma-sama
p2522
I2022
sVSasquatch 71113
p2523
I2023
sVFaud EX3
p2524
I2024
sVMinotaur
p2525
I2025
sVSlug wanzer
p2526
I4853
sVCommissioner gordon
p2527
I2027
sVKyouken wakamoto
p2528
I2028
sVWarcueid t
p2529
I4871
sVRanma +
p2530
I3921
sVLegion
p2531
I2029
sVAmakusa ex
p2532
I2203
sVJuralian
p2533
I2031
sVErile
p2534
I4443
sVSanji 13
p2535
I1101
sVZero ariel
p2536
I2033
sVYui_kutuna
p2537
I2034
sVVegeta EX3
p2538
I2035
sVP4 hero
p2539
I2036
sVArrange_unknown
p2540
I2037
sVKumi
p2541
I2038
sV!
p2542
I2039
sVYuki nagato
p2543
I2040
sVA-yuki
p2544
I2041
sVThunder-iku
p2545
I2042
sVMs. fanservice
p2546
I2043
sVDragon ken
p2547
I2044
sVBonus
p2548
I2045
sVMegaman plus
p2549
I2046
sVOmega god ken
p2550
I2047
sVGreat s. man
p2551
I4679
sVAska EX2
p2552
I1176
sVSephiroth AK
p2553
I2049
sVLety
p2554
I1795
sVGromit
p2555
I2050
sVRyu DG
p2556
I2052
sVHanyuu
p2557
I4307
sVSatsuki
p2558
I3648
sVNeo-dio
p2559
I2053
sVAsh of blueblood
p2560
I1210
sVSeikimatsukyu-seisya kenshirou
p2561
I4060
sVSlash-beast
p2562
I2885
sVRick strowd EX3
p2563
I2056
sVKaede
p2564
I2057
sVSailor pluto
p2565
I2058
sVDon
p2566
I2059
sVCaramelman no.2
p2567
I4122
sVA-agito
p2568
I2296
sVTony won
p2569
I2060
sVSantaurus EX3
p2570
I3893
sVNu-13 EX
p2571
I2061
sVReal chibi scex
p2572
I2062
sVP-silver
p2573
I1263
sVHourai-car
p2574
I2064
sVTiria
p2575
I2065
sVUnyuho-l
p2576
I2066
sVBlack ranger
p2577
I2067
sVAka
p2578
I1278
sVSlarin
p2579
I2069
sVGouki sf3
p2580
I4191
sVEddie
p2581
I3471
sVRyu_a
p2582
I2070
sVLavia
p2583
I2071
sVPepe EX3
p2584
I2072
sVSailor mars EX
p2585
I2073
sVSaya EX
p2586
I1314
sVChucky
p2587
I4486
sVDeath-stuff
p2588
I2076
sVReal beavis
p2589
I1322
sVHotaru futaba
p2590
I2078
sVKill bill o-ren_ishii
p2591
I2014
sVUltimate sula
p2592
I4721
sVPeter griffin
p2593
I4146
sVOrder-sol
p2594
I957
sVTyrant marco
p2595
I4384
sVKfm
p2596
I4833
sVSpiral mvc2
p2597
I2082
sVA-minagi
p2598
I2083
sVKyko waifu
p2599
I4527
sVOrchid
p2600
I2212
sVLeonardo 0d
p2601
I2084
sVB.swordsman
p2602
I2085
sVCrashman
p2603
I2086
sVYumel
p2604
I2087
sVDurian EX3
p2605
I2892
sVChaos satellite
p2606
I2089
sVDaos
p2607
I2090
sVKirara EX3
p2608
I2091
sVA Bison
p2609
I2092
sVMarona
p2610
I1559
sVKyo EX3
p2611
I2094
sVPoppy
p2612
I4274
sVBenimaru
p2613
I2095
sVSouthside jim
p2614
I4492
sVZerozuchi
p2615
I2096
sVDi gi charat
p2616
I2894
sVManami kusunoki
p2617
I3114
sVMech rugal
p2618
I3593
sVFuuma
p2619
I4601
sVMech-hisui
p2620
I2097
sVNega ryo
p2621
I4012
sVRare Sophitia
p2622
I2099
sVHadou-ken
p2623
I2100
sVDark-baltan
p2624
I4064
sVSuper goku
p2625
I2102
sVHachune miku
p2626
I3699
sVHyouken
p2627
I2103
sVAlucard EX3
p2628
I4861
sVMorilen
p2629
I4731
sVSchlussel
p2630
I3136
sVYuuka
p2631
I2105
sVKensou ex
p2632
I4739
sVSailor moon EX
p2633
I2106
sVTrue k'
p2634
I1521
sVSaya_g
p2635
I2108
sVDaimon 71113
p2636
I2109
sVKen mvc
p2637
I2398
sVTest a.i.
p2638
I2110
sVArabian moon
p2639
I2217
sVHagure metal king
p2640
I2111
sVDio v
p2641
I2112
sVVayeate
p2642
I2101
sVMr. big
p2643
I2114
sVRoppen heimer EX
p2644
I2115
sVCapt Commando
p2645
I3595
sVJoe A
p2646
I1996
sVNecro
p2647
I2118
sVLen and w. len
p2648
I1576
sVYui
p2649
I2956
sVKomachi
p2650
I2120
sVUnyuho
p2651
I4840
sVMajin Virginia
p2652
I2121
sVUltraman jack
p2653
I4378
sVSaizo ryo
p2654
I2122
sVPepe-h
p2655
I3405
sVBao
p2656
I1613
sVVice EX3
p2657
I1621
sVCustom omk beatrice EX3
p2658
I2125
sVKen sf3
p2659
I1567
sVHakolen-sbs EX3
p2660
I2126
sVHakolen-sbs EX2
p2661
I2127
sVTeipa
p2662
I2128
sVGo badaa ba
p2663
I2129
sVRare nabeatu
p2664
I2130
sVNagato yuki
p2665
I1654
sVC-19
p2666
I2132
sVKazama kazuki EX3
p2667
I2133
sVKurihan
p2668
I4556
sVEvil ryu ssf'2 plus
p2669
I4428
sVSonic 2 style sonic
p2670
I4404
sVDisc
p2671
I2136
sVOswald
p2672
I2138
sVAdon sfa
p2673
I2224
sVTamara
p2674
I4799
sVJigglypuff EX2
p2675
I3174
sVCci kula
p2676
I4419
sVSatan(zayin)
p2677
I1717
sVBoo ssj
p2678
I4156
sVCustom ssfiv oni
p2679
I2142
sVYouko
p2680
I2143
sVPunisher
p2681
I2144
sVFighter fly
p2682
I2145
sVJones ex
p2683
I2147
sVDandy j
p2684
I2148
sVGato z2
p2685
I2149
sVKamek EX3
p2686
I4747
sVNinja turtles
p2687
I4211
sVSs6 sei-abab
p2688
I4248
sVRakugaki
p2689
I2151
sVMr.karateka
p2690
I2152
sVPsyqhical
p2691
I2153
sVBurnov
p2692
I1741
sVBeatrice
p2693
I4727
sVArgento
p2694
I2155
sVCham cham
p2695
I4068
sVSailor mars
p2696
I3890
sVDaisy EX3
p2697
I2157
sVYue EX3
p2698
I1027
sVCci mature
p2699
I2159
sVTatsuki
p2700
I2160
sVZero Marrow
p2701
I2161
sVGarlic jr
p2702
I2162
sVMiles edgeworth
p2703
I2163
sVHei meiling
p2704
I2781
sVKirikou EX3
p2705
I2164
sVDark Slayer
p2706
I2165
sVJason todd
p2707
I2166
sVKishima_kouma
p2708
I1850
sVIchigo Kurosaki
p2709
I4709
sVTenshi baiken
p2710
I3605
sVDantel
p2711
I4058
sVCharlotte ex
p2712
I2169
sVThe fabled sagileocorn
p2713
I3093
sVKeith wayne EX2
p2714
I3906
sVShermie
p2715
I1316
sVShishio
p2716
I977
sVToki jj
p2717
I2173
sVDark chun-li
p2718
I2174
sVCool
p2719
I2460
sVSuika ibuki
p2720
I2176
sVGeese CVS
p2721
I146
sVArrange_shiori
p2722
I1918
sVVegeta ssj5
p2723
I2179
sVEx apollo
p2724
I1562
sVChloe valens
p2725
I1926
sVKawashima-san
p2726
I1930
sVGhoston
p2727
I2183
sVYouhei
p2728
I3976
sVMetallo
p2729
I2184
sVTowa
p2730
I2185
sVNina
p2731
I2186
sVCutie honey
p2732
I4257
sVHuryou hatune
p2733
I2187
sVFungi
p2734
I3607
sVAngela EX
p2735
I2189
sVNatsumi EX
p2736
I2190
sVChang
p2737
I2191
sVOmega red mvc2
p2738
I3101
sVSupreme gt vegeta
p2739
I4478
sVVenom MMV
p2740
I2194
sVHaohmaru CVS
p2741
I2195
sVMagikarp
p2742
I1847
sVCci kasumi
p2743
I2197
sVRyu SF4
p2744
I2198
sVGustab munchausen
p2745
I2199
sVRugal
p2746
I2200
sVHeavyarmscustom
p2747
I2201
sVEx-malin
p2748
I4814
sVDante2
p2749
I2030
sVMuscle power
p2750
I2204
sVCless alvein
p2751
I2205
sVMisuzu
p2752
I2051
sVSieger
p2753
I4296
sVMasked rider 555_z
p2754
I2207
sVEvil dan
p2755
I2208
sVMokou EX
p2756
I3938
sVRichter belmont
p2757
I2210
sVTanuki
p2758
I2211
sVTrue power sol
p2759
I1659
sVTormentor jinmen
p2760
I2763
sVLynn 02
p2761
I2213
sVMissingno.
p2762
I2214
sVTails s2
p2763
I2215
sVIkkaku
p2764
I650
sVYumemi
p2765
I2216
sVHugo
p2766
I4836
sVShiny diamond
p2767
I4805
sVVeigue_lungberg
p2768
I2218
sVBubbles DG
p2769
I2219
sVDan hibiki
p2770
I2220
sVBlaze agent
p2771
I2221
sVUltraman dyna
p2772
I2222
sVKaede ngbc
p2773
I2223
sVAxel
p2774
I2139
sVOhga
p2775
I2225
sVStingray
p2776
I2226
sVPlastic man
p2777
I4206
sVCell Hyper Dimension
p2778
I1579
sVBurter
p2779
I2068
sVC. shrd
p2780
I4197
sVVergil2
p2781
I2913
sVYuri sakazaki EX2
p2782
I2230
sVDisrupter
p2783
I2231
sVGowcaizer
p2784
I2232
sVGuardian
p2785
I2233
sVWaddledee EX3
p2786
I2234
sVAstonishing Cyclops
p2787
I4674
sVLehyu EX3
p2788
I4014
sVKaeru(chrono)
p2789
I2235
sVMai S
p2790
I3295
sVMr.big
p2791
I4673
sVZombie
p2792
I2227
sVPocket Cloud
p2793
I4839
sVJuggernaut mvc2
p2794
I2237
sVUmvc_redarcueid
p2795
I2238
sVChibi naruto
p2796
I2239
sVDirty kf man
p2797
I4417
sVIari
p2798
I2240
sVBerserker
p2799
I4415
sVAssasincross
p2800
I2914
sVOkubo kumi
p2801
I4710
sVNega peach EX3
p2802
I2236
sVVoltz
p2803
I2244
sVHulk ex
p2804
I2245
sVYugi(emanon)
p2805
I2246
sVAyu&misuzu&mizuka
p2806
I2247
sVArcher
p2807
I2248
sVBoring sdk mukurou
p2808
I1583
sVYuen-joe
p2809
I4215
sVJp Polnareff
p2810
I4758
sVCpt.falcon
p2811
I2251
sVShiiko yuzuki
p2812
I2252
sVSimon belmont
p2813
I3352
sVMr.saikyo
p2814
I2253
sVMB-02
p2815
I2254
sVOni inomura
p2816
I2255
sVMakishi masao
p2817
I2256
sVExocist(dnf)
p2818
I4545
sVPucca-toppo
p2819
I2257
sVHinata Shippuden
p2820
I2258
sVYuri EX2
p2821
I2259
sVSymbiote spider-man
p2822
I2260
sVDoomsday
p2823
I2916
sVGuevara
p2824
I2262
sVChonrei W
p2825
I4237
sVMageko
p2826
I2263
sVPossessed heita
p2827
I2264
sVRyu Master
p2828
I2265
sVHoly ken
p2829
I4112
sVRocket tank
p2830
I2266
sVColossus mvc2 ex
p2831
I2267
sVNrvnqsr chaos
p2832
I2268
sVWyler
p2833
I2269
sVFukumen senshi
p2834
I4532
sVSolid snake
p2835
I2270
sVIron_miyako
p2836
I4376
sVYuri lowell
p2837
I2271
sVCirnoJ
p2838
I2272
sVHaruno sakura
p2839
I4272
sVDis astranagant
p2840
I1313
sVArc vp
p2841
I2275
sVCrazy rugal
p2842
I2276
sVBaki-hanma ex
p2843
I3041
sVA ninja
p2844
I2277
sVKnyacki
p2845
I2278
sVGoa
p2846
I2279
sVAkaitsuki EX
p2847
I2280
sVFlan
p2848
I4870
sVBattler
p2849
I2281
sVUmvc_suika
p2850
I2282
sVGriffon
p2851
I2283
sVPeach toadstool EX3
p2852
I4375
sVBloodia EX2
p2853
I2284
sVBloodia EX3
p2854
I2285
sVOda nobunaga EX
p2855
I2535
sVWeiss dhq
p2856
I2287
sVSuper3 goku
p2857
I2288
sVRaidou
p2858
I4074
sVLf2 - firen
p2859
I2289
sVM_canon
p2860
I3910
sVSuzushina yuriko
p2861
I2292
sVAsuka
p2862
I2293
sVYukari ex
p2863
I2294
sVSoldier
p2864
I2295
sVIrriana
p2865
I2249
sVKurahashi tokimi
p2866
I2297
sVAo-takagami
p2867
I2298
sVSpiderman
p2868
I2299
sVHarpagos
p2869
I2300
sVValgar reinhart
p2870
I1253
sVUltimat goku
p2871
I2922
sVKim
p2872
I2301
sVDoom vega
p2873
I2302
sVMisaka mikoto
p2874
I2146
sVMyuu
p2875
I4523
sVToejam
p2876
I2304
sVYu asuka
p2877
I2305
sVWarewarenocolibri
p2878
I3706
sVSub-zero EX3
p2879
I4312
sVJill ex
p2880
I2307
sVCaptain marvel
p2881
I2308
sVGagi_fe
p2882
I2309
sVMaxim kischine
p2883
I3630
sVFelix the cat
p2884
I4276
sVCyndaquil
p2885
I2311
sVDeath
p2886
I4612
sVAkane satomura EX2
p2887
I4120
sVRuputna
p2888
I2313
sVStern
p2889
I3631
sVBlockhead
p2890
I2314
sVArrange_marisa
p2891
I2315
sVRed arremer
p2892
I3632
sVUltron
p2893
I3839
sVVega
p2894
I2317
sVEvil ryu sf3
p2895
I2318
sVJagi sama
p2896
I2319
sVSaltdonald
p2897
I2320
sVChiel
p2898
I2321
sVDr.doom
p2899
I4554
sVEiki-judgment
p2900
I2322
sVAdon ca
p2901
I2323
sVUndead jason voorhees
p2902
I2324
sVCustom-bsreimu
p2903
I4059
sVSaiyaman
p2904
I3423
sVRyu
p2905
I3842
sVSaizo
p2906
I2757
sVMegaman EX2
p2907
I2328
sVGillius
p2908
I846
sVMysty_monkstyle
p2909
I2209
sVWalkyrie EX2
p2910
I4602
sVStupid little drill tank
p2911
I2332
sVPocket Akuma
p2912
I2333
sVGoku ssj3 EX2
p2913
I2800
sVTobikage
p2914
I2335
sVHirasawa_yui
p2915
I4155
sVExtrahighfairy
p2916
I2336
sVSakaki
p2917
I2337
sVRed skull
p2918
I2338
sVYagami iori
p2919
I2339
sVMad dog
p2920
I2340
sVCheddah gief
p2921
I1646
sVMr.big EX3
p2922
I2342
sVGodman
p2923
I2343
sVNot so hyper commando team
p2924
I1916
sVZombies
p2925
I4431
sVKazama sogetsu
p2926
I3638
sVKarla
p2927
I2346
sVShizuha aki
p2928
I4434
sVCrazy-shin
p2929
I4522
sVSilver surfer
p2930
I2347
sVGustab m.
p2931
I2348
sVShiki vp
p2932
I700
sVSuper big bird
p2933
I4769
sVRatix
p2934
I2350
sVTurbo bonkers
p2935
I2351
sVCody(neoneo)
p2936
I1012
sVNeco-arc chaos
p2937
I2354
sVRyougi_shiki
p2938
I2355
sVShin gouki ssf'2 plus
p2939
I2356
sVIronfist ryu
p2940
I2357
sVBass
p2941
I2358
sVDaimon
p2942
I2359
sVSuper-japanese
p2943
I2934
sVSieger EX2
p2944
I2360
sVDoragory
p2945
I4618
sVSekkimaru
p2946
I1971
sVKill bill uma-ex
p2947
I2361
sVGod tewi
p2948
I4519
sVKim kap hwan
p2949
I220
sVS-yuuka
p2950
I4575
sVYuyuko & youmu
p2951
I2362
sVMagaki xi
p2952
I2363
sVKunagi
p2953
I4046
sVKyosuke
p2954
I2364
sVArrange_misuzu
p2955
I4238
sVPooh
p2956
I2365
sVSakuya.brando
p2957
I2366
sVMagic dunker EX
p2958
I2367
sVEtrigan
p2959
I2368
sVNash shadow
p2960
I2369
sVPatchouli_swr
p2961
I2370
sVAmi ex
p2962
I2371
sVShinshi
p2963
I4118
sVRydia of mist
p2964
I2372
sVSon goku EX3
p2965
I3646
sVUltraman agul
p2966
I2373
sVTwitch waifu chan-hd
p2967
I2374
sVNyoki
p2968
I3512
sVUminin
p2969
I2375
sVDecade as kuuga
p2970
I2376
sVRx-78-2 gundam
p2971
I2378
sVThe Colonel
p2972
I4129
sVZako-dan
p2973
I3124
sVKirikou
p2974
I2380
sVArcadboy
p2975
I2381
sVRazor claws
p2976
I2382
sVMaria
p2977
I3857
sVDaimajin
p2978
I2383
sVDivekick kfm
p2979
I2384
sVIron man z
p2980
I2385
sVKagami EX2
p2981
I2386
sVMokou fujiwara EX3
p2982
I2388
sVMiopinja
p2983
I4641
sVChun-li jj
p2984
I2389
sVRalf EX3
p2985
I1610
sVSheana
p2986
I4852
sVUesugi kensin EX G
p2987
I2391
sVYukkuriyukarin
p2988
I2392
sVPaul phoenix
p2989
I2393
sVGezorah
p2990
I2394
sVKanzaki yoh
p2991
I2395
sVKobuta
p2992
I3629
sVTourney pikachu
p2993
I2396
sVRoyal air king EX3
p2994
I3953
sVJuggy
p2995
I2397
sVSonic mvc
p2996
I4359
sVYuri di aaaaaa ex
p2997
I4049
sVAlter wind
p2998
I2399
sVKongou
p2999
I44
sVGliformoth EX3
p3000
I2400
sVElque
p3001
I3832
sVAlice margatroid
p3002
I3963
sVFoz
p3003
I2402
sVAnimus EX3
p3004
I2403
sVMami
p3005
I2404
sVReptile EX3
p3006
I3654
sVEvil guire
p3007
I2406
sVAkatsuki
p3008
I2407
sVCci xiangfei
p3009
I3305
sVRock EX2
p3010
I3201
sVGameboy
p3011
I2409
sVHoly flandre
p3012
I2410
sVMiko hd
p3013
I2411
sVCho-kichiku toki
p3014
I2412
sVSsj4 goten
p3015
I2413
sVUmvc_gouki
p3016
I2415
sVMaster marco
p3017
I2416
sVCarmilla
p3018
I3351
sVShen EX
p3019
I2418
sVZeldia 0D
p3020
I2419
sVKagura
p3021
I2420
sVUzume
p3022
I2421
sVKaede kasiwagi
p3023
I4357
sVSimmon
p3024
I2423
sVHiziri
p3025
I2424
sVImouto
p3026
I2425
sVDonatello
p3027
I2426
sVKing_leo
p3028
I4779
sVRaizen
p3029
I2427
sVUltraman 1st
p3030
I2428
sVBionicles
p3031
I2429
sVHeihachi m
p3032
I2430
sVBrass
p3033
I2431
sVSon of sun
p3034
I4831
sVTerry_ff3rb
p3035
I2433
sVMakoto mizoguchi
p3036
I2434
sVKing
p3037
I4426
sVJulius belmont
p3038
I2435
sVFighter
p3039
I4707
sVSakata gintoki
p3040
I4053
sVEvil ken
p3041
I1053
sVLipsyncher
p3042
I4658
sVTurn-x
p3043
I2438
sVJin O
p3044
I2439
sVPiccoloco
p3045
I4578
sVDark arcueid mk2
p3046
I2440
sVForte cross rockman.exe
p3047
I4611
sVMina EX2
p3048
I3660
sVHonda tadakatsu
p3049
I2442
sVMask the griffon
p3050
I2443
sVOmega god ryu
p3051
I2955
sVClark 98
p3052
I2445
sVKubikiri basara KOF
p3053
I4520
sVLuigi
p3054
I4244
sVMc hisui
p3055
I3517
sVEyedol
p3056
I2448
sVEvil donald
p3057
I2449
sVNamazu
p3058
I4363
sVCafelier
p3059
I2273
sVMegamami EX2
p3060
I4131
sVPetshop
p3061
I2451
sVMay(ac)
p3062
I2452
sVThe guy
p3063
I4744
sVKrusty
p3064
I2453
sVGeneral bush
p3065
I2957
sVUmbreon
p3066
I2455
sVMattrex
p3067
I2456
sVMiyako(coh)
p3068
I2457
sVK' dempsey
p3069
I2458
sVAkane tendo
p3070
I4436
sVGen kiba
p3071
I2459
sVShiki Ryougi
p3072
I3548
sVDreamform sula
p3073
I4593
sVSuperman
p3074
I2461
sVMoonmillenniummon
p3075
I2462
sVMaria EX2
p3076
I2463
sVSasuke
p3077
I4736
sVGuldin EX2
p3078
I2464
sVStrong guy
p3079
I2465
sVK' EX3
p3080
I3683
sVKensuke kudou
p3081
I2466
sVP3 heroine
p3082
I2467
sVIceclimber
p3083
I2469
sVMajor alan dutch schaefer
p3084
I2470
sVCyrax umk3
p3085
I2471
sVHitsugaya
p3086
I2472
sVTetris
p3087
I1507
sVKoi reika
p3088
I2473
sVSaki EX2
p3089
I1564
sVCaptain_heart
p3090
I3821
sVGalford nrf
p3091
I2475
sVZankuro ex
p3092
I2476
sVIgniz scarlet
p3093
I2477
sVNoriko nijou
p3094
I2478
sVSailor moon EX2
p3095
I1859
sVWashizuka xi
p3096
I3694
sVElongated man
p3097
I4680
sVYusha
p3098
I1841
sVYoshitora
p3099
I4563
sVDoruge
p3100
I3568
sVAsborb
p3101
I2481
sVKyoko
p3102
I2482
sVFordy-z
p3103
I2484
sVRogue
p3104
I2485
sVShin gouki EX2
p3105
I2486
sVJin chonrei
p3106
I2487
sVMorrigan nxc
p3107
I2488
sVPepito EX2
p3108
I2489
sVWreck-it ralph EX3
p3109
I2841
sVBaby bonnie hood EX3
p3110
I4189
sVLink tloz
p3111
I2491
sVAxel 'hawk' stone
p3112
I4645
sVRobo-mizuchi
p3113
I2492
sVKaguya houraisan
p3114
I2493
sVShingo & momoko
p3115
I2494
sVUndeadhero
p3116
I2495
sVOrochi
p3117
I4781
sVTokiko
p3118
I2497
sVSauri
p3119
I2581
sVZoma
p3120
I2498
sVHana akuma
p3121
I2499
sVCueca
p3122
I2500
sVKungfumithra
p3123
I2501
sVWing.0
p3124
I4380
sVSupergirl
p3125
I2502
sVSailor saturn
p3126
I2503
sVKing lion ngbc
p3127
I4003
sVFubuki
p3128
I2504
sVTron Bonne MVC2
p3129
I4705
sVMouri alice
p3130
I2505
sVSatsuki yumiduka EX
p3131
I4065
sVOld
p3132
I2507
sVBeavis EX3
p3133
I2508
sVBeavis EX2
p3134
I2509
sVPredator
p3135
I2510
sVSaint kyo
p3136
I4285
sVShoujo genkai
p3137
I2511
sVMaster sakura
p3138
I2512
sVLiu yungmie
p3139
I3482
sVMichael jackson
p3140
I3382
sVCvs sakura
p3141
I2513
sVRin_tohsaka
p3142
I3891
sVEvil reiji oyama
p3143
I1191
sVMaster hand
p3144
I2515
sVRobo-sol
p3145
I4105
sVMudman
p3146
I4165
sVOkina
p3147
I2516
sVKyo xi
p3148
I2517
sVZeldia
p3149
I4184
sVOyashiro_chie
p3150
I104
sVPikkon
p3151
I4726
sVCola
p3152
I2519
sVKotone
p3153
I3659
sVAngry video game nerd
p3154
I3671
sVJinmen
p3155
I4341
sVCci jhun EX3
p3156
I2522
sVYashiro nanakase EX3
p3157
I2523
sVArcueid
p3158
I2524
sVMisty
p3159
I3672
sVRemilia scarlet
p3160
I132
sVGundam epyon
p3161
I2528
sVMukai
p3162
I4286
sVElena_n
p3163
I147
sVLee Cosplay
p3164
I4377
sVRocky balboa
p3165
I2530
sVTanya
p3166
I2531
sVDaniel
p3167
I2532
sVGrebam
p3168
I2483
sVSlash
p3169
I2534
sVUltra super3 goku
p3170
I2286
sVThe scyther
p3171
I4387
sVYue CC
p3172
I2536
sVIori 71113
p3173
I2537
sVTwelve EX3
p3174
I2538
sVIkki
p3175
I2539
sVRyu hell
p3176
I2540
sVJoshua bright
p3177
I4529
sVJohnny cage EX
p3178
I4582
sVKiriko
p3179
I2542
sVTwintail
p3180
I2543
sVLast adult goku
p3181
I2544
sVJames jerkenson
p3182
I4517
sVMysterious budo
p3183
I2545
sVChizuruxxx
p3184
I2546
sVChiyo mihama EX
p3185
I4005
sVZoffy
p3186
I3674
sVReal Ryu
p3187
I2548
sVCody_a
p3188
I2549
sVThalia
p3189
I2550
sVLambdadelta
p3190
I2551
sVRangle EX3
p3191
I2552
sVNick commando EX FF
p3192
I3838
sVGenyew
p3193
I4108
sVRock(mkii)
p3194
I1845
sVScarlet dragon EX3
p3195
I2554
sV9
p3196
I2555
sVUmvc_aya
p3197
I258
sVThe world-dio EX3
p3198
I2566
sVHakureimu
p3199
I2557
sVIbuki sf3
p3200
I744
sVMienshao
p3201
I4444
sVExistence-less
p3202
I3721
sVLemeza
p3203
I2559
sVMajic-pot
p3204
I4263
sVThunder mask
p3205
I2976
sVKongman
p3206
I2561
sVThierry henry
p3207
I2562
sVAmato
p3208
I2563
sVFullmoon_suika
p3209
I2564
sVMr burns
p3210
I4636
sVGreen lantern
p3211
I2565
sVMr. bear
p3212
I3273
sVMaster taekuk
p3213
I2567
sVSanosuke
p3214
I4510
sVRaphael
p3215
I4694
sVMr. bean
p3216
I2568
sVScopedog
p3217
I2569
sVThwomp
p3218
I2570
sVDlanor a. knox
p3219
I327
sVSkapokan
p3220
I2572
sVClawbear
p3221
I337
sVW buffalo_n
p3222
I2574
sV009
p3223
I4161
sVHammer bro
p3224
I2575
sVHatate_himekaidou
p3225
I2576
sVAtusi
p3226
I2578
sVMr.karate EX2
p3227
I4723
sVKars
p3228
I2579
sVMedamaoyaji
p3229
I2580
sVNabeatu
p3230
I4591
sVGully
p3231
I4142
sVNeyufeulle
p3232
I2583
sVAkira
p3233
I303
sVZero maverick hunter
p3234
I2585
sVOchamaro
p3235
I4691
sVIronpatriot
p3236
I2586
sVSol
p3237
I2587
sVWafu
p3238
I2588
sVRinrin
p3239
I2589
sVAkira kogami
p3240
I2661
sVRay mcdogall
p3241
I2591
sVRemilya scarlet
p3242
I2592
sVGiro
p3243
I2593
sVHikaru EX3
p3244
I4351
sVCarol stanzack
p3245
I3925
sVTrap master makoto
p3246
I4855
sVArmgon
p3247
I2595
sVBlue ranger
p3248
I4557
sVEdonokiba
p3249
I2596
sVFang
p3250
I2597
sVShingo 98
p3251
I4793
sVCharizard
p3252
I2598
sVLenalee-mvc EX3
p3253
I2599
sVMasako(emanon)
p3254
I2600
sVAk man
p3255
I4685
sVVirginia
p3256
I2601
sVChipp zanuff h
p3257
I2602
sVK.m.mioh
p3258
I3996
sVMora_g
p3259
I1554
sVTingle
p3260
I2604
sVKitaro EX3
p3261
I2605
sVGotenks ssj
p3262
I2606
sVAlvein
p3263
I4022
sVZeroko EX3
p3264
I2607
sVE nagamori
p3265
I2608
sVAya syameimaru
p3266
I2609
sVTam tam
p3267
I2610
sVEmily
p3268
I3268
sVSento kun
p3269
I2611
sVFelicia EX2
p3270
I2612
sVPuss in boots
p3271
I2613
sVTnok
p3272
I2615
sVKogasa_f
p3273
I3943
sVRorschach
p3274
I2616
sVJurane
p3275
I4500
sVArcbeetle
p3276
I2617
sVAyumu kasuga EX
p3277
I4446
sVNero DMC4
p3278
I4622
sVNaitou
p3279
I2619
sVAbui
p3280
I2620
sVBlaque
p3281
I562
sVMike haggar EX3
p3282
I2622
sVOmega tiger woods
p3283
I2623
sVTarantulra_dfo
p3284
I4277
sVDevil jin
p3285
I1902
sVDon patch
p3286
I2624
sVAwakened torao
p3287
I2625
sVAioria de leo
p3288
I4180
sVSilvermoon
p3289
I2627
sVChipp
p3290
I2628
sVClassic batman
p3291
I2629
sVRip_saber
p3292
I2630
sVAlien mefilas
p3293
I2631
sVArmor jack
p3294
I4572
sVMarshal law
p3295
I2632
sVTsu-
p3296
I2633
sVYoshi EX2
p3297
I1498
sVSailor mars k
p3298
I580
sVAndore jr
p3299
I2636
sVThor
p3300
I2637
sVGold warmachine
p3301
I2638
sVBilly
p3302
I655
sVYoukanman
p3303
I3478
sVRoyal guard
p3304
I667
sVLucario
p3305
I2641
sVKracko
p3306
I673
sVKanaka
p3307
I2643
sVReika murasame EX
p3308
I4623
sVSyllin
p3309
I2644
sVAcguy
p3310
I2645
sVMitsuji tanimati
p3311
I2646
sVNanmushi
p3312
I3901
sVF.o.e.
p3313
I4015
sVTin star
p3314
I2648
sVBlack rabite
p3315
I2649
sVChill penguin
p3316
I4343
sVTakiyasya
p3317
I4267
sVBlubberman
p3318
I724
sVSuper-8
p3319
I2651
sVJack in dia
p3320
I2652
sVShimako
p3321
I2653
sVArrange_mishio
p3322
I2995
sVQueen the spade
p3323
I4093
sVOmega Woods
p3324
I2656
sVMeiya
p3325
I2657
sVHugo EX
p3326
I3959
sVTallgeese
p3327
I4409
sVElement kofm
p3328
I3688
sVGekka suika
p3329
I2659
sVGhost rider
p3330
I4490
sVAndroid 16 ai-barbatos
p3331
I4668
sVAndo
p3332
I803
sVMariko konjou
p3333
I4562
sVJoe EX3
p3334
I2662
sVShintaro
p3335
I4317
sVNogami_aoi
p3336
I4204
sVBishop
p3337
I3381
sVKaisensei ken
p3338
I840
sVChildre inarabitta
p3339
I2666
sVZangeese EX2
p3340
I847
sVBlaze EX2
p3341
I2206
sVJack13
p3342
I860
sVAndy
p3343
I2669
sVEx adamas
p3344
I2670
sVNatalia glinka
p3345
I465
sVChichi EX3
p3346
I871
sVBonegolem
p3347
I2673
sVBasilisk-s[0.98] EX3
p3348
I4170
sVHyper neo-kamek
p3349
I2675
sVWiler
p3350
I2676
sVSailor mercury k
p3351
I412
sVSankuro yorozu
p3352
I3942
sVYami yugi
p3353
I2679
sVLambda 11
p3354
I2680
sVTetsu yatoji
p3355
I2681
sVK'
p3356
I3244
sVCar navi EX
p3357
I2682
sVBomber man
p3358
I4655
sVSakura EX2
p3359
I2683
sVMai_shiranui EX3
p3360
I4287
sVHol horse & boingo
p3361
I4505
sVTiblekun
p3362
I2685
sVOdie
p3363
I954
sVLin EX3
p3364
I2687
sVGodmars
p3365
I2688
sVApollo
p3366
I180
sVModel z
p3367
I2690
sVMaria EX
p3368
I3728
sVEiji mk
p3369
I985
sVChen-mao
p3370
I2693
sVFrankenstein
p3371
I2694
sVColossus
p3372
I2695
sVSs6 renfa EX2
p3373
I2696
sVMr.karate
p3374
I2697
sVToguro 100%
p3375
I2698
sVSaiyajin
p3376
I2713
sVShin akuma
p3377
I1051
sVDonkey kong EX2
p3378
I2700
sVTu shou
p3379
I2048
sVParasite
p3380
I3964
sVLotus master
p3381
I2702
sVIggy
p3382
I4568
sVDhaos RD
p3383
I2577
sVJado
p3384
I4576
sVJimmy
p3385
I3458
sVGohan school
p3386
I1093
sVGambit MVC2
p3387
I1098
sVRoa
p3388
I4372
sVIzanagi
p3389
I2707
sVKy Kiske
p3390
I1106
sVMia touma
p3391
I2709
sVLucifer 2
p3392
I2710
sVKaf ka
p3393
I2711
sVBurai_yamamoto
p3394
I4464
sVLion
p3395
I3894
sVYusuke urameshi
p3396
I2714
sVPower lyzer
p3397
I2715
sVV2ab
p3398
I2716
sVSylveon_var1
p3399
I2717
sVDorothy
p3400
I4676
sVHonki-ultraman
p3401
I4712
sVStarsavior
p3402
I4084
sVAkari kamigishi EX3
p3403
I1146
sVHeika-ss
p3404
I2721
sVNeco
p3405
I4177
sVShaq
p3406
I4284
sVRyuuguu rena
p3407
I2723
sVOshawott
p3408
I3708
sVEnegori
p3409
I2725
sVParace
p3410
I2726
sVShingetter1
p3411
I3032
sVLaststarman
p3412
I4789
sVRascal
p3413
I1197
sVFygar
p3414
I2728
sVBurnie
p3415
I2729
sVHal jordan
p3416
I2730
sVBloo xiii
p3417
I2731
sVSula
p3418
I2732
sVKyo_99xi
p3419
I2733
sVMeteor
p3420
I2734
sVUsapi-
p3421
I4784
sVGeese_ff3rb
p3422
I2735
sVRobin_mask
p3423
I2736
sVSazabi EX3
p3424
I1246
sVSupermario64
p3425
I2738
sVMiyako arrange abyss
p3426
I4413
sVGarmraid
p3427
I3205
sVLf2 - bat
p3428
I4356
sVRatking
p3429
I2740
sVEtomo shuko EX3
p3430
I4031
sVBatgirl
p3431
I4501
sVMorrigan Aensland
p3432
I2741
sVClonekyo xi
p3433
I2742
sVVulture
p3434
I2743
sVKill bill uma
p3435
I2744
sVKaonasi
p3436
I4442
sVChronoforce
p3437
I2746
sVCho-kichiku masamune EX3
p3438
I2747
sVCm punk
p3439
I2748
sVBoring sdk shiina yuya
p3440
I3999
sVKarin CVS
p3441
I1327
sVShantotto
p3442
I2749
sVDante D4
p3443
I4078
sVRyu EX3
p3444
I2750
sVMasked rider 1st
p3445
I1303
sVBlue blood
p3446
I2752
sVWonder boy shion
p3447
I2753
sVMeiya_striker
p3448
I2665
sVSaki mitonoya
p3449
I2755
sVKing kong
p3450
I2756
sVMorph
p3451
I4848
sVDeadpool EX
p3452
I2758
sVHamtaro
p3453
I4482
sVThawk sfa
p3454
I2760
sVKung fu fiunn
p3455
I2762
sVKuanyinshen
p3456
I4746
sVA-rock
p3457
I4683
sVHyper kagami
p3458
I2764
sVLyzer
p3459
I2765
sVSyouzan matsuo
p3460
I2766
sVK-series
p3461
I2767
sVRen mizusaka
p3462
I2768
sVAura
p3463
I2769
sVKilyousuke
p3464
I2770
sVChaka EX3
p3465
I2771
sVJohann EX3
p3466
I2772
sVKoneko
p3467
I2773
sVBoulma
p3468
I4370
sVJyubei yagyu
p3469
I2774
sVNighmare snake
p3470
I4041
sVThe red skull
p3471
I2775
sVSuper #13
p3472
I1403
sVMetalgear rex
p3473
I2777
sVGeneral_l
p3474
I1667
sVJ'onn j'onnz
p3475
I2329
sVSpongebob
p3476
I4318
sVTwitch waifu chan-sd
p3477
I2779
sVElza kanagusuku
p3478
I2780
sVPiccolo
p3479
I4701
sVSenna
p3480
I2582
sVEvil ken ssf'2 plus
p3481
I1346
sVNao EX3
p3482
I4741
sVPesoguin
p3483
I2782
sVStrawbelly jam
p3484
I2330
sVMizuki EX2
p3485
I1462
sVM. bison
p3486
I3945
sVAngel ryu
p3487
I4627
sVKrillin
p3488
I421
sVFamardy
p3489
I2787
sVAlien borg
p3490
I4620
sVSara_cat EX
p3491
I2788
sVSophitia
p3492
I1487
sVBernkastel
p3493
I1499
sVShion
p3494
I4711
sVAlcott
p3495
I2791
sVNacht_jaeger1.29
p3496
I2792
sVHige
p3497
I4862
sVJeff howard
p3498
I4024
sVLeon EX
p3499
I1082
sVDare devil
p3500
I4530
sVScene
p3501
I4675
sVHoujuu nue H
p3502
I2794
sVGuldin
p3503
I4269
sVPeketo
p3504
I3991
sVO_flan-var.2
p3505
I2795
sVYukino
p3506
I2796
sVLuise
p3507
I2797
sVBlizzard EX3
p3508
I3013
sVGuile machine
p3509
I2799
sVMegatron
p3510
I4807
sVKuwabara
p3511
I1555
sVJuggernaut ex
p3512
I2802
sVJagi bike
p3513
I2803
sVThe dazzler
p3514
I3958
sVPulunis
p3515
I2804
sVRyu mvc1
p3516
I4487
sVNanase
p3517
I4371
sVMagaki EX2
p3518
I2805
sVChonshu EX3
p3519
I4469
sVRikku
p3520
I1599
sVRaphael EX
p3521
I2807
sVGarfield
p3522
I2808
sVCvs blaze
p3523
I1615
sVH-duolon
p3524
I2810
sVHan EX3
p3525
I2811
sVChie_rumiko
p3526
I2812
sVAkito(coh)
p3527
I2813
sVOuyang feng
p3528
I2814
sVAn ogre
p3529
I2815
sVMito_mashiro
p3530
I2816
sVRobo rock
p3531
I2817
sVKeine kamishirasawa(keln)
p3532
I2818
sVRuriko
p3533
I1660
sVCheng_fu
p3534
I4485
sVAntimage
p3535
I2820
sVAzteca
p3536
I2821
sVKanoko hosokawa
p3537
I2822
sVLight yagami
p3538
I2823
sVAnnoying orange
p3539
I473
sVSentry
p3540
I1697
sVDoppo orochi
p3541
I4447
sVH_gate_0350
p3542
I2826
sVHiei EX
p3543
I2026
sVWakko
p3544
I1709
sVGorilla
p3545
I4097
sVDante 4
p3546
I2830
sVToki hakurei
p3547
I2831
sVMazinger-z ex
p3548
I4136
sVYujiro-hanma
p3549
I2832
sVPeppercat
p3550
I947
sVTrevor B
p3551
I2834
sVOrochi ball
p3552
I1901
sVKanae
p3553
I2836
sVFull armor ciel
p3554
I2837
sVShiki tohno iqs
p3555
I4344
sVSabu EX3
p3556
I2838
sVMusashi
p3557
I4021
sVCc iron clara
p3558
I1774
sVLf2 - rudolf
p3559
I1778
sVPicurin
p3560
I2842
sVSf4 vega
p3561
I2843
sVAl
p3562
I4087
sVRikuo
p3563
I3897
sVHaruhi suzumiya
p3564
I4045
sVIria
p3565
I4332
sVUppercut
p3566
I2847
sVKyoshiro ex
p3567
I2341
sVD4 roll
p3568
I2849
sVImperfect cell
p3569
I2850
sVLf2 - henry
p3570
I2851
sVHwoarang
p3571
I2852
sVKen CVS
p3572
I2853
sVKanorin
p3573
I3785
sVRip Saber
p3574
I2854
sVHourai-car EX2
p3575
I2855
sVChina kohaku
p3576
I3955
sVNanoha tsukikage
p3577
I2856
sVNicola zaza
p3578
I4624
sVCyberdemon
p3579
I4471
sVGenma saotome
p3580
I2857
sVJin
p3581
I184
sVAoi_amatu
p3582
I3635
sVPrince of all saiyans
p3583
I2859
sVSaya(p_ai)
p3584
I4231
sVBrimstone
p3585
I2861
sVR-unagi
p3586
I3024
sVExtramyon
p3587
I4114
sVCarriage driver
p3588
I4765
sVTiger mm
p3589
I4688
sVOrochi akuma
p3590
I2864
sVMultiple man
p3591
I2865
sVNoroko EX3
p3592
I2866
sVMamizou EX
p3593
I4559
sVNash
p3594
I3026
sVAyu tsukimiya
p3595
I2868
sVHybrid form sula
p3596
I4664
sVFreddie mercury
p3597
I2618
sVMtguile
p3598
I2870
sVIceman cota
p3599
I2871
sVAndy bogard rb
p3600
I2872
sVKoyomi mizuhara
p3601
I2873
sVLizardman
p3602
I4461
sVSho ryu
p3603
I2874
sVNoa
p3604
I4604
sVHakumen
p3605
I1305
sVGoddman batman
p3606
I3152
sVRekka
p3607
I1695
sVCyborg superman
p3608
I2877
sVRyousan gata patchouli
p3609
I2878
sVKenoh
p3610
I3944
sVHisame shizumaru ex2
p3611
I2005
sVChen_ai EX3
p3612
I1687
sVAnd 18
p3613
I2881
sVKungfugirl uzuki
p3614
I3814
sVNeo meep140
p3615
I4824
sVHattori hanzou ph ai
p3616
I4821
sVTora shou
p3617
I2882
sVCius
p3618
I2883
sVLord zedd
p3619
I2884
sVAnother agito
p3620
I2055
sVGolgo13
p3621
I4874
sVAlpha candy
p3622
I2886
sVCrea-f
p3623
I322
sVVictor ortega
p3624
I2888
sVMugetu
p3625
I2889
sVWarakia
p3626
I4427
sVNitori(emanon)
p3627
I2890
sVGrimace
p3628
I2891
sVSensei ken
p3629
I2088
sVYumina
p3630
I2893
sVFreedom
p3631
I4026
sVAnother cirno
p3632
I3302
sVBlack moth
p3633
I633
sVBig bear 0D
p3634
I2895
sVLeonardo EX
p3635
I2896
sVYukkuri
p3636
I1281
sVBully in the launderette
p3637
I2898
sVKyo
p3638
I2899
sVBaruganodon_ex
p3639
I2900
sVKano EX
p3640
I4475
sVNazrin
p3641
I2902
sVDrdoom
p3642
I2689
sVMegaman.exe EX
p3643
I4079
sVSilversamurai
p3644
I2353
sVThe thing
p3645
I4082
sVKurorim
p3646
I2924
sVBalrog_a
p3647
I2904
sVKenshin uesugi
p3648
I2905
sVThe mask of ero
p3649
I4043
sVHaruka
p3650
I2907
sVTakumi hattori
p3651
I2908
sVAchamo
p3652
I2909
sVYoma komatsu
p3653
I1636
sVCammy EX3
p3654
I4091
sVMad grinder
p3655
I2344
sVRenji
p3656
I2911
sVGustavo
p3657
I4034
sVAlena
p3658
I4761
sVIrori
p3659
I2229
sVSavage hulk
p3660
I4569
sVMaster god ryu
p3661
I2241
sVRax coswell
p3662
I4400
sVKureha EX3
p3663
I2915
sVMimizuku_teacher
p3664
I4141
sVSerika_os
p3665
I2917
sVBlue eyes white karin
p3666
I4463
sVJack-hamma
p3667
I2918
sVGoenitz
p3668
I4299
sV(sman) EX3
p3669
I2919
sVVan platin
p3670
I2920
sVMecha-gorilla
p3671
I2921
sVAnne
p3672
I4860
sVMinis mahn
p3673
I4032
sVDown
p3674
I2923
sVOnslaught 2
p3675
I2925
sVJagi
p3676
I2926
sVLeo bradlay
p3677
I2927
sVRanmaru
p3678
I4013
sVJam(ac)
p3679
I2929
sVGoku transformer
p3680
I2930
sVHonda asuka
p3681
I2931
sVNests-rugal
p3682
I2932
sVZan-b
p3683
I2933
sVOro
p3684
I4385
sVLink
p3685
I2935
sVRock EX
p3686
I2936
sVGhost kick
p3687
I2937
sVOrochi vega
p3688
I2938
sVGulpfer
p3689
I3904
sVChunli 3so
p3690
I2739
sVKyo-1
p3691
I2940
sVOrc
p3692
I2941
sVLina
p3693
I2942
sVDoraemon EX3
p3694
I353
sVAndroid 16
p3695
I2944
sVCyborg_t-8p
p3696
I2945
sVBousou oni-chiduru K
p3697
I2946
sVGiant jackson
p3698
I1358
sVAnother suwako
p3699
I2331
sVSkiboots
p3700
I4595
sVImr-765-s_kisaragi
p3701
I2948
sVLight
p3702
I894
sVToyotomi hideyoshi
p3703
I2951
sVMars people
p3704
I2952
sVTrunks ssj4
p3705
I2953
sVFrank archer
p3706
I2954
sVAndroid 18
p3707
I2444
sVCyber shredder
p3708
I4621
sVLf2 - louis
p3709
I3826
sVUltra ssj5 vegeta
p3710
I2958
sVYun
p3711
I2959
sVKenshi ex
p3712
I4235
sVYue
p3713
I2960
sVDeluxe adon
p3714
I1995
sVMr. game & watch plus
p3715
I4640
sVAmakusa
p3716
I2962
sVKirisima kyoko
p3717
I2963
sVYukari
p3718
I4373
sVWave man
p3719
I1683
sVSpin youmu
p3720
I2965
sVHeavy rob
p3721
I2966
sVDeath13 EX3
p3722
I2967
sVFlan ex
p3723
I2969
sVAthena fake
p3724
I2970
sVKinopio
p3725
I4437
sVLion_gunta
p3726
I306
sVS.clara
p3727
I195
sVSayuri kurata
p3728
I4491
sVWu-ling
p3729
I2973
sVIshtar
p3730
I1402
sVKefka palazzo
p3731
I2975
sVEliza EX
p3732
I2560
sVZero Hotaru
p3733
I2977
sVOozaru
p3734
I3745
sVAlvin the chipmunk
p3735
I2979
sV2ban-tan
p3736
I2980
sVConker
p3737
I2981
sVKusanagi EX
p3738
I976
sVKaname madoka EX
p3739
I3809
sVSuper-Mario
p3740
I604
sVHol 'butt king' funtimes
p3741
I2984
sVDq5-daughter
p3742
I3379
sVP-ciel
p3743
I2985
sVSub-zero mk2
p3744
I2947
sVShadow dio
p3745
I4061
sVAkari
p3746
I2987
sVTiti
p3747
I4101
sVYoko yuki
p3748
I2990
sVNorimaro EX3
p3749
I2991
sVReika EX3
p3750
I2992
sVNimuge president
p3751
I4224
sVHisui
p3752
I2993
sVT-h-m-a
p3753
I2994
sVNico
p3754
I2660
sVTerryman
p3755
I2996
sVQbee c.v.
p3756
I2997
sV2nd death star
p3757
I2998
sVStrider hiryu
p3758
I2999
sVKira
p3759
I3000
sVAgrias
p3760
I4268
sVBerserker EX
p3761
I3001
sVScorpion CVW
p3762
I4126
sVJyuzumaru
p3763
I3126
sVCoil
p3764
I3003
sVYuri_96
p3765
I4632
sVDeath ogre
p3766
I3004
sVBlanka
p3767
I373
sVG rugal
p3768
I3006
sVEdward newgate
p3769
I3007
sVHazama
p3770
I3008
sVGeisya
p3771
I452
sVBurnin' leo
p3772
I3010
sVApe man
p3773
I3749
sVShiki_kageya
p3774
I3370
sVWildcat
p3775
I3012
sVSs6 rinrin
p3776
I193
sVJurarus
p3777
I4130
sVDrunken master
p3778
I3014
sVSpelunker
p3779
I3015
sVKarnov ex
p3780
I3016
sVWangchang EX
p3781
I3652
sVSion tatari EX
p3782
I4577
sVCaptainamerica EX3
p3783
I2379
sVPocket Felicia
p3784
I3017
sVPyro
p3785
I3018
sVPandon fe
p3786
I3019
sVDonaiya
p3787
I4558
sVKyoso(n-cube ai)
p3788
I3020
sVHol horse EX
p3789
I3021
sVInjya
p3790
I3022
sVNakoruru ex EX3
p3791
I3023
sVTalonarten
p3792
I2862
sVKim hoon EX
p3793
I3025
sVYurung
p3794
I2867
sVZero Cloud
p3795
I3027
sVHaruka_amami
p3796
I3028
sVTerry bogard
p3797
I3753
sVWolfgang krauser EX
p3798
I3030
sVAlbion
p3799
I3031
sVUsada hikaru
p3800
I4828
sVTao jun EX
p3801
I2192
sVRev saizo
p3802
I4794
sVBlizzard
p3803
I3033
sVKaname madoka
p3804
I3034
sVMecha dragon
p3805
I2906
sVMorgiana EX2
p3806
I3036
sVMakoto nanaya
p3807
I1341
sVIbuki suika nightmare
p3808
I3037
sVZenith
p3809
I3038
sVMinmin
p3810
I3039
sVChris_gb
p3811
I3040
sVAracne de tarantula
p3812
I4699
sVNeko
p3813
I4016
sVH_yujiro
p3814
I3793
sVWong fei hung
p3815
I4241
sVSylphie
p3816
I4025
sVRockman
p3817
I3043
sVOrsted
p3818
I3044
sVYoung Heihachi
p3819
I3045
sVYuki fujiwara
p3820
I3046
sVCassius bright
p3821
I3047
sVAlpaca
p3822
I3390
sVMasaki anzu EX3
p3823
I3049
sVCondor
p3824
I4528
sVYoriko-mvc EX3
p3825
I3050
sVAlex mercer
p3826
I4328
sVAgony
p3827
I4042
sVKaori
p3828
I3051
sVDiokles
p3829
I1852
sVCliff-tsunade-godaime
p3830
I3053
sVNoah
p3831
I4851
sVCchouou
p3832
I3054
sVByakuya kuchiki
p3833
I1898
sVYako_katsuragi
p3834
I4515
sVSonozaki_shion
p3835
I3057
sVGato ex
p3836
I4226
sVRosie
p3837
I3058
sV94_flan
p3838
I3059
sVRyoko(mugen)
p3839
I3060
sVMaat
p3840
I4199
sVTukuyo
p3841
I3061
sVMetaknight
p3842
I3062
sVKusanagi
p3843
I3063
sVTas_ken
p3844
I4786
sVBloody flandre
p3845
I3065
sVAsamiya saki x
p3846
I3066
sVJo jo
p3847
I3067
sVPlatinum the trinity
p3848
I3068
sVJedah
p3849
I3069
sVHouoh EX
p3850
I3070
sVAgrias BC
p3851
I4229
sVRbff master geese
p3852
I3072
sVYacopu
p3853
I3073
sVShinjuro
p3854
I3074
sVEko
p3855
I3075
sVPorky minch
p3856
I3076
sVRuili EX3
p3857
I1842
sVPocket Ken
p3858
I3077
sVRyu sf3
p3859
I1117
sVKungFu Man
p3860
I4430
sVShin scrub ken
p3861
I4066
sVSuper3 goku EX3
p3862
I3080
sVMudman ngbc
p3863
I3081
sVQ
p3864
I3082
sVKendo&kyudo
p3865
I3083
sVKoryu
p3866
I3084
sVNatsu
p3867
I3239
sVSakazaki ryo
p3868
I3986
sVSpider-man 2099
p3869
I800
sVRigby
p3870
I3087
sVKazama sogetsu EX3
p3871
I3088
sVShrek
p3872
I3089
sVScarlet dragon
p3873
I3090
sVAner rolange
p3874
I3091
sVRock of spirit
p3875
I3092
sVSuperbot
p3876
I4289
sVGhetto Warmachine 420
p3877
I3286
sVReptile
p3878
I3094
sVChibi kuroko
p3879
I2496
sVFamily dog
p3880
I3095
sVAoko
p3881
I3096
sVPerfectakishimai 2
p3882
I2982
sVCrystal
p3883
I3909
sVKira daidoji
p3884
I3097
sVBoring kagekiyo
p3885
I2594
sVKid trunks
p3886
I3099
sVSuperboy
p3887
I3100
sVRain mk2
p3888
I4121
sVLion magnus
p3889
I3102
sVRoza
p3890
I3103
sVShikamaru
p3891
I4587
sVShadow lady
p3892
I3104
sVAhojingod
p3893
I3105
sVFaust(ac)
p3894
I3106
sVHisui aa
p3895
I3107
sVMichelangelo 0d
p3896
I4472
sVJean pielle
p3897
I4133
sVYadamon
p3898
I3109
sVAkiba
p3899
I3110
sVAleti
p3900
I3111
sVSvc genjyuro
p3901
I4546
sVChange dragon
p3902
I2801
sVJon talbain
p3903
I3886
sVAya
p3904
I3115
sVSagat SF4
p3905
I4057
sVHoppy
p3906
I3116
sVBlaziken
p3907
I449
sVJa-koh
p3908
I3118
sVOmega EX
p3909
I4643
sVKagetsura
p3910
I3119
sVPhysalis
p3911
I3120
sVMongori
p3912
I3956
sVGyaban
p3913
I4590
sVFinal
p3914
I4815
sVGuillotine gen
p3915
I3121
sVFreeman_n
p3916
I3122
sVImit ultraman
p3917
I1125
sVGod gundam
p3918
I1114
sVMaxime
p3919
I4365
sVBlossom DG
p3920
I4102
sVRistar
p3921
I4570
sVEvil dooby dummy
p3922
I1707
sVBoss gustab m.
p3923
I3127
sVYuiran
p3924
I4195
sVAsagi asagiri
p3925
I3128
sVRick
p3926
I3129
sVPrometheus
p3927
I3130
sVKusanagi EX3
p3928
I4205
sVSquall
p3929
I3131
sVWaha- EX3
p3930
I3132
sVGundamexia
p3931
I3133
sVGori
p3932
I3071
sVBristol-d
p3933
I3134
sVLeona
p3934
I2447
sVHyper omega chaos hiryu
p3935
I3139
sVFat albert
p3936
I509
sVAltered Amiba
p3937
I4001
sVAbyss_sh
p3938
I3138
sVDestoroyah_ex
p3939
I2527
sVDan 0d
p3940
I3140
sVCloud strife
p3941
I3141
sVHasshie
p3942
I3142
sVChibi suika
p3943
I4813
sVSatsuki shindou
p3944
I3143
sVLittle busters!
p3945
I3144
sVReiji
p3946
I77
sVKitanaitaru
p3947
I3146
sVUdonge_a
p3948
I4610
sVGliz
p3949
I3148
sVSissy
p3950
I4230
sVGod kula
p3951
I4750
sVEharu_ai
p3952
I4512
sVAdam
p3953
I3150
sVParagus
p3954
I3151
sVMother
p3955
I114
sVGaia EX3
p3956
I3153
sVHeihachi CVS
p3957
I3154
sVHawkman
p3958
I3155
sVEnlightened sun wu kong
p3959
I3156
sVAnakaris
p3960
I3157
sVRobin
p3961
I3158
sVSilver horns
p3962
I3988
sVSai
p3963
I3160
sVVp frey
p3964
I3161
sVLyndis EX
p3965
I3162
sVKonata
p3966
I3163
sVRazorclaws
p3967
I3164
sVCf-len
p3968
I3165
sVKakashi hatake
p3969
I3166
sVRydia EX3
p3970
I3167
sVRb2_geese
p3971
I3168
sVTeh ryu
p3972
I3169
sVGaia EX2
p3973
I3681
sVKill bill jhonny_mo
p3974
I3171
sVTeam nicktoon
p3975
I4457
sVWraith
p3976
I4393
sVChrome dome EX
p3977
I2327
sVUltimate weapon chise
p3978
I4800
sVEsmeralda
p3979
I3175
sVAner rolange EX3
p3980
I3176
sVRyuko2nd
p3981
I4331
sVKaede_hioh
p3982
I4052
sVEva-05
p3983
I3178
sVNina EX
p3984
I4293
sVCapsule monster
p3985
I3180
sVHanzo EX
p3986
I3181
sVEva-03
p3987
I3182
sVCoolseven
p3988
I4838
sVWolverine
p3989
I3183
sVBilly 'big bang' blitz
p3990
I3184
sVOriginal vega
p3991
I3185
sVCheng
p3992
I3186
sVD4?roll?
p3993
I1424
sVG-adelheid
p3994
I3188
sVBlue mary
p3995
I3189
sVSundown-kid
p3996
I3190
sVMystic son gohan
p3997
I3191
sVOtane oume
p3998
I4227
sVPateta
p3999
I3192
sVCactuar
p4000
I2829
sVSmoke mk2
p4001
I3193
sVJiraiya
p4002
I3261
sVSilver samurai
p4003
I3194
sVAoc
p4004
I3195
sVA-lee
p4005
I3196
sVReimu-q
p4006
I1578
sVKaname
p4007
I3197
sVKohaku EX2
p4008
I3198
sVHyoga de cisne
p4009
I3199
sVBaby commando
p4010
I939
sVHei_f
p4011
I923
sVRock EX3
p4012
I3202
sVZabogar
p4013
I3611
sVG-akiha
p4014
I3203
sVMageko EX
p4015
I3689
sVTodo EX
p4016
I3079
sVYoshi
p4017
I2290
sVMagneto mvc2
p4018
I3206
sVAselia
p4019
I3207
sVJupiter
p4020
I4339
sVMac os-x siam
p4021
I3209
sVFordy
p4022
I3210
sVDead vega
p4023
I2010
sVHelion z
p4024
I3211
sVAssiette
p4025
I3212
sVMizuki
p4026
I69
sVHarima
p4027
I4132
sVFernandeath 2
p4028
I3215
sVRobert945
p4029
I3216
sVKouryu
p4030
I4594
sVPacman
p4031
I3217
sVIce EX3
p4032
I3218
sVPikopiko EX3
p4033
I3219
sVAty
p4034
I2326
sVMilitsa_patchouli
p4035
I3220
sVFinal peketo
p4036
I3221
sVMajin vegeta EX3
p4037
I2839
sVSenator
p4038
I3222
sVNanoha takamachi
p4039
I3223
sVRagna bloodedge
p4040
I2626
sVEcco
p4041
I4209
sVMasked rider 555(emanon)
p4042
I3787
sVAlien metron
p4043
I3225
sVFinal zone boss s1
p4044
I3226
sVShin mr. karate
p4045
I4039
sVZabel ex
p4046
I3227
sVKula xiii
p4047
I4670
sVGreat gohan
p4048
I4251
sVNaruto kid
p4049
I4875
sVGehorsam
p4050
I3230
sVCyborg EX
p4051
I3231
sVKonan
p4052
I3232
sVKenshi 1p
p4053
I3233
sVInternational karateka
p4054
I3234
sVCho-kichiku masamune
p4055
I2104
sVCommode serika
p4056
I3236
sVSachiel
p4057
I3624
sVEvil ryu
p4058
I3237
sVYoshinaka hinata
p4059
I3238
sVSonia rotd
p4060
I2988
sVMasamichi oyama
p4061
I3240
sVJohnny bravo
p4062
I3241
sVSailor jupiter EX
p4063
I2243
sVThe Sailor Man
p4064
I2274
sVDark ash
p4065
I3887
sVIkadevil
p4066
I3245
sVMasaru_takahara
p4067
I3246
sVShitan uzuki
p4068
I3247
sVSonic EX2
p4069
I3248
sVPerfect storm x
p4070
I1373
sVDark order sol
p4071
I251
sVFreya diamond
p4072
I3251
sVSailor mars EX2
p4073
I3252
sVBinjyobrothers
p4074
I3253
sVDynamo
p4075
I3254
sVPekomaru
p4076
I3255
sVHayao 12p color
p4077
I3256
sVNu-13
p4078
I3257
sVMizore s.
p4079
I3258
sVGalvatron
p4080
I3259
sVSaori - athena
p4081
I3260
sVPocket Morrigan
p4082
I4320
sVKrizalid N
p4083
I3263
sVScrooge mcduck
p4084
I4453
sVGeese 98
p4085
I3264
sVRalf 2k2 EX
p4086
I3048
sVRugal EX3
p4087
I3265
sVMeu(you-ki)
p4088
I312
sVRandy m. green EX
p4089
I4607
sVXavier pendragon
p4090
I1840
sVTouko matsudaira
p4091
I2352
sVR.king
p4092
I3269
sVShana
p4093
I3270
sVKenshin
p4094
I4534
sVMusashi akatsuki
p4095
I2964
sVBatman Normal
p4096
I3271
sVMyth blue ranger
p4097
I3272
sVAssassin
p4098
I1890
sVAi momoyama
p4099
I3962
sVHashi EX3
p4100
I3274
sVBubbles jp
p4101
I4346
sVUtsuho reiuji
p4102
I3982
sVUchiha sasuke
p4103
I3276
sVNanaya_s
p4104
I3277
sVHawk
p4105
I3278
sVKusaregedo EX
p4106
I3279
sVPoring
p4107
I3280
sVFray
p4108
I3281
sVOrochi head
p4109
I3282
sVNo.8
p4110
I2387
sVSue sakamoto
p4111
I396
sVCiel EX
p4112
I3285
sVBalrog IV
p4113
I26
sVUltrassjgoku
p4114
I3363
sVShadowman cfas
p4115
I4358
sVJohn anderson
p4116
I3287
sVChaos
p4117
I2401
sVLancer EX2
p4118
I4438
sVSharaku
p4119
I2553
sVChaos Blanka
p4120
I3289
sVSpiny
p4121
I427
sVGouki sf
p4122
I3291
sVOshima
p4123
I4538
sVKy
p4124
I3292
sVLeo EX2
p4125
I3293
sVTenko
p4126
I2614
sVUmvc_sentinel
p4127
I4715
sVUme
p4128
I3296
sVZazie muhaba
p4129
I3297
sVArcueid_brunestud
p4130
I3298
sVAccelerator
p4131
I3299
sVMarvel frozen
p4132
I4830
sVNero
p4133
I2080
sVKanako yasaka EX3
p4134
I1275
sVVenom
p4135
I3300
sVObstinate_tank
p4136
I4333
sVSailor mercury EX
p4137
I3486
sVMaraiah
p4138
I4119
sVScorponok
p4139
I4379
sVDragon EX2
p4140
I4077
sVRyoko ex EX3
p4141
I514
sVZinc
p4142
I3304
sVRyo-sakazaki
p4143
I2408
sVPeter
p4144
I3306
sVCrispy
p4145
I3307
sVHayato mvc2
p4146
I4797
sVWonder momo
p4147
I3309
sVLynn baker
p4148
I3797
sVFinal sigma w
p4149
I3311
sVTaideo EX
p4150
I559
sVThe world-dio
p4151
I3796
sVMr. fantastic
p4152
I4311
sVPielle
p4153
I3208
sVStarship-kirby
p4154
I4455
sVJin EX
p4155
I4258
sVSanada_yukimura
p4156
I4083
sVTriceratops
p4157
I3317
sVGoodman
p4158
I3318
sVVanilla h
p4159
I2880
sVJin CVS
p4160
I3320
sVShion EX3
p4161
I3321
sVPrimeus
p4162
I623
sVCharging chuck
p4163
I3323
sVKirby c
p4164
I3324
sVSasuke uchiha
p4165
I3325
sVRouwe_n
p4166
I3895
sVBlodia
p4167
I431
sVMelty_magic_tenko
p4168
I3328
sVThe end
p4169
I3329
sVSonic the hedgehog
p4170
I4096
sVMaster chief
p4171
I1560
sVLian
p4172
I3331
sVSpider-man
p4173
I3332
sVDarkseid IS
p4174
I3333
sVKarin EX3
p4175
I3334
sVGogeta super saiyan 3
p4176
I3969
sVThe king
p4177
I3335
sVDeliza
p4178
I1059
sVDuane
p4179
I3337
sVYoung joseph
p4180
I3338
sVCurehappy
p4181
I1476
sVMizuki takase
p4182
I3340
sVOld robo-ky
p4183
I2603
sVLacerta Misty
p4184
I3341
sVShadowroo (pf 3)
p4185
I3932
sVReminya
p4186
I3343
sVComrade athena
p4187
I4063
sVBellyache
p4188
I3267
sVMega vegeta
p4189
I4194
sVEuphoria the everlasting
p4190
I3345
sVCaptainAmerica
p4191
I4089
sVHyper rare akuma
p4192
I3346
sVKing 13
p4193
I3347
sVGaragaranda
p4194
I3348
sVRouga(coh)
p4195
I3349
sVSparkster
p4196
I3350
sVSyoh
p4197
I2417
sVSs6 ren
p4198
I3214
sVWing zero
p4199
I3353
sVDbloodbane
p4200
I3354
sVPrincess silver
p4201
I3355
sVMima EX
p4202
I3356
sVAvdol ver 2001/01/30 by camrat
p4203
I4149
sVLion sora
p4204
I4584
sVRin rin
p4205
I3357
sVPsychopath kyo
p4206
I3179
sVMarvel spider-man
p4207
I4625
sVMai tokiha ex
p4208
I3358
sVMokoi
p4209
I1758
sVFirestorm
p4210
I3360
sVSaten_level5
p4211
I3361
sVShiki EX2
p4212
I3362
sVShishimaru EX
p4213
I807
sVAkari ichijo
p4214
I4313
sVJuugo
p4215
I4702
sVOozura bebi
p4216
I3366
sVLee_chen
p4217
I3365
sVCielo
p4218
I1874
sVUltimate armor x
p4219
I3056
sVRhadamantis
p4220
I3367
sVRin EX
p4221
I3085
sVMamiya
p4222
I4395
sVMishio
p4223
I3368
sVRiggs
p4224
I3369
sVMexican typhoon
p4225
I866
sVShanoa
p4226
I2844
sVAlder(seraph)
p4227
I3371
sVPop
p4228
I3372
sVKaiba seto
p4229
I3373
sVRebecca
p4230
I4253
sVKunagi-f.o
p4231
I3374
sVDixie kong
p4232
I4292
sVLafiras
p4233
I3376
sVMarvin the martian
p4234
I4402
sVKintaro
p4235
I3377
sVP. chunli
p4236
I3378
sVThe manticore, the queen, and the dragon
p4237
I1296
sVOmni-psych super dizzy lv 3
p4238
I3380
sVRyu 98
p4239
I2664
sVNeo y&m
p4240
I1816
sVJubilee
p4241
I3383
sVJay Flash
p4242
I3384
sVRaydric_and_archer
p4243
I4414
sVByakuya
p4244
I3386
sVYuka takeuchi
p4245
I3387
sVVegeta
p4246
I3388
sVSumo
p4247
I4147
sVSsj5 goku
p4248
I2701
sVGouki
p4249
I3108
sVAlien queen
p4250
I3391
sVProofed up matt
p4251
I271
sVMudman EX3
p4252
I972
sVYagami_if
p4253
I2377
sVDonkey kong
p4254
I3395
sVShimo EX3
p4255
I3396
sVZz_gundam
p4256
I3397
sVWonder momo EX
p4257
I3398
sVDemitri maximoff
p4258
I3860
sVAnother igniz
p4259
I3399
sVGalford
p4260
I1009
sVGoat
p4261
I4798
sVG akiha nightmare
p4262
I2334
sVKrillin EX3
p4263
I3402
sVWaluigi
p4264
I4704
sVKitana
p4265
I3403
sVAmingo MVC2
p4266
I3404
sVNatsu EX2
p4267
I3950
sVVanessa
p4268
I3406
sVUltraman
p4269
I3407
sVChun-li
p4270
I4080
sVGenkai_shihan
p4271
I3408
sVKamiccolo
p4272
I4280
sVAkaitsuki
p4273
I3409
sVShinji_san
p4274
I3736
sVAthena x
p4275
I3410
sVJill
p4276
I3411
sVDeluxe cassandra
p4277
I4803
sVKazuya mishima
p4278
I4397
sVStefanie
p4279
I3229
sVPsycho mkiii
p4280
I1095
sVSaki tsuzura
p4281
I3413
sVNaruto uzumaki
p4282
I4298
sVSayuri bernstein
p4283
I3414
sVRimururu
p4284
I3416
sVK9999
p4285
I1110
sVZaku
p4286
I3418
sVKuando
p4287
I3419
sVYami_miko
p4288
I4771
sVAnge EX
p4289
I3420
sVGelato
p4290
I4567
sVDee bee kaw EX3
p4291
I3421
sVLiu kang
p4292
I3981
sVRyoko EX
p4293
I3422
sVWong_fei_h
p4294
I1139
sVLuke EX
p4295
I3424
sVKeel
p4296
I1152
sVGoku gt
p4297
I1158
sVOrochi tenko
p4298
I1241
sVCyber shredder 2.1
p4299
I3428
sVE-terry 71113
p4300
I4315
sVZou
p4301
I3430
sVGrand_diable
p4302
I3431
sVSuperman hero
p4303
I4724
sVColonel sanders
p4304
I2432
sVShazam
p4305
I3432
sVAlex sf3
p4306
I2137
sVNekomo
p4307
I3434
sVPingu
p4308
I3435
sVNoob saibot mk2
p4309
I3436
sVGoku nex
p4310
I2250
sVSakura 98
p4311
I3815
sVSuparfcmeirin ver.1.15
p4312
I3439
sVAndroid 16 EX3
p4313
I3440
sVKaede+z_n
p4314
I3441
sVNanase EX
p4315
I4243
sVTrigger
p4316
I3117
sVCliff-zabuza-nzc
p4317
I3600
sVRaiden EX
p4318
I3442
sVMonk EX3
p4319
I3443
sVEgith
p4320
I3444
sVShishioh
p4321
I3445
sVUnlucky glauber
p4322
I3724
sVHugo andore jr. ff2
p4323
I3446
sVSpidermanu
p4324
I1262
sVThouther
p4325
I4139
sVDeathmask
p4326
I3173
sVSnorlax EX2
p4327
I3055
sVCc medusa
p4328
I3448
sVAsagi kun
p4329
I3449
sVCustom getsufuma
p4330
I3450
sVJuggernaut
p4331
I4458
sVAladdin
p4332
I1279
sVGlacial_girl
p4333
I3452
sVLelouch EX
p4334
I3453
sVJoachim
p4335
I3454
sVJimmy lee
p4336
I3455
sVIzumi konata
p4337
I3456
sVDark athena 2nd
p4338
I3457
sVNagato yuki EX
p4339
I3125
sVRandy m. green
p4340
I3460
sVChibi nazrin
p4341
I2949
sVDeluxe burter
p4342
I3462
sVDoppo orochi EX3
p4343
I3463
sVCyborg kung fu man
p4344
I4288
sVMissmarvel
p4345
I3464
sVRyu CVS
p4346
I4733
sVRaine
p4347
I3465
sVAthena EX3
p4348
I3466
sVSailor jupiter k
p4349
I3696
sVVh_mami EX
p4350
I3467
sVMaplestory mage
p4351
I3468
sVSpy-dama EX
p4352
I4775
sVGodzilla
p4353
I4329
sVHisui EX
p4354
I2939
sVAiant
p4355
I3469
sVRegin EX2
p4356
I4696
sVJuli
p4357
I3470
sVMayura
p4358
I1377
sVPocket Ryu
p4359
I1772
sVSupreme gogeta
p4360
I4115
sVIronman EX
p4361
I3474
sVMillia
p4362
I3475
sVLloyd irving
p4363
I3476
sVAbobo
p4364
I1413
sVCrawdo
p4365
I1880
sVHaoumaru
p4366
I3479
sVVoltage zero
p4367
I4669
sVThe world of arien
p4368
I3825
sVViolent ryu
p4369
I3480
sVZero hotaru EX3
p4370
I2079
sVLion-o
p4371
I4213
sVShingo EX2
p4372
I2242
sVMandoraf-f
p4373
I3483
sVTouka
p4374
I3484
sVEve silvan
p4375
I4088
sVMai maino
p4376
I3487
sVJecht EX
p4377
I3488
sVNukesaku EX2
p4378
I3489
sVAtsuko tomohara
p4379
I3490
sVRyu Evil
p4380
I3491
sVHeart-armardi
p4381
I3492
sVRajaamaki
p4382
I3827
sVAxl
p4383
I3493
sVMoyomoto
p4384
I4499
sVSanae_x
p4385
I3224
sVRancid
p4386
I3494
sVByrne
p4387
I4295
sVSs3youmu
p4388
I3495
sVKim sueil
p4389
I3496
sVHoujuu nue
p4390
I4216
sVAkiha tohno EX
p4391
I523
sVPocket Tessa
p4392
I4654
sVFujibayashi suzu
p4393
I3499
sVFlamme
p4394
I4829
sVTrouble man
p4395
I4303
sVZuityou no ryukoteam
p4396
I4151
sVOmanyte
p4397
I4309
sVZangief sf2
p4398
I4440
sVLavos spawn
p4399
I4858
sVHugo sf3
p4400
I3502
sVShogun EX3
p4401
I3503
sVSion
p4402
I4819
sVGuile_a
p4403
I3505
sVAura 2nd revival
p4404
I4271
sVToss kong
p4405
I3506
sVIsao jinrai
p4406
I3507
sVRaval
p4407
I1602
sVKaigen
p4408
I4770
sVBarbie
p4409
I4030
sVPuri*princess
p4410
I3511
sVGhiaccio
p4411
I201
sVTsukishima koko
p4412
I1631
sVLili
p4413
I3513
sVKrillin UB22
p4414
I3830
sVCless ndx
p4415
I3515
sVMoriya ex
p4416
I2446
sVRobo-mukai
p4417
I4125
sVKy and sol
p4418
I3516
sVRoll MVC
p4419
I4023
sVKhan EX3
p4420
I4222
sVL.c.kiso
p4421
I3518
sVGer
p4422
I4697
sVAsellus EX
p4423
I3519
sVBig volfogg
p4424
I3520
sVRaiden
p4425
I1714
sVKrayce
p4426
I2778
sVCaptain.cat.kit
p4427
I4827
sVJun
p4428
I4334
sVHinako 2k3
p4429
I3523
sVSpider girl
p4430
I3524
sVDogma
p4431
I4283
sVF91
p4432
I3525
sV7th heaven ciel
p4433
I3526
sVSsj three broli
p4434
I3527
sVKana-chan dhq EX3
p4435
I1752
sVHan baedal
p4436
I3529
sVHuman bo
p4437
I3530
sVSolitary-zero
p4438
I2468
sVJotaro
p4439
I3532
sVGel
p4440
I3533
sVJuri pf
p4441
I3534
sVAkuma shin
p4442
I3535
sVSenna vp
p4443
I3536
sVI-no(ac)
p4444
I3537
sVSannomiya_shiho
p4445
I3539
sVPocket Ibuki
p4446
I321
sVMario 119
p4447
I3541
sVRasetsumaru
p4448
I3542
sVYamame
p4449
I3543
sVStg-zero-
p4450
I3544
sVDragon
p4451
I4361
sVFootee
p4452
I3546
sVTabunne
p4453
I3135
sVAsuka EX2
p4454
I2450
sVGoku EX3
p4455
I4340
sVCci hinako
p4456
I1848
sVKam'lanaut
p4457
I3550
sVFuhashitei
p4458
I3985
sVSuika_ibuki
p4459
I3551
sVVega Mask
p4460
I3552
sVMorrigan EX
p4461
I3553
sVFire_fairy
p4462
I4103
sVAna
p4463
I4196
sVFusagiko
p4464
I3554
sVNouka
p4465
I3555
sVJ.p.polnareff
p4466
I1920
sVFireman EX3
p4467
I3557
sVS.sinclair
p4468
I3558
sVGelonimon
p4469
I3559
sVGiorno giovanna
p4470
I3560
sVHulk mvc2
p4471
I4614
sVAdon f22
p4472
I2414
sVGenma human by jhfer
p4473
I3563
sVLf2 - julian
p4474
I3564
sVRaidou EX
p4475
I4020
sVHiryu
p4476
I1961
sVElirin
p4477
I3567
sVSparta_heika
p4478
I2480
sVAcirno_3.5
p4479
I3569
sVOoze-o
p4480
I3570
sVTia langray
p4481
I4526
sVJubei
p4482
I3571
sVRudra-suija
p4483
I4406
sVShanghai
p4484
I3572
sVRobo rock type-2
p4485
I3573
sVMaster krauser
p4486
I3574
sVUltimate cap
p4487
I4297
sVGoku z2 EX3
p4488
I3575
sVCaptain agent
p4489
I3967
sVSuave dude EX
p4490
I4713
sVSilhouette
p4491
I641
sVWriggle-e
p4492
I3579
sVJin kisaragi
p4493
I3580
sVArthas
p4494
I4644
sVPokita
p4495
I3581
sVD-rugal
p4496
I3582
sVUtsuho_b
p4497
I3583
sVBrahms
p4498
I3584
sVXstranger
p4499
I3585
sVSteve
p4500
I4850
sVLobo
p4501
I3586
sVKang rotd
p4502
I4484
sVUmvc_hulk
p4503
I3588
sVSora com
p4504
I3589
sVShaolon
p4505
I3590
sVSakura Kasugano
p4506
I3591
sVAe86
p4507
I4304
sVNayuta
p4508
I3592
sVSetsuna hsr
p4509
I2390
sVGemini
p4510
I3594
sVGaits
p4511
I2116
sVYoko asagiri
p4512
I3596
sVPiccolo sb
p4513
I3597
sVUnzan&ichirin
p4514
I3598
sVRachel alucard
p4515
I3599
sVExredking
p4516
I4714
sVNaitou ex
p4517
I3601
sVNecochaosblackg666mk2
p4518
I3602
sVMary 2k2
p4519
I4408
sVSailor mercury
p4520
I3603
sVFlygon
p4521
I3604
sVKilla and ren
p4522
I2168
sVArale
p4523
I2188
sVThe creepy clock
p4524
I1769
sVShin EX
p4525
I3608
sVShenlong
p4526
I4672
sVMurakumo-abk
p4527
I3610
sVSpin youmu EX
p4528
I1804
sVDooby dummy
p4529
I3612
sVGeki de oso
p4530
I3613
sVSaba
p4531
I4737
sVNightmare-gamera_ex
p4532
I3614
sVShiratama20
p4533
I3615
sVKinopio EX
p4534
I241
sVDee jay
p4535
I3617
sVFaud
p4536
I3618
sVBoggy b
p4537
I3619
sVHoly strider
p4538
I3620
sVRyoga hibiki
p4539
I3621
sVZankuro
p4540
I3622
sVZangoose
p4541
I3149
sVMichael_roa_valdamjong
p4542
I3623
sVNakoruru
p4543
I4090
sVDesperado+
p4544
I3625
sVKudora
p4545
I3626
sVVenom scorpion
p4546
I3627
sVAvalanche
p4547
I3628
sVAvdol
p4548
I3905
sVMycale
p4549
I2306
sVHatsune miku
p4550
I2310
sVDai rai oh
p4551
I1803
sVShao kahn
p4552
I2316
sVLucifer EX3
p4553
I3633
sVSlash EX
p4554
I3634
sVOswald_deadly
p4555
I4768
sVNagae iku
p4556
I1133
sVAnnie hamilton
p4557
I3636
sVGigant
p4558
I3637
sVAnother kung fu girl z
p4559
I2345
sVKing godzilla
p4560
I4452
sVOrochi yuyuko
p4561
I3640
sVSuper skrull
p4562
I3641
sVMarcia
p4563
I3642
sVAndy_ff3rb
p4564
I3643
sVYtp robotnik
p4565
I4617
sVGuerrilla
p4566
I3644
sVDougster
p4567
I33
sVHashi
p4568
I4148
sVZao-long
p4569
I3647
sVSs6 renfa
p4570
I4541
sVAnother blood
p4571
I3975
sVBad megaman
p4572
I3649
sVDr.gero EX3
p4573
I3650
sVLucky 71113
p4574
I3651
sVOlof
p4575
I4381
sVLf2 - firzen
p4576
I3653
sVNucrear cirno EX
p4577
I4300
sVGreen ranger
p4578
I2405
sVReptile EX2
p4579
I3655
sVKaori&shiori EX
p4580
I2490
sVNameless 02
p4581
I4110
sVSabotage
p4582
I2863
sVMega weapon
p4583
I3658
sVZan-b EX
p4584
I2437
sVRolento
p4585
I2441
sVTitan the great
p4586
I1205
sVM.bison sf2ww
p4587
I3662
sVBaiken(ac)
p4588
I3663
sVRyoko(fhd)
p4589
I3664
sVIshida uryu
p4590
I1817
sVBroken
p4591
I4137
sVChuu
p4592
I1807
sVDiablo
p4593
I4642
sVTin's fernandeath
p4594
I2011
sVBikeman
p4595
I3667
sVKraft
p4596
I3668
sVMash figaro
p4597
I3669
sVAzteca EX
p4598
I2514
sVQ-bee ex
p4599
I3853
sVBlues hablam
p4600
I2520
sVRei EX
p4601
I2525
sVNess EX3
p4602
I3389
sVBilly two moons
p4603
I3673
sVGerdon di yeah
p4604
I887
sVHyper commando team
p4605
I3675
sVChrysalis EX
p4606
I1107
sVDet. garret laurel
p4607
I4262
sVAnaroguma
p4608
I652
sVUshio
p4609
I3678
sVSnow
p4610
I3679
sVTeam reimisen
p4611
I4579
sVIceman SP
p4612
I1653
sVAbyss EX
p4613
I3682
sVMarisa,k
p4614
I552
sVAsuras
p4615
I3684
sVWolvie
p4616
I3685
sVBlack demonica
p4617
I3686
sVLuise EX2
p4618
I3687
sVMarisa EX
p4619
I4134
sVPeketo EX3
p4620
I4036
sVEin
p4621
I3262
sVDeath black shot
p4622
I4759
sVChaka
p4623
I3994
sVSukunyan
p4624
I4849
sVDawn
p4625
I3692
sVBokosuka wars
p4626
I3693
sVVritra
p4627
I3691
sVC.commando
p4628
I3695
sVShaq Diesel
p4629
I4069
sVShen xi
p4630
I4416
sVMaggyo IX
p4631
I3698
sVSaizo_hattori
p4632
I3528
sVFlen_d
p4633
I2677
sVSimple
p4634
I3700
sVNoel vermillion
p4635
I3701
sVEtomo shuko
p4636
I3702
sVKamille
p4637
I3703
sVZaku EX3
p4638
I3704
sVKokesz
p4639
I3705
sVDink smallwood
p4640
I2719
sVEremes_guile
p4641
I1831
sVBlack tiger
p4642
I3707
sVEternal little girl
p4643
I4652
sVMichael jordan
p4644
I2724
sVGikoneko
p4645
I3961
sVGiratina
p4646
I3709
sVKathryne_keyron
p4647
I4174
sVPerfect cell EX3
p4648
I3710
sVDarkman
p4649
I3711
sVAoba
p4650
I4154
sVSeyren_windsor
p4651
I4070
sVEvil ryu ssf'2 plus EX3
p4652
I3145
sVSwordsman
p4653
I4138
sVGohan ssj4
p4654
I4671
sVForte
p4655
I3713
sVNf-kyo
p4656
I3714
sVSho nuff
p4657
I3859
sVKana orikura
p4658
I4212
sVBarts
p4659
I3715
sVKisume EX
p4660
I3716
sVD Chun-li
p4661
I3717
sVAbyss form 1
p4662
I3718
sVTengu man
p4663
I3719
sVWooden_doll
p4664
I3720
sVHomura EX
p4665
I1219
sVGlaceon
p4666
I4681
sVHinata wakaba
p4667
I3722
sVMukai EX3
p4668
I3723
sVKazama kazuki
p4669
I2454
sVKatura hageteru
p4670
I4816
sVShin meep140
p4671
I3725
sVShikyoh
p4672
I3726
sVDinozord EX
p4673
I3727
sVMiko
p4674
I2846
sVAgumon
p4675
I2983
sVZein_dael
p4676
I2150
sVSteely dan
p4677
I3729
sVCelsius
p4678
I4407
sVAsuta-san
p4679
I3730
sVOnslaught 1st
p4680
I3731
sVC3reimu
p4681
I4008
sVHeaddy
p4682
I3733
sVSuper gotenks
p4683
I3734
sVMeirin EX
p4684
I3735
sVKonata EX
p4685
I2745
sVYakui-san
p4686
I3737
sVKou EX
p4687
I720
sVAmon EX2
p4688
I3739
sVHoly akuma
p4689
I4441
sVSkaxl roa
p4690
I3740
sVSasuke storm
p4691
I3741
sVKiruo_v1.18
p4692
I3742
sVAika toarcreat
p4693
I3743
sVCco
p4694
I3744
sVGotenks gt
p4695
I2978
sVTiger
p4696
I4181
sVRyu XIII
p4697
I3746
sVErza scarlet
p4698
I3747
sVDrill asamin
p4699
I3748
sVMami tomoe ai
p4700
I3011
sVNaomi EX2
p4701
I3750
sVSaint-of-silver
p4702
I3752
sVMuaythaiman
p4703
I4448
sVJohnny
p4704
I3501
sVPulse-k
p4705
I4403
sVWhite buffalo EX3
p4706
I4433
sVGod ken
p4707
I4256
sVGeese mk ii
p4708
I884
sVVorgasm
p4709
I3052
sVDemoniho
p4710
I3172
sVSon gohan EX3
p4711
I4349
sVTalon
p4712
I3758
sVCless-f
p4713
I3759
sVRaph
p4714
I3760
sVSayo chan
p4715
I3761
sVZatanna EX3
p4716
I3762
sVHu-ama
p4717
I3763
sVStinko man - 20x6
p4718
I3764
sVGolems
p4719
I4783
sVHeitasupermode
p4720
I3765
sVVergil EX3
p4721
I3766
sVInvader remi
p4722
I3767
sVDao-long
p4723
I28
sVGregorius:nmky
p4724
I3769
sVCarnage MMV
p4725
I3770
sVGreen lantern js
p4726
I4560
sVSakuya_izayoi
p4727
I738
sVJuan
p4728
I3771
sVA-utsuho
p4729
I1220
sVOmega red
p4730
I4017
sVChadha
p4731
I1786
sVHellboy
p4732
I3774
sVSandman
p4733
I3775
sVMakendo
p4734
I3776
sVTestament
p4735
I3870
sVRyo(mkii)
p4736
I4062
sVKamen rider kaixa
p4737
I3777
sVRevlius
p4738
I3778
sVAkatuki zetu
p4739
I3779
sVJuda-(nericya)
p4740
I3871
sVNew Nakoruru
p4741
I3781
sVKagami
p4742
I3782
sVFrostman
p4743
I3783
sVChenshiro
p4744
I3509
sVYukari_swr
p4745
I4314
sVAlexa
p4746
I3786
sVTerry rogers
p4747
I3177
sVPrinny
p4748
I3788
sVDaimon EX2
p4749
I2558
sVGallon EX2
p4750
I4302
sVGhetto warmachine
p4751
I3789
sVAmy
p4752
I4186
sVDark phoenix
p4753
I3790
sVSeth SF4
p4754
I3791
sVBelmont trusdale
p4755
I602
sVCheatman
p4756
I320
sVYouki-so-suika
p4757
I3794
sVCook kawasaki
p4758
I3795
sVShredder
p4759
I3159
sVMillia Rage
p4760
I3310
sVRob lucci
p4761
I3798
sVClara
p4762
I1956
sVKenji
p4763
I3799
sVEva-01
p4764
I3800
sVDark champion
p4765
I2228
sVSagat_a
p4766
I4098
sVS.p.o. ryu
p4767
I2968
sVGreen arrow
p4768
I3804
sVRario
p4769
I4232
sVEva-00
p4770
I3805
sVAdel-haaaaai
p4771
I3806
sVLeviathan
p4772
I3807
sVAnastasia
p4773
I2860
sVSeiya
p4774
I491
sVRockula
p4775
I2848
sVNucrear cirno
p4776
I3923
sVRavange
p4777
I3811
sVYagumo_ex
p4778
I3812
sVJenny
p4779
I3813
sVTen
p4780
I2590
sVDual koa(v0.5.2)
p4781
I3438
sVPoison qyc
p4782
I3816
sVBuggy
p4783
I3817
sVRamda EX3
p4784
I4250
sVAnother blood q
p4785
I3818
sVLuke skywalker
p4786
I3819
sVKirin
p4787
I3820
sVNeji
p4788
I3275
sVKing lion
p4789
I686
sVIkemen
p4790
I3822
sVShaq fu EX3
p4791
I3823
sVAtatatatatatata
p4792
I3824
sVMichelangelo
p4793
I3326
sVSanada kojiroh s-style
p4794
I3485
sVCaster
p4795
I3931
sVGhost nappa EX
p4796
I3828
sVAbareimu
p4797
I4841
sVIvy
p4798
I4876
sVJesse
p4799
I4677
sVAtari dragon
p4800
I3990
sVFilz-rout
p4801
I3510
sVBubsy bobcat
p4802
I3514
sVVertigo
p4803
I3929
sVEleking
p4804
I4188
sVBang EX2
p4805
I3831
sVAoshi
p4806
I2761
sVCable
p4807
I3833
sVLf2 - john
p4808
I3834
sVShinji_san EX
p4809
I3835
sVJulian solo poseidon
p4810
I4047
sVMiyabi
p4811
I3836
sVShaky jake
p4812
I4596
sVViper
p4813
I3170
sVCc iron ryuji
p4814
I4598
sVTorozo
p4815
I3538
sVYuri sakazaki EX3
p4816
I2202
sVMike Haggar
p4817
I3840
sVAbsolute_white_len
p4818
I3841
sVCirno brando
p4819
I3587
sVKanna_kouryu
p4820
I3843
sVSailor venus
p4821
I3810
sVArrange_ayu
p4822
I3844
sVGiant Ultraman
p4823
I586
sVReject no. 253
p4824
I3845
sVShanghai doll
p4825
I3908
sVAsh crimson
p4826
I3846
sVAkashima
p4827
I3847
sVGanjou dan
p4828
I3848
sVShirakawa kotori
p4829
I2678
sVMarin
p4830
I3849
sVMario
p4831
I3850
sVButt-head
p4832
I3851
sVMomo-kirby
p4833
I3852
sVSaya IX
p4834
I961
sVAlt(hana-ai)
p4835
I3855
sVAi EX2
p4836
I3977
sVPill
p4837
I1805
sVZangief cfj
p4838
I3856
sVTakuma
p4839
I3697
sVKratos
p4840
I4599
sVWhite len k
p4841
I3858
sVSagat f22
p4842
I2020
sVKim kaphwan CVS2
p4843
I539
sVAce
p4844
I3861
sVGn-pioneer-r
p4845
I4223
sVProfessor x
p4846
I3863
sVCode-holder
p4847
I4506
sVR.jackal
p4848
I3864
sVRegina
p4849
I4503
sVBlue colonel
p4850
I3865
sVGades
p4851
I3866
sVTain-ren
p4852
I3867
sVKarin
p4853
I3868
sVNightwolf
p4854
I3772
sVKazuya
p4855
I1588
sVSailor moon k
p4856
I3780
sVKamui tenrou
p4857
I3609
sVTamara EX2
p4858
I2113
sVBoring vigilante EX3
p4859
I4353
sVFake okami
p4860
I4366
sVFulgore
p4861
I3882
sVSakon
p4862
I2658
sVWell
p4863
I3803
sVArturo
p4864
I3872
sVErmac
p4865
I3873
sVRyoko
p4866
I3874
sVPrivate
p4867
I3875
sVDocock
p4868
I4773
sVNightmare gamera
p4869
I4422
sVOpera elmer
p4870
I3878
sVGatocyu
p4871
I3879
sVIk borodin
p4872
I4470
sVSue-zo
p4873
I3880
sVGoku ssj5
p4874
I3881
sVHugo andore jr.
p4875
I3606
sVGoku ssj3
p4876
I4717
sVAgeha
p4877
I3884
sVDaiyousei EX
p4878
I3885
sa(dp4879
I0
g2
sI1
g4
sI2
g5
sI3
g6
sI4
g7
sI5
g8
sI6
g9
sI7
g10
sI8
g11
sI9
g12
sI10
g13
sI11
g2303
sI12
g16
sI13
g17
sI14
g19
sI15
g20
sI16
g21
sI17
g22
sI18
g23
sI19
g24
sI20
g25
sI21
g26
sI22
g27
sI23
g28
sI24
g29
sI25
g30
sI26
g4113
sI27
g31
sI28
g4723
sI29
g33
sI30
g34
sI31
g35
sI32
g36
sI33
g4567
sI34
g39
sI35
g2309
sI36
g41
sI37
g42
sI38
g43
sI39
g44
sI40
g45
sI41
g46
sI42
g48
sI43
g49
sI44
g2999
sI45
g52
sI46
g54
sI47
g56
sI48
g317
sI49
g58
sI50
g59
sI51
g60
sI52
g1551
sI53
g66
sI54
g67
sI55
g68
sI56
g69
sI57
g2313
sI58
g71
sI59
g1552
sI60
g73
sI61
g74
sI62
g2314
sI63
g76
sI64
g78
sI65
g79
sI66
g80
sI67
g81
sI68
g83
sI69
g4026
sI70
g85
sI71
g2317
sI72
g87
sI73
g88
sI74
g770
sI75
g90
sI76
g92
sI77
g3946
sI78
g94
sI79
g97
sI80
g98
sI81
g101
sI82
g104
sI83
g105
sI84
g107
sI85
g108
sI86
g111
sI87
g112
sI88
g113
sI89
g114
sI90
g115
sI91
g118
sI92
g119
sI93
g120
sI94
g121
sI95
g122
sI96
g123
sI97
g124
sI98
g125
sI99
g127
sI100
g128
sI101
g129
sI102
g131
sI103
g132
sI104
g3150
sI105
g134
sI106
g135
sI107
g136
sI108
g138
sI109
g139
sI110
g140
sI111
g141
sI112
g142
sI113
g144
sI114
g3955
sI115
g145
sI116
g146
sI117
g148
sI118
g149
sI119
g151
sI120
g152
sI121
g153
sI122
g154
sI123
g155
sI124
g157
sI125
g158
sI126
g159
sI127
g160
sI128
g161
sI129
g163
sI130
g164
sI131
g165
sI132
g3160
sI133
g168
sI134
g170
sI135
g171
sI136
g172
sI137
g173
sI138
g174
sI139
g178
sI140
g179
sI141
g180
sI142
g181
sI143
g498
sI144
g183
sI145
g186
sI146
g2721
sI147
g3163
sI148
g190
sI149
g191
sI150
g192
sI151
g193
sI152
g194
sI153
g195
sI154
g196
sI155
g197
sI156
g1245
sI157
g199
sI158
g200
sI159
g201
sI160
g202
sI161
g2338
sI162
g204
sI163
g206
sI164
g207
sI165
g2339
sI166
g209
sI167
g210
sI168
g211
sI169
g212
sI170
g214
sI171
g215
sI172
g216
sI173
g217
sI174
g218
sI175
g219
sI176
g220
sI177
g221
sI178
g223
sI179
g224
sI180
g3366
sI181
g225
sI182
g227
sI183
g228
sI184
g3581
sI185
g229
sI186
g230
sI187
g231
sI188
g232
sI189
g233
sI190
g234
sI191
g235
sI192
g236
sI193
g3776
sI194
g237
sI195
g3727
sI196
g239
sI197
g242
sI198
g243
sI199
g244
sI200
g245
sI201
g4411
sI202
g248
sI203
g249
sI204
g250
sI205
g251
sI206
g252
sI207
g253
sI208
g255
sI209
g256
sI210
g258
sI211
g259
sI212
g262
sI213
g263
sI214
g264
sI215
g265
sI216
g268
sI217
g269
sI218
g270
sI219
g271
sI220
g2949
sI221
g273
sI222
g274
sI223
g276
sI224
g277
sI225
g279
sI226
g280
sI227
g281
sI228
g283
sI229
g284
sI230
g285
sI231
g287
sI232
g288
sI233
g290
sI234
g291
sI235
g292
sI236
g294
sI237
g295
sI238
g296
sI239
g298
sI240
g299
sI241
g4534
sI242
g302
sI243
g303
sI244
g304
sI245
g305
sI246
g306
sI247
g307
sI248
g310
sI249
g311
sI250
g312
sI251
g4071
sI252
g314
sI253
g315
sI254
g316
sI255
g57
sI256
g1590
sI257
g319
sI258
g3197
sI259
g321
sI260
g322
sI261
g323
sI262
g325
sI263
g326
sI264
g330
sI265
g2368
sI266
g333
sI267
g334
sI268
g336
sI269
g337
sI270
g338
sI271
g4251
sI272
g342
sI273
g343
sI274
g345
sI275
g346
sI276
g347
sI277
g349
sI278
g351
sI279
g352
sI280
g355
sI281
g356
sI282
g357
sI283
g358
sI284
g359
sI285
g360
sI286
g361
sI287
g362
sI288
g364
sI289
g365
sI290
g366
sI291
g368
sI292
g369
sI293
g748
sI294
g371
sI295
g372
sI296
g375
sI297
g376
sI298
g377
sI299
g378
sI300
g379
sI301
g380
sI302
g381
sI303
g3233
sI304
g382
sI305
g384
sI306
g3726
sI307
g386
sI308
g387
sI309
g388
sI310
g389
sI311
g390
sI312
g4088
sI313
g392
sI314
g393
sI315
g394
sI316
g395
sI317
g396
sI318
g397
sI319
g398
sI320
g4756
sI321
g4446
sI322
g3623
sI323
g402
sI324
g404
sI325
g405
sI326
g408
sI327
g3219
sI328
g412
sI329
g413
sI330
g414
sI331
g1605
sI332
g416
sI333
g417
sI334
g2381
sI335
g1606
sI336
g421
sI337
g3221
sI338
g423
sI339
g424
sI340
g425
sI341
g427
sI342
g430
sI343
g431
sI344
g432
sI345
g433
sI346
g434
sI347
g435
sI348
g436
sI349
g437
sI350
g438
sI351
g440
sI352
g441
sI353
g3694
sI354
g445
sI355
g1518
sI356
g446
sI357
g448
sI358
g579
sI359
g452
sI360
g453
sI361
g454
sI362
g455
sI363
g460
sI364
g461
sI365
g462
sI366
g463
sI367
g464
sI368
g465
sI369
g467
sI370
g468
sI371
g469
sI372
g470
sI373
g3767
sI374
g2387
sI375
g472
sI376
g473
sI377
g474
sI378
g475
sI379
g476
sI380
g478
sI381
g479
sI382
g480
sI383
g481
sI384
g482
sI385
g484
sI386
g485
sI387
g487
sI388
g488
sI389
g489
sI390
g491
sI391
g492
sI392
g493
sI393
g495
sI394
g496
sI395
g499
sI396
g4111
sI397
g503
sI398
g504
sI399
g505
sI400
g508
sI401
g509
sI402
g511
sI403
g512
sI404
g513
sI405
g2289
sI406
g515
sI407
g516
sI408
g517
sI409
g518
sI410
g520
sI411
g521
sI412
g3351
sI413
g525
sI414
g526
sI415
g527
sI416
g530
sI417
g533
sI418
g534
sI419
g535
sI420
g536
sI421
g3488
sI422
g539
sI423
g540
sI424
g541
sI425
g543
sI426
g544
sI427
g4121
sI428
g546
sI429
g547
sI430
g548
sI431
g4167
sI432
g550
sI433
g551
sI434
g552
sI435
g553
sI436
g554
sI437
g556
sI438
g557
sI439
g559
sI440
g561
sI441
g562
sI442
g631
sI443
g2499
sI444
g565
sI445
g567
sI446
g569
sI447
g506
sI448
g573
sI449
g3907
sI450
g575
sI451
g576
sI452
g3771
sI453
g581
sI454
g582
sI455
g583
sI456
g585
sI457
g586
sI458
g587
sI459
g589
sI460
g590
sI461
g592
sI462
g593
sI463
g594
sI464
g595
sI465
g3345
sI466
g597
sI467
g598
sI468
g2408
sI469
g602
sI470
g2081
sI471
g603
sI472
g604
sI473
g3539
sI474
g606
sI475
g607
sI476
g608
sI477
g610
sI478
g611
sI479
g613
sI480
g614
sI481
g615
sI482
g616
sI483
g617
sI484
g618
sI485
g619
sI486
g620
sI487
g623
sI488
g624
sI489
g626
sI490
g627
sI491
g4774
sI492
g629
sI493
g15
sI494
g632
sI495
g637
sI496
g638
sI497
g640
sI498
g641
sI499
g642
sI500
g644
sI501
g645
sI502
g672
sI503
g650
sI504
g651
sI505
g652
sI506
g653
sI507
g654
sI508
g2418
sI509
g3936
sI510
g657
sI511
g658
sI512
g659
sI513
g660
sI514
g4141
sI515
g662
sI516
g663
sI517
g664
sI518
g665
sI519
g666
sI520
g667
sI521
g669
sI522
g671
sI523
g4391
sI524
g673
sI525
g803
sI526
g675
sI527
g676
sI528
g677
sI529
g679
sI530
g681
sI531
g682
sI532
g683
sI533
g685
sI534
g686
sI535
g687
sI536
g688
sI537
g2423
sI538
g692
sI539
g4843
sI540
g693
sI541
g694
sI542
g695
sI543
g698
sI544
g700
sI545
g701
sI546
g704
sI547
g707
sI548
g708
sI549
g709
sI550
g710
sI551
g711
sI552
g4614
sI553
g712
sI554
g714
sI555
g715
sI556
g716
sI557
g717
sI558
g2427
sI559
g4150
sI560
g720
sI561
g721
sI562
g3281
sI563
g723
sI564
g725
sI565
g726
sI566
g728
sI567
g729
sI568
g730
sI569
g731
sI570
g732
sI571
g162
sI572
g734
sI573
g735
sI574
g736
sI575
g737
sI576
g738
sI577
g2431
sI578
g740
sI579
g741
sI580
g3298
sI581
g743
sI582
g1869
sI583
g745
sI584
g746
sI585
g747
sI586
g4823
sI587
g749
sI588
g750
sI589
g752
sI590
g756
sI591
g757
sI592
g758
sI593
g760
sI594
g761
sI595
g763
sI596
g764
sI597
g765
sI598
g766
sI599
g767
sI600
g768
sI601
g769
sI602
g4755
sI603
g771
sI604
g3740
sI605
g773
sI606
g775
sI607
g776
sI608
g777
sI609
g778
sI610
g779
sI611
g780
sI612
g781
sI613
g782
sI614
g2438
sI615
g784
sI616
g785
sI617
g786
sI618
g787
sI619
g788
sI620
g790
sI621
g791
sI622
g792
sI623
g4162
sI624
g794
sI625
g796
sI626
g246
sI627
g2442
sI628
g800
sI629
g801
sI630
g804
sI631
g805
sI632
g806
sI633
g3633
sI634
g808
sI635
g1663
sI636
g810
sI637
g811
sI638
g812
sI639
g814
sI640
g815
sI641
g4491
sI642
g818
sI643
g821
sI644
g822
sI645
g823
sI646
g824
sI647
g825
sI648
g826
sI649
g827
sI650
g2764
sI651
g829
sI652
g4608
sI653
g831
sI654
g832
sI655
g3302
sI656
g835
sI657
g1668
sI658
g838
sI659
g2451
sI660
g839
sI661
g840
sI662
g841
sI663
g2461
sI664
g842
sI665
g843
sI666
g1669
sI667
g3304
sI668
g1531
sI669
g849
sI670
g851
sI671
g852
sI672
g853
sI673
g3306
sI674
g857
sI675
g858
sI676
g859
sI677
g862
sI678
g863
sI679
g866
sI680
g867
sI681
g1093
sI682
g869
sI683
g870
sI684
g871
sI685
g872
sI686
g4789
sI687
g874
sI688
g876
sI689
g878
sI690
g1616
sI691
g880
sI692
g881
sI693
g1676
sI694
g883
sI695
g884
sI696
g885
sI697
g886
sI698
g887
sI699
g888
sI700
g2932
sI701
g891
sI702
g892
sI703
g893
sI704
g895
sI705
g896
sI706
g897
sI707
g898
sI708
g901
sI709
g905
sI710
g906
sI711
g907
sI712
g908
sI713
g909
sI714
g910
sI715
g911
sI716
g912
sI717
g913
sI718
g914
sI719
g915
sI720
g4687
sI721
g916
sI722
g917
sI723
g918
sI724
g3318
sI725
g920
sI726
g921
sI727
g970
sI728
g923
sI729
g2045
sI730
g926
sI731
g927
sI732
g928
sI733
g1001
sI734
g930
sI735
g931
sI736
g932
sI737
g933
sI738
g4727
sI739
g937
sI740
g938
sI741
g939
sI742
g940
sI743
g941
sI744
g3200
sI745
g942
sI746
g943
sI747
g944
sI748
g945
sI749
g946
sI750
g947
sI751
g948
sI752
g949
sI753
g951
sI754
g952
sI755
g953
sI756
g954
sI757
g955
sI758
g956
sI759
g1164
sI760
g958
sI761
g1175
sI762
g1182
sI763
g962
sI764
g963
sI765
g965
sI766
g968
sI767
g969
sI768
g2296
sI769
g971
sI770
g2191
sI771
g973
sI772
g974
sI773
g975
sI774
g1688
sI775
g978
sI776
g979
sI777
g981
sI778
g1291
sI779
g983
sI780
g985
sI781
g987
sI782
g1322
sI783
g990
sI784
g991
sI785
g1335
sI786
g993
sI787
g994
sI788
g995
sI789
g996
sI790
g997
sI791
g998
sI792
g999
sI793
g1000
sI794
g929
sI795
g1002
sI796
g1003
sI797
g1004
sI798
g1006
sI799
g1009
sI800
g3869
sI801
g1012
sI802
g1013
sI803
g3332
sI804
g1015
sI805
g1017
sI806
g1018
sI807
g4213
sI808
g1020
sI809
g1021
sI810
g2347
sI811
g1556
sI812
g1026
sI813
g1027
sI814
g1028
sI815
g1030
sI816
g1031
sI817
g1033
sI818
g1034
sI819
g1036
sI820
g1037
sI821
g1038
sI822
g1039
sI823
g1040
sI824
g1041
sI825
g1042
sI826
g1043
sI827
g1044
sI828
g1046
sI829
g1047
sI830
g936
sI831
g1048
sI832
g1049
sI833
g1050
sI834
g1700
sI835
g1052
sI836
g1053
sI837
g1054
sI838
g1055
sI839
g1056
sI840
g3338
sI841
g1058
sI842
g1059
sI843
g1060
sI844
g1061
sI845
g1063
sI846
g2908
sI847
g3340
sI848
g1066
sI849
g1067
sI850
g1069
sI851
g2487
sI852
g1071
sI853
g1072
sI854
g1073
sI855
g1074
sI856
g1075
sI857
g1076
sI858
g1077
sI859
g1078
sI860
g3342
sI861
g1081
sI862
g2489
sI863
g1084
sI864
g1085
sI865
g1086
sI866
g4225
sI867
g1089
sI868
g2491
sI869
g1906
sI870
g1094
sI871
g3346
sI872
g1098
sI873
g1101
sI874
g1102
sI875
g1103
sI876
g1105
sI877
g1107
sI878
g1108
sI879
g1110
sI880
g1111
sI881
g2495
sI882
g1113
sI883
g1114
sI884
g4708
sI885
g1118
sI886
g1119
sI887
g4604
sI888
g1120
sI889
g1709
sI890
g1122
sI891
g1123
sI892
g1124
sI893
g1126
sI894
g3702
sI895
g1127
sI896
g1129
sI897
g1130
sI898
g1131
sI899
g1132
sI900
g1133
sI901
g1134
sI902
g1135
sI903
g1136
sI904
g1137
sI905
g1138
sI906
g1139
sI907
g1141
sI908
g182
sI909
g1143
sI910
g1144
sI911
g1145
sI912
g1146
sI913
g2248
sI914
g1148
sI915
g1149
sI916
g1151
sI917
g1152
sI918
g1153
sI919
g1154
sI920
g1156
sI921
g2297
sI922
g1160
sI923
g4011
sI924
g1161
sI925
g1162
sI926
g1163
sI927
g1165
sI928
g1166
sI929
g2507
sI930
g1169
sI931
g1170
sI932
g1171
sI933
g1172
sI934
g2388
sI935
g1717
sI936
g1176
sI937
g1177
sI938
g1179
sI939
g4010
sI940
g961
sI941
g1183
sI942
g1185
sI943
g1187
sI944
g1188
sI945
g1189
sI946
g50
sI947
g3550
sI948
g1191
sI949
g1193
sI950
g1195
sI951
g1196
sI952
g1197
sI953
g1198
sI954
g3363
sI955
g1200
sI956
g1202
sI957
g2594
sI958
g1205
sI959
g668
sI960
g1207
sI961
g4834
sI962
g1208
sI963
g1209
sI964
g1210
sI965
g1211
sI966
g1212
sI967
g1213
sI968
g1215
sI969
g1410
sI970
g1216
sI971
g1217
sI972
g4252
sI973
g1219
sI974
g1220
sI975
g1221
sI976
g3738
sI977
g2716
sI978
g1224
sI979
g1225
sI980
g1726
sI981
g1227
sI982
g1228
sI983
g1229
sI984
g1230
sI985
g3369
sI986
g1233
sI987
g1234
sI988
g1235
sI989
g1236
sI990
g1237
sI991
g1238
sI992
g1239
sI993
g1240
sI994
g1241
sI995
g1242
sI996
g1244
sI997
g198
sI998
g1246
sI999
g1247
sI1000
g1248
sI1001
g1249
sI1002
g1250
sI1003
g1251
sI1004
g1252
sI1005
g2213
sI1006
g1254
sI1007
g1255
sI1008
g1256
sI1009
g4260
sI1010
g1258
sI1011
g1259
sI1012
g2936
sI1013
g1731
sI1014
g1262
sI1015
g1263
sI1016
g1264
sI1017
g1265
sI1018
g1266
sI1019
g1267
sI1020
g1269
sI1021
g1270
sI1022
g1271
sI1023
g1272
sI1024
g1273
sI1025
g1274
sI1026
g1276
sI1027
g2698
sI1028
g1278
sI1029
g1279
sI1030
g1280
sI1031
g1282
sI1032
g1283
sI1033
g1284
sI1034
g1285
sI1035
g1286
sI1036
g1287
sI1037
g1288
sI1038
g1289
sI1039
g1290
sI1040
g982
sI1041
g1292
sI1042
g1294
sI1043
g1295
sI1044
g1298
sI1045
g1299
sI1046
g1300
sI1047
g1303
sI1048
g1304
sI1049
g1305
sI1050
g1307
sI1051
g3377
sI1052
g1310
sI1053
g3041
sI1054
g1312
sI1055
g1313
sI1056
g1314
sI1057
g1316
sI1058
g1317
sI1059
g4178
sI1060
g1319
sI1061
g1320
sI1062
g868
sI1063
g1743
sI1064
g1324
sI1065
g1325
sI1066
g1326
sI1067
g1328
sI1068
g1329
sI1069
g1330
sI1070
g1331
sI1071
g1332
sI1072
g1334
sI1073
g992
sI1074
g1336
sI1075
g1337
sI1076
g1338
sI1077
g1339
sI1078
g1340
sI1079
g1341
sI1080
g1342
sI1081
g1343
sI1082
g3499
sI1083
g1345
sI1084
g1346
sI1085
g1349
sI1086
g1351
sI1087
g1352
sI1088
g1353
sI1089
g1354
sI1090
g1721
sI1091
g1355
sI1092
g1357
sI1093
g3386
sI1094
g1360
sI1095
g4280
sI1096
g1362
sI1097
g1363
sI1098
g3387
sI1099
g1367
sI1100
g1369
sI1101
g2535
sI1102
g1371
sI1103
g1372
sI1104
g1373
sI1105
g1374
sI1106
g3390
sI1107
g4606
sI1108
g1379
sI1109
g1381
sI1110
g4285
sI1111
g1383
sI1112
g1384
sI1113
g1386
sI1114
g3918
sI1115
g1388
sI1116
g1389
sI1117
g3859
sI1118
g1391
sI1119
g1392
sI1120
g1393
sI1121
g1394
sI1122
g1397
sI1123
g1398
sI1124
g1400
sI1125
g3917
sI1126
g1402
sI1127
g1403
sI1128
g1405
sI1129
g1406
sI1130
g1407
sI1131
g1408
sI1132
g1409
sI1133
g4556
sI1134
g1411
sI1135
g1412
sI1136
g1413
sI1137
g1414
sI1138
g1417
sI1139
g4294
sI1140
g1419
sI1141
g1420
sI1142
g1421
sI1143
g1423
sI1144
g1424
sI1145
g1426
sI1146
g3403
sI1147
g1428
sI1148
g1429
sI1149
g1430
sI1150
g1766
sI1151
g1434
sI1152
g4296
sI1153
g1436
sI1154
g1437
sI1155
g1438
sI1156
g1439
sI1157
g1440
sI1158
g4297
sI1159
g1442
sI1160
g1443
sI1161
g1444
sI1162
g1446
sI1163
g1447
sI1164
g500
sI1165
g1449
sI1166
g2457
sI1167
g1450
sI1168
g1451
sI1169
g1453
sI1170
g1454
sI1171
g1455
sI1172
g1456
sI1173
g1459
sI1174
g1460
sI1175
g1461
sI1176
g2552
sI1177
g1462
sI1178
g1464
sI1179
g1465
sI1180
g1466
sI1181
g1467
sI1182
g1468
sI1183
g1469
sI1184
g1895
sI1185
g1472
sI1186
g1473
sI1187
g1475
sI1188
g1476
sI1189
g96
sI1190
g1482
sI1191
g3143
sI1192
g1347
sI1193
g1486
sI1194
g300
sI1195
g1488
sI1196
g1489
sI1197
g3413
sI1198
g1491
sI1199
g1492
sI1200
g1493
sI1201
g1495
sI1202
g1496
sI1203
g1498
sI1204
g1499
sI1205
g4586
sI1206
g1502
sI1207
g1505
sI1208
g1506
sI1209
g1507
sI1210
g2560
sI1211
g1510
sI1212
g1511
sI1213
g1512
sI1214
g1513
sI1215
g1514
sI1216
g1515
sI1217
g1516
sI1218
g1092
sI1219
g4665
sI1220
g4729
sI1221
g1523
sI1222
g1524
sI1223
g1525
sI1224
g1526
sI1225
g297
sI1226
g1530
sI1227
g1532
sI1228
g538
sI1229
g1533
sI1230
g1534
sI1231
g1536
sI1232
g1022
sI1233
g1539
sI1234
g1540
sI1235
g1541
sI1236
g1542
sI1237
g1543
sI1238
g1544
sI1239
g1545
sI1240
g1546
sI1241
g4298
sI1242
g1548
sI1243
g1550
sI1244
g63
sI1245
g72
sI1246
g3424
sI1247
g1554
sI1248
g1024
sI1249
g1557
sI1250
g1558
sI1251
g1559
sI1252
g1561
sI1253
g2870
sI1254
g1563
sI1255
g1564
sI1256
g1565
sI1257
g1568
sI1258
g1570
sI1259
g1571
sI1260
g1572
sI1261
g1573
sI1262
g4324
sI1263
g2573
sI1264
g1577
sI1265
g1578
sI1266
g1579
sI1267
g1581
sI1268
g1583
sI1269
g1584
sI1270
g1585
sI1271
g1586
sI1272
g1587
sI1273
g1588
sI1274
g1589
sI1275
g4134
sI1276
g1593
sI1277
g1594
sI1278
g2578
sI1279
g4332
sI1280
g1602
sI1281
g3636
sI1282
g1603
sI1283
g407
sI1284
g415
sI1285
g420
sI1286
g1610
sI1287
g1611
sI1288
g1612
sI1289
g1613
sI1290
g1614
sI1291
g1615
sI1292
g1617
sI1293
g1794
sI1294
g1624
sI1295
g514
sI1296
g4237
sI1297
g1629
sI1298
g1630
sI1299
g1631
sI1300
g1632
sI1301
g1633
sI1302
g1635
sI1303
g3445
sI1304
g1637
sI1305
g3605
sI1306
g1640
sI1307
g1642
sI1308
g1643
sI1309
g1644
sI1310
g1796
sI1311
g1647
sI1312
g1648
sI1313
g2840
sI1314
g2586
sI1315
g1651
sI1316
g2715
sI1317
g1654
sI1318
g1922
sI1319
g1799
sI1320
g1656
sI1321
g1657
sI1322
g2589
sI1323
g1659
sI1324
g1661
sI1325
g809
sI1326
g813
sI1327
g3441
sI1328
g1667
sI1329
g836
sI1330
g845
sI1331
g1670
sI1332
g1671
sI1333
g1672
sI1334
g1800
sI1335
g1674
sI1336
g1675
sI1337
g882
sI1338
g1677
sI1339
g1678
sI1340
g1679
sI1341
g3807
sI1342
g1681
sI1343
g1682
sI1344
g1683
sI1345
g1684
sI1346
g3481
sI1347
g1686
sI1348
g1687
sI1349
g977
sI1350
g1689
sI1351
g1690
sI1352
g1691
sI1353
g1693
sI1354
g1695
sI1355
g1696
sI1356
g1698
sI1357
g1699
sI1358
g3698
sI1359
g1181
sI1360
g1702
sI1361
g1703
sI1362
g354
sI1363
g1705
sI1364
g1807
sI1365
g1090
sI1366
g1708
sI1367
g1121
sI1368
g1710
sI1369
g1712
sI1370
g1716
sI1371
g1174
sI1372
g1718
sI1373
g4070
sI1374
g1190
sI1375
g1722
sI1376
g1723
sI1377
g4358
sI1378
g1724
sI1379
g1725
sI1380
g1226
sI1381
g1727
sI1382
g1729
sI1383
g2037
sI1384
g1064
sI1385
g1732
sI1386
g1733
sI1387
g1734
sI1388
g1738
sI1389
g1739
sI1390
g1740
sI1391
g1741
sI1392
g1742
sI1393
g1323
sI1394
g1744
sI1395
g1745
sI1396
g1746
sI1397
g1747
sI1398
g1748
sI1399
g1749
sI1400
g1750
sI1401
g1751
sI1402
g3730
sI1403
g3472
sI1404
g1754
sI1405
g1755
sI1406
g1756
sI1407
g1757
sI1408
g1760
sI1409
g1761
sI1410
g1762
sI1411
g1763
sI1412
g1764
sI1413
g4364
sI1414
g2459
sI1415
g1770
sI1416
g1771
sI1417
g1818
sI1418
g1774
sI1419
g1776
sI1420
g1777
sI1421
g91
sI1422
g1780
sI1423
g1781
sI1424
g3993
sI1425
g1782
sI1426
g1783
sI1427
g1784
sI1428
g1785
sI1429
g1296
sI1430
g1788
sI1431
g1789
sI1432
g1791
sI1433
g1792
sI1434
g1620
sI1435
g1645
sI1436
g1797
sI1437
g1798
sI1438
g850
sI1439
g1673
sI1440
g1801
sI1441
g1802
sI1442
g1803
sI1443
g1805
sI1444
g1706
sI1445
g1808
sI1446
g1809
sI1447
g1810
sI1448
g1812
sI1449
g1826
sI1450
g1815
sI1451
g1816
sI1452
g1772
sI1453
g1819
sI1454
g1820
sI1455
g1821
sI1456
g1822
sI1457
g1823
sI1458
g1824
sI1459
g1825
sI1460
g1813
sI1461
g1831
sI1462
g3485
sI1463
g1829
sI1464
g1830
sI1465
g1847
sI1466
g1832
sI1467
g1833
sI1468
g1834
sI1469
g1837
sI1470
g1838
sI1471
g1840
sI1472
g1841
sI1473
g1842
sI1474
g1843
sI1475
g1844
sI1476
g4181
sI1477
g1846
sI1478
g1848
sI1479
g2267
sI1480
g1852
sI1481
g1854
sI1482
g1855
sI1483
g1857
sI1484
g1858
sI1485
g1859
sI1486
g1860
sI1487
g3492
sI1488
g1864
sI1489
g1865
sI1490
g1866
sI1491
g1867
sI1492
g1868
sI1493
g1870
sI1494
g1871
sI1495
g1872
sI1496
g1873
sI1497
g1874
sI1498
g3297
sI1499
g3493
sI1500
g1876
sI1501
g1877
sI1502
g1878
sI1503
g1879
sI1504
g1881
sI1505
g1882
sI1506
g1883
sI1507
g3087
sI1508
g1887
sI1509
g1888
sI1510
g1889
sI1511
g1891
sI1512
g1892
sI1513
g1894
sI1514
g1896
sI1515
g1898
sI1516
g1899
sI1517
g1901
sI1518
g1902
sI1519
g1903
sI1520
g1904
sI1521
g2634
sI1522
g1909
sI1523
g1910
sI1524
g1911
sI1525
g1912
sI1526
g1913
sI1527
g1915
sI1528
g1916
sI1529
g1917
sI1530
g1918
sI1531
g1919
sI1532
g1920
sI1533
g2396
sI1534
g1924
sI1535
g1925
sI1536
g1926
sI1537
g1928
sI1538
g1929
sI1539
g1930
sI1540
g2458
sI1541
g1932
sI1542
g1934
sI1543
g1935
sI1544
g1936
sI1545
g1938
sI1546
g1940
sI1547
g1941
sI1548
g1942
sI1549
g1943
sI1550
g1944
sI1551
g1945
sI1552
g1948
sI1553
g1949
sI1554
g3259
sI1555
g3511
sI1556
g1952
sI1557
g1953
sI1558
g1955
sI1559
g2610
sI1560
g4171
sI1561
g1958
sI1562
g2724
sI1563
g1959
sI1564
g3089
sI1565
g1962
sI1566
g1963
sI1567
g2659
sI1568
g1965
sI1569
g1966
sI1570
g1967
sI1571
g1970
sI1572
g1973
sI1573
g1976
sI1574
g1977
sI1575
g1979
sI1576
g2648
sI1577
g1980
sI1578
g4006
sI1579
g2778
sI1580
g1984
sI1581
g1985
sI1582
g1986
sI1583
g2808
sI1584
g1988
sI1585
g1990
sI1586
g1992
sI1587
g1994
sI1588
g4855
sI1589
g1996
sI1590
g1997
sI1591
g1998
sI1592
g1999
sI1593
g2001
sI1594
g2002
sI1595
g2003
sI1596
g2004
sI1597
g2005
sI1598
g2006
sI1599
g3520
sI1600
g2008
sI1601
g2009
sI1602
g4407
sI1603
g2012
sI1604
g2013
sI1605
g2014
sI1606
g2015
sI1607
g2016
sI1608
g2017
sI1609
g2018
sI1610
g2985
sI1611
g2020
sI1612
g2021
sI1613
g2656
sI1614
g2023
sI1615
g3523
sI1616
g2024
sI1617
g2027
sI1618
g2029
sI1619
g2030
sI1620
g2031
sI1621
g2657
sI1622
g2034
sI1623
g2035
sI1624
g2036
sI1625
g819
sI1626
g2038
sI1627
g2039
sI1628
g2040
sI1629
g2041
sI1630
g2043
sI1631
g4412
sI1632
g2044
sI1633
g2046
sI1634
g2047
sI1635
g2048
sI1636
g3653
sI1637
g2052
sI1638
g2053
sI1639
g2054
sI1640
g2055
sI1641
g2056
sI1642
g2057
sI1643
g2058
sI1644
g2059
sI1645
g2060
sI1646
g2921
sI1647
g2061
sI1648
g2062
sI1649
g2063
sI1650
g2064
sI1651
g2065
sI1652
g2066
sI1653
g4612
sI1654
g2665
sI1655
g2068
sI1656
g2069
sI1657
g2070
sI1658
g2072
sI1659
g2759
sI1660
g3533
sI1661
g2075
sI1662
g2076
sI1663
g2077
sI1664
g2078
sI1665
g2079
sI1666
g2080
sI1667
g3474
sI1668
g2082
sI1669
g2083
sI1670
g2084
sI1671
g2085
sI1672
g2086
sI1673
g2087
sI1674
g2088
sI1675
g2089
sI1676
g2090
sI1677
g2091
sI1678
g2092
sI1679
g2093
sI1680
g2094
sI1681
g2095
sI1682
g2096
sI1683
g3719
sI1684
g2098
sI1685
g2101
sI1686
g1646
sI1687
g3612
sI1688
g2104
sI1689
g2105
sI1690
g2107
sI1691
g2108
sI1692
g2109
sI1693
g2110
sI1694
g2111
sI1695
g3607
sI1696
g2113
sI1697
g3540
sI1698
g2114
sI1699
g2115
sI1700
g2117
sI1701
g2118
sI1702
g2119
sI1703
g2120
sI1704
g2121
sI1705
g2122
sI1706
g2124
sI1707
g3922
sI1708
g2127
sI1709
g3544
sI1710
g2130
sI1711
g2131
sI1712
g2132
sI1713
g2133
sI1714
g4425
sI1715
g2135
sI1716
g2136
sI1717
g2677
sI1718
g2139
sI1719
g2140
sI1720
g2142
sI1721
g2144
sI1722
g2145
sI1723
g2146
sI1724
g2147
sI1725
g1333
sI1726
g647
sI1727
g2151
sI1728
g2153
sI1729
g2154
sI1730
g2156
sI1731
g2157
sI1732
g2159
sI1733
g2160
sI1734
g2164
sI1735
g2165
sI1736
g2166
sI1737
g2167
sI1738
g2168
sI1739
g2169
sI1740
g2171
sI1741
g2692
sI1742
g2173
sI1743
g2174
sI1744
g2175
sI1745
g2177
sI1746
g2178
sI1747
g2179
sI1748
g2180
sI1749
g2181
sI1750
g2182
sI1751
g2183
sI1752
g4435
sI1753
g2184
sI1754
g2185
sI1755
g2519
sI1756
g2188
sI1757
g2189
sI1758
g4209
sI1759
g2194
sI1760
g2196
sI1761
g2197
sI1762
g2198
sI1763
g2199
sI1764
g2200
sI1765
g2202
sI1766
g2204
sI1767
g2205
sI1768
g2206
sI1769
g4524
sI1770
g2210
sI1771
g2211
sI1772
g4359
sI1773
g2212
sI1774
g3558
sI1775
g2215
sI1776
g2216
sI1777
g2217
sI1778
g3559
sI1779
g2219
sI1780
g2220
sI1781
g2221
sI1782
g2222
sI1783
g2224
sI1784
g2225
sI1785
g2226
sI1786
g4731
sI1787
g2228
sI1788
g2229
sI1789
g2230
sI1790
g2231
sI1791
g2234
sI1792
g2235
sI1793
g2236
sI1794
g2240
sI1795
g2554
sI1796
g2242
sI1797
g2243
sI1798
g2244
sI1799
g2245
sI1800
g2246
sI1801
g2247
sI1802
g2249
sI1803
g4551
sI1804
g4528
sI1805
g4837
sI1806
g2254
sI1807
g4592
sI1808
g2256
sI1809
g2257
sI1810
g2258
sI1811
g2261
sI1812
g2262
sI1813
g2263
sI1814
g2264
sI1815
g2265
sI1816
g4240
sI1817
g4590
sI1818
g2268
sI1819
g2269
sI1820
g2270
sI1821
g2271
sI1822
g2272
sI1823
g2273
sI1824
g2274
sI1825
g2275
sI1826
g2276
sI1827
g2278
sI1828
g2279
sI1829
g2280
sI1830
g2283
sI1831
g4641
sI1832
g2285
sI1833
g2287
sI1834
g2288
sI1835
g2290
sI1836
g2325
sI1837
g2292
sI1838
g2293
sI1839
g2294
sI1840
g4090
sI1841
g3098
sI1842
g3857
sI1843
g2302
sI1844
g14
sI1845
g3194
sI1846
g2306
sI1847
g2742
sI1848
g4456
sI1849
g40
sI1850
g2708
sI1851
g2311
sI1852
g3829
sI1853
g70
sI1854
g75
sI1855
g2316
sI1856
g86
sI1857
g2318
sI1858
g2319
sI1859
g3095
sI1860
g2321
sI1861
g2322
sI1862
g2323
sI1863
g2324
sI1864
g137
sI1865
g147
sI1866
g2328
sI1867
g2406
sI1868
g2330
sI1869
g2331
sI1870
g2332
sI1871
g2333
sI1872
g2334
sI1873
g2335
sI1874
g4218
sI1875
g2337
sI1876
g203
sI1877
g208
sI1878
g2340
sI1879
g213
sI1880
g4365
sI1881
g2343
sI1882
g2345
sI1883
g2346
sI1884
g2350
sI1885
g2351
sI1886
g2352
sI1887
g2353
sI1888
g2355
sI1889
g278
sI1890
g4098
sI1891
g2360
sI1892
g2361
sI1893
g2363
sI1894
g2364
sI1895
g2365
sI1896
g2366
sI1897
g2367
sI1898
g3833
sI1899
g2369
sI1900
g348
sI1901
g3552
sI1902
g3285
sI1903
g2374
sI1904
g2375
sI1905
g2376
sI1906
g2377
sI1907
g2379
sI1908
g2380
sI1909
g418
sI1910
g2382
sI1911
g2383
sI1912
g2384
sI1913
g2385
sI1914
g2386
sI1915
g471
sI1916
g2924
sI1917
g2389
sI1918
g2722
sI1919
g2391
sI1920
g4466
sI1921
g2393
sI1922
g2394
sI1923
g2395
sI1924
g2397
sI1925
g531
sI1926
g2725
sI1927
g2400
sI1928
g2402
sI1929
g2403
sI1930
g2726
sI1931
g2405
sI1932
g2407
sI1933
g601
sI1934
g2410
sI1935
g2411
sI1936
g2412
sI1937
g2414
sI1938
g2416
sI1939
g563
sI1940
g2419
sI1941
g2420
sI1942
g2422
sI1943
g689
sI1944
g2424
sI1945
g2425
sI1946
g2426
sI1947
g718
sI1948
g2428
sI1949
g2429
sI1950
g2430
sI1951
g739
sI1952
g2433
sI1953
g2434
sI1954
g2436
sI1955
g2437
sI1956
g4762
sI1957
g2439
sI1958
g2441
sI1959
g798
sI1960
g2444
sI1961
g4476
sI1962
g816
sI1963
g2447
sI1964
g2448
sI1965
g2449
sI1966
g848
sI1967
g2454
sI1968
g2455
sI1969
g2456
sI1970
g1853
sI1971
g2946
sI1972
g2460
sI1973
g696
sI1974
g2462
sI1975
g2464
sI1976
g1773
sI1977
g2468
sI1978
g2470
sI1979
g1885
sI1980
g2473
sI1981
g980
sI1982
g2475
sI1983
g2476
sI1984
g2477
sI1985
g2478
sI1986
g2479
sI1987
g2480
sI1988
g2482
sI1989
g2483
sI1990
g2485
sI1991
g2486
sI1992
g1070
sI1993
g2488
sI1994
g1083
sI1995
g3714
sI1996
g2646
sI1997
g2493
sI1998
g2494
sI1999
g1569
sI2000
g2496
sI2001
g2497
sI2002
g2498
sI2003
g2500
sI2004
g2501
sI2005
g3611
sI2006
g2503
sI2007
g2505
sI2008
g1168
sI2009
g2508
sI2010
g4023
sI2011
g4594
sI2012
g1214
sI2013
g2512
sI2014
g2591
sI2015
g2514
sI2016
g2515
sI2017
g1779
sI2018
g2517
sI2019
g2232
sI2020
g4842
sI2021
g2521
sI2022
g2522
sI2023
g2523
sI2024
g2524
sI2025
g2525
sI2026
g3543
sI2027
g2527
sI2028
g2528
sI2029
g2531
sI2030
g2749
sI2031
g2533
sI2032
g1370
sI2033
g2536
sI2034
g2537
sI2035
g2538
sI2036
g2539
sI2037
g2540
sI2038
g2541
sI2039
g2542
sI2040
g2543
sI2041
g2544
sI2042
g2545
sI2043
g2546
sI2044
g2547
sI2045
g2548
sI2046
g2549
sI2047
g2550
sI2048
g3379
sI2049
g2553
sI2050
g2555
sI2051
g2752
sI2052
g2556
sI2053
g2559
sI2054
g1508
sI2055
g3620
sI2056
g2563
sI2057
g2564
sI2058
g2565
sI2059
g2566
sI2060
g2569
sI2061
g2571
sI2062
g2572
sI2063
g1576
sI2064
g2574
sI2065
g2575
sI2066
g2576
sI2067
g2577
sI2068
g2779
sI2069
g2579
sI2070
g2582
sI2071
g2583
sI2072
g2584
sI2073
g2585
sI2074
g1649
sI2075
g1950
sI2076
g2588
sI2077
g1658
sI2078
g2590
sI2079
g4370
sI2080
g4133
sI2081
g1385
sI2082
g2597
sI2083
g2598
sI2084
g2601
sI2085
g2602
sI2086
g2603
sI2087
g2604
sI2088
g3629
sI2089
g2606
sI2090
g2607
sI2091
g2608
sI2092
g2609
sI2093
g1956
sI2094
g2611
sI2095
g2613
sI2096
g2615
sI2097
g2620
sI2098
g1836
sI2099
g2622
sI2100
g2623
sI2101
g2642
sI2102
g2625
sI2103
g2627
sI2104
g4055
sI2105
g2631
sI2106
g2633
sI2107
g1907
sI2108
g2635
sI2109
g2636
sI2110
g2638
sI2111
g2640
sI2112
g2641
sI2113
g4858
sI2114
g2643
sI2115
g2644
sI2116
g4511
sI2117
g1972
sI2118
g2647
sI2119
g1862
sI2120
g2650
sI2121
g2652
sI2122
g2654
sI2123
g2022
sI2124
g2032
sI2125
g2658
sI2126
g2660
sI2127
g2661
sI2128
g2662
sI2129
g2663
sI2130
g2664
sI2131
g2067
sI2132
g2666
sI2133
g2667
sI2134
g2481
sI2135
g1368
sI2136
g2671
sI2137
g4306
sI2138
g2672
sI2139
g2774
sI2140
g2138
sI2141
g2143
sI2142
g2679
sI2143
g2680
sI2144
g2681
sI2145
g2682
sI2146
g2874
sI2147
g2683
sI2148
g2684
sI2149
g2685
sI2150
g4676
sI2151
g2689
sI2152
g2690
sI2153
g2691
sI2154
g1474
sI2155
g2694
sI2156
g2187
sI2157
g2697
sI2158
g2000
sI2159
g2699
sI2160
g2700
sI2161
g2701
sI2162
g2702
sI2163
g2703
sI2164
g2705
sI2165
g2706
sI2166
g2707
sI2167
g2310
sI2168
g4522
sI2169
g2712
sI2170
g2348
sI2171
g344
sI2172
g313
sI2173
g2717
sI2174
g2718
sI2175
g703
sI2176
g2720
sI2177
g904
sI2178
g2390
sI2179
g2723
sI2180
g367
sI2181
g2399
sI2182
g2404
sI2183
g2727
sI2184
g2729
sI2185
g2730
sI2186
g2731
sI2187
g2733
sI2188
g4523
sI2189
g2735
sI2190
g2736
sI2191
g2737
sI2192
g3801
sI2193
g1599
sI2194
g2740
sI2195
g2741
sI2196
g2490
sI2197
g2743
sI2198
g2744
sI2199
g2745
sI2200
g2746
sI2201
g2747
sI2202
g4816
sI2203
g2532
sI2204
g2750
sI2205
g2751
sI2206
g3341
sI2207
g2754
sI2208
g2755
sI2209
g2909
sI2210
g2757
sI2211
g2758
sI2212
g2600
sI2213
g2761
sI2214
g2762
sI2215
g2763
sI2216
g2765
sI2217
g2639
sI2218
g2768
sI2219
g2769
sI2220
g2770
sI2221
g2771
sI2222
g2772
sI2223
g2773
sI2224
g2673
sI2225
g2775
sI2226
g2776
sI2227
g2792
sI2228
g4765
sI2229
g3659
sI2230
g2782
sI2231
g2783
sI2232
g2784
sI2233
g2785
sI2234
g2786
sI2235
g2789
sI2236
g2802
sI2237
g2794
sI2238
g2795
sI2239
g2796
sI2240
g2798
sI2241
g3661
sI2242
g4372
sI2243
g4063
sI2244
g2803
sI2245
g2804
sI2246
g2805
sI2247
g2806
sI2248
g2807
sI2249
g2865
sI2250
g4310
sI2251
g2811
sI2252
g2812
sI2253
g2814
sI2254
g2815
sI2255
g2816
sI2256
g2817
sI2257
g2819
sI2258
g2820
sI2259
g2821
sI2260
g2822
sI2261
g507
sI2262
g2824
sI2263
g2826
sI2264
g2827
sI2265
g2828
sI2266
g2830
sI2267
g2831
sI2268
g2832
sI2269
g2833
sI2270
g2835
sI2271
g2837
sI2272
g2838
sI2273
g3059
sI2274
g4064
sI2275
g2841
sI2276
g2842
sI2277
g2844
sI2278
g2845
sI2279
g2846
sI2280
g2847
sI2281
g2849
sI2282
g2850
sI2283
g2851
sI2284
g2853
sI2285
g2854
sI2286
g3170
sI2287
g2856
sI2288
g2857
sI2289
g2859
sI2290
g4017
sI2291
g2354
sI2292
g2861
sI2293
g2862
sI2294
g2863
sI2295
g2864
sI2296
g2568
sI2297
g2866
sI2298
g2867
sI2299
g2868
sI2300
g2869
sI2301
g2872
sI2302
g2873
sI2303
g1364
sI2304
g2876
sI2305
g2877
sI2306
g4549
sI2307
g2880
sI2308
g2881
sI2309
g2882
sI2310
g4550
sI2311
g2885
sI2312
g167
sI2313
g2888
sI2314
g2890
sI2315
g2891
sI2316
g4552
sI2317
g2894
sI2318
g2895
sI2319
g2896
sI2320
g2897
sI2321
g2898
sI2322
g2900
sI2323
g2901
sI2324
g2902
sI2325
g935
sI2326
g4034
sI2327
g3977
sI2328
g2907
sI2329
g3475
sI2330
g3484
sI2331
g3699
sI2332
g2911
sI2333
g2912
sI2334
g4262
sI2335
g2914
sI2336
g2916
sI2337
g2917
sI2338
g2918
sI2339
g2919
sI2340
g2920
sI2341
g3567
sI2342
g2922
sI2343
g2923
sI2344
g3655
sI2345
g4559
sI2346
g2927
sI2347
g2930
sI2348
g2931
sI2349
g439
sI2350
g2934
sI2351
g2935
sI2352
g4091
sI2353
g3644
sI2354
g2937
sI2355
g2938
sI2356
g2939
sI2357
g2940
sI2358
g2941
sI2359
g2942
sI2360
g2944
sI2361
g2947
sI2362
g2951
sI2363
g2952
sI2364
g2954
sI2365
g2956
sI2366
g2957
sI2367
g2958
sI2368
g2959
sI2369
g2960
sI2370
g2961
sI2371
g2962
sI2372
g2964
sI2373
g2966
sI2374
g2967
sI2375
g2969
sI2376
g2970
sI2377
g4253
sI2378
g2971
sI2379
g3783
sI2380
g2974
sI2381
g2975
sI2382
g2976
sI2383
g2978
sI2384
g2979
sI2385
g2980
sI2386
g2981
sI2387
g4110
sI2388
g2982
sI2389
g2984
sI2390
g4509
sI2391
g2987
sI2392
g2988
sI2393
g2989
sI2394
g2990
sI2395
g2991
sI2396
g2993
sI2397
g2995
sI2398
g2637
sI2399
g2998
sI2400
g3000
sI2401
g4117
sI2402
g3003
sI2403
g3004
sI2404
g3005
sI2405
g4578
sI2406
g3007
sI2407
g3008
sI2408
g4143
sI2409
g3011
sI2410
g3012
sI2411
g3013
sI2412
g3014
sI2413
g3015
sI2414
g4472
sI2415
g3016
sI2416
g3017
sI2417
g4197
sI2418
g3019
sI2419
g3020
sI2420
g3021
sI2421
g3022
sI2422
g77
sI2423
g3024
sI2424
g3025
sI2425
g3026
sI2426
g3027
sI2427
g3029
sI2428
g3030
sI2429
g3031
sI2430
g3032
sI2431
g3033
sI2432
g4304
sI2433
g3035
sI2434
g3036
sI2435
g3038
sI2436
g1150
sI2437
g4584
sI2438
g3043
sI2439
g3044
sI2440
g3046
sI2441
g4585
sI2442
g3049
sI2443
g3050
sI2444
g3707
sI2445
g3052
sI2446
g4416
sI2447
g3934
sI2448
g3056
sI2449
g3057
sI2450
g4454
sI2451
g3061
sI2452
g3062
sI2453
g3064
sI2454
g4669
sI2455
g3066
sI2456
g3067
sI2457
g3068
sI2458
g3069
sI2459
g3071
sI2460
g2719
sI2461
g3074
sI2462
g3075
sI2463
g3076
sI2464
g3078
sI2465
g3079
sI2466
g3081
sI2467
g3082
sI2468
g4438
sI2469
g3083
sI2470
g3084
sI2471
g3085
sI2472
g3086
sI2473
g3088
sI2474
g1961
sI2475
g3091
sI2476
g3092
sI2477
g3093
sI2478
g3094
sI2479
g636
sI2480
g4478
sI2481
g3101
sI2482
g3102
sI2483
g3168
sI2484
g3103
sI2485
g3104
sI2486
g3105
sI2487
g3106
sI2488
g3107
sI2489
g3108
sI2490
g4580
sI2491
g3111
sI2492
g3113
sI2493
g3114
sI2494
g3115
sI2495
g3116
sI2496
g3879
sI2497
g3118
sI2498
g3120
sI2499
g3121
sI2500
g3122
sI2501
g3123
sI2502
g3125
sI2503
g3126
sI2504
g3128
sI2505
g3130
sI2506
g47
sI2507
g3132
sI2508
g3133
sI2509
g3134
sI2510
g3135
sI2511
g3137
sI2512
g3138
sI2513
g3141
sI2514
g4598
sI2515
g3144
sI2516
g3147
sI2517
g3148
sI2518
g133
sI2519
g3152
sI2520
g4600
sI2521
g150
sI2522
g3156
sI2523
g3157
sI2524
g3158
sI2525
g4601
sI2526
g166
sI2527
g3939
sI2528
g3161
sI2529
g2051
sI2530
g3165
sI2531
g3166
sI2532
g3167
sI2533
g2349
sI2534
g3169
sI2535
g2855
sI2536
g3172
sI2537
g3173
sI2538
g3174
sI2539
g3175
sI2540
g3176
sI2541
g2214
sI2542
g3179
sI2543
g3180
sI2544
g3181
sI2545
g3183
sI2546
g3184
sI2547
g2074
sI2548
g3187
sI2549
g3188
sI2550
g3189
sI2551
g3190
sI2552
g3191
sI2553
g4119
sI2554
g3195
sI2555
g3196
sI2556
g320
sI2557
g3199
sI2558
g4749
sI2559
g3203
sI2560
g3732
sI2561
g3206
sI2562
g3207
sI2563
g3208
sI2564
g3209
sI2565
g3211
sI2566
g3198
sI2567
g3213
sI2568
g3216
sI2569
g3217
sI2570
g3218
sI2571
g411
sI2572
g3220
sI2573
g422
sI2574
g3222
sI2575
g3224
sI2576
g3225
sI2577
g3383
sI2578
g3226
sI2579
g3228
sI2580
g3229
sI2581
g3119
sI2582
g3480
sI2583
g3232
sI2584
g2266
sI2585
g3234
sI2586
g3236
sI2587
g3237
sI2588
g3238
sI2589
g3239
sI2590
g4780
sI2591
g3241
sI2592
g3242
sI2593
g3243
sI2594
g3885
sI2595
g3247
sI2596
g3249
sI2597
g3250
sI2598
g3252
sI2599
g3253
sI2600
g3254
sI2601
g3256
sI2602
g3257
sI2603
g4183
sI2604
g3260
sI2605
g3261
sI2606
g3262
sI2607
g3264
sI2608
g3265
sI2609
g3266
sI2610
g3267
sI2611
g3269
sI2612
g3270
sI2613
g3271
sI2614
g4126
sI2615
g3272
sI2616
g3274
sI2617
g3276
sI2618
g3597
sI2619
g3279
sI2620
g3280
sI2621
g722
sI2622
g3282
sI2623
g3283
sI2624
g3286
sI2625
g3287
sI2626
g4040
sI2627
g3289
sI2628
g3290
sI2629
g3291
sI2630
g3292
sI2631
g3293
sI2632
g3295
sI2633
g3296
sI2634
g1029
sI2635
g1622
sI2636
g3299
sI2637
g3300
sI2638
g3301
sI2639
g834
sI2640
g846
sI2641
g3305
sI2642
g854
sI2643
g3307
sI2644
g3309
sI2645
g3310
sI2646
g3311
sI2647
g1582
sI2648
g3314
sI2649
g3315
sI2650
g261
sI2651
g3319
sI2652
g3320
sI2653
g3321
sI2654
g1301
sI2655
g1735
sI2656
g3324
sI2657
g3325
sI2658
g4862
sI2659
g3329
sI2660
g3754
sI2661
g3240
sI2662
g3334
sI2663
g1035
sI2664
g4239
sI2665
g3448
sI2666
g3339
sI2667
g1065
sI2668
g1080
sI2669
g3343
sI2670
g3344
sI2671
g117
sI2672
g1095
sI2673
g3347
sI2674
g1115
sI2675
g3349
sI2676
g3350
sI2677
g4633
sI2678
g4829
sI2679
g3353
sI2680
g3354
sI2681
g3355
sI2682
g3357
sI2683
g3359
sI2684
g1851
sI2685
g3362
sI2686
g1199
sI2687
g3364
sI2688
g3365
sI2689
g3642
sI2690
g3367
sI2691
g282
sI2692
g1231
sI2693
g3370
sI2694
g3371
sI2695
g3372
sI2696
g3373
sI2697
g3374
sI2698
g3375
sI2699
g1308
sI2700
g3378
sI2701
g4248
sI2702
g3381
sI2703
g383
sI2704
g1470
sI2705
g1358
sI2706
g1365
sI2707
g3389
sI2708
g1375
sI2709
g3391
sI2710
g3392
sI2711
g3393
sI2712
g275
sI2713
g3376
sI2714
g3396
sI2715
g3397
sI2716
g3398
sI2717
g3399
sI2718
g1418
sI2719
g4640
sI2720
g1427
sI2721
g3404
sI2722
g1458
sI2723
g3407
sI2724
g4644
sI2725
g3409
sI2726
g3410
sI2727
g1490
sI2728
g3414
sI2729
g3415
sI2730
g3416
sI2731
g3417
sI2732
g3418
sI2733
g3419
sI2734
g3420
sI2735
g3422
sI2736
g3423
sI2737
g1553
sI2738
g3425
sI2739
g3690
sI2740
g3429
sI2741
g3432
sI2742
g3433
sI2743
g3434
sI2744
g3435
sI2745
g4685
sI2746
g3437
sI2747
g3438
sI2748
g3439
sI2749
g3442
sI2750
g3444
sI2751
g1636
sI2752
g3446
sI2753
g3447
sI2754
g1652
sI2755
g3449
sI2756
g3450
sI2757
g2906
sI2758
g3452
sI2759
g1845
sI2760
g3454
sI2761
g4806
sI2762
g3455
sI2763
g2760
sI2764
g3458
sI2765
g3459
sI2766
g3460
sI2767
g3461
sI2768
g3462
sI2769
g3463
sI2770
g3464
sI2771
g3465
sI2772
g3466
sI2773
g3467
sI2774
g3469
sI2775
g3471
sI2776
g1753
sI2777
g3473
sI2778
g4426
sI2779
g3477
sI2780
g3478
sI2781
g2704
sI2782
g3483
sI2783
g1828
sI2784
g2286
sI2785
g1835
sI2786
g1484
sI2787
g3489
sI2788
g3491
sI2789
g1863
sI2790
g1875
sI2791
g3495
sI2792
g3496
sI2793
g1344
sI2794
g3502
sI2795
g3505
sI2796
g3506
sI2797
g3507
sI2798
g966
sI2799
g3509
sI2800
g2913
sI2801
g3902
sI2802
g3512
sI2803
g3513
sI2804
g3515
sI2805
g3518
sI2806
g2007
sI2807
g3521
sI2808
g3522
sI2809
g2282
sI2810
g3524
sI2811
g3525
sI2812
g3526
sI2813
g3527
sI2814
g3528
sI2815
g3529
sI2816
g3530
sI2817
g3531
sI2818
g3532
sI2819
g1293
sI2820
g3535
sI2821
g3536
sI2822
g3537
sI2823
g3538
sI2824
g2106
sI2825
g1321
sI2826
g3542
sI2827
g1775
sI2828
g2129
sI2829
g4000
sI2830
g3546
sI2831
g3547
sI2832
g3549
sI2833
g444
sI2834
g3551
sI2835
g2128
sI2836
g3553
sI2837
g3554
sI2838
g3556
sI2839
g4037
sI2840
g1580
sI2841
g3109
sI2842
g3560
sI2843
g3561
sI2844
g4226
sI2845
g922
sI2846
g4674
sI2847
g3566
sI2848
g4775
sI2849
g3568
sI2850
g3569
sI2851
g3570
sI2852
g3571
sI2853
g3572
sI2854
g3574
sI2855
g3575
sI2856
g3577
sI2857
g3580
sI2858
g374
sI2859
g3583
sI2860
g4773
sI2861
g3585
sI2862
g3792
sI2863
g4582
sI2864
g3590
sI2865
g3591
sI2866
g3592
sI2867
g3794
sI2868
g3595
sI2869
g1778
sI2870
g3598
sI2871
g3599
sI2872
g3600
sI2873
g3601
sI2874
g3603
sI2875
g713
sI2876
g2102
sI2877
g3608
sI2878
g3609
sI2879
g2502
sI2880
g4159
sI2881
g3613
sI2882
g3617
sI2883
g3618
sI2884
g3619
sI2885
g2562
sI2886
g3622
sI2887
g837
sI2888
g3624
sI2889
g3625
sI2890
g3627
sI2891
g3628
sI2892
g2605
sI2893
g3630
sI2894
g2616
sI2895
g3634
sI2896
g3635
sI2897
g2050
sI2898
g3637
sI2899
g3638
sI2900
g3639
sI2901
g950
sI2902
g3641
sI2903
g226
sI2904
g3647
sI2905
g3648
sI2906
g3805
sI2907
g3650
sI2908
g3651
sI2909
g3652
sI2910
g1607
sI2911
g3656
sI2912
g176
sI2913
g2781
sI2914
g2800
sI2915
g3663
sI2916
g2823
sI2917
g3665
sI2918
g3667
sI2919
g3669
sI2920
g3670
sI2921
g3671
sI2922
g2871
sI2923
g3674
sI2924
g3646
sI2925
g3675
sI2926
g3676
sI2927
g3677
sI2928
g1178
sI2929
g3679
sI2930
g3680
sI2931
g3681
sI2932
g3682
sI2933
g3683
sI2934
g2943
sI2935
g3685
sI2936
g3686
sI2937
g3687
sI2938
g3688
sI2939
g4354
sI2940
g3691
sI2941
g3692
sI2942
g3693
sI2943
g1715
sI2944
g3695
sI2945
g3696
sI2946
g3697
sI2947
g3744
sI2948
g3701
sI2949
g4341
sI2950
g1356
sI2951
g3703
sI2952
g3704
sI2953
g3705
sI2954
g3706
sI2955
g3051
sI2956
g2649
sI2957
g3065
sI2958
g3710
sI2959
g3711
sI2960
g3713
sI2961
g1790
sI2962
g3716
sI2963
g3717
sI2964
g4095
sI2965
g3720
sI2966
g3721
sI2967
g3722
sI2968
g4767
sI2969
g3723
sI2970
g3724
sI2971
g370
sI2972
g634
sI2973
g3729
sI2974
g2123
sI2975
g3731
sI2976
g3205
sI2977
g3733
sI2978
g4695
sI2979
g3735
sI2980
g3736
sI2981
g3737
sI2982
g3882
sI2983
g4675
sI2984
g3741
sI2985
g3743
sI2986
g802
sI2987
g3746
sI2988
g4060
sI2989
g1194
sI2990
g3748
sI2991
g3749
sI2992
g3750
sI2993
g3752
sI2994
g3753
sI2995
g3322
sI2996
g3755
sI2997
g3756
sI2998
g3757
sI2999
g3758
sI3000
g3759
sI3001
g3761
sI3002
g2126
sI3003
g3764
sI3004
g3766
sI3005
g1415
sI3006
g3768
sI3007
g3769
sI3008
g3770
sI3009
g37
sI3010
g3772
sI3011
g4700
sI3012
g3775
sI3013
g3508
sI3014
g3778
sI3015
g3779
sI3016
g3780
sI3017
g3784
sI3018
g3785
sI3019
g3786
sI3020
g3788
sI3021
g3789
sI3022
g3790
sI3023
g3791
sI3024
g3586
sI3025
g3793
sI3026
g3594
sI3027
g3795
sI3028
g3796
sI3029
g169
sI3030
g3798
sI3031
g3799
sI3032
g3411
sI3033
g3803
sI3034
g3804
sI3035
g2471
sI3036
g3806
sI3037
g3808
sI3038
g3809
sI3039
g3810
sI3040
g3811
sI3041
g2843
sI3042
g247
sI3043
g3817
sI3044
g3818
sI3045
g3819
sI3046
g3820
sI3047
g3821
sI3048
g4086
sI3049
g3823
sI3050
g3825
sI3051
g3828
sI3052
g4709
sI3053
g3830
sI3054
g3832
sI3055
g4327
sI3056
g4219
sI3057
g3835
sI3058
g3837
sI3059
g3838
sI3060
g3839
sI3061
g3841
sI3062
g3842
sI3063
g3843
sI3064
g596
sI3065
g3845
sI3066
g3846
sI3067
g3847
sI3068
g3848
sI3069
g3849
sI3070
g3850
sI3071
g3932
sI3072
g3852
sI3073
g3853
sI3074
g3854
sI3075
g3855
sI3076
g3856
sI3077
g3858
sI3078
g1390
sI3079
g4016
sI3080
g3862
sI3081
g3863
sI3082
g3864
sI3083
g3865
sI3084
g3866
sI3085
g4221
sI3086
g1719
sI3087
g3870
sI3088
g3871
sI3089
g3872
sI3090
g3873
sI3091
g3874
sI3092
g3875
sI3093
g2713
sI3094
g3878
sI3095
g3880
sI3096
g3881
sI3097
g3884
sI3098
g451
sI3099
g3886
sI3100
g3887
sI3101
g2738
sI3102
g3889
sI3103
g3890
sI3104
g3892
sI3105
g3893
sI3106
g3894
sI3107
g3895
sI3108
g4249
sI3109
g3898
sI3110
g3899
sI3111
g3900
sI3112
g399
sI3113
g2421
sI3114
g2617
sI3115
g3904
sI3116
g3906
sI3117
g4316
sI3118
g3908
sI3119
g3910
sI3120
g3911
sI3121
g3915
sI3122
g3916
sI3123
g1401
sI3124
g2973
sI3125
g4339
sI3126
g3763
sI3127
g3923
sI3128
g3925
sI3129
g3926
sI3130
g3927
sI3131
g3929
sI3132
g3930
sI3133
g3931
sI3134
g3933
sI3135
g4453
sI3136
g2630
sI3137
g2150
sI3138
g3938
sI3139
g3935
sI3140
g3940
sI3141
g3941
sI3142
g3942
sI3143
g3944
sI3144
g3945
sI3145
g4652
sI3146
g3947
sI3147
g1730
sI3148
g3949
sI3149
g4541
sI3150
g3953
sI3151
g3954
sI3152
g3606
sI3153
g3956
sI3154
g3957
sI3155
g3958
sI3156
g3959
sI3157
g3960
sI3158
g3961
sI3159
g4759
sI3160
g3963
sI3161
g3964
sI3162
g3965
sI3163
g3966
sI3164
g3967
sI3165
g3968
sI3166
g3969
sI3167
g3970
sI3168
g3971
sI3169
g3972
sI3170
g4813
sI3171
g3974
sI3172
g4710
sI3173
g4326
sI3174
g2675
sI3175
g3979
sI3176
g3980
sI3177
g4747
sI3178
g3983
sI3179
g4206
sI3180
g3985
sI3181
g3986
sI3182
g3987
sI3183
g3989
sI3184
g3990
sI3185
g3991
sI3186
g3992
sI3187
g2028
sI3188
g3994
sI3189
g3995
sI3190
g3996
sI3191
g3997
sI3192
g3999
sI3193
g4001
sI3194
g4003
sI3195
g4004
sI3196
g4005
sI3197
g4007
sI3198
g4008
sI3199
g4009
sI3200
g3
sI3201
g3010
sI3202
g4012
sI3203
g4014
sI3204
g2492
sI3205
g3427
sI3206
g4018
sI3207
g4019
sI3208
g4153
sI3209
g4021
sI3210
g4022
sI3211
g4024
sI3212
g4025
sI3213
g84
sI3214
g4198
sI3215
g4028
sI3216
g4029
sI3217
g4031
sI3218
g4032
sI3219
g4033
sI3220
g4035
sI3221
g4036
sI3222
g4038
sI3223
g4039
sI3224
g4385
sI3225
g4043
sI3226
g4044
sI3227
g4046
sI3228
g189
sI3229
g4279
sI3230
g4050
sI3231
g4051
sI3232
g4052
sI3233
g4053
sI3234
g4054
sI3235
g222
sI3236
g4056
sI3237
g4058
sI3238
g4059
sI3239
g3867
sI3240
g4061
sI3241
g4062
sI3242
g267
sI3243
g1793
sI3244
g3356
sI3245
g4066
sI3246
g4067
sI3247
g4068
sI3248
g4069
sI3249
g571
sI3250
g429
sI3251
g4072
sI3252
g4073
sI3253
g4074
sI3254
g4075
sI3255
g4076
sI3256
g4077
sI3257
g4078
sI3258
g4079
sI3259
g4080
sI3260
g4081
sI3261
g4002
sI3262
g4621
sI3263
g4083
sI3264
g4085
sI3265
g4087
sI3266
g391
sI3267
g4188
sI3268
g3268
sI3269
g4092
sI3270
g4093
sI3271
g4096
sI3272
g4097
sI3273
g3212
sI3274
g4100
sI3275
g4788
sI3276
g4103
sI3277
g4104
sI3278
g4105
sI3279
g4106
sI3280
g4107
sI3281
g4108
sI3282
g4109
sI3283
g497
sI3284
g501
sI3285
g4112
sI3286
g3877
sI3287
g4116
sI3288
g925
sI3289
g4120
sI3290
g545
sI3291
g4122
sI3292
g4124
sI3293
g4125
sI3294
g1158
sI3295
g2790
sI3296
g4128
sI3297
g4129
sI3298
g4130
sI3299
g4131
sI3300
g4135
sI3301
g649
sI3302
g3632
sI3303
g661
sI3304
g4142
sI3305
g3009
sI3306
g4144
sI3307
g4145
sI3308
g690
sI3309
g4147
sI3310
g4760
sI3311
g4149
sI3312
g719
sI3313
g1222
sI3314
g691
sI3315
g1140
sI3316
g1431
sI3317
g4157
sI3318
g4158
sI3319
g100
sI3320
g4160
sI3321
g4161
sI3322
g793
sI3323
g4163
sI3324
g4164
sI3325
g4165
sI3326
g4793
sI3327
g2049
sI3328
g4168
sI3329
g4169
sI3330
g2162
sI3331
g4172
sI3332
g4173
sI3333
g4174
sI3334
g4175
sI3335
g4177
sI3336
g865
sI3337
g4179
sI3338
g4180
sI3339
g1619
sI3340
g4182
sI3341
g4184
sI3342
g890
sI3343
g4186
sI3344
g2443
sI3345
g4190
sI3346
g4192
sI3347
g4193
sI3348
g4194
sI3349
g4195
sI3350
g4196
sI3351
g3018
sI3352
g2813
sI3353
g4199
sI3354
g4200
sI3355
g4201
sI3356
g4202
sI3357
g4205
sI3358
g4208
sI3359
g678
sI3360
g4210
sI3361
g4211
sI3362
g4212
sI3363
g4114
sI3364
g1023
sI3365
g4217
sI3366
g4216
sI3367
g4220
sI3368
g4223
sI3369
g4224
sI3370
g3774
sI3371
g4227
sI3372
g4228
sI3373
g4229
sI3374
g4231
sI3375
g1535
sI3376
g4233
sI3377
g4235
sI3378
g4236
sI3379
g3742
sI3380
g4238
sI3381
g3337
sI3382
g3140
sI3383
g4241
sI3384
g4242
sI3385
g1503
sI3386
g4244
sI3387
g4245
sI3388
g4246
sI3389
g4602
sI3390
g3822
sI3391
g4250
sI3392
g126
sI3393
g1218
sI3394
g1448
sI3395
g4254
sI3396
g4255
sI3397
g4256
sI3398
g4257
sI3399
g4259
sI3400
g1257
sI3401
g1261
sI3402
g4263
sI3403
g4265
sI3404
g4266
sI3405
g2655
sI3406
g4268
sI3407
g4269
sI3408
g4271
sI3409
g4273
sI3410
g4275
sI3411
g4276
sI3412
g1361
sI3413
g4281
sI3414
g4283
sI3415
g2301
sI3416
g4284
sI3417
g1382
sI3418
g4286
sI3419
g4287
sI3420
g4289
sI3421
g4291
sI3422
g4293
sI3423
g2904
sI3424
g4295
sI3425
g1435
sI3426
g1441
sI3427
g1566
sI3428
g4299
sI3429
g1993
sI3430
g4301
sI3431
g4302
sI3432
g4305
sI3433
g1504
sI3434
g4307
sI3435
g4308
sI3436
g4309
sI3437
g1522
sI3438
g4781
sI3439
g4312
sI3440
g4313
sI3441
g4314
sI3442
g4318
sI3443
g4319
sI3444
g4320
sI3445
g4321
sI3446
g4323
sI3447
g1574
sI3448
g4328
sI3449
g4329
sI3450
g4330
sI3451
g1601
sI3452
g4333
sI3453
g4334
sI3454
g4335
sI3455
g4336
sI3456
g4337
sI3457
g4338
sI3458
g3385
sI3459
g568
sI3460
g4340
sI3461
g1914
sI3462
g4342
sI3463
g4343
sI3464
g4345
sI3465
g4347
sI3466
g4348
sI3467
g4350
sI3468
g4351
sI3469
g4355
sI3470
g4357
sI3471
g2581
sI3472
g630
sI3473
g419
sI3474
g4361
sI3475
g4362
sI3476
g4363
sI3477
g1765
sI3478
g3303
sI3479
g4366
sI3480
g4369
sI3481
g2417
sI3482
g3139
sI3483
g4373
sI3484
g4374
sI3485
g4794
sI3486
g4137
sI3487
g4376
sI3488
g4377
sI3489
g4378
sI3490
g4379
sI3491
g4380
sI3492
g4381
sI3493
g4383
sI3494
g4386
sI3495
g4388
sI3496
g4389
sI3497
g705
sI3498
g1701
sI3499
g4393
sI3500
g1933
sI3501
g4704
sI3502
g4400
sI3503
g4401
sI3504
g1974
sI3505
g4403
sI3506
g4405
sI3507
g4406
sI3508
g2011
sI3509
g4744
sI3510
g4801
sI3511
g4410
sI3512
g2968
sI3513
g4413
sI3514
g4802
sI3515
g4415
sI3516
g4418
sI3517
g3055
sI3518
g4421
sI3519
g4423
sI3520
g4424
sI3521
g2134
sI3522
g1939
sI3523
g4429
sI3524
g4430
sI3525
g4432
sI3526
g4433
sI3527
g4434
sI3528
g4632
sI3529
g4436
sI3530
g4437
sI3531
g350
sI3532
g4439
sI3533
g4440
sI3534
g4441
sI3535
g4442
sI3536
g4443
sI3537
g4444
sI3538
g4815
sI3539
g4445
sI3540
g1650
sI3541
g4447
sI3542
g4448
sI3543
g4449
sI3544
g4450
sI3545
g2277
sI3546
g4452
sI3547
g1481
sI3548
g3072
sI3549
g1786
sI3550
g4457
sI3551
g4459
sI3552
g4460
sI3553
g4461
sI3554
g4464
sI3555
g4465
sI3556
g2392
sI3557
g4467
sI3558
g4468
sI3559
g4469
sI3560
g4470
sI3561
g2413
sI3562
g353
sI3563
g4473
sI3564
g4474
sI3565
g2452
sI3566
g2445
sI3567
g4477
sI3568
g3100
sI3569
g4479
sI3570
g4480
sI3571
g4482
sI3572
g4484
sI3573
g4485
sI3574
g4486
sI3575
g4488
sI3576
g2509
sI3577
g2241
sI3578
g1487
sI3579
g4492
sI3580
g4493
sI3581
g4495
sI3582
g4496
sI3583
g4497
sI3584
g4498
sI3585
g4499
sI3586
g4501
sI3587
g4819
sI3588
g4503
sI3589
g4504
sI3590
g4505
sI3591
g4506
sI3592
g4508
sI3593
g2618
sI3594
g4510
sI3595
g2645
sI3596
g4512
sI3597
g4513
sI3598
g4514
sI3599
g4515
sI3600
g4317
sI3601
g4517
sI3602
g4518
sI3603
g4520
sI3604
g4521
sI3605
g2710
sI3606
g4875
sI3607
g2734
sI3608
g4525
sI3609
g4857
sI3610
g4527
sI3611
g4013
sI3612
g4529
sI3613
g4530
sI3614
g4532
sI3615
g4533
sI3616
g1479
sI3617
g4535
sI3618
g4536
sI3619
g4537
sI3620
g4538
sI3621
g4539
sI3622
g4540
sI3623
g4542
sI3624
g4057
sI3625
g4544
sI3626
g4545
sI3627
g4546
sI3628
g4547
sI3629
g2992
sI3630
g2883
sI3631
g2889
sI3632
g2892
sI3633
g4553
sI3634
g4554
sI3635
g3582
sI3636
g4557
sI3637
g4558
sI3638
g2926
sI3639
g578
sI3640
g4561
sI3641
g4562
sI3642
g4563
sI3643
g4564
sI3644
g4566
sI3645
g175
sI3646
g2965
sI3647
g4569
sI3648
g2558
sI3649
g4572
sI3650
g4573
sI3651
g4574
sI3652
g3781
sI3653
g4576
sI3654
g3006
sI3655
g4579
sI3656
g2253
sI3657
g1485
sI3658
g4583
sI3659
g3153
sI3660
g3048
sI3661
g1501
sI3662
g4587
sI3663
g4588
sI3664
g4589
sI3665
g2255
sI3666
g1377
sI3667
g4595
sI3668
g4596
sI3669
g4597
sI3670
g861
sI3671
g3154
sI3672
g3159
sI3673
g4603
sI3674
g3186
sI3675
g4605
sI3676
g93
sI3677
g960
sI3678
g4609
sI3679
g4610
sI3680
g555
sI3681
g3973
sI3682
g4613
sI3683
g3080
sI3684
g4615
sI3685
g4616
sI3686
g4617
sI3687
g4618
sI3688
g3328
sI3689
g4015
sI3690
g385
sI3691
g4627
sI3692
g4625
sI3693
g4626
sI3694
g3096
sI3695
g4628
sI3696
g4349
sI3697
g4839
sI3698
g4631
sI3699
g2626
sI3700
g4634
sI3701
g4635
sI3702
g4636
sI3703
g4637
sI3704
g4638
sI3705
g4639
sI3706
g2878
sI3707
g4642
sI3708
g3408
sI3709
g4646
sI3710
g4648
sI3711
g4649
sI3712
g855
sI3713
g4655
sI3714
g4656
sI3715
g4659
sI3716
g4660
sI3717
g4661
sI3718
g4662
sI3719
g4663
sI3720
g4664
sI3721
g3202
sI3722
g4667
sI3723
g4668
sI3724
g4322
sI3725
g4671
sI3726
g4672
sI3727
g4673
sI3728
g3368
sI3729
g4677
sI3730
g4679
sI3731
g4680
sI3732
g684
sI3733
g4682
sI3734
g4683
sI3735
g4684
sI3736
g4274
sI3737
g4686
sI3738
g1927
sI3739
g4688
sI3740
g4690
sI3741
g4691
sI3742
g4692
sI3743
g4693
sI3744
g4694
sI3745
g3734
sI3746
g4697
sI3747
g4698
sI3748
g4699
sI3749
g3773
sI3750
g4701
sI3751
g1520
sI3752
g4702
sI3753
g3797
sI3754
g1736
sI3755
g1625
sI3756
g1348
sI3757
g156
sI3758
g4712
sI3759
g4713
sI3760
g4714
sI3761
g4715
sI3762
g4716
sI3763
g4717
sI3764
g4718
sI3765
g4720
sI3766
g4721
sI3767
g4722
sI3768
g1062
sI3769
g4724
sI3770
g4725
sI3771
g4728
sI3772
g4854
sI3773
g2239
sI3774
g4732
sI3775
g4733
sI3776
g4734
sI3777
g4737
sI3778
g4738
sI3779
g4739
sI3780
g4856
sI3781
g4741
sI3782
g4742
sI3783
g4743
sI3784
g1720
sI3785
g3573
sI3786
g4746
sI3787
g4042
sI3788
g4748
sI3789
g4751
sI3790
g4753
sI3791
g4754
sI3792
g733
sI3793
g3814
sI3794
g4757
sI3795
g4758
sI3796
g4151
sI3797
g4148
sI3798
g4761
sI3799
g4763
sI3800
g4764
sI3801
g1538
sI3802
g1277
sI3803
g4863
sI3804
g4768
sI3805
g4770
sI3806
g4771
sI3807
g4772
sI3808
g2359
sI3809
g3739
sI3810
g4821
sI3811
g4777
sI3812
g4778
sI3813
g4779
sI3814
g3614
sI3815
g4311
sI3816
g4782
sI3817
g4783
sI3818
g4785
sI3819
g4786
sI3820
g4787
sI3821
g3090
sI3822
g4790
sI3823
g4791
sI3824
g4792
sI3825
g4368
sI3826
g3709
sI3827
g4382
sI3828
g4796
sI3829
g18
sI3830
g4414
sI3831
g4805
sI3832
g3001
sI3833
g4807
sI3834
g4808
sI3835
g4809
sI3836
g4811
sI3837
g486
sI3838
g3192
sI3839
g2893
sI3840
g4817
sI3841
g4818
sI3842
g2905
sI3843
g4820
sI3844
g4822
sI3845
g4824
sI3846
g4826
sI3847
g4827
sI3848
g4828
sI3849
g4830
sI3850
g4831
sI3851
g4832
sI3852
g4833
sI3853
g4599
sI3854
g744
sI3855
g4835
sI3856
g4838
sI3857
g2977
sI3858
g4841
sI3859
g4657
sI3860
g4258
sI3861
g4844
sI3862
g600
sI3863
g4846
sI3864
g4848
sI3865
g4850
sI3866
g4851
sI3867
g4852
sI3868
g4853
sI3869
g2484
sI3870
g4735
sI3871
g4740
sI3872
g4864
sI3873
g4865
sI3874
g4866
sI3875
g4867
sI3876
g2298
sI3877
g289
sI3878
g4870
sI3879
g4871
sI3880
g4873
sI3881
g4874
sI3882
g4861
sI3883
g2299
sI3884
g4877
sI3885
g4878
sI3886
g3903
sI3887
g4065
sI3888
g442
sI3889
g1666
sI3890
g2696
sI3891
g3142
sI3892
g1987
sI3893
g2570
sI3894
g3395
sI3895
g4166
sI3896
g1167
sI3897
g3563
sI3898
g1306
sI3899
g903
sI3900
g1634
sI3901
g3312
sI3902
g919
sI3903
g1457
sI3904
g3689
sI3905
g4548
sI3906
g2714
sI3907
g1662
sI3908
g4825
sI3909
g3883
sI3910
g2860
sI3911
g697
sI3912
g1051
sI3913
g329
sI3914
g188
sI3915
g2137
sI3916
g1378
sI3917
g1758
sI3918
g238
sI3919
g1494
sI3920
g828
sI3921
g2530
sI3922
g2511
sI3923
g4776
sI3924
g1811
sI3925
g3245
sI3926
g1627
sI3927
g2163
sI3928
g1787
sI3929
g4803
sI3930
g1954
sI3931
g4795
sI3932
g4185
sI3933
g1704
sI3934
g1595
sI3935
g1960
sI3936
g1192
sI3937
g1814
sI3938
g2756
sI3939
g406
sI3940
g401
sI3941
g1604
sI3942
g3352
sI3943
g3273
sI3944
g3610
sI3945
g3486
sI3946
g1697
sI3947
g633
sI3948
g1555
sI3949
g2472
sI3950
g4267
sI3951
g2467
sI3952
g1921
sI3953
g2994
sI3954
g2192
sI3955
g3576
sI3956
g3912
sI3957
g2170
sI3958
g3514
sI3959
g3326
sI3960
g466
sI3961
g4645
sI3962
g4099
sI3963
g3002
sI3964
g3380
sI3965
g1623
sI3966
g1016
sI3967
g4489
sI3968
g1685
sI3969
g4176
sI3970
g1951
sI3971
g2010
sI3972
g2186
sI3973
g130
sI3974
g2195
sI3975
g4571
sI3976
g2728
sI3977
g4836
sI3978
g65
sI3979
g1452
sI3980
g558
sI3981
g4292
sI3982
g4102
sI3983
g1032
sI3984
g1011
sI3985
g4458
sI3986
g3868
sI3987
g1908
sI3988
g3962
sI3989
g318
sI3990
g4800
sI3991
g3504
sI3992
g972
sI3993
g646
sI3994
g4623
sI3995
g1975
sI3996
g3258
sI3997
g1849
sI3998
g2158
sI3999
g3440
sI4000
g2415
sI4001
g3937
sI4002
g327
sI4003
g3127
sI4004
g272
sI4005
g3185
sI4006
g459
sI4007
g1243
sI4008
g4681
sI4009
g591
sI4010
g410
sI4011
g2304
sI4012
g2621
sI4013
g3678
sI4014
g2788
sI4015
g3313
sI4016
g3813
sI4017
g4730
sI4018
g1861
sI4019
g2019
sI4020
g4475
sI4021
g3557
sI4022
g3263
sI4023
g4419
sI4024
g3498
sI4025
g3816
sI4026
g3631
sI4027
g580
sI4028
g772
sI4029
g2372
sI4030
g4409
sI4031
g3430
sI4032
g3673
sI4033
g894
sI4034
g3657
sI4035
g1433
sI4036
g4620
sI4037
g185
sI4038
g1057
sI4039
g4045
sI4040
g373
sI4041
g3470
sI4042
g3827
sI4043
g3649
sI4044
g1971
sI4045
g3564
sI4046
g2953
sI4047
g4810
sI4048
g184
sI4049
g2997
sI4050
g1045
sI4051
g584
sI4052
g3982
sI4053
g3040
sI4054
g1638
sI4055
g2295
sI4056
g1099
sI4057
g3905
sI4058
g2711
sI4059
g2903
sI4060
g2561
sI4061
g3745
sI4062
g4736
sI4063
g4187
sI4064
g2624
sI4065
g3131
sI4066
g3861
sI4067
g502
sI4068
g2695
sI4069
g4629
sI4070
g4651
sI4071
g879
sI4072
g549
sI4073
g844
sI4074
g2858
sI4075
g1713
sI4076
g1795
sI4077
g4140
sI4078
g3443
sI4079
g3643
sI4080
g4270
sI4081
g566
sI4082
g3645
sI4083
g4156
sI4084
g3402
sI4085
g1893
sI4086
g2190
sI4087
g3562
sI4088
g4375
sI4089
g4191
sI4090
g4543
sI4091
g3654
sI4092
g1989
sI4093
g3323
sI4094
g450
sI4095
g1297
sI4096
g4170
sI4097
g3545
sI4098
g4766
sI4099
g1983
sI4100
g564
sI4101
g3747
sI4102
g3920
sI4103
g4462
sI4104
g1567
sI4105
g3145
sI4106
g409
sI4107
g1463
sI4108
g3193
sI4109
g2312
sI4110
g4581
sI4111
g2474
sI4112
g2829
sI4113
g1897
sI4114
g3587
sI4115
g4360
sI4116
g1396
sI4117
g2152
sI4118
g2963
sI4119
g4138
sI4120
g2887
sI4121
g3888
sI4122
g2567
sI4123
g2284
sI4124
g2141
sI4125
g4417
sI4126
g3762
sI4127
g1025
sI4128
g1157
sI4129
g2972
sI4130
g3777
sI4131
g3060
sI4132
g4027
sI4133
g3897
sI4134
g4619
sI4135
g2259
sI4136
g3548
sI4137
g4591
sI4138
g4653
sI4139
g4325
sI4140
g1806
sI4141
g3664
sI4142
g3231
sI4143
g902
sI4144
g1097
sI4145
g1445
sI4146
g2593
sI4147
g4247
sI4148
g4568
sI4149
g4203
sI4150
g2466
sI4151
g4396
sI4152
g2409
sI4153
g528
sI4154
g4650
sI4155
g2915
sI4156
g2678
sI4157
g2201
sI4158
g89
sI4159
g900
sI4160
g833
sI4161
g3223
sI4162
g2252
sI4163
g899
sI4164
g510
sI4165
g3146
sI4166
g116
sI4167
g2155
sI4168
g1923
sI4169
g2203
sI4170
g3348
sI4171
g2435
sI4172
g830
sI4173
g1618
sI4174
g4647
sI4175
g205
sI4176
g1318
sI4177
g3405
sI4178
g61
sI4179
g106
sI4180
g3288
sI4181
g4696
sI4182
g102
sI4183
g2025
sI4184
g3149
sI4185
g1109
sI4186
g4752
sI4187
g1562
sI4188
g4804
sI4189
g3110
sI4190
g759
sI4191
g2580
sI4192
g1560
sI4193
g699
sI4194
g4189
sI4195
g3924
sI4196
g4463
sI4197
g2780
sI4198
g1147
sI4199
g3840
sI4200
g2440
sI4201
g976
sI4202
g774
sI4203
g1268
sI4204
g3336
sI4205
g3928
sI4206
g2777
sI4207
g577
sI4208
g64
sI4209
g4041
sI4210
g1767
sI4211
g2687
sI4212
g4658
sI4213
g4371
sI4214
g494
sI4215
g2809
sI4216
g4390
sI4217
g807
sI4218
g447
sI4219
g753
sI4220
g2042
sI4221
g260
sI4222
g4420
sI4223
g4845
sI4224
g3751
sI4225
g1752
sI4226
g3836
sI4227
g3998
sI4228
g328
sI4229
g3851
sI4230
g3950
sI4231
g3584
sI4232
g4769
sI4233
g2148
sI4234
g1529
sI4235
g3712
sI4236
g301
sI4237
g2825
sI4238
g2955
sI4239
g2329
sI4240
g529
sI4241
g3815
sI4242
g1641
sI4243
g4315
sI4244
g3054
sI4245
g1931
sI4246
g2357
sI4247
g1096
sI4248
g2688
sI4249
g1311
sI4250
g4784
sI4251
g4048
sI4252
g1692
sI4253
g4230
sI4254
g2176
sI4255
g984
sI4256
g4707
sI4257
g2732
sI4258
g4155
sI4259
g817
sI4260
g572
sI4261
g2193
sI4262
g4607
sI4263
g3204
sI4264
g820
sI4265
g622
sI4266
g2446
sI4267
g3317
sI4268
g3760
sI4269
g3503
sI4270
g1628
sI4271
g4404
sI4272
g2839
sI4273
g62
sI4274
g2612
sI4275
g2520
sI4276
g2884
sI4277
g3284
sI4278
g177
sI4279
g934
sI4280
g4272
sI4281
g2237
sI4282
g2308
sI4283
g4431
sI4284
g3406
sI4285
g3136
sI4286
g3162
sI4287
g3360
sI4288
g4344
sI4289
g3876
sI4290
g635
sI4291
g1010
sI4292
g4232
sI4293
g3984
sI4294
g2356
sI4295
g4387
sI4296
g2753
sI4297
g4487
sI4298
g4282
sI4299
g3668
sI4300
g4577
sI4301
g1008
sI4302
g4750
sI4303
g4395
sI4304
g4507
sI4305
g847
sI4306
g762
sI4307
g2557
sI4308
g1600
sI4309
g4397
sI4310
g755
sI4311
g4152
sI4312
g2879
sI4313
g4214
sI4314
g4745
sI4315
g4300
sI4316
g1091
sI4317
g3335
sI4318
g3476
sI4319
g2518
sI4320
g4082
sI4321
g490
sI4322
g1483
sI4323
g2161
sI4324
g2341
sI4325
g1223
sI4326
g1395
sI4327
g1173
sI4328
g3826
sI4329
g4353
sI4330
g1387
sI4331
g3981
sI4332
g3565
sI4333
g4136
sI4334
g4428
sI4335
g1350
sI4336
g2097
sI4337
g542
sI4338
g1005
sI4339
g4020
sI4340
g4455
sI4341
g3155
sI4342
g2370
sI4343
g3316
sI4344
g3555
sI4345
g706
sI4346
g4101
sI4347
g2238
sI4348
g1180
sI4349
g4711
sI4350
g2099
sI4351
g3244
sI4352
g1890
sI4353
g4859
sI4354
g1399
sI4355
g1159
sI4356
g3428
sI4357
g3023
sI4358
g4115
sI4359
g2996
sI4360
g2315
sI4361
g4451
sI4362
g621
sI4363
g3058
sI4364
g1106
sI4365
g3919
sI4366
g4860
sI4367
g574
sI4368
g2510
sI4369
g1880
sI4370
g3468
sI4371
g3517
sI4372
g3388
sI4373
g3718
sI4374
g2326
sI4375
g2852
sI4376
g2836
sI4377
g3164
sI4378
g2653
sI4379
g4139
sI4380
g3124
sI4381
g4575
sI4382
g1598
sI4383
g1327
sI4384
g2595
sI4385
g3684
sI4386
g2073
sI4387
g3171
sI4388
g308
sI4389
g2344
sI4390
g2281
sI4391
g2250
sI4392
g2251
sI4393
g3976
sI4394
g286
sI4395
g4222
sI4396
g1155
sI4397
g4278
sI4398
g403
sI4399
g2373
sI4400
g3662
sI4401
g957
sI4402
g4234
sI4403
g4705
sI4404
g2670
sI4405
g1528
sI4406
g4483
sI4407
g4678
sI4408
g4519
sI4409
g3327
sI4410
g1204
sI4411
g742
sI4412
g1125
sI4413
g3426
sI4414
g4243
sI4415
g2799
sI4416
g4630
sI4417
g2797
sI4418
g457
sI4419
g2676
sI4420
g605
sI4421
g99
sI4422
g4869
sI4423
g864
sI4424
g110
sI4425
g1653
sI4426
g3037
sI4427
g3626
sI4428
g2669
sI4429
g2465
sI4430
g3860
sI4431
g2925
sI4432
g426
sI4433
g4706
sI4434
g2928
sI4435
g1592
sI4436
g3070
sI4437
g3725
sI4438
g4118
sI4439
g1521
sI4440
g4398
sI4441
g4689
sI4442
g3436
sI4443
g2534
sI4444
g3201
sI4445
g2362
sI4446
g3277
sI4447
g3541
sI4448
g4703
sI4449
g1376
sI4450
g724
sI4451
g1517
sI4452
g4560
sI4453
g4084
sI4454
g797
sI4455
g4154
sI4456
g702
sI4457
g3975
sI4458
g4331
sI4459
g1850
sI4460
g524
sI4461
g3602
sI4462
g523
sI4463
g3666
sI4464
g3394
sI4465
g612
sI4466
g1416
sI4467
g639
sI4468
g519
sI4469
g3519
sI4470
g4872
sI4471
g3579
sI4472
g3896
sI4473
g964
sI4474
g537
sI4475
g3640
sI4476
g2453
sI4477
g2233
sI4478
g2739
sI4479
g95
sI4480
g1596
sI4481
g754
sI4482
g3453
sI4483
g477
sI4484
g4502
sI4485
g3534
sI4486
g2587
sI4487
g3516
sI4488
g335
sI4489
g986
sI4490
g3330
sI4491
g3728
sI4492
g2614
sI4493
g1991
sI4494
g257
sI4495
g293
sI4496
g655
sI4497
g656
sI4498
g1626
sI4499
g4384
sI4500
g3275
sI4501
g3431
sI4502
g309
sI4503
g4849
sI4504
g2227
sI4505
g3361
sI4506
g4847
sI4507
g2026
sI4508
g51
sI4509
g1079
sI4510
g3214
sI4511
g2336
sI4512
g3952
sI4513
g1665
sI4514
g2149
sI4515
g3834
sI4516
g2071
sI4517
g3182
sI4518
g1660
sI4519
g2948
sI4520
g3053
sI4521
g483
sI4522
g2929
sI4523
g2875
sI4524
g340
sI4525
g628
sI4526
g4481
sI4527
g2599
sI4528
g3824
sI4529
g3177
sI4530
g3500
sI4531
g1425
sI4532
g2834
sI4533
g1112
sI4534
g4094
sI4535
g856
sI4536
g363
sI4537
g1432
sI4538
g4123
sI4539
g2513
sI4540
g532
sI4541
g4570
sI4542
g1142
sI4543
g2327
sI4544
g2100
sI4545
g2818
sI4546
g3901
sI4547
g1404
sI4548
g2504
sI4549
g1856
sI4550
g2358
sI4551
g727
sI4552
g1957
sI4553
g1609
sI4554
g2899
sI4555
g400
sI4556
g2668
sI4557
g3248
sI4558
g3787
sI4559
g3593
sI4560
g4726
sI4561
g625
sI4562
g3333
sI4563
g3099
sI4564
g1694
sI4565
g1886
sI4566
g254
sI4567
g4290
sI4568
g3382
sI4569
g3660
sI4570
g3921
sI4571
g1621
sI4572
g3294
sI4573
g1969
sI4574
g1203
sI4575
g2950
sI4576
g3384
sI4577
g3782
sI4578
g3045
sI4579
g4611
sI4580
g1839
sI4581
g599
sI4582
g3178
sI4583
g875
sI4584
g4204
sI4585
g1477
sI4586
g456
sI4587
g3891
sI4588
g1019
sI4589
g2342
sI4590
g3913
sI4591
g3230
sI4592
g2506
sI4593
g3073
sI4594
g4030
sI4595
g3700
sI4596
g4812
sI4597
g1968
sI4598
g4814
sI4599
g4840
sI4600
g1275
sI4601
g2619
sI4602
g2910
sI4603
g1664
sI4604
g3604
sI4605
g1982
sI4606
g1088
sI4607
g4089
sI4608
g1128
sI4609
g2432
sI4610
g3948
sI4611
g3047
sI4612
g2886
sI4613
g2305
sI4614
g4471
sI4615
g2112
sI4616
g1184
sI4617
g4565
sI4618
g2945
sI4619
g2208
sI4620
g3490
sI4621
g3708
sI4622
g3278
sI4623
g3308
sI4624
g3578
sI4625
g4207
sI4626
g1575
sI4627
g3487
sI4628
g1471
sI4629
g1884
sI4630
g2371
sI4631
g1366
sI4632
g3765
sI4633
g82
sI4634
g2401
sI4635
g1937
sI4636
g3210
sI4637
g1007
sI4638
g751
sI4639
g1804
sI4640
g3715
sI4641
g2983
sI4642
g4593
sI4643
g3909
sI4644
g4494
sI4645
g3112
sI4646
g1549
sI4647
g795
sI4648
g1817
sI4649
g1680
sI4650
g1711
sI4651
g1737
sI4652
g4643
sI4653
g1117
sI4654
g4392
sI4655
g3358
sI4656
g648
sI4657
g1232
sI4658
g3042
sI4659
g799
sI4660
g428
sI4661
g1206
sI4662
g143
sI4663
g1087
sI4664
g3596
sI4665
g449
sI4666
g2116
sI4667
g1500
sI4668
g3331
sI4669
g4367
sI4670
g4047
sI4671
g4654
sI4672
g4526
sI4673
g2791
sI4674
g2787
sI4675
g3501
sI4676
g3400
sI4677
g4799
sI4678
g1768
sI4679
g2551
sI4680
g3097
sI4681
g4666
sI4682
g1728
sI4683
g3457
sI4684
g341
sI4685
g3255
sI4686
g1380
sI4687
g1608
sI4688
g3589
sI4689
g570
sI4690
g2516
sI4691
g3235
sI4692
g2260
sI4693
g332
sI4694
g3215
sI4695
g1527
sI4696
g4356
sI4697
g4422
sI4698
g1769
sI4699
g3812
sI4700
g2378
sI4701
g3479
sI4702
g4215
sI4703
g1900
sI4704
g4264
sI4705
g3129
sI4706
g988
sI4707
g3039
sI4708
g109
sI4709
g2709
sI4710
g2801
sI4711
g3494
sI4712
g3401
sI4713
g4490
sI4714
g4516
sI4715
g4127
sI4716
g240
sI4717
g4876
sI4718
g1497
sI4719
g339
sI4720
g1519
sI4721
g2592
sI4722
g331
sI4723
g3227
sI4724
g4303
sI4725
g588
sI4726
g3151
sI4727
g2693
sI4728
g1014
sI4729
g1116
sI4730
g609
sI4731
g2629
sI4732
g1422
sI4733
g4346
sI4734
g241
sI4735
g2033
sI4736
g3077
sI4737
g4531
sI4738
g443
sI4739
g2632
sI4740
g55
sI4741
g3482
sI4742
g1947
sI4743
g967
sI4744
g3063
sI4745
g924
sI4746
g3456
sI4747
g2686
sI4748
g38
sI4749
g1946
sI4750
g3951
sI4751
g1597
sI4752
g1537
sI4753
g674
sI4754
g1186
sI4755
g324
sI4756
g522
sI4757
g1068
sI4758
g2810
sI4759
g4622
sI4760
g1260
sI4761
g3658
sI4762
g2320
sI4763
g1639
sI4764
g2209
sI4765
g3588
sI4766
g1315
sI4767
g789
sI4768
g4555
sI4769
g2933
sI4770
g4408
sI4771
g4288
sI4772
g1082
sI4773
g4868
sI4774
g2125
sI4775
g4352
sI4776
g2307
sI4777
g53
sI4778
g1591
sI4779
g3028
sI4780
g2207
sI4781
g3117
sI4782
g1655
sI4783
g4719
sI4784
g3421
sI4785
g1995
sI4786
g3844
sI4787
g959
sI4788
g2463
sI4789
g3412
sI4790
g1978
sI4791
g1309
sI4792
g187
sI4793
g3251
sI4794
g3802
sI4795
g1281
sI4796
g873
sI4797
g4146
sI4798
g4261
sI4799
g2674
sI4800
g3978
sI4801
g2218
sI4802
g783
sI4803
g4277
sI4804
g680
sI4805
g2767
sI4806
g1253
sI4807
g3510
sI4808
g2450
sI4809
g1100
sI4810
g989
sI4811
g1981
sI4812
g1964
sI4813
g3943
sI4814
g2748
sI4815
g3914
sI4816
g4670
sI4817
g889
sI4818
g2469
sI4819
g4402
sI4820
g458
sI4821
g3616
sI4822
g1201
sI4823
g1509
sI4824
g3615
sI4825
g2398
sI4826
g1905
sI4827
g4427
sI4828
g3800
sI4829
g4394
sI4830
g4132
sI4831
g3034
sI4832
g1359
sI4833
g2596
sI4834
g1707
sI4835
g670
sI4836
g2766
sI4837
g1827
sI4838
g3988
sI4839
g2793
sI4840
g2651
sI4841
g4797
sI4842
g2291
sI4843
g1547
sI4844
g1714
sI4845
g1759
sI4846
g2103
sI4847
g860
sI4848
g3451
sI4849
g4624
sI4850
g4500
sI4851
g3831
sI4852
g2986
sI4853
g2526
sI4854
g2223
sI4855
g3246
sI4856
g1480
sI4857
g2172
sI4858
g4399
sI4859
g877
sI4860
g3672
sI4861
g2628
sI4862
g3497
sI4863
g266
sI4864
g103
sI4865
g1478
sI4866
g1104
sI4867
g1302
sI4868
g2300
sI4869
g643
sI4870
g2848
sI4871
g2529
sI4872
g560
sI4873
g32
sI4874
g3621
sI4875
g4049
sI4876
g4798
sa.