(lp0
(dp1
VKasumi 98
p2
I0
sVGadisii
p3
I1
sVT. kawk
p4
I2
sVScopedog-rsc
p5
I3
sVLf2 - deep
p6
I4
sVLucky colt
p7
I5
sVFf mai shiranui
p8
I6
sVArmor Guts
p9
I7
sVHaohmaru EX
p10
I8
sVS.sinclair EX
p11
I9
sVIka musume
p12
I10
sVSkeletor dx
p13
I11
sVScarecrow
p14
I12
sVSheep the royal
p15
I13
sVBlack joker
p16
I14
sVMulan
p17
I15
sVSledge
p18
I16
sVGuy mk ii
p19
I17
sVClaus
p20
I18
sVUltraman jack_a
p21
I19
sVHeavyarms custom
p22
I20
sVBlack polnareff
p23
I21
sVRonald
p24
I22
sVShigen
p25
I23
sVDhaos ND3
p26
I24
sVAzami
p27
I25
sVAruru(yuka)
p28
I27
sVKitsune
p29
I4873
sVDao-long
p30
I28
sVShantae
p31
I29
sVBaltan
p32
I30
sVSheng long
p33
I31
sVWonderman
p34
I32
sVMakaryudo
p35
I4879
sVMouri alice
p36
I2505
sVBonobono
p37
I34
sVFirestar
p38
I35
sVFakir
p39
I36
sVBlade
p40
I37
sVPocket Gouki
p41
I38
sVAoi matsubara
p42
I39
sVHiei
p43
I40
sVRoadsign
p44
I41
sVSatsuki yumiduka EX
p45
I4065
sVXenophage
p46
I42
sVThanoseid
p47
I43
sVDark karin EX2
p48
I4863
sVObsidian
p49
I4508
sVSammo-hacka
p50
I45
sVSakura Cosplay
p51
I4777
sVMister king
p52
I46
sVGoku ssj5 EX
p53
I4740
sVSion tatari EX2
p54
I47
sVBroly
p55
I48
sVPsyduck
p56
I49
sVSatsuki yumiduka
p57
I50
sVItachi uchiha nzc
p58
I51
sVThe batman
p59
I4178
sVEvil q
p60
I4273
sVD4 kirby
p61
I52
sVBroli
p62
I3978
sVThe mask
p63
I53
sVPeeking lord pirate
p64
I4946
sVPaul
p65
I54
sVRubette EX2
p66
I55
sVChar's zaku
p67
I56
sVKuanyinshen_nagiai
p68
I57
sVBenimaru945
p69
I58
sVLion(coh)
p70
I59
sVCrazy mukuro
p71
I60
sVShiki
p72
I61
sVDongdong'
p73
I62
sVSatoko
p74
I63
sVBlack-rock_shooter
p75
I2422
sVChinese gouki
p76
I64
sVRiesbyfe stridberg
p77
I65
sVKinniku suguru
p78
I66
sVGen shougo
p79
I67
sVBloodrayne
p80
I68
sVMizuki
p81
I69
sVShizuka
p82
I70
sVChippzanuff
p83
I71
sVGideon
p84
I72
sVSegalow
p85
I73
sVSuper vegeta EX3
p86
I4158
sVRotom
p87
I75
sVGrievous
p88
I76
sVKohaku
p89
I78
sVZeus
p90
I4479
sVKim XIII
p91
I79
sVKung fu man neo
p92
I80
sVSyakoya
p93
I4421
sVLeo FM
p94
I81
sVGolrio
p95
I4182
sVDan mk ii
p96
I4864
sVDormammu-r
p97
I82
sVRamparudo
p98
I83
sVAkiko EX
p99
I4179
sVSachiko
p100
I84
sVShiki tohno
p101
I85
sVMech gouki
p102
I4708
sVSquirtle
p103
I4424
sVGanondorf
p104
I86
sVBc-sakura
p105
I87
sVEx-kyo
p106
I88
sVXiayu
p107
I89
sVEx-kyo(jin-typea)
p108
I90
sVHulk 2099
p109
I4166
sVHato sabure
p110
I91
sVYuka
p111
I92
sVAtomos
p112
I93
sVAzure
p113
I94
sVValdoll
p114
I95
sVHonda ex
p115
I96
sVHancock EX
p116
I97
sVCustom sd luffy
p117
I98
sVHamtaro
p118
I4482
sVRanma saotome EX2
p119
I99
sVCaptain caveman
p120
I100
sVAkane inuwaka
p121
I101
sVShadow agent
p122
I3973
sVThe moon
p123
I102
sVElisabeth
p124
I103
sVOyashiro_chie
p125
I104
sVSnake eyes
p126
I1454
sVSanada yukimura
p127
I4953
sVMike Tyson IWBTG
p128
I105
sVFff
p129
I106
sVRadel
p130
I107
sVBaby bonnie hood
p131
I108
sVYatteyaru-death
p132
I109
sVArchangel
p133
I110
sVGohan  grande normale
p134
I111
sVJet
p135
I112
sVKon
p136
I4662
sVMagic dunker EX FF
p137
I113
sVMother
p138
I114
sVMadoka kaname_ai
p139
I115
sVKana-chan dhq
p140
I116
sVNorimaro MVC3
p141
I4374
sVArima_miyako
p142
I117
sVRegina
p143
I4503
sVBoon
p144
I119
sVM-gato
p145
I120
sVD.hibiki
p146
I121
sVAlessi
p147
I122
sVKou
p148
I123
sVAlsa
p149
I124
sVHakumen
p150
I1305
sVNirvana
p151
I125
sVMiyako yoshika
p152
I126
sVZeppeli ex
p153
I127
sVCvs shiva
p154
I128
sVSailor jupiter EX2
p155
I129
sVSorluska EX2
p156
I130
sVKarina toyota
p157
I131
sVRemilia scarlet
p158
I132
sVAgrias
p159
I4268
sVNarukana EX3
p160
I133
sVApplejack
p161
I134
sVMichaelangelo
p162
I135
sVSailor chibi moon
p163
I136
sVRaptor
p164
I137
sVLeon c
p165
I138
sVAlien metron
p166
I3225
sVHarley quinn
p167
I4278
sVCci shermie
p168
I139
sVHoimislime
p169
I140
sVShadow x
p170
I141
sVPaprika
p171
I142
sVKain
p172
I908
sVTurf EX3
p173
I144
sVKool aid man
p174
I4037
sVBalrog_a
p175
I2904
sVDooj mustachio
p176
I145
sVGeese CVS
p177
I146
sVTrouble man
p178
I4303
sVVega 2
p179
I4792
sV95
p180
I3914
sVKula xiii
p181
I4670
sVGouki x
p182
I148
sVMery
p183
I149
sVGuy CVS
p184
I150
sVKatakura kojuro
p185
I151
sVWalkure
p186
I152
sVButtercup DG
p187
I153
sVDeadpool mvc3
p188
I154
sVPrizm-star
p189
I155
sVNanoha takamachi EX3
p190
I156
sVHitosyura ex
p191
I157
sVPopeye
p192
I158
sVMarona(beta)
p193
I159
sVGundam rx-78 gp02a
p194
I160
sVAmiba EX
p195
I161
sVDevilch
p196
I162
sVMotaro
p197
I4175
sVWasp
p198
I163
sVTokiko EX2
p199
I164
sVMiyako
p200
I165
sVEx keine
p201
I166
sVPresea combatir
p202
I167
sVBilly kane ffsp
p203
I168
sVRuby heart mvc3
p204
I169
sVMukai
p205
I4286
sVRyo EX2
p206
I4324
sVUroboros
p207
I170
sVPelecanus
p208
I4589
sVMargaretha_solin
p209
I171
sVMasaki anzu
p210
I172
sVMiduma EX3
p211
I173
sVRera EX3
p212
I174
sVShadow EX3
p213
I175
sVEagle
p214
I176
sVKuma CVS
p215
I177
sVShiori misaka
p216
I178
sVKai
p217
I179
sVMami EX
p218
I181
sVTerry bogard
p219
I3753
sVRokurouta
p220
I182
sVMokou EX H
p221
I183
sVJin
p222
I184
sVMiranda
p223
I185
sVIronman
p224
I186
sVKay
p225
I187
sVRock volnutt
p226
I188
sVSub-zero
p227
I189
sVMongori EX
p228
I190
sVWily
p229
I191
sVMarian
p230
I192
sVSs6 rinrin
p231
I193
sVShadow kouma
p232
I194
sVNoel
p233
I3918
sVS.clara
p234
I195
sVEharu EX3
p235
I196
sVYuki kushinada
p236
I4716
sVAkai maho
p237
I4734
sVSa-x
p238
I197
sVCatwoman EX
p239
I198
sVReal gloria
p240
I199
sVAnny
p241
I4924
sVCarlos
p242
I200
sVHibiki-san
p243
I626
sVNanaya toki
p244
I202
sVCloud (3d)
p245
I203
sVIdaten
p246
I204
sVMiko
p247
I2846
sVMulchi fe
p248
I205
sVDhalsims
p249
I206
sVAoba EX2
p250
I207
sVDeluxe lucia fernandez
p251
I4566
sVBobby mk ii
p252
I208
sVBlack widow EX
p253
I209
sVChadha
p254
I1786
sVMomasusta
p255
I4494
sVSpy larue e
p256
I210
sVPerson-lichkeit
p257
I211
sVKensou EX3
p258
I4221
sVIrene
p259
I212
sVArrange_godzilla
p260
I213
sVUltraman_a
p261
I214
sVBilly kane
p262
I215
sVTamao mitsurugi
p263
I216
sVHiguresan
p264
I217
sVRare Sophitia
p265
I2099
sVAngela belti
p266
I218
sVElektra
p267
I219
sVKen X
p268
I4004
sVMomo-len_ver1.39
p269
I221
sVMade multi
p270
I222
sVNecorsair
p271
I2712
sVRock howard EX2
p272
I223
sVGen sfa
p273
I224
sVDeath EX3
p274
I4294
sVShuma
p275
I225
sVMain Man Knuckles
p276
I226
sVSalty Goku GT
p277
I227
sVNakoruru EX2
p278
I228
sVNakoruru EX3
p279
I229
sVKlaus garcia
p280
I230
sVP tabasa
p281
I4394
sVGaira
p282
I231
sV'gou no ken' kenshirou
p283
I232
sVVidel fight money
p284
I233
sVRoy wilson
p285
I234
sVHerb
p286
I235
sVEl_yukari
p287
I4495
sVKyo 98
p288
I236
sVDiyaa man
p289
I237
sVKiller whale
p290
I238
sVOgre akuma
p291
I239
sVKotiya sanae
p292
I240
sVToguro 30%
p293
I4233
sVDora
p294
I4236
sVKinopio EX
p295
I241
sVEmerald
p296
I242
sVTensi
p297
I243
sVRaoh sai
p298
I244
sVF.killerbee
p299
I245
sVBrunestud arcueid
p300
I246
sVToron
p301
I247
sVMugen de saikyou no lemirya
p302
I4388
sVKasumi ex
p303
I4502
sVDitto
p304
I248
sVAnthony hawk
p305
I249
sVKliff
p306
I250
sVDark order sol
p307
I251
sVScarlet dragon EX3
p308
I2554
sVSeth
p309
I252
sVKung fu man v-ism
p310
I253
sVRyofu
p311
I254
sVKen EX3
p312
I255
sVIceman
p313
I3989
sVWeregarurumon
p314
I257
sVUmvc_aya
p315
I258
sVJamm
p316
I259
sVNameless
p317
I260
sVSailor mars EX2
p318
I3252
sVTamika
p319
I4755
sVBuront
p320
I262
sVCustom ssfiv abel
p321
I263
sVNightmare gamera
p322
I4422
sVKirigamine kiriko
p323
I4228
sVGohan zeta
p324
I3913
sVKikyo_ex
p325
I264
sVSmall ryu EX3
p326
I4722
sVShikamaru nara
p327
I4693
sVWind-se
p328
I266
sVSuper vegetto ag
p329
I267
sVYoshimitsu
p330
I4488
sVDerp
p331
I268
sVShandera-k
p332
I269
sV<> ( 0)<>/2
p333
I270
sVDizzy
p334
I4719
sVProofed up matt
p335
I271
sVRainbow
p336
I4684
sVCheep-chomp
p337
I272
sVUm-krizalid-2k1
p338
I273
sVMaxima EX3
p339
I274
sVOotani reimu
p340
I275
sVVaisaga
p341
I276
sVCaptain atlantis
p342
I4476
sVHugo dc
p343
I4630
sVBsb ridley
p344
I277
sVRaydric_and_archer
p345
I4414
sVStevareno
p346
I278
sVBilly two moons (jp)
p347
I279
sVBrocken
p348
I280
sVScorpion EX2
p349
I281
sVScorpion EX3
p350
I282
sVSyo hayate EX
p351
I283
sVElisabeth EX3
p352
I284
sVAvalanche
p353
I3628
sVPlok
p354
I285
sVAzusa
p355
I286
sVN.boss
p356
I287
sVBra 18
p357
I4536
sVDeidara nzc
p358
I288
sVHyperbattlecyborg
p359
I289
sVHydron
p360
I290
sVWashizuka b style
p361
I291
sVKatana
p362
I292
sVChun-lee dark bolt
p363
I294
sVMelusine
p364
I295
sVMajin boo EX3
p365
I296
sVNakoruru
p366
I4090
sVHiedano akyu
p367
I297
sVKinu_ex
p368
I298
sVUmvc_youmu
p369
I299
sVKing ghidorah
p370
I300
sVMiyuki
p371
I301
sVImagine breaker
p372
I4955
sVGoku z2
p373
I302
sVAkira
p374
I303
sVAisha
p375
I304
sVShizumaru ex
p376
I305
sVLion_gunta
p377
I306
sVRei ayanami
p378
I307
sVYuri sakazaki EX3
p379
I2202
sVMai 2k2
p380
I308
sVSuzuki megumi
p381
I309
sVRozaly
p382
I310
sVUnkoman
p383
I311
sVMeu(you-ki)
p384
I312
sVRimle
p385
I313
sVJackie Drunken Fist
p386
I314
sVMature
p387
I315
sVMorph
p388
I4848
sVRandy m. green EX
p389
I4607
sVKano EX
p390
I4475
sVKiki de appendix
p391
I317
sVEvil homer
p392
I318
sVCyborg_d-9f
p393
I319
sVYu-lan
p394
I1280
sVPocket Ibuki
p395
I321
sVDudley EX3
p396
I4937
sVChan
p397
I3940
sVRaoh
p398
I323
sVNair
p399
I4398
sVNail
p400
I324
sVSoma cruz ex
p401
I325
sVDeluxe tetsu yatogi
p402
I3939
sVCandyman
p403
I3941
sVGaira EX2
p404
I326
sVTruck
p405
I4106
sVSilversamurai mvc2
p406
I4010
sVDlanor a. knox
p407
I327
sVTeoc reisen
p408
I328
sVStoneaxe
p409
I329
sVBekkamu2
p410
I330
sVUltraman gaia_a
p411
I331
sVCci kim
p412
I332
sVBridget
p413
I333
sVSai EX2
p414
I334
sVZangief maskered
p415
I335
sVCammy
p416
I336
sVClawbear
p417
I337
sVGod_gundom
p418
I338
sVJin saotome
p419
I339
sVKill bill gogo
p420
I340
sVMayor of earth
p421
I4432
sVRikard
p422
I341
sVGoat_b
p423
I342
sVRalf
p424
I343
sVRugagaga!!
p425
I344
sVSkaxl roa
p426
I3740
sVJudgment EX3
p427
I345
sVSonic
p428
I346
sVYumeji kurokouchi
p429
I347
sVYuiren
p430
I348
sVBimmy Lee
p431
I349
sVSeth EX3
p432
I350
sVMyth blue ranger
p433
I3272
sVMirror cube square
p434
I351
sVVile EX3
p435
I352
sVDoraemon EX3
p436
I353
sVAthena asamiya
p437
I3888
sVHomura & friends
p438
I354
sVShimo EX
p439
I355
sVG silver
p440
I356
sVJudgment
p441
I357
sVPhobos(yanagi_ai)
p442
I4665
sVGeisya
p443
I452
sVZuepia
p444
I4094
sVKen IV
p445
I4931
sVLilly kane
p446
I359
sVLady aozaki
p447
I360
sVThe flash
p448
I361
sVSoujiro EX3
p449
I4633
sVBroly lssj3
p450
I4586
sVKnucks
p451
I4923
sVKyle the squirtle
p452
I4820
sVSpelenker
p453
I4957
sVE Ken
p454
I4006
sVStorm-owl
p455
I363
sVFurudo_erika
p456
I364
sVDonkeykongjr EX
p457
I365
sVGuile cvs2
p458
I366
sVNise athena
p459
I367
sVVanillaIce
p460
I368
sVK joker
p461
I3960
sVMakoto sawatari
p462
I369
sVKotonoha katsura
p463
I370
sVUltraman dyna_a
p464
I371
sVNatasha
p465
I372
sVBlanka
p466
I373
sVRobo
p467
I374
sVLegion EX3
p468
I375
sVA-unagi
p469
I376
sVA-kain
p470
I377
sVFinn and jake
p471
I378
sVKazami yuka_ns
p472
I379
sVDead kung fu man EX3
p473
I4483
sVMiroku
p474
I380
sVWarmachine MVC2
p475
I381
sVYoumu konpaku
p476
I382
sVOrochi(rance)
p477
I383
sVGloria EX3
p478
I384
sVFray
p479
I3281
sVSonson
p480
I385
sVVenom GG
p481
I386
sVAlex_a
p482
I387
sVCody EX
p483
I388
sVLililen
p484
I389
sVOverlord
p485
I4321
sVBender
p486
I390
sVLf2 - dennis
p487
I391
sVMs.valliere
p488
I392
sVZoma ga
p489
I4822
sVStake
p490
I394
sV98
p491
I143
sVShocker
p492
I395
sVSue sakamoto
p493
I396
sVBugs bunny
p494
I4928
sVKyoko_sakura EX
p495
I4067
sVJunichi
p496
I397
sVJyuzumaru
p497
I3126
sVCharlie EX3
p498
I398
sVIvonne
p499
I399
sVMimizuku_teacher
p500
I4141
sVBaki-hanma EX3
p501
I400
sVEddie DD
p502
I401
sVBane
p503
I4164
sVBlackheart
p504
I402
sVBang
p505
I403
sVHokutomaru
p506
I404
sVPatrick
p507
I3755
sVEgg chamber
p508
I406
sVAsh
p509
I407
sVOmega
p510
I408
sVMorrigan Aensland
p511
I2741
sVKoishi_b EX3
p512
I409
sVThouther 2
p513
I410
sVKnight
p514
I411
sVRadish ssj4
p515
I4756
sVGold lightan
p516
I4462
sVLucy
p517
I4460
sVCecil_damon
p518
I413
sVUltraman tarou
p519
I414
sVQb
p520
I415
sVPikopiko
p521
I4153
sVCaptain america
p522
I4240
sVWalkyrie
p523
I416
sVDiablo_skeleton
p524
I4825
sVRosemary
p525
I4945
sVRugal b. EX
p526
I417
sVCobra
p527
I418
sVTumbleweed
p528
I419
sVMystic gohan
p529
I420
sVRasputin
p530
I4474
sVGuldo
p531
I1228
sVFaydal
p532
I422
sVMetal mario
p533
I423
sVRoomi
p534
I424
sVChameleon DS
p535
I4337
sVOmega_rugal EX
p536
I425
sVNarukana
p537
I426
sVAnastasia
p538
I2860
sVSpiny
p539
I427
sVStraight cougar
p540
I428
sVAcid
p541
I429
sVDevil_daigo EX
p542
I430
sVBlodia
p543
I431
sVMaster ken
p544
I4072
sVThe mythical dacentrurian
p545
I1299
sVSilkheart
p546
I4899
sVNeff
p547
I433
sVMini zeroko
p548
I434
sVHybrid form sula
p549
I4664
sVSorami
p550
I4128
sVRughadjeen
p551
I437
sVKung flappy man
p552
I438
sVSpider-man 2099
p553
I800
sVBriaaaaaaaaaaaaaaaaan ex
p554
I3980
sVClark steel
p555
I439
sVBarbarccia
p556
I440
sVLex luthor
p557
I441
sVAnne
p558
I4860
sVRemy sf3
p559
I1929
sVServbot
p560
I444
sVMike bison
p561
I4081
sVWally West
p562
I445
sVRanmaru
p563
I4013
sVLi xiangfei
p564
I446
sVBurai yamamoto
p565
I4689
sVBig
p566
I4260
sVYamazaki 71113
p567
I448
sVSailor venus k
p568
I4367
sVSodom sfa
p569
I450
sVCharlotte Aulin
p570
I451
sVShingo 98
p571
I4793
sVBs kung fu man
p572
I3578
sVFlonne
p573
I358
sVAnimus
p574
I4027
sVEcoco EX3
p575
I453
sVOyashirorika
p576
I454
sVDaiyousei_hsts
p577
I455
sVOhaou
p578
I3900
sVLt.kurosawa EX
p579
I4051
sVPepsi man
p580
I456
sVGorimaru jr
p581
I457
sVGardevoir EX3
p582
I458
sVMasako(emanon)
p583
I2600
sVGigapowier loves dark ruler
p584
I459
sVFelicueid
p585
I460
sVNana diclonius
p586
I4009
sVDate masamune_ch
p587
I461
sVRen idagawa
p588
I462
sVKszsk-shuko
p589
I463
sVErmac mk2
p590
I464
sVNatalia glinka
p591
I465
sVYuusuke
p592
I466
sVRosa_obsn
p593
I4893
sVLegendary super saiyan akuma
p594
I467
sVZazie muhaba
p595
I3297
sVGlacius
p596
I468
sVX
p597
I469
sVViolent dan
p598
I471
sVAoko 7thmoonstyle
p599
I472
sVTsubaki yayoi
p600
I4420
sVAnnoying orange
p601
I473
sVBatista
p602
I474
sVSabotage
p603
I2863
sVWild ken ex
p604
I475
sVShiki nanaya
p605
I476
sVAwaken satsuki
p606
I1362
sVYou are already dead
p607
I477
sVYuki ex EX3
p608
I478
sVFire sonic
p609
I4465
sVRyoko asakura
p610
I479
sVJabu
p611
I480
sVSakuya izayoi EX3
p612
I481
sVElirin EX3
p613
I482
sVRin
p614
I483
sVKarai EX2
p615
I484
sVLegendary super saiyan
p616
I485
sVSailor venus EX2
p617
I486
sVEvil kung fu man mkii
p618
I4362
sVMiu_kurosaki
p619
I4265
sVJoe higashi
p620
I487
sVSaishu
p621
I488
sVNishiura baseball`s
p622
I489
sVDarth vader
p623
I490
sVChiyo mihama EX
p624
I4005
sVLin EX
p625
I4525
sVMaster toadman
p626
I492
sVHikaru
p627
I493
sVYashiro EX2
p628
I494
sVDoge
p629
I3947
sVTheskiver
p630
I4290
sVE nagamori
p631
I2608
sVSion eltnam atlasia EX
p632
I2479
sVKaioh-retsu
p633
I495
sVMr. buu
p634
I496
sVZorororonoa
p635
I4467
sVGn-pioneer
p636
I497
sVBlack_k'
p637
I498
sVNatsuka fuou
p638
I499
sVCocodrilo
p639
I4869
sVMissingnumber
p640
I500
sVUfo
p641
I501
sVThe joker
p642
I3993
sVItoko_nagiai
p643
I1726
sVFliz
p644
I4656
sVMaraiah
p645
I4119
sVSheeva
p646
I503
sVKamui EX3
p647
I504
sVRasho-zero
p648
I505
sVLee f22
p649
I506
sVMilan flare
p650
I507
sVPulseman
p651
I4496
sVFat albert
p652
I509
sVDragon EX2
p653
I4077
sVHayato
p654
I510
sVJyashinsai
p655
I781
sVDrew 0D
p656
I512
sVCyborg t-8p
p657
I513
sVRyoko ex EX3
p658
I514
sVSuika
p659
I515
sVTarnished ryu
p660
I516
sVKnuckles custom
p661
I517
sVChonshu ex
p662
I518
sVTios
p663
I519
sVGulool ja ja
p664
I520
sVChrome dome
p665
I959
sVKoopa troopa djhr
p666
I521
sVTheThing
p667
I4835
sVDragon EX
p668
I522
sVAkiha tohno EX
p669
I523
sVTakuma 2002
p670
I524
sVG-adelhell
p671
I4753
sVAgent p
p672
I526
sVGhetto Warmachine 420
p673
I3286
sVK_reimu
p674
I527
sVNeku sakuraba
p675
I528
sVYaminavenom
p676
I4956
sVS-kishima_kouma
p677
I529
sVHong krizalid
p678
I530
sVBasilisk-s[0.98]
p679
I531
sVPeter
p680
I3306
sVTretista-kelverian
p681
I532
sVTamamo-no-mae
p682
I533
sVDemitri
p683
I534
sVCruelty blood arcueid
p684
I535
sVZidane
p685
I536
sVSeravy
p686
I537
sVHayato mvc2
p687
I4797
sVChiester410
p688
I538
sVKim kaphwan CVS2
p689
I539
sVSaki-mvc
p690
I540
sVKatsura kotonoha
p691
I541
sVGadis
p692
I542
sVT ninja
p693
I3911
sVKohaku vp EX3
p694
I543
sVSakuya_swr
p695
I4193
sVKimala the bouncer
p696
I544
sVAnge EX3
p697
I545
sVWhip
p698
I546
sVLoud Demon M1
p699
I4345
sVKim hoon EX FF
p700
I547
sVDokuganp
p701
I548
sVDespero
p702
I549
sVTakuma945 EX3
p703
I550
sVVergil
p704
I551
sVMarisa,k
p705
I552
sVDoraemon
p706
I553
sVPeach mizuki
p707
I554
sVCondor heads
p708
I555
sVFinal sigma w
p709
I3311
sVFlan-b
p710
I557
sVKisarah-n
p711
I558
sVKy and sol
p712
I3516
sVTaideo EX
p713
I559
sVShaoran lee
p714
I560
sVRyo 98
p715
I561
sVBlaque
p716
I562
sVTf2 - sniper
p717
I563
sVBlue suede goo
p718
I4450
sVRugal bernstein
p719
I564
sVRobert nbc
p720
I565
sVChaves
p721
I4551
sVMystique
p722
I566
sVBattle mahoro EX
p723
I567
sVSuperpez
p724
I568
sVIncredible power kyo
p725
I1950
sVLio convoy
p726
I569
sVKatima
p727
I570
sVEvil Ryu SF4
p728
I571
sVZodd
p729
I572
sVGray fly
p730
I573
sVWatern
p731
I574
sVKyle broflovski
p732
I575
sVMarrow
p733
I576
sVGargoyle
p734
I577
sVRockman x EX2
p735
I578
sVKasai
p736
I579
sVMephisto
p737
I4411
sVSailor mars k
p738
I580
sVJazz EX3
p739
I581
sVKomepo
p740
I3854
sVFire heart
p741
I583
sVGalivan
p742
I584
sVR.mika
p743
I585
sVWinggod kanna
p744
I1321
sVKnuckles EX3
p745
I587
sVDonovan
p746
I588
sVYang
p747
I4638
sVPan transform
p748
I589
sVDirtyfat
p749
I4219
sVDialog
p750
I4481
sVJimmy
p751
I3458
sVCurfue
p752
I4310
sVEarth-suika
p753
I590
sVZoro roronoa
p754
I591
sVMaxima ex
p755
I592
sVSolisr8000
p756
I4190
sVOmanyte EX3
p757
I593
sVReal zeroko
p758
I594
sVReimu hakurei EX
p759
I4306
sVRai ex
p760
I595
sVAku-amakusa
p761
I596
sVYukari yakumo
p762
I597
sVAnother kyo
p763
I598
sVDorniar ex
p764
I599
sVZatracenie
p765
I600
sVGoodman
p766
I3318
sVMike macho haggar
p767
I74
sVCless
p768
I603
sVAl azif
p769
I4028
sVMax eagle
p770
I605
sVSilvermoon
p771
I2627
sVAyane_ikuse EX
p772
I606
sVBilly two moons
p773
I3673
sVRighteous ken
p774
I607
sVXehrnyth
p775
I608
sVRenamon Dv2
p776
I609
sVJohnny cage
p777
I1836
sVSaku EX2
p778
I610
sVMongul
p779
I611
sVThe kung fu man
p780
I612
sVSamwell han
p781
I613
sVMarco EX
p782
I4802
sVRyuho
p783
I615
sVSpiral
p784
I616
sVDevil daimajin
p785
I617
sVSpiderman
p786
I2299
sVNanaya_reaver
p787
I618
sVYurika kirishima
p788
I619
sVFranky CM
p789
I4767
sVBig bomberder
p790
I620
sVProfessor farnsworth
p791
I621
sVThe atom
p792
I622
sVPrimeus
p793
I623
sVD EX
p794
I624
sVCammy_a
p795
I1958
sVHimegami aisa
p796
I625
sVRobert garcia EX2
p797
I4454
sVDokuro chan
p798
I627
sVJill roberts
p799
I4659
sVDracula
p800
I628
sVShinsaku maekawa
p801
I629
sVKaku
p802
I525
sVB-cirno
p803
I630
sVSnoopy
p804
I631
sVJames
p805
I632
sVFiona mayfield
p806
I4217
sVAlakazam
p807
I634
sVTomoko
p808
I635
sVAzteca EX
p809
I2514
sVGoku
p810
I636
sVHonedge
p811
I637
sVMo-mo-
p812
I638
sVOrochi iori EX
p813
I4603
sVZankuro EX2
p814
I639
sVRin EX2
p815
I640
sVPupazz
p816
I4266
sVKyoudou senna
p817
I4259
sVJoe higashi EX3
p818
I642
sV(sman)
p819
I4264
sVRouwe EX3
p820
I643
sVItoko
p821
I644
sVFenice
p822
I645
sVHinako shijo
p823
I646
sVFaust
p824
I647
sVUltraman gaia
p825
I648
sVDemonica
p826
I4954
sVCaptain ginyu
p827
I649
sVZeid
p828
I4941
sVLugia
p829
I3920
sVDiablo_skeleton EX3
p830
I651
sVAnaroguma
p831
I652
sVGreen lantern lucario
p832
I4172
sVLayzner_tyanko ai
p833
I653
sVNu 13
p834
I654
sVSonic the hedgehog
p835
I4096
sVBilly
p836
I655
sVMina
p837
I656
sVSylphie
p838
I4025
sVDavid bell
p839
I657
sVKasumi todo
p840
I658
sVCap.com
p841
I4930
sVMokey d. luffy
p842
I660
sVBiscuit-oliva
p843
I661
sVRio hinayama
p844
I662
sVKousaku
p845
I663
sVCondor EX
p846
I664
sVMiacis
p847
I665
sVMint
p848
I4073
sVZ gundam
p849
I666
sVRoyal guard
p850
I667
sVTao jun
p851
I4305
sVGod gundam EX
p852
I4076
sVDaigo ken
p853
I669
sVPogo
p854
I670
sVLuke cage
p855
I671
sVSpitfire_m
p856
I672
sVThe blob
p857
I4891
sVKracko
p858
I673
sVPeijin-san
p859
I1699
sVMakoto(*zenkai*)
p860
I1968
sVYouhei 1p
p861
I1596
sVF_gills
p862
I674
sVGlaceon
p863
I4681
sVKubikiri basara EX
p864
I675
sVKarate kenji dhq
p865
I676
sVCaster_extra
p866
I4847
sVIroha
p867
I677
sVW.nut
p868
I678
sVFreedom -meteor-
p869
I4423
sVKen MVC3
p870
I679
sVG rugal CVS
p871
I511
sVUkyo tachibana EX3
p872
I1062
sVNinja EX3
p873
I682
sVSaber
p874
I683
sVMai-ling
p875
I684
sVGundam double zeta
p876
I685
sVTrident
p877
I4796
sVShin gouki
p878
I687
sVDiglett
p879
I4583
sVWing
p880
I688
sVZeroko
p881
I4859
sVKurokishi
p882
I689
sVReika
p883
I4071
sVGai
p884
I4948
sVYu-by
p885
I691
sVVakishim
p886
I692
sVKurohige
p887
I693
sVReiko
p888
I694
sVGrappler shiki
p889
I695
sVVegeta z2
p890
I696
sVMr.karate EX3
p891
I697
sVShang tsung
p892
I698
sVEpyon
p893
I699
sVAstranalent
p894
I4817
sVShiki vp
p895
I700
sVHeat man
p896
I701
sVZeorymer
p897
I702
sVMudman_n
p898
I703
sVIyo
p899
I4033
sVSpider-carnage
p900
I704
sVLeona xiii
p901
I705
sVAlice
p902
I706
sVCorona
p903
I707
sVFelden
p904
I3949
sVKuuga
p905
I4163
sVFatter Albert
p906
I4159
sVAquaman
p907
I708
sVKobun 43
p908
I4143
sVLancer
p909
I709
sVCustom experimental trf2 beatrice
p910
I710
sVNeco-arc
p911
I711
sVBrokken
p912
I712
sVHeart
p913
I713
sVYami_miko EX
p914
I714
sVChrysalis
p915
I715
sVHitosyura
p916
I716
sVYusha30
p917
I717
sVMr.ganon
p918
I718
sVD-rugal EX3
p919
I719
sVKou EX
p920
I720
sVR. lilith
p921
I721
sVAkiha EX
p922
I722
sVRouga zanma
p923
I723
sVRozwel
p924
I3902
sVPatchouli_k
p925
I725
sVBubblum
p926
I726
sVKyosuke shigure
p927
I2845
sVSonans
p928
I728
sVWing gundam zero custom
p929
I4745
sVSentinel
p930
I3288
sVBai-hu EX
p931
I730
sVShishiwakamaru
p932
I731
sVGuerrero divino del dragn
p933
I732
sVSquidward
p934
I733
sVShinzero
p935
I734
sVOnodera ren
p936
I735
sVSuija
p937
I736
sVA-ko
p938
I737
sVGouken
p939
I4279
sVPopura
p940
I830
sVSumiremaru
p941
I739
sVAlissa
p942
I740
sVDeluxe may
p943
I741
sVMahvel ken
p944
I742
sVTina
p945
I743
sVFenri-lunaedge
p946
I745
sVSamchay ex
p947
I746
sVIrori EX3
p948
I747
sVMonami ogura
p949
I748
sVSion(coh)
p950
I749
sVGardevoir dx
p951
I750
sVDante M
p952
I751
sVCube
p953
I752
sVLee
p954
I753
sVLiu-kang
p955
I754
sVBenimaru EX
p956
I755
sVDio brando
p957
I756
sVE.honda sf2
p958
I757
sVRumia
p959
I758
sVZangeese
p960
I759
sVLiza
p961
I760
sVLeo
p962
I761
sVMarie EX
p963
I762
sVOboromaru
p964
I763
sVGogeta ssj4
p965
I764
sVAkashi_kaoru
p966
I765
sVSirohime
p967
I4743
sVThe real doom
p968
I766
sVCola Fe
p969
I767
sVChiko
p970
I727
sVDudley K
p971
I769
sVRemy
p972
I3992
sVYui_kutuna EX
p973
I771
sVAlien guts(blue_no9)
p974
I772
sVFalse valkyrie
p975
I773
sVSean matsuda
p976
I4201
sVMvc2 megaman
p977
I774
sVRacheal mc
p978
I775
sVSun god
p979
I776
sVYellow devil
p980
I4111
sVK EX
p981
I777
sVThing
p982
I778
sVMuaythaiman
p983
I4448
sVJack turner ex
p984
I779
sVOmega Cloud Strife
p985
I4255
sVJulius emery
p986
I780
sVH_witch
p987
I4489
sVKain blade
p988
I4706
sVBonobono EX3
p989
I4810
sVRobo-jam
p990
I1066
sVBuroli
p991
I784
sVReisen deadpool inaba
p992
I785
sVMiko EX
p993
I786
sVTamtam
p994
I787
sVReproduction gogeta
p995
I788
sVTakuma945
p996
I789
sVAyane wp
p997
I790
sVArima_meirin
p998
I4609
sVBig chicken
p999
I791
sVIchi
p1000
I792
sVKyouki
p1001
I793
sVCiel EX3
p1002
I794
sVDream v
p1003
I795
sVUltimate weapon chise
p1004
I4800
sVKung fu master
p1005
I796
sVSetsuna
p1006
I797
sVRindou
p1007
I4338
sVC3po & r2d2
p1008
I798
sVDurian
p1009
I4637
sVByakuren hijiri
p1010
I4301
sVMako
p1011
I799
sVKousonsyou
p1012
I4291
sVUrien
p1013
I3984
sVOpirus element
p1014
I801
sVAsborb
p1015
I2481
sVHybrid
p1016
I802
sVRan yakumo
p1017
I4728
sVInsane hiryu
p1018
I804
sVMiyuki EX
p1019
I3966
sVSonya
p1020
I805
sVDan smith, the tyrant
p1021
I1987
sVGamera
p1022
I4588
sVSorluska
p1023
I808
sVYuna
p1024
I809
sVMarvel Marrow
p1025
I1232
sVAkari ichijo
p1026
I4313
sVWhite len EX
p1027
I1248
sVJuugo
p1028
I4702
sVCapmurica
p1029
I812
sVNatsu EX2
p1030
I3950
sVEmily barnet
p1031
I813
sVChameleon
p1032
I814
sVNeo dio
p1033
I815
sVSonGohan
p1034
I816
sVReisen_swr
p1035
I3983
sVMycale
p1036
I2306
sVSatsujinki EX3
p1037
I817
sVIggy ex
p1038
I818
sVShintaro
p1039
I4317
sVThe undertaker
p1040
I819
sVMr.heart
p1041
I820
sVMature CVS
p1042
I821
sVKou EX3
p1043
I1356
sVBonus kun EX2
p1044
I823
sVKung fu girl
p1045
I824
sVSppaman
p1046
I825
sVKagami ex
p1047
I826
sVJazu EX3
p1048
I827
sVSodom
p1049
I4050
sVSuwako
p1050
I828
sVSion_tatari
p1051
I829
sVNamek gohan
p1052
I831
sVRocky
p1053
I832
sVRugal CVS
p1054
I833
sVBlack zero
p1055
I3912
sVKingbehinnmoth
p1056
I835
sVMohikan
p1057
I836
sVRedking
p1058
I837
sVPsychotic ryu
p1059
I838
sVPopeye the sailor
p1060
I839
sVMeiya_striker
p1061
I2665
sVStan
p1062
I841
sVMagma-dragoon
p1063
I842
sVKim kaphwan EX3
p1064
I843
sVJack lantern EX3
p1065
I844
sVMars people EX3
p1066
I845
sVCutman
p1067
I1384
sVZangeese EX2
p1068
I847
sVPractice Vegeta
p1069
I848
sVDarkwing duck
p1070
I849
sVCyberwarren
p1071
I850
sVHaruhi suzumiya EX
p1072
I851
sVRey mysterio
p1073
I852
sVBriaaaaaaaaaaaaaaaaan
p1074
I853
sVBarbatos_goetia
p1075
I854
sVKathumi orochi
p1076
I855
sVJay garrick
p1077
I856
sVFranko
p1078
I857
sVWhite Buffalo M1
p1079
I858
sVSquall JP
p1080
I859
sVHe-man
p1081
I4509
sVJack13
p1082
I860
sVBattle dome
p1083
I861
sVMike EX2
p1084
I4772
sVMakendo2
p1085
I862
sVEvil barney
p1086
I863
sVMegu asuhara
p1087
I864
sVMonkey.d.luffy
p1088
I865
sVKyko
p1089
I4663
sVMexican typhoon
p1090
I866
sVMashiro
p1091
I867
sVOmega goenitz
p1092
I1365
sVNanaya-kamen
p1093
I4316
sVHawk
p1094
I3278
sVAsahina mikuru EX
p1095
I868
sVProject_f
p1096
I681
sVEiji EX3
p1097
I870
sVChichi EX3
p1098
I871
sVRaiya
p1099
I4247
sVShiranui mai
p1100
I4144
sVRouge unsou
p1101
I872
sVMadiesha
p1102
I4056
sVNeco chaos
p1103
I4809
sVSuzushina yuriko
p1104
I2292
sVSoulgen
p1105
I873
sVShin eddie
p1106
I874
sVAsutorea
p1107
I875
sVMiki sayaka
p1108
I4866
sVMrheart
p1109
I876
sVAdon
p1110
I4364
sVRajaayuri
p1111
I877
sVCci jhun
p1112
I878
sVAdom
p1113
I4185
sVMai-ling EX
p1114
I879
sVSuper Skrull MVC
p1115
I880
sVGrand superior ultimate man
p1116
I1999
sVAndrew
p1117
I882
sVZantetsu ex
p1118
I883
sVBasilisk-s[0.98] EX3
p1119
I4170
sVKhan ex
p1120
I4729
sVM-e-reptos
p1121
I4653
sVBrian griffin
p1122
I885
sVShikyoh
p1123
I3726
sVGrebam EX
p1124
I886
sVGerdon di yeah
p1125
I887
sVRelly
p1126
I435
sVDeath force
p1127
I888
sVCelesty
p1128
I889
sVNecoarc_abyss
p1129
I890
sVKanna
p1130
I891
sVJoker EX3
p1131
I892
sVAtomic dust amiba
p1132
I4412
sVDaisy dw
p1133
I893
sVLight
p1134
I894
sVHarman
p1135
I895
sVUzaku
p1136
I4608
sVJhons lee EX3
p1137
I896
sVNightmare the jujin lv3
p1138
I897
sVChaos hiryu
p1139
I898
sVKazuma EX
p1140
I899
sVRequiem giorno(amaai)
p1141
I900
sVKazu
p1142
I901
sVMamiya EX
p1143
I902
sVWif
p1144
I903
sVKung fu head
p1145
I904
sVCombo man
p1146
I905
sVKfmsp
p1147
I906
sVGeese Howard
p1148
I907
sVHeavy strike
p1149
I4542
sVBig bear
p1150
I909
sVOmni-psych super dizzy lv 3
p1151
I3380
sVW arcueid
p1152
I910
sVWild-dachon
p1153
I911
sVTsukuyo
p1154
I912
sVPikaman
p1155
I4198
sVArchetype earth_r
p1156
I914
sVAkys
p1157
I915
sVBarom1
p1158
I4918
sVUltraman tarou_a
p1159
I916
sVKaguya houraisan EX
p1160
I917
sVHiel_mk
p1161
I918
sVBriaaaaaaaaaaaaaaaaan EX3
p1162
I919
sVIngrid EX2
p1163
I4396
sVIngrid EX3
p1164
I920
sVDress cinderella mio
p1165
I921
sVRb2bob
p1166
I4355
sVTenko-abab
p1167
I922
sVAdamas
p1168
I4921
sVPolnareff
p1169
I924
sVHikkoshi_baba
p1170
I925
sVCaptain kidd
p1171
I926
sVUltraman tiga_a
p1172
I4401
sVCafelier
p1173
I2273
sVShartel
p1174
I927
sVTerry bogard EX2
p1175
I928
sVOmni-psych chipp
p1176
I3896
sVChun li xi
p1177
I929
sVAlyssa ex
p1178
I930
sVJack-hamma ex
p1179
I931
sVDrunk rock lee
p1180
I932
sVExtra usapi-
p1181
I933
sVBroccalon
p1182
I4327
sVMaster ryu
p1183
I935
sVDaffy duck
p1184
I4787
sVHarry EX3
p1185
I936
sVMomimomi
p1186
I937
sVDr.gero
p1187
I938
sVLarcen
p1188
I4348
sVAlucard RAI
p1189
I940
sVDan
p1190
I941
sVAtari dragon EX2
p1191
I4616
sVAndroid 18 EX3
p1192
I942
sVTsukushi_mio
p1193
I943
sVEfreet
p1194
I944
sVMahvel chun li
p1195
I945
sVLieselotte_achenbach
p1196
I1090
sVPeppercat
p1197
I947
sVBaragon
p1198
I948
sVMaster zibaku rugal
p1199
I3936
sVReak.f
p1200
I949
sVYoko
p1201
I950
sVRoad runner
p1202
I881
sVOrochi-takashi
p1203
I951
sVGustoff EX3
p1204
I952
sVWanda
p1205
I953
sVCrea-f
p1206
I322
sVOdie
p1207
I954
sVCyclops_cota
p1208
I955
sVNabeatu
p1209
I4591
sVBeauty queen etna
p1210
I956
sVBison
p1211
I4574
sVKyosuke pj
p1212
I4410
sVOmega agk
p1213
I958
sVChomper
p1214
I4661
sVKakyoin noriaki EX3
p1215
I960
sVSaya IX
p1216
I961
sVGagi_ex
p1217
I962
sVMillia tnt
p1218
I963
sVTony Chopper
p1219
I964
sVSahad
p1220
I965
sVAlexey zalazof
p1221
I966
sVBobby ologun
p1222
I967
sVPower kung fu man
p1223
I3922
sVKraidgief
p1224
I968
sVRyuhi SD
p1225
I970
sVHaggar ex
p1226
I971
sVMudman EX3
p1227
I972
sVBekkamu
p1228
I973
sVGouken sf4
p1229
I974
sVNenaikodareda
p1230
I975
sVSaisyuu_dokusyo_bouei_system
p1231
I4943
sVOverlord laharl
p1232
I4325
sVShishin
p1233
I978
sVBinran
p1234
I979
sVBloo ex
p1235
I980
sVTao
p1236
I981
sVGeorge
p1237
I982
sVShin kazuma
p1238
I983
sVTak
p1239
I984
sVEiji mk
p1240
I985
sVLupin the 3rd
p1241
I4657
sVDragon rider
p1242
I986
sVMaster kaede
p1243
I987
sVKoneko EX
p1244
I988
sVNaruto kun hr
p1245
I989
sVSaber EX
p1246
I990
sVGuts
p1247
I991
sVScott pilgrim EX3
p1248
I992
sVKenoh EX2
p1249
I993
sVLf2 - davis
p1250
I994
sVSs6 shisyun-abab
p1251
I995
sVDuck king
p1252
I4007
sVRei
p1253
I996
sVMu 12
p1254
I997
sVMoriya b style
p1255
I998
sVPyron
p1256
I4880
sVYuuka kazami
p1257
I999
sVRider
p1258
I1000
sVGokussj4d
p1259
I1001
sVSf4 omni
p1260
I1002
sVSarashina EX
p1261
I1003
sVGavora
p1262
I1004
sVTylor
p1263
I4806
sVKaguya houraisan EX3
p1264
I1006
sVA.b.a
p1265
I1007
sVFilea EX3
p1266
I1008
sVGalford
p1267
I1009
sVBlackmore
p1268
I1010
sVG project
p1269
I1011
sVShin golem
p1270
I4760
sVDrdoom
p1271
I2689
sVFeilong sfa
p1272
I1014
sVBlitztank-n
p1273
I1015
sVOyashirorika EX
p1274
I1016
sVKung fu rabbit
p1275
I1017
sVJustice ao
p1276
I1018
sVOmake
p1277
I1019
sVPein nzc
p1278
I1385
sVTessa
p1279
I1020
sVWhite len k
p1280
I3858
sVSkullman
p1281
I1021
sVGeki f22
p1282
I1022
sVDragon claw EX3
p1283
I1023
sVOmni-psych justice
p1284
I1024
sVMasked rider blade
p1285
I1025
sVSissy EX3
p1286
I4600
sVPaul phoenix EX
p1287
I1026
sVFirebrand
p1288
I4922
sVLayban
p1289
I4886
sVThe red dragon
p1290
I1028
sVRyo fu
p1291
I1029
sVKilla and ren EX
p1292
I1030
sVM. bison
p1293
I3945
sVSimon B
p1294
I4795
sVHamster
p1295
I1031
sVDonatello DCAT
p1296
I1032
sVHol horse
p1297
I1033
sVHayate EX
p1298
I1034
sVZeus ex
p1299
I1035
sVKamishiro_kunagi
p1300
I1036
sVBlossom jp
p1301
I1037
sVKosanjou
p1302
I1038
sVDitto EX3
p1303
I1039
sVRemi
p1304
I1040
sVShingo
p1305
I1041
sVOrochimaru
p1306
I1042
sVDark cornian
p1307
I1043
sVAkane satomura EX2
p1308
I4120
sVMiyazato erika EX
p1309
I4095
sVGoryujin
p1310
I1044
sVWreck-it ralph
p1311
I1045
sVNeva
p1312
I1046
sVWhispy woods
p1313
I2654
sVThe Sailor Man
p1314
I2274
sVMisuzu EX
p1315
I1047
sVMiku_tt
p1316
I1048
sVG_cyclone
p1317
I1049
sVNeko&mech_m
p1318
I3898
sVNi_san
p1319
I1050
sVAlucard EX3
p1320
I4861
sVWeiss guitly gear
p1321
I4791
sVFujiwara no mokou
p1322
I1052
sVFps bison trooper EX
p1323
I4249
sVMatrix
p1324
I1054
sVChipp_arrange
p1325
I1055
sVZwei
p1326
I1056
sVJustice
p1327
I4766
sVAsterix
p1328
I1057
sVAntlar
p1329
I1058
sVKamiccolo
p1330
I4280
sVDeliza
p1331
I1059
sVDan NGPC
p1332
I4176
sVShishimaru
p1333
I1060
sVPowergirl
p1334
I1061
sVSakashita
p1335
I1392
sVSatuzinki
p1336
I782
sVSuper girl
p1337
I1063
sVSpecialist
p1338
I1064
sVCirno
p1339
I1065
sVHisame shizumaru
p1340
I783
sVLf2 - rudolf
p1341
I1778
sVPiyokong
p1342
I4383
sVCaviar?
p1343
I1067
sVBelmont trusdale
p1344
I602
sVDies
p1345
I1068
sVMomizi-e
p1346
I1069
sVChoi special
p1347
I1070
sVRera ex
p1348
I1071
sVPredalien
p1349
I1072
sVRugal.b
p1350
I1073
sVFeli
p1351
I1074
sVVise
p1352
I1075
sVGigigear
p1353
I1076
sVJoker_nanaya
p1354
I1077
sVKung fu men
p1355
I1078
sVBruno bucciarati
p1356
I1079
sVShirai_kuroko
p1357
I1080
sVShaft
p1358
I1081
sVA-green EX3
p1359
I2793
sVMaster kojiroh
p1360
I1083
sVGenteki dan
p1361
I1084
sVGuy_cecil
p1362
I1192
sVDeluxe cassandra
p1363
I4803
sVEve
p1364
I1085
sVKrauser
p1365
I4335
sVDark excellent takuma
p1366
I1086
sVYoumu konpaku EX
p1367
I1087
sVOnsokumaru
p1368
I1088
sVGoofy
p1369
I1089
sVHomer simpson
p1370
I4350
sVSonozaki_mion
p1371
I1091
sVApocalypse
p1372
I1092
sVGohan school
p1373
I1093
sVLei-lei
p1374
I4832
sVDuke
p1375
I1094
sVPsycho mkiii
p1376
I1095
sVChain combo yuyuko
p1377
I1096
sVBoss sagat
p1378
I1097
sVGambit MVC2
p1379
I1098
sVRed hulk
p1380
I4631
sVSissy ex
p1381
I1099
sVHame-terry
p1382
I2135
sVKimelemaru EX3
p1383
I1100
sVSanji 13
p1384
I1101
sVHisame_shizumaru_ph_ai
p1385
I1102
sVKatana EX3
p1386
I1103
sVDimlos EX
p1387
I1104
sVRyu plus
p1388
I1105
sVKy Kiske
p1389
I1106
sVKanon
p1390
I4449
sVChrysalis EX
p1391
I1107
sVLimiter cut broly
p1392
I3916
sVPinkie pie
p1393
I1108
sVYawarakasensha
p1394
I4686
sVEri_hasumi
p1395
I1109
sVK9999
p1396
I1110
sVLayla
p1397
I1111
sVMaebara_keiichi
p1398
I1112
sVKonngara
p1399
I1113
sVM-e-warlock
p1400
I4330
sVTarantula
p1401
I1115
sVPizza
p1402
I1116
sVLucifer EX
p1403
I3078
sVGarnet crow
p1404
I1118
sVTristan
p1405
I1119
sVDark saber
p1406
I1120
sVFrieza
p1407
I1121
sVGray fullbuster
p1408
I4326
sVMousse by ?
p1409
I4116
sVMunch
p1410
I1122
sVSmall akuma
p1411
I1123
sVLavos core
p1412
I4354
sVFlandre scarlet
p1413
I1124
sV1
p1414
I3123
sVDeluxe lin
p1415
I1126
sVYoshiyuki takagi
p1416
I1127
sVDeath machine mb-59
p1417
I4547
sVBeelzebub
p1418
I1128
sVKon-el
p1419
I1129
sVGaia
p1420
I1130
sVWapiko
p1421
I1131
sVBikeman
p1422
I3667
sVMahvel sean
p1423
I1132
sVSanada kojiroh
p1424
I969
sVElfin ix
p1425
I1134
sVTank
p1426
I1135
sVMahvel ryu
p1427
I1136
sVGetsufuma
p1428
I1137
sVTane
p1429
I4466
sVQuickman
p1430
I1138
sVWong_fei_h
p1431
I1139
sVDorothy
p1432
I4676
sVWild woody
p1433
I1140
sVWaha- EX3
p1434
I3132
sVDancing banana
p1435
I1141
sVKai EX3
p1436
I1142
sVYukihime
p1437
I4732
sVYoung_rugal
p1438
I1143
sVMajin vegeta
p1439
I1144
sVKasumi EX3
p1440
I4531
sVOld mechagodzilla
p1441
I1145
sVAkari kamigishi EX3
p1442
I1146
sVShin
p1443
I1147
sVShaq Diesel
p1444
I4069
sVGomora
p1445
I1148
sVJean_pau
p1446
I1149
sVKamijo toma EX
p1447
I3316
sVKing 95
p1448
I4537
sVShadow vegeta
p1449
I4035
sVGalactus
p1450
I1151
sVKeel
p1451
I1152
sVStorm eagle
p1452
I1153
sVUesugi kensin EX
p1453
I1154
sVG.vise
p1454
I1155
sVMrkarate
p1455
I1156
sVYamamoto-f-burai
p1456
I1157
sVGoku gt
p1457
I1158
sVCathey
p1458
I1159
sVSabretooth EX
p1459
I4942
sVRing man
p1460
I1160
sVFix-it felix
p1461
I1161
sVKid gohan EX3
p1462
I4145
sVAxearmor
p1463
I1162
sVDq5-son
p1464
I1163
sVChizuru kagura
p1465
I1164
sVOrochi-ev
p1466
I1165
sVHanayama EX3
p1467
I1166
sVSilver surfer EX
p1468
I1167
sVBurner man
p1469
I1168
sVAbubo
p1470
I3979
sVGohan fight money
p1471
I1169
sVEvil zodiac
p1472
I1170
sVSango EX
p1473
I1171
sVKongara
p1474
I1172
sVTyrant J
p1475
I3903
sVShaq
p1476
I4284
sVMasked rider kabuto
p1477
I1173
sVHitosyura EX3
p1478
I1174
sVNayu mizuhara
p1479
I1175
sVAbyss_sh
p1480
I3138
sVSon gohan EX3
p1481
I4349
sVSheen
p1482
I1177
sVKen & gang
p1483
I4107
sVKishimax
p1484
I1178
sVWolvenom
p1485
I1179
sVGodzilla EX
p1486
I1180
sVHover
p1487
I1181
sVLomias
p1488
I1182
sVRyo945
p1489
I1183
sVE-terry 71113
p1490
I4315
sVKangaroo
p1491
I4628
sVDark sakura
p1492
I1185
sVKeeper of k
p1493
I1186
sVZonu
p1494
I2154
sVPenta
p1495
I1187
sVRegin
p1496
I1188
sVIchigo EX
p1497
I4585
sVPerfecti ex
p1498
I3547
sVDan CVS
p1499
I1190
sVReal Shuma
p1500
I4322
sVEvil reiji oyama
p1501
I1191
sVShotoborg mk. ii
p1502
I2786
sVTsunade EX3
p1503
I1193
sVNeji Cosplay
p1504
I1194
sVRobo-ky EX
p1505
I1195
sVSlamdunk
p1506
I1196
sVRascal
p1507
I1197
sVKat
p1508
I1198
sVKraken
p1509
I1199
sVShinki
p1510
I1200
sVKoakuma_hsts
p1511
I3919
sVG. done
p1512
I1201
sVSimonkin2006
p1513
I1202
sVKula diana
p1514
I4718
sVSimonkin2005
p1515
I1203
sVPsylocke EX2
p1516
I1204
sVFurudo_erika EX3
p1517
I4667
sVBatsu EX2
p1518
I3661
sVScream
p1519
I1206
sVLeone abbacchio ex
p1520
I3951
sVRed snake
p1521
I1207
sVHattori-hanzo
p1522
I1208
sVLuigi NGPC
p1523
I1209
sVAsh of blueblood
p1524
I1210
sVSnake man
p1525
I4823
sVFortuna_suwako
p1526
I1211
sVMirai trunks
p1527
I1212
sVRaph EX2
p1528
I1213
sVMinakata moriya
p1529
I1214
sVMouri motonari
p1530
I1215
sVAokiji kuzan
p1531
I1216
sVM-lancer
p1532
I1217
sVAnother igniz EX2
p1533
I4451
sVDemiurgos
p1534
I1218
sVDuane!
p1535
I4720
sVHomura EX
p1536
I1219
sVVarnage
p1537
I3751
sVJackal
p1538
I4439
sVKarman-cole
p1539
I1221
sVSoushihan k.s.k 12p color
p1540
I1222
sVMasta gambit
p1541
I1223
sVTizoc
p1542
I1224
sVKamek
p1543
I4695
sVDiamondeye
p1544
I4405
sVStone_bonus
p1545
I4234
sVKanade
p1546
I1226
sVSasuke ex
p1547
I4912
sVKoizumi itsuki
p1548
I1227
sVMvc2 iceman
p1549
I1229
sVMukuro EX G
p1550
I1230
sVChansey
p1551
I3473
sVDarkwing duck EX
p1552
I1231
sVIronhide
p1553
I4904
sVIroquois pliskin
p1554
I4908
sVInfinity mijinion
p1555
I4752
sVGoodman EX
p1556
I3801
sVArrange_remilia
p1557
I1233
sVKen
p1558
I1234
sVSuperoverlord meep
p1559
I1235
sVDragon_warrior(dnf) +q
p1560
I1236
sVPocket terry
p1561
I1237
sVMinoriko aki
p1562
I1238
sVOwada nana
p1563
I1239
sVKillerbee
p1564
I1240
sVAlien baltan 6th
p1565
I4843
sVTBonne
p1566
I1242
sVGajeel
p1567
I4646
sVReimi
p1568
I1243
sVMech zangief
p1569
I1244
sVArrange_alice
p1570
I1245
sVSazabi EX3
p1571
I1246
sVLucky 71113
p1572
I3651
sVMark sein
p1573
I1247
sVKyle dunamis
p1574
I3948
sVLelouch
p1575
I811
sVSugoi cirno
p1576
I1249
sVMiyako arrange abyss
p1577
I4413
sVCockle
p1578
I1251
sVEgith
p1579
I3444
sVDinotank
p1580
I1252
sVFat boo
p1581
I4187
sVMf viga
p1582
I1254
sVEddie mvc
p1583
I1255
sVDragon waifu
p1584
I1256
sVLicht
p1585
I4890
sVBullseye
p1586
I3427
sVPikachu EX2
p1587
I1257
sVRugal b.
p1588
I1258
sVMai_k
p1589
I1259
sVAngelia
p1590
I1260
sVNew age king
p1591
I1261
sVSpidermanu
p1592
I1262
sVRemilya scarlet
p1593
I2592
sVP-silver
p1594
I1263
sVZangief EX3
p1595
I1264
sVRick simpsons
p1596
I1265
sVErim
p1597
I1266
sVSakata gintoki
p1598
I4053
sVMariabell armitage
p1599
I1267
sVBionicles
p1600
I2429
sVMike Haggar
p1601
I3840
sVHonki-ultraman
p1602
I4712
sVBlue destiny 2
p1603
I1268
sVHeavy d! EX3
p1604
I1269
sVKurama
p1605
I1270
sVMegamami
p1606
I1271
sVSakuya ex
p1607
I1272
sVMeifang dhq
p1608
I1273
sVKyon_ak
p1609
I1274
sVAdelheid EX
p1610
I256
sVSupreme gogeta v1.5
p1611
I4778
sVMegaroman
p1612
I4435
sVShishimaru EX
p1613
I807
sVTaki EX3
p1614
I4906
sVPhantomsheet
p1615
I1276
sVHayao 12p color
p1616
I3256
sVTrunks EX3
p1617
I1277
sVKaonasi
p1618
I4442
sVThe deadly dragon
p1619
I3934
sVMissing iq gomes
p1620
I4480
sVJyubei yagyu EX3
p1621
I1432
sVTeam u zako
p1622
I4382
sVCapella
p1623
I502
sVSounanda
p1624
I4308
sVAladdin
p1625
I1279
sVHanayama
p1626
I4555
sVYukkuri
p1627
I1281
sVReon
p1628
I1282
sVSpacemouse deluxe
p1629
I1283
sVTokinomiya kamui EX3
p1630
I1284
sVDuo lon
p1631
I1285
sVShinGouki
p1632
I4687
sVThe territorial mammoth
p1633
I4553
sVMoleman
p1634
I1286
sVMasked rider agito EX3
p1635
I1287
sVTokido saya
p1636
I1288
sVHimekawa kotone
p1637
I1289
sVSasuke Cosplay
p1638
I1290
sVBombman
p1639
I1291
sVKuroko EX2
p1640
I690
sVSuper-8
p1641
I2651
sVKotoe
p1642
I1292
sVGi-le-farg
p1643
I4173
sVBilly lee
p1644
I1293
sVKenshiro
p1645
I4571
sVVebel
p1646
I2635
sVGranzon
p1647
I1294
sVCpt. falcon
p1648
I1295
sVShantotto
p1649
I2749
sVDevo
p1650
I3926
sVBrainiac
p1651
I4270
sVThe manticore, the queen, and the dragon
p1652
I1296
sVMiles
p1653
I1297
sVHinata natumi
p1654
I1298
sVCinnamon
p1655
I432
sVZweizergain
p1656
I1300
sVMonster ball
p1657
I1301
sVRidley zm
p1658
I4626
sVSeven
p1659
I1302
sVMasked rider 1st
p1660
I1303
sVNega joe
p1661
I4940
sVChiffon
p1662
I1304
sVNinja megazord
p1663
I4054
sVShar-makai EX3
p1664
I1306
sVSsj3 gotenks
p1665
I4242
sVShingo EX2
p1666
I2242
sVW.krauser
p1667
I1307
sVPentagon & black hole
p1668
I1308
sVMagma
p1669
I1309
sVLucifer
p1670
I1310
sVArmored gohan
p1671
I1311
sVYueng soi leng
p1672
I1312
sVSaya EX
p1673
I1314
sVLeo EX2
p1674
I3293
sVGodzillaEX
p1675
I1315
sVTora
p1676
I4425
sVSuwako ai
p1677
I1317
sVArgento
p1678
I2155
sVBatman beyond
p1679
I4782
sVIkumi tatikawa
p1680
I1319
sVShiva
p1681
I1320
sVSoul ninja mk2
p1682
I293
sVReal beavis
p1683
I1322
sVDeluxe chipp
p1684
I1323
sVJesse
p1685
I4677
sVTrapsatoko
p1686
I1324
sVRin natsume
p1687
I3907
sVAkainu sakazuki
p1688
I1325
sVMajin vegeta ssj6
p1689
I1326
sVCci saisyu
p1690
I4513
sVAccelerator EX3
p1691
I3889
sVDk
p1692
I1328
sVKazama
p1693
I1329
sVOmega_rugal
p1694
I1330
sVZ-ton 2nd
p1695
I1331
sVYuri945
p1696
I1332
sVRenamon
p1697
I1333
sVGreen lantern gg
p1698
I1334
sVGenpaku
p1699
I1335
sVJamian di corvus
p1700
I1336
sVBushou
p1701
I1337
sVSketch turner
p1702
I1338
sVChaoz_gf
p1703
I1339
sVArch mage alice
p1704
I1340
sVDuck king pne
p1705
I4649
sVEnja
p1706
I1342
sVHotaru
p1707
I1343
sVSuper hyper ultra mega awesome wtf barney
p1708
I1344
sVSamurai pizza cats
p1709
I1345
sVEvil ken ssf'2 plus
p1710
I1346
sVSasuke kun
p1711
I3968
sVNami
p1712
I1347
sVKamen rider kabuto
p1713
I1348
sVHotaride
p1714
I1349
sVStrider H
p1715
I1350
sVHaggar sf2
p1716
I1351
sVSad claps
p1717
I1352
sVSoujiro
p1718
I4252
sVB.jenet
p1719
I1353
sVMisaka
p1720
I4564
sVMasked_dedede
p1721
I1354
sVA-rock
p1722
I4683
sVWulong
p1723
I1355
sVBuguu
p1724
I3946
sVShar-makai
p1725
I822
sVShinobu
p1726
I1357
sVTsugumi
p1727
I834
sVCody CFJ2
p1728
I1359
sVKimexemaru
p1729
I1360
sVKilyousuke ex
p1730
I1361
sVSaimon
p1731
I3933
sVD'
p1732
I1363
sVPsychic psycho
p1733
I4913
sVClayface
p1734
I1364
sVMakai
p1735
I4834
sVAlice's gensokyo
p1736
I1366
sVRila
p1737
I1367
sVRegin EX2
p1738
I4696
sVSatuzinki_nesmario
p1739
I4650
sVDeejay sfa
p1740
I1369
sVSailor venus EX
p1741
I4075
sVShin vega
p1742
I4844
sVHaohmaru
p1743
I1370
sVDeadpool
p1744
I1371
sVInjya 1p
p1745
I1372
sVIngrid
p1746
I3086
sVBruce shotoman
p1747
I1374
sVMoraga
p1748
I1375
sVAnother blood
p1749
I3975
sVCv wakamoto
p1750
I1376
sVMayura
p1751
I1377
sVDonatello 0d
p1752
I1378
sVJohann EX3
p1753
I2772
sVMegaman fp
p1754
I1379
sVLabyrinth 1p
p1755
I1380
sVFlan Scarlet
p1756
I1381
sVRolf
p1757
I4682
sVVenomscorp
p1758
I1382
sVSub-zero EX
p1759
I3147
sVKim EX
p1760
I1383
sVRoll
p1761
I1013
sVRyuuoutan
p1762
I4203
sVJeice
p1763
I1386
sVKazuya akatsuki +q
p1764
I1387
sVOssan
p1765
I4651
sVMatou sakura EX
p1766
I1388
sVHaohmaru 98
p1767
I1389
sVPocket Sakura
p1768
I1390
sVSasuke 0d
p1769
I1391
sVHulk
p1770
I2825
sVMictlan
p1771
I1393
sVMima
p1772
I1394
sV95ani
p1773
I1395
sVSatsuki vp EX3
p1774
I1396
sVAsura
p1775
I1397
sVYuri
p1776
I1398
sVMpccgenerals
p1777
I1399
sVCard hero
p1778
I1400
sVFreedom gundam
p1779
I1401
sVBlade rider
p1780
I4225
sVSuper #13
p1781
I1403
sVBatman 2
p1782
I1404
sVSnakeeyes
p1783
I1405
sVMetalgear rex
p1784
I2777
sVDemoniho
p1785
I3172
sVIgnis
p1786
I1407
sVFire quacker
p1787
I3917
sVRobocop
p1788
I4845
sVBlack adam
p1789
I1408
sVIgniz
p1790
I1409
sVRaiden EX2
p1791
I1410
sVAkane
p1792
I1411
sVKrang
p1793
I1412
sVAbobo
p1794
I1413
sVSlalingaru
p1795
I1150
sVSabretooth
p1796
I4210
sVFf1 tung fu rue
p1797
I4678
sVNamor
p1798
I4698
sVShanghai doll
p1799
I3908
sVSuneo
p1800
I1415
sVSuper vegeta ai-barbatos
p1801
I1416
sVKing of zero
p1802
I1417
sVMaverick zero
p1803
I1418
sVGatanothor
p1804
I4949
sVJoe F22
p1805
I1419
sVAngel
p1806
I1420
sVWashizuka
p1807
I2017
sVVivi_ornitier
p1808
I1422
sVHighway star
p1809
I1423
sVD4?roll?
p1810
I1424
sVCheapest kfm!!!
p1811
I1425
sVYukari Tanizaki
p1812
I1426
sVFrankenroid
p1813
I316
sVPheus_mor
p1814
I1427
sVExredking
p1815
I4714
sVMiduma
p1816
I1428
sVSakura kinomoto
p1817
I1429
sVTien
p1818
I3928
sVKasen EX
p1819
I1430
sVRobo-segalow
p1820
I1431
sVYoko asagiri
p1821
I3596
sVHiman zellode
p1822
I4751
sVGrant
p1823
I1433
sVA-rei
p1824
I1434
sVShen EX2
p1825
I1435
sVS-len
p1826
I1436
sVYamcha
p1827
I1437
sVMagatu
p1828
I1438
sVDeath13
p1829
I1439
sVDee bee kaw
p1830
I1440
sVSniper
p1831
I1441
sVRamon 71113
p1832
I1442
sVVirtus
p1833
I4639
sVKonoha
p1834
I1443
sVPantyhose taro
p1835
I4140
sVDantalion_alice
p1836
I1444
sVQueen beryl
p1837
I1445
sVStickykeys
p1838
I1446
sVDeluxe ai
p1839
I1447
sVAlien_z-ton
p1840
I3924
sVGn-pioneer-r
p1841
I4223
sVAthena X2
p1842
I1448
sVTear
p1843
I1449
sVFred Krueger
p1844
I3937
sVYuki morikawa
p1845
I1450
sVAlucard
p1846
I1451
sVItachi
p1847
I4648
sVArashi EX
p1848
I1452
sVNeo EX
p1849
I1453
sVShadow geist
p1850
I1421
sVSatsujinki
p1851
I1455
sVUrban champion
p1852
I1456
sVSalamandra_fe
p1853
I1457
sVRamon EX3
p1854
I1458
sVXerxes
p1855
I1459
sVViewtiful joe
p1856
I1460
sVYuri di aaaaaaa
p1857
I4837
sVMizuki EX2
p1858
I1462
sVYoko EX
p1859
I1463
sVRoll EX
p1860
I1464
sVBob wilson EX2
p1861
I1461
sVShikieiki yamaxanadu
p1862
I1466
sVEriol hiiragizawa
p1863
I1467
sVCurly brace EX3
p1864
I1468
sVAngel ryu
p1865
I4627
sVNega ryo
p1866
I4012
sVKencyan
p1867
I1469
sVNew rubber soul
p1868
I1470
sVUkitake
p1869
I4580
sVLa mascara
p1870
I1471
sVSephiroth EX3
p1871
I1472
sVBlubberman
p1872
I724
sVKane
p1873
I1473
sVKawajirikosaku EX3
p1874
I1474
sVSideswipe
p1875
I1475
sVImit ultraman
p1876
I1125
sVCurehappy
p1877
I1476
sVIkaruga satuki
p1878
I1477
sVImouto EX3
p1879
I1465
sVFubuki sakuragasaki
p1880
I4934
sVAkari kamigishi
p1881
I1478
sVRasetsu
p1882
I3997
sVNeo dio EX3
p1883
I4459
sVMisaka mikoto EX2
p1884
I2684
sVPerfectakishimai
p1885
I1480
sVKitanaininjya
p1886
I1481
sV20 (dr. gero)
p1887
I1482
sVAmber lamps
p1888
I4549
sVRei-kugo
p1889
I1483
sVYamcha by tomur
p1890
I1484
sVJoker_shiki
p1891
I1485
sVChunli_a
p1892
I1486
sVRichard myer
p1893
I4018
sVSophitia
p1894
I1487
sVNero chaos
p1895
I1488
sVDrew
p1896
I1489
sVHoraizon ver1.02
p1897
I1490
sVSkelegon
p1898
I1491
sVNaya tatca nanafe
p1899
I1492
sVGaogaigar
p1900
I1493
sVTrue power sol
p1901
I1659
sVCleric
p1902
I1494
sVBowling ball
p1903
I1495
sVZangief
p1904
I1496
sVChen the weasel
p1905
I1497
sVYoshi EX2
p1906
I1498
sVGohan ssj5
p1907
I3639
sVBernkastel
p1908
I1499
sVSuper metroid
p1909
I1500
sVBagira_ex
p1910
I1501
sVTyrant EX
p1911
I1502
sVAsh 2
p1912
I1503
sVRalf 2k2
p1913
I4369
sVDead geese
p1914
I1504
sVSword impulse
p1915
I1505
sVCommon akuma
p1916
I1506
sVDabura EX3
p1917
I4629
sVAgito_of_the_dark
p1918
I4565
sVBroccalon EX3
p1919
I1508
sVMakoto EX3
p1920
I1509
sVPrincess
p1921
I1510
sVSuper soldier
p1922
I4352
sVChousokabe motochika
p1923
I1511
sVYet another igniz
p1924
I1512
sVMuhi
p1925
I4085
sVUltraseven_a
p1926
I1513
sVTerumi
p1927
I1514
sVSawada
p1928
I4113
sVNecoarc
p1929
I1515
sVSukunyan
p1930
I4849
sVMore Evil Ryu
p1931
I1516
sVMr. increible
p1932
I4703
sVStimpy
p1933
I1517
sVQuicksilver
p1934
I1518
sVJaguar junichi
p1935
I1519
sVAbobo 0D
p1936
I1520
sVDr.manhattan
p1937
I4826
sVAbigail
p1938
I869
sVTrue k'
p1939
I1521
sVEvabeatrice
p1940
I3987
sVTrishula,doragon of the ice barrier
p1941
I1522
sVRon max
p1942
I1523
sVMoogle
p1943
I1524
sVFortress maximus
p1944
I1525
sVAllen o'neill
p1945
I1526
sVMvc2 cyclops
p1946
I1527
sVSeikimatu guile
p1947
I1528
sVKenbo
p1948
I1529
sVSailor uranus
p1949
I1530
sVKenshi
p1950
I1531
sVMr1 daz bones
p1951
I1532
sVWolverine_cota
p1952
I1318
sVDragon claw
p1953
I4168
sVToyohime EX2
p1954
I1534
sVSaiki
p1955
I1535
sVShizuha EX3
p1956
I1536
sVPisaci
p1957
I436
sVSuper androide 17 hd
p1958
I1537
sVBalrog sf2
p1959
I1538
sVWonder woman
p1960
I1539
sVSyaoran
p1961
I4245
sVBlack widow
p1962
I1541
sVChintao FF
p1963
I1542
sVHamburglar
p1964
I1543
sVCreeper
p1965
I1544
sVBotan
p1966
I4635
sVDevil seaman
p1967
I1545
sVGenerals
p1968
I4933
sVDark karin
p1969
I1546
sVMega tigerzord
p1970
I4881
sVHatchetman
p1971
I1547
sVSaku
p1972
I1548
sVGiant katamari of random characters
p1973
I4902
sVZuityou no ryukoteam
p1974
I4151
sVCaptain commando
p1975
I1550
sVAlbus
p1976
I1551
sVHagure metal king
p1977
I2111
sVUbu
p1978
I4742
sVWriggle-e
p1979
I3579
sVJazu
p1980
I1552
sVRiot
p1981
I1553
sVChucky
p1982
I4486
sVHuey freeman
p1983
I3970
sVVoid
p1984
I1556
sVBobby
p1985
I1557
sVEagle-sabu
p1986
I3930
sVIkumi amasawa
p1987
I1558
sVKanon EX3
p1988
I2093
sVJin bros
p1989
I4552
sVMidknight
p1990
I1561
sVEx apollo
p1991
I1562
sVBlood
p1992
I1563
sVSaki EX2
p1993
I1564
sVBlack manta
p1994
I3935
sVRodimus prime
p1995
I1565
sVCarol
p1996
I1566
sVLei lei
p1997
I4812
sVRion
p1998
I1568
sVMacheta
p1999
I1569
sVRoppen heimer EX FF
p2000
I1570
sVPiccolo EX3
p2001
I4597
sVMary EX3
p2002
I1571
sVC.dome
p2003
I4044
sVS.geist
p2004
I1572
sVSion
p2005
I4819
sVBlack mask
p2006
I3995
sVSenna(coh)
p2007
I1573
sVTiki
p2008
I1574
sVG-gonzales2
p2009
I4790
sVMaherl
p2010
I1575
sVLen and w. len
p2011
I1576
sVRutee
p2012
I1577
sVSuper sayajin 4
p2013
I4811
sVMs.archer
p2014
I4605
sVTenshi
p2015
I4099
sVElita one
p2016
I1580
sVScarlet devil
p2017
I1581
sVZeeky h. bomb
p2018
I1582
sVBoring sdk mukurou
p2019
I1583
sVVega mvc2
p2020
I1584
sVNanase
p2021
I4371
sVAnji
p2022
I1585
sVDokuo_ver1.39
p2023
I4493
sVGundog
p2024
I1586
sVToss kong
p2025
I3506
sVJoseph joestar EX3
p2026
I1587
sVKazuya
p2027
I1588
sVAmerican idiot
p2028
I4785
sVJet-stingray
p2029
I1589
sVSakura haruno nzc
p2030
I1590
sVPsycho shredder[s] 3.0
p2031
I1591
sVKazami yuuka
p2032
I1592
sVFelix the cat EX3
p2033
I1593
sVGi gi
p2034
I1594
sVMvc2 captain america
p2035
I1595
sVShin bison
p2036
I2081
sVVanilla h
p2037
I2880
sVRonove
p2038
I1597
sVShiena bee
p2039
I1598
sVRikku
p2040
I1599
sVInfant mutant
p2041
I1600
sVGeneshic gaogaiger
p2042
I1601
sVScarlet spider
p2043
I3971
sVRaval
p2044
I1602
sVSenel
p2045
I1603
sVHel'lauren
p2046
I1604
sVGutsman
p2047
I1605
sVKinoko
p2048
I1606
sVSolitaire
p2049
I1607
sVRockman x
p2050
I1608
sVFrieza EX3
p2051
I1609
sVTeam ryuko
p2052
I4019
sVZinsuke
p2053
I1611
sVBuu Hyper Dimension
p2054
I1612
sVBao
p2055
I1613
sVTokinomiya kamui
p2056
I1614
sVCvs blaze
p2057
I1615
sVJudith
p2058
I1616
sVSon of sun
p2059
I4831
sVThe pacifier
p2060
I4507
sVB.dosa
p2061
I1617
sVBasara
p2062
I1618
sVYumi
p2063
I1619
sVSuper mario EX3
p2064
I1620
sVVice EX3
p2065
I1621
sVHouoh
p2066
I4735
sVAnna ex
p2067
I1622
sVMahvel elena
p2068
I1623
sVRugal bernstein EX3
p2069
I1624
sVPocket chunli
p2070
I1625
sV17th angel
p2071
I1626
sVWyvern
p2072
I1627
sVKoakuma_ac
p2073
I1628
sVThe joker EX3
p2074
I1629
sVTabasa
p2075
I4220
sVSatomi yajima
p2076
I1630
sVTsukishima koko
p2077
I1631
sVBattousai
p2078
I1632
sVMastr Hand
p2079
I729
sVYanpeko na hibikisan
p2080
I1633
sVCham cham
p2081
I4068
sVGoat
p2082
I4798
sVBalrog f
p2083
I1634
sVDrake
p2084
I1635
sVJhons lee
p2085
I4418
sVYoma komatsu
p2086
I1636
sVViga
p2087
I1637
sVMr_shihan_ky
p2088
I1638
sVKaptain k.rool
p2089
I1639
sVSenna_ai
p2090
I1640
sVEbe
p2091
I1642
sVArthur EX
p2092
I1643
sVAngela EX3
p2093
I1644
sVProducer
p2094
I1645
sVCrispy
p2095
I3307
sVSuper buu
p2096
I946
sVRiesz
p2097
I1648
sVDeluxe athena
p2098
I1649
sVGeese xi
p2099
I1650
sVGod yuri
p2100
I1651
sVLightning bd
p2101
I1652
sVIceman SP
p2102
I1653
sVNagato yuki
p2103
I1654
sVTloz link
p2104
I1655
sVMedusa
p2105
I1656
sVWorld-chang
p2106
I1657
sVCursor
p2107
I4516
sV98se
p2108
I1658
sVLittle busters! ce
p2109
I4386
sVRuriko
p2110
I1660
sVShazzer EX3
p2111
I1661
sVTyrant_a
p2112
I1662
sVE. honda
p2113
I1663
sVCaptain america b
p2114
I1664
sVMari
p2115
I1665
sVEvil ranger
p2116
I1666
sVYellow-pipo
p2117
I470
sVSuper nightmare geese
p2118
I1668
sVLunasa
p2119
I1669
sVSupreme vegito
p2120
I1670
sVMeira
p2121
I1671
sVPocket tylor
p2122
I1672
sVMarx
p2123
I1673
sVBerserk
p2124
I1674
sVJin CVS TAG
p2125
I1675
sVCycloid omega EX
p2126
I1676
sVDana dee
p2127
I1677
sVSuave dude
p2128
I1678
sVHeat-genblem
p2129
I1679
sVMech-hisui EX
p2130
I1680
sVFamicom wars
p2131
I1681
sVHaru-chan
p2132
I1682
sVVeku
p2133
I4336
sVA-heart
p2134
I1684
sVDark magician girl
p2135
I4048
sVAirou ver2.11
p2136
I4544
sVStrider hien
p2137
I1685
sVRouwe_n
p2138
I3895
sVKyoushirou senryou
p2139
I1686
sVChen_ai EX3
p2140
I1687
sVKasumi wpr
p2141
I1688
sVNamihei
p2142
I1689
sVKatura hageteru
p2143
I4816
sVSkapon
p2144
I1690
sVAkuma
p2145
I1691
sVRoa EX3
p2146
I1692
sVSwordsman
p2147
I4138
sVWar EX2
p2148
I1693
sVEarl
p2149
I1694
sVRekka
p2150
I1695
sVKoopa clown car
p2151
I1696
sVThiele
p2152
I1698
sVLf2 - woody
p2153
I4468
sVM-monk
p2154
I4666
sVSs6 aisya
p2155
I1700
sVKanae EX3
p2156
I1701
sVFerroman
p2157
I1702
sVGozu
p2158
I1703
sVLittle nemo
p2159
I1704
sVSupreme goku
p2160
I1705
sVShermie
p2161
I1316
sVLord slug
p2162
I2974
sVNekonin ex
p2163
I1706
sVRock
p2164
I4774
sVLoud demon
p2165
I3002
sVLeonardo
p2166
I1708
sVGeneral blue
p2167
I2835
sVAkatsuki-abk
p2168
I4951
sVWakko
p2169
I1709
sVBatman EX3
p2170
I1710
sVRambo
p2171
I1711
sVAnpanman
p2172
I1712
sVRogue SP
p2173
I1713
sVPulse-k
p2174
I4403
sVRaiden
p2175
I1714
sVAsutorea EX3
p2176
I1715
sVStarfy
p2177
I1716
sVCid highwind
p2178
I3915
sVSatan(zayin)
p2179
I1717
sVCrocodile
p2180
I1718
sVAlter amiba
p2181
I1719
sVWatatsuki no toyohime
p2182
I4124
sVSagat f22
p2183
I2020
sVChili n pepper
p2184
I1720
sVBoo ssj
p2185
I4156
sVGg-wind
p2186
I1721
sVTiberius
p2187
I1722
sVSanic boom
p2188
I1723
sVCyber-woo
p2189
I1724
sVKingslime
p2190
I1725
sVMagnus
p2191
I4514
sVJun
p2192
I4334
sVSkywarp
p2193
I3137
sVStorm_cota
p2194
I1727
sVPepe
p2195
I4117
sVAlbiole
p2196
I1728
sVMoses maddigan
p2197
I1729
sVDudley Puppy
p2198
I4167
sVYashiro
p2199
I1730
sVMasked rider agito
p2200
I1731
sVC3reimu
p2201
I4008
sVD kanna
p2202
I3998
sVBaki-hanma
p2203
I1732
sVAdo
p2204
I1733
sVKorokoromushi
p2205
I4877
sVJack frost
p2206
I4323
sVNagato yuki EX
p2207
I3125
sVChouji
p2208
I3927
sVAoko_monk_style
p2209
I1734
sVEagle f22
p2210
I1735
sVMajin-etna
p2211
I1736
sVDark Stimpy
p2212
I1737
sVLilith
p2213
I1738
sVSunflower fairy
p2214
I3243
sVAstaroth
p2215
I3957
sVNess
p2216
I1740
sVCharlotte m
p2217
I4857
sVG-gonzales
p2218
I1742
sVKemular
p2219
I1743
sVSagat
p2220
I1744
sVSailor mercury EX2
p2221
I4254
sVGh-golden silver
p2222
I1745
sVSasquatch
p2223
I1746
sVShizuha
p2224
I1747
sVAmingo
p2225
I1748
sVBifrost
p2226
I1749
sVGoketuji
p2227
I1750
sVKyoko_typea
p2228
I1751
sVLf2 - freeze
p2229
I1753
sVKyoko_typek
p2230
I1754
sVFreedom
p2231
I4026
sVHakurou
p2232
I3972
sVMr.karate
p2233
I2697
sVIsaiah bradley
p2234
I1756
sVGeese howard EX2
p2235
I1757
sVB.jenet_n
p2236
I4086
sVWarlock
p2237
I770
sVTrue saber
p2238
I3954
sVZaku Cosplay
p2239
I4261
sVGod-gundam
p2240
I1759
sVDaimaoh
p2241
I3974
sVTetris
p2242
I1507
sVRinfa
p2243
I1761
sVKyoko_typey
p2244
I1762
sVStrike freedom nitori
p2245
I1763
sVGoenitz EX3
p2246
I1764
sVMr buu EX3
p2247
I4157
sVKawashima-san EX3
p2248
I1765
sVKawashima-san EX2
p2249
I4169
sVKenny mccormick
p2250
I1766
sVXeona
p2251
I1767
sVDeluxe kung fu man
p2252
I1768
sVNanoha xp
p2253
I4780
sVBruce banner
p2254
I4619
sVRyu NXC
p2255
I4764
sVFurude rika
p2256
I1770
sVBulbasaur
p2257
I4856
sVPocket Ryu
p2258
I1772
sVSaito
p2259
I1773
sVHayato MVC
p2260
I1005
sVHotaru Futaba J
p2261
I2541
sVSubaru
p2262
I2193
sVMaster juzo
p2263
I1776
sVElena_n
p2264
I147
sVThe freezing august
p2265
I1777
sVGiano
p2266
I4801
sVApocalypse EX2
p2267
I1779
sVKamui
p2268
I1780
sVClassic wagyan
p2269
I1781
sVEarthworm jim
p2270
I1782
sVTakano_miyo
p2271
I1783
sVXiaoyen
p2272
I1784
sVZantetsu
p2273
I1785
sVCharles
p2274
I4883
sVSymbiote thanos
p2275
I4504
sVCustom shinobi shou
p2276
I1787
sVKohaku iqs
p2277
I4878
sVMinoriko(ai)
p2278
I1788
sVBootleg
p2279
I1789
sVMaster mecha sonic
p2280
I1790
sVKirara
p2281
I1647
sVMask the griffon EX3
p2282
I1791
sVLuke skywalker EX3
p2283
I1792
sVHina
p2284
I1793
sVKensou
p2285
I4281
sVBlob
p2286
I4347
sVSsj goku z2 ex
p2287
I1794
sVBloo
p2288
I3577
sVBrago
p2289
I1796
sVChiduru
p2290
I1797
sVThe tick
p2291
I1798
sVJake
p2292
I1799
sVAnnie murakami
p2293
I1800
sVZx
p2294
I1801
sVKaigen EX3
p2295
I913
sVRubber soul
p2296
I1802
sVAboras
p2297
I4391
sVWario 64
p2298
I4392
sVYunfei
p2299
I4162
sVRodan
p2300
I3656
sVTung fu rue
p2301
I1806
sVRaphael 0d
p2302
I3665
sVBoss zeroko
p2303
I1808
sVArx-7
p2304
I1809
sVSubaru mikage
p2305
I1810
sVGengetu EX
p2306
I4135
sVOmegamon EX
p2307
I4692
sVSlimeknight
p2308
I1811
sVSymbiote onslaught
p2309
I1812
sVReas
p2310
I1813
sVReiko mikami
p2311
I4926
sVAlex
p2312
I1814
sVGyan
p2313
I1815
sVUnderdog
p2314
I4915
sVVoltorb
p2315
I1479
sVAkashima
p2316
I3847
sVNeco-misaka
p2317
I1818
sVElement
p2318
I1819
sVCorin
p2319
I1820
sVBirdie sfa
p2320
I1821
sVErisnomia
p2321
I1822
sVFernandeath
p2322
I1823
sVXstranger
p2323
I3585
sVArigato usagi
p2324
I1824
sVAnnie hamilton
p2325
I3636
sVDio di musca
p2326
I1825
sVAnonym
p2327
I1826
sVDragon
p2328
I4361
sVPickle
p2329
I1827
sVAxel stone
p2330
I1828
sVMr_shihan
p2331
I1829
sVAvdul
p2332
I4390
sVShishio
p2333
I977
sVCammy NXC
p2334
I1830
sVDevilbat-schilt
p2335
I4123
sVEremes_guile
p2336
I1831
sVRobo-ky XX
p2337
I1832
sVDopefish
p2338
I4958
sVRuckus
p2339
I1833
sVDesteny remilia
p2340
I1834
sVHolhorse asb
p2341
I4935
sVOnpu segawa
p2342
I405
sVRid hershel
p2343
I1835
sVMimic
p2344
I4842
sVKamen rider joker
p2345
I1837
sVAndo
p2346
I803
sVRobinmask
p2347
I1838
sVNf-kyo EX3
p2348
I1839
sVShadow sumou
p2349
I4055
sVXavier pendragon
p2350
I1840
sVAnother blood k
p2351
I3876
sVHourai-car EX2
p2352
I2855
sVGon the dinosaur
p2353
I3415
sVKishimax EX2
p2354
I1843
sVChar's z'gok
p2355
I1844
sVTaku
p2356
I4011
sVPocchi
p2357
I4613
sVLucifeller_ex
p2358
I1846
sVUnknown
p2359
I4776
sVCci hinako
p2360
I1848
sVWolfgang Krauser
p2361
I1849
sVKishima_kouma
p2362
I1850
sVRock-man
p2363
I1851
sVIzayoi sakuya
p2364
I4109
sVDeidara
p2365
I4927
sVDies irae
p2366
I1853
sVKid gohan ssj1
p2367
I1854
sVHyuuga hinata
p2368
I4360
sVSuper sonic EX3
p2369
I1855
sVTaki
p2370
I1856
sVNucoarc
p2371
I1858
sVTrist
p2372
I4762
sVGeegus
p2373
I1860
sVFang 0d
p2374
I1861
sVSantaurus
p2375
I1862
sVJin kazama
p2376
I1863
sVZelos(you-ki_ai)
p2377
I4898
sVElla
p2378
I1864
sVBraun
p2379
I1865
sVElle
p2380
I4543
sVMutron kun
p2381
I1866
sVLightning cb
p2382
I4239
sVBrazer
p2383
I1868
sVSuper3 goku EX
p2384
I1869
sVAchi cirno
p2385
I1870
sVAkiha
p2386
I1871
sVScott pilgrim
p2387
I1872
sVNagamine nozomi
p2388
I1873
sVAlvan EX
p2389
I4511
sVKung lao
p2390
I1875
sVZatracenie EX2
p2391
I1876
sVMasked rider ryuki(emanon)
p2392
I1877
sVAthena_96
p2393
I1878
sVDiba
p2394
I1879
sVRyo EX3
p2395
I4917
sVCrawdo
p2396
I1880
sVWhite buffalo
p2397
I1881
sVOrione
p2398
I4389
sVVegalunker
p2399
I1882
sVAngus
p2400
I1883
sVMaggyo EX
p2401
I810
sVKeith wayne EX2
p2402
I3906
sVJhon
p2403
I1884
sVChibi vegito
p2404
I1885
sVPocket Dan
p2405
I1886
sVSeiya
p2406
I491
sVWolf
p2407
I1887
sVThin nen
p2408
I2291
sVTorao onigawara
p2409
I1888
sVMawile
p2410
I1889
sVDebonea
p2411
I4550
sVGogeta mvc
p2412
I1891
sVAtomic r chelnov
p2413
I1892
sVTetsu yatogi
p2414
I4445
sVJagyuta EX2
p2415
I1893
sVReicubas
p2416
I1894
sVDonald mcdonald
p2417
I1895
sVR.lightning
p2418
I1896
sVHomero
p2419
I1897
sVCyber-peacock
p2420
I265
sVMetal sonic mk3
p2421
I1899
sVArchetype:earth
p2422
I4342
sVCursehead
p2423
I1900
sVDaimon 98
p2424
I4029
sVJon arbuckle
p2425
I4399
sVFlen_d
p2426
I2677
sVZlorf rerpf
p2427
I1903
sVD'raven
p2428
I1904
sVVita
p2429
I1905
sVHaizilyo
p2430
I1906
sVRina
p2431
I4700
sVOnslaught
p2432
I1907
sVAdam EX3
p2433
I1908
sVDark eternal champion
p2434
I1909
sVF.o.e._meso
p2435
I1910
sVOsiti
p2436
I1911
sVHiro-ex
p2437
I1912
sVYaridovich
p2438
I1913
sVDestoroyah ex
p2439
I1914
sVRyugen
p2440
I1915
sVTatsuo
p2441
I934
sVBattler ushiromiya
p2442
I1917
sVArrange_shiori
p2443
I1918
sVKyuketsuki_satsuki
p2444
I1919
sVJ.p.polnareff
p2445
I1920
sVRyu hayabusa x
p2446
I1921
sVGeneral
p2447
I1922
sVMagikarp
p2448
I1847
sVMo-mo-dainamaitu EX3
p2449
I1923
sVKyoko_typea EX3
p2450
I1533
sVLenja
p2451
I1924
sVRei chibi
p2452
I1925
sVChloe valens
p2453
I1926
sVGeese ex xi
p2454
I1927
sVSyuzo matsuoka
p2455
I4634
sVAladdin EX3
p2456
I1928
sVBarts EX3
p2457
I4100
sVKawashima-san
p2458
I1930
sVGuido
p2459
I4936
sVToguro 80%
p2460
I1931
sVSupernovice
p2461
I1867
sVSamus
p2462
I1932
sVLyndis
p2463
I1933
sVHibiki EX3
p2464
I4152
sVDally
p2465
I1934
sVSoy milk
p2466
I1935
sVHelion
p2467
I1936
sVArena
p2468
I1937
sVGaibon
p2469
I4000
sVSaki mitonoya
p2470
I2755
sVAmon
p2471
I1938
sVRikuo
p2472
I3897
sVCharlie
p2473
I508
sVHuman paladin
p2474
I1940
sVBloodia
p2475
I1941
sVMeth Blue Ranger
p2476
I1942
sVMaster lue
p2477
I1943
sVHijiri byakuren
p2478
I1944
sVShin marie
p2479
I1945
sVJonathon Morris
p2480
I1946
sVNumber muncher
p2481
I1947
sVAthena945
p2482
I1948
sVRoomi kof
p2483
I1949
sVFalco la pasione(nagiai)
p2484
I768
sVZabi
p2485
I1951
sVOtane
p2486
I4561
sVArina
p2487
I1952
sVBlack_widoraemon
p2488
I1953
sVClark
p2489
I4171
sVAgito of the dark
p2490
I1954
sVDio M
p2491
I1955
sVNegativezero
p2492
I4939
sVKongman EX3
p2493
I614
sVEnja ex
p2494
I1957
sVLucy diclonius
p2495
I4200
sVBizarro
p2496
I4647
sVZappa
p2497
I1959
sVKfm iwbtg
p2498
I1960
sVHiryu
p2499
I1961
sVDio S
p2500
I1962
sVMr.mannequin
p2501
I1963
sVNaomi
p2502
I1964
sVGo_shin
p2503
I1965
sVVegeta ultra ssj
p2504
I4808
sVTerry EX3
p2505
I659
sVAsagi EX3
p2506
I3565
sVWerleck EX3
p2507
I1966
sVMystia EX
p2508
I1967
sVSerika EX2
p2509
I4535
sVToy
p2510
I1969
sVKiyoko
p2511
I1970
sVManjimaru EX3
p2512
I1540
sVGill sf3
p2513
I1414
sVLihua
p2514
I1972
sVRyuken
p2515
I1973
sVBloodbane
p2516
I1974
sVSuicider raoh
p2517
I4788
sVBastion
p2518
I1975
sVMuhi EX
p2519
I4429
sVTom
p2520
I4150
sVYuyuko saigyouji
p2521
I1976
sVSaki
p2522
I1977
sVSub-zero CVW
p2523
I4818
sVLord.misyaguzi
p2524
I1978
sVRoast_uncle
p2525
I1979
sVSayia-f
p2526
I1980
sVS_youmu
p2527
I1981
sVElement ma
p2528
I1982
sVLabyrinth
p2529
I1983
sVClone koa
p2530
I1984
sVMercurius
p2531
I1985
sVKomachi_raoh
p2532
I1986
sVVegeta gt
p2533
I806
sVQ-mantha
p2534
I1988
sVSsfiix' rainbow
p2535
I1989
sVAiri
p2536
I1990
sVTwilight sparkle
p2537
I1991
sVNobuko(emanon)
p2538
I1992
sVShinobi
p2539
I1993
sVZ-akuma EX
p2540
I1994
sVDeluxe adon
p2541
I1995
sVJoe A
p2542
I1996
sVBirdie
p2543
I1997
sVZangoose EX3
p2544
I1998
sVZangoose EX2
p2545
I4533
sVAkari EX
p2546
I2000
sVDhalsim R
p2547
I2001
sVSmoker
p2548
I2002
sVNeo Sonic
p2549
I2003
sVShockwave
p2550
I2004
sVHisame shizumaru ex2
p2551
I2005
sVNikumaru
p2552
I2006
sVAnguirus
p2553
I4548
sVShigen EX3
p2554
I2007
sVKinyo roadshow
p2555
I4592
sVModoi-san
p2556
I2008
sVMaster chris
p2557
I4944
sVLilith aensland
p2558
I2009
sVKirakira
p2559
I3576
sVJohnny maximum
p2560
I4368
sVKarma_0.85
p2561
I2012
sVLeon EX
p2562
I1082
sVSmall Ryu
p2563
I2013
sVVritra
p2564
I3691
sVVega geegus
p2565
I4539
sVPoison ivy
p2566
I2015
sVCci mr.big
p2567
I2016
sVIno
p2568
I4690
sVMictlan EX
p2569
I2018
sVJohn crawley
p2570
I4319
sVMary deiyon
p2571
I1755
sVKing EX2
p2572
I4275
sVKing EX3
p2573
I2021
sVTenma-sama
p2574
I2022
sVSasquatch 71113
p2575
I2023
sVFaud EX3
p2576
I2024
sVMinotaur
p2577
I2025
sVSlug wanzer
p2578
I4853
sVCommissioner gordon
p2579
I2027
sVKyouken wakamoto
p2580
I2028
sVWarcueid t
p2581
I4871
sVRanma +
p2582
I3921
sVLegion
p2583
I2029
sVDante2
p2584
I2030
sVJuralian
p2585
I2031
sVStreet fighter is boring you idiots
p2586
I2032
sVZero ariel
p2587
I2033
sVAdvent cloud
p2588
I1549
sVYui_kutuna
p2589
I2034
sVVegeta EX3
p2590
I2035
sVP4 hero
p2591
I2036
sVArrange_unknown
p2592
I2037
sVKumi
p2593
I2038
sV!
p2594
I2039
sVYuki nagato
p2595
I2040
sVA-yuki
p2596
I2041
sVThunder-iku
p2597
I2042
sVMs. fanservice
p2598
I2043
sVDragon ken
p2599
I2044
sVJinmen
p2600
I4341
sVBonus
p2601
I2045
sVMegaman plus
p2602
I2046
sVOmega god ken
p2603
I2047
sVGreat s. man
p2604
I4679
sVAska EX2
p2605
I1176
sVSephiroth AK
p2606
I2049
sVGromit
p2607
I2050
sVRyu DG
p2608
I2052
sVHanyuu
p2609
I4307
sVNew Nakoruru
p2610
I3781
sVMitsuji tanimati
p2611
I2646
sVNeo-dio
p2612
I2053
sVJu do man
p2613
I2054
sVSeikimatsukyu-seisya kenshirou
p2614
I4060
sVAnother agito
p2615
I2055
sVRick strowd EX3
p2616
I2056
sVKaede
p2617
I2057
sVSailor pluto
p2618
I2058
sVDon
p2619
I2059
sVCaramelman no.2
p2620
I4122
sVTony won
p2621
I2060
sVSantaurus EX3
p2622
I3893
sVNu-13 EX
p2623
I2061
sVReal chibi scex
p2624
I2062
sVS.o.g
p2625
I2063
sVHourai-car
p2626
I2064
sVTiria
p2627
I2065
sVUnyuho-l
p2628
I2066
sVBlack ranger
p2629
I2067
sVAka
p2630
I1278
sVSlarin
p2631
I2069
sVGouki sf3
p2632
I4191
sVEddie
p2633
I3471
sVNightwolf
p2634
I3772
sVRyu_a
p2635
I2070
sVLavia
p2636
I2071
sVKanako yasaka
p2637
I4950
sVPepe EX3
p2638
I2072
sVSailor mars EX
p2639
I2073
sVKrauser 98
p2640
I2074
sVF.tarantula
p2641
I2075
sVDeath-stuff
p2642
I2076
sVDarthvader
p2643
I2077
sVSpin youmu EX
p2644
I1804
sVHotaru futaba
p2645
I2078
sVZero hotaru EX3
p2646
I2079
sVKill bill o-ren_ishii
p2647
I2014
sVUltimate sula
p2648
I4721
sVPeter griffin
p2649
I4146
sVOrder-sol
p2650
I957
sVTyrant marco
p2651
I4384
sVKfm
p2652
I4833
sVSpiral mvc2
p2653
I2082
sVA-minagi
p2654
I2083
sVKyko waifu
p2655
I4527
sVOrchid
p2656
I2212
sVLeonardo 0d
p2657
I2084
sVB.swordsman
p2658
I2085
sVCrashman
p2659
I2086
sVYumel
p2660
I2087
sVSensei ken
p2661
I2088
sVChaos satellite
p2662
I2089
sVDaos
p2663
I2090
sVKirara EX3
p2664
I2091
sVA Bison
p2665
I2092
sVMarona
p2666
I1559
sVKyo EX3
p2667
I2094
sVPoppy
p2668
I4274
sVBenimaru
p2669
I2095
sVSouthside jim
p2670
I4492
sVZerozuchi
p2671
I2096
sVJupiter
p2672
I4339
sVManami kusunoki
p2673
I3114
sVFuuma
p2674
I4601
sVMech-hisui
p2675
I2097
sVAnanzi
p2676
I2098
sVKamishiro_aya
p2677
I4282
sVHadou-ken
p2678
I2100
sVDark-baltan
p2679
I4064
sVD4 reimu EX3
p2680
I668
sVHyouken
p2681
I2103
sVCho-kichiku masamune
p2682
I2104
sVMorilen
p2683
I4731
sVYuuka
p2684
I2105
sVKensou ex
p2685
I4739
sVSailor moon EX
p2686
I2106
sVM.bison
p2687
I2107
sVSaya_g
p2688
I2108
sVDaimon 71113
p2689
I2109
sVKen mvc
p2690
I2398
sVTest a.i.
p2691
I2110
sVHugo
p2692
I4836
sVTusk soldier
p2693
I4749
sVDio v
p2694
I2112
sVVayeate
p2695
I2101
sVMr. big
p2696
I2114
sVRoppen heimer EX
p2697
I2115
sVGaits
p2698
I2116
sVMichael
p2699
I2117
sVNecro
p2700
I2118
sVRemilia
p2701
I2119
sVLightning
p2702
I4911
sVKomachi
p2703
I2120
sVUnyuho
p2704
I4840
sVMajin Virginia
p2705
I2121
sVUltraman jack
p2706
I4378
sVSaizo ryo
p2707
I2122
sVTeam reimisen
p2708
I4579
sVTakuan_osho
p2709
I2123
sVSittara
p2710
I2124
sVCustom omk beatrice EX3
p2711
I2125
sVKen sf3
p2712
I1567
sVHakolen-sbs EX3
p2713
I2126
sVHakolen-sbs EX2
p2714
I2127
sVTeipa
p2715
I2128
sVGo badaa ba
p2716
I2129
sVRare nabeatu
p2717
I2130
sVBig zam
p2718
I2131
sVC-19
p2719
I2132
sVKazama kazuki EX3
p2720
I2133
sVKurihan
p2721
I4556
sVEvil ryu ssf'2 plus
p2722
I4428
sVRev saizo
p2723
I4794
sVSonic 2 style sonic
p2724
I4404
sVDisc
p2725
I2136
sVAlex sf3
p2726
I2137
sVOswald
p2727
I2138
sVAxel
p2728
I2139
sVTamara
p2729
I4799
sVCci kula
p2730
I4419
sVElpizo
p2731
I2140
sV2k
p2732
I2141
sVCustom ssfiv oni
p2733
I2142
sVYouko
p2734
I2143
sVPunisher
p2735
I2144
sVFighter fly
p2736
I2145
sVMisaka mikoto
p2737
I2146
sVJones ex
p2738
I2147
sVDandy j
p2739
I2148
sVGato z2
p2740
I2149
sVNaitou ex
p2741
I3601
sVNinja turtles
p2742
I4211
sVSs6 sei-abab
p2743
I4248
sVRakugaki
p2744
I2151
sVMr.karateka
p2745
I2152
sVPsyqhical
p2746
I2153
sVBurnov
p2747
I1741
sVBeatrice
p2748
I4727
sVJotaro kujo
p2749
I4214
sVPotemkin
p2750
I2156
sVSailor mars
p2751
I3890
sVDaisy EX3
p2752
I2157
sVGod alosson
p2753
I2158
sVCci mature
p2754
I2159
sVTatsuki
p2755
I2160
sVSuper goku
p2756
I2102
sVGarlic jr
p2757
I2162
sVMiles edgeworth
p2758
I2163
sVEvil ryu ssf'2 plus EX3
p2759
I3145
sVKirikou EX3
p2760
I2164
sVDark Slayer
p2761
I2165
sVJason todd
p2762
I2166
sVMira
p2763
I2167
sVIchigo Kurosaki
p2764
I4709
sVKilla and ren
p2765
I2168
sVDantel
p2766
I4058
sVCharlotte ex
p2767
I2169
sVDios
p2768
I2170
sVTiger EX
p2769
I2171
sVSandrock
p2770
I2172
sVToki jj
p2771
I2173
sVDark chun-li
p2772
I2174
sVLf2 - louisx
p2773
I2175
sVSuika ibuki
p2774
I2176
sVVegeta ssj3
p2775
I2177
sVIsabeau
p2776
I2178
sVVegeta ssj5
p2777
I2179
sVPsychociel
p2778
I2180
sVMeta jade
p2779
I2181
sVSyobo-n
p2780
I2182
sVGhoston
p2781
I2183
sVYouhei
p2782
I3976
sVMetallo
p2783
I2184
sVTowa
p2784
I2185
sVNina
p2785
I2186
sVCutie honey
p2786
I4257
sVHuryou hatune
p2787
I2187
sVArale
p2788
I2188
sVAngela EX
p2789
I2189
sVNatsumi EX
p2790
I2190
sVChang
p2791
I2191
sVOmega red mvc2
p2792
I3101
sVSupreme gt vegeta
p2793
I4478
sVVenom MMV
p2794
I2194
sVHaohmaru CVS
p2795
I2195
sVSynn
p2796
I2196
sVCci kasumi
p2797
I2197
sVRyu SF4
p2798
I2198
sVGustab munchausen
p2799
I2199
sVRugal
p2800
I2200
sVHeavyarmscustom
p2801
I2201
sVDisrupter
p2802
I2231
sVAmakusa ex
p2803
I2203
sVMurakumo-abk
p2804
I3610
sVMuscle power
p2805
I2204
sVCless alvein
p2806
I2205
sVMisuzu
p2807
I2051
sVSieger
p2808
I4296
sVMasked rider 555_z
p2809
I2207
sVEvil dan
p2810
I2208
sVMokou EX
p2811
I3938
sVRichter belmont
p2812
I2210
sVTanuki
p2813
I2211
sVButt-head
p2814
I3851
sVSanosuke EX3
p2815
I2134
sVLynn 02
p2816
I2213
sVMissingno.
p2817
I2214
sVTails s2
p2818
I2215
sVIkkaku
p2819
I650
sVYumemi
p2820
I2216
sVArabian moon
p2821
I2217
sVShiny diamond
p2822
I4805
sVVeigue_lungberg
p2823
I2218
sVBubbles DG
p2824
I2219
sVDan hibiki
p2825
I2220
sVBlaze agent
p2826
I2221
sVUltraman dyna
p2827
I2222
sVKaede ngbc
p2828
I2223
sVAdon sfa
p2829
I2224
sVOhga
p2830
I2225
sVShishioh
p2831
I3445
sVStingray
p2832
I2226
sVMr.big
p2833
I4673
sVCell Hyper Dimension
p2834
I1579
sVBurter
p2835
I2068
sVC. shrd
p2836
I4197
sVDark champion
p2837
I2228
sVIrori
p2838
I2229
sVYuri sakazaki EX2
p2839
I2230
sVEx-malin
p2840
I4814
sVGowcaizer
p2841
I2232
sVGuardian
p2842
I2233
sVWaddledee EX3
p2843
I2234
sVAstonishing Cyclops
p2844
I4674
sVLehyu EX3
p2845
I4014
sVKaeru(chrono)
p2846
I2235
sVMai S
p2847
I3295
sVPlastic man
p2848
I4206
sVZombie
p2849
I2227
sVPocket Cloud
p2850
I4839
sVJuggernaut mvc2
p2851
I2237
sVUmvc_redarcueid
p2852
I2238
sVChibi naruto
p2853
I2239
sVArrange_ayu
p2854
I3844
sVDirty kf man
p2855
I4417
sVIari
p2856
I2240
sVBerserker
p2857
I4415
sVMaster god ryu
p2858
I2241
sVOkubo kumi
p2859
I4710
sVNega peach EX3
p2860
I2236
sVVoltz
p2861
I2244
sVHulk ex
p2862
I2245
sVYugi(emanon)
p2863
I2246
sVAyu&misuzu&mizuka
p2864
I2247
sVArcher
p2865
I2248
sVClark Steel XIII
p2866
I3892
sVYuen-joe
p2867
I4215
sVJp Polnareff
p2868
I4758
sVCpt.falcon
p2869
I2251
sVShiiko yuzuki
p2870
I2252
sVMr.saikyo
p2871
I2253
sVMB-02
p2872
I2254
sVOni inomura
p2873
I2255
sVMakishi masao
p2874
I2256
sVFaud
p2875
I3618
sVPucca-toppo
p2876
I2257
sVHinata Shippuden
p2877
I2258
sVYuri EX2
p2878
I2259
sVSymbiote spider-man
p2879
I2260
sVAk man
p2880
I4685
sVDoomsday
p2881
I2916
sVGuevara
p2882
I2262
sVChonrei W
p2883
I4237
sVKagami EX3
p2884
I4885
sVPossessed heita
p2885
I2264
sVHoly ken
p2886
I4112
sVRocket tank
p2887
I2266
sVHaruno sakura
p2888
I4272
sVColossus mvc2 ex
p2889
I2267
sVNrvnqsr chaos
p2890
I2268
sVWyler
p2891
I2269
sVFukumen senshi
p2892
I4532
sVSolid snake
p2893
I2270
sVIron_miyako
p2894
I4376
sVYuri lowell
p2895
I2271
sVCirnoJ
p2896
I2272
sVSailor jupiter EX
p2897
I2243
sVDis astranagant
p2898
I1313
sVDracula EX2
p2899
I4919
sVArc vp
p2900
I2275
sVCrazy rugal
p2901
I2276
sVBaki-hanma ex
p2902
I3041
sVA ninja
p2903
I2277
sVKnyacki
p2904
I2278
sVGoa
p2905
I2279
sVAkaitsuki EX
p2906
I2280
sVFlan
p2907
I4870
sVBattler
p2908
I2281
sVUmvc_suika
p2909
I2282
sVGriffon
p2910
I2283
sVBloodia EX2
p2911
I2284
sVBloodia EX3
p2912
I2285
sVOda nobunaga EX
p2913
I2535
sVBurnin' leo
p2914
I3010
sVSuper3 goku
p2915
I2288
sVRaidou
p2916
I4074
sVLf2 - firen
p2917
I2289
sVMajin vegeta EX3
p2918
I2839
sVYoshi
p2919
I2290
sVM_canon
p2920
I3910
sVLavos spawn
p2921
I4858
sVAsuka
p2922
I2293
sVYukari ex
p2923
I2294
sVSoldier
p2924
I2295
sVA-agito
p2925
I2296
sVGustavo
p2926
I4034
sVKurahashi tokimi
p2927
I2297
sVAo-takagami
p2928
I2298
sVRoyal air king
p2929
I362
sVHarpagos
p2930
I2300
sVValgar reinhart
p2931
I1253
sVMinis mahn
p2932
I4032
sVKim
p2933
I2301
sVDoom vega
p2934
I2302
sVMaster shake
p2935
I2303
sVMyuu
p2936
I4523
sVToejam
p2937
I2304
sVYu asuka
p2938
I2305
sVSub-zero EX3
p2939
I4312
sVJill ex
p2940
I2307
sVCaptain marvel
p2941
I2308
sVGagi_fe
p2942
I2309
sVHatsune miku
p2943
I2310
sVFelix the cat
p2944
I4276
sVCyndaquil
p2945
I2311
sVDeath
p2946
I4612
sVBack beard
p2947
I2312
sVRuputna
p2948
I2313
sVBlockhead
p2949
I2314
sVArrange_marisa
p2950
I2315
sVShao kahn
p2951
I2316
sVVega
p2952
I2317
sVEvil ryu sf3
p2953
I2318
sVJagi sama
p2954
I2319
sVSaltdonald
p2955
I2320
sVLucifer EX3
p2956
I3633
sVChiel
p2957
I2321
sVDr.doom
p2958
I4554
sVEiki-judgment
p2959
I2322
sVAdon ca
p2960
I2323
sVUndead jason voorhees
p2961
I2324
sVMaximum maxime
p2962
I2325
sVSaiyaman
p2963
I3423
sVSaizo
p2964
I2757
sVMegaman EX2
p2965
I2328
sVGillius
p2966
I846
sVDudley streets
p2967
I1939
sVMysty_monkstyle
p2968
I2209
sVWalkyrie EX2
p2969
I4602
sVStupid little drill tank
p2970
I2332
sVPocket Akuma
p2971
I2333
sVGoku ssj3 EX2
p2972
I2800
sVTobikage
p2973
I2335
sVHirasawa_yui
p2974
I4155
sVExtrahighfairy
p2975
I2336
sVSakaki
p2976
I2337
sVRed skull
p2977
I2338
sVYagami iori
p2978
I2339
sVMad dog
p2979
I2340
sVCheddah gief
p2980
I1646
sVMr.big EX3
p2981
I2342
sVGodman
p2982
I2343
sVCody_a
p2983
I2549
sVNot so hyper commando team
p2984
I1916
sVZombies
p2985
I4431
sVMad grinder
p2986
I2344
sVAnother kung fu girl z
p2987
I2345
sVKarla
p2988
I2346
sVCrazy-shin
p2989
I4522
sVSilver surfer
p2990
I2347
sVGustab m.
p2991
I2348
sVKizaru borsalino
p2992
I2349
sVSuper big bird
p2993
I4769
sVRatix
p2994
I2350
sVTurbo bonkers
p2995
I2351
sVCody(neoneo)
p2996
I1012
sVSilversamurai
p2997
I2353
sVNeco-arc chaos
p2998
I2354
sVRyougi_shiki
p2999
I2355
sVShin gouki ssf'2 plus
p3000
I2356
sVMecha dragon
p3001
I2906
sVIronfist ryu
p3002
I2357
sVBass
p3003
I2358
sVDaimon
p3004
I2359
sVOro
p3005
I4385
sVSieger EX2
p3006
I2360
sVDoragory
p3007
I4618
sVSekkimaru
p3008
I1971
sVKill bill uma-ex
p3009
I2361
sVGod tewi
p3010
I4519
sVS-yuuka
p3011
I4575
sVYuyuko & youmu
p3012
I2362
sVMagaki xi
p3013
I2363
sVKunagi
p3014
I4046
sVKyosuke
p3015
I2364
sVLink
p3016
I2935
sVPooh
p3017
I2365
sVSakuya.brando
p3018
I2366
sVMagic dunker EX
p3019
I2367
sVEtrigan
p3020
I2368
sVNash shadow
p3021
I2369
sVPatchouli_swr
p3022
I2370
sVAmi ex
p3023
I2371
sVShinshi
p3024
I4118
sVRydia of mist
p3025
I2372
sVHashi
p3026
I4148
sVUltraman agul
p3027
I2373
sVTwitch waifu chan-hd
p3028
I2374
sVHei_f
p3029
I923
sVUminin
p3030
I2375
sVDecade as kuuga
p3031
I2376
sVYagami_if
p3032
I2377
sVJon talbain
p3033
I3886
sVThe Colonel
p3034
I4129
sVMaxime
p3035
I4365
sVKirikou
p3036
I2380
sVArcadboy
p3037
I2381
sVRazor claws
p3038
I2382
sVMageko
p3039
I2263
sVDaimajin
p3040
I2383
sVDivekick kfm
p3041
I2384
sVIron man z
p3042
I2385
sVKagami EX2
p3043
I2386
sVNo.8
p3044
I2387
sVMokou fujiwara EX3
p3045
I2388
sVHulk mvc2
p3046
I4614
sVOrc
p3047
I2941
sVSagat_a
p3048
I4098
sVChun-li jj
p3049
I2389
sVRalf EX3
p3050
I1610
sVSheana
p3051
I4852
sVUesugi kensin EX G
p3052
I2391
sVYukkuriyukarin
p3053
I2392
sVPaul phoenix
p3054
I2393
sVGezorah
p3055
I2394
sVKanzaki yoh
p3056
I2395
sVLf2 - firzen
p3057
I3653
sVTourney pikachu
p3058
I2396
sVRoyal air king EX3
p3059
I3953
sVJuggy
p3060
I2397
sVSonic mvc
p3061
I4359
sVYuri di aaaaaa ex
p3062
I4049
sVAlter wind
p3063
I2399
sVGliformoth EX3
p3064
I2400
sVAlice margatroid
p3065
I3963
sVFoz
p3066
I2402
sVAnimus EX3
p3067
I2403
sVMami
p3068
I2404
sVGreen ranger
p3069
I2405
sVEvil guire
p3070
I2406
sVAkatsuki
p3071
I2407
sVCci xiangfei
p3072
I3305
sVGameboy
p3073
I2409
sVHoly flandre
p3074
I2410
sVMiko hd
p3075
I2411
sVCho-kichiku toki
p3076
I2412
sVSsj4 goten
p3077
I2413
sVAdon f22
p3078
I2414
sVUmvc_gouki
p3079
I2415
sVMaster marco
p3080
I2416
sVSyoh
p3081
I2417
sVShen EX
p3082
I2418
sVZeldia 0D
p3083
I2419
sVKagura
p3084
I2420
sVUzume
p3085
I2421
sVKaede kasiwagi
p3086
I4357
sVSimmon
p3087
I2423
sVHiziri
p3088
I2424
sVImouto
p3089
I2425
sVArmor jack
p3090
I4572
sVPepe-h
p3091
I3405
sVKing_leo
p3092
I4779
sVRaizen
p3093
I2427
sVUltraman 1st
p3094
I2428
sVAgent smith
p3095
I4246
sVHeihachi m
p3096
I2430
sVBrass
p3097
I2431
sVColonel sanders
p3098
I2432
sVTerry_ff3rb
p3099
I2433
sVMakoto mizoguchi
p3100
I2434
sVKing
p3101
I4426
sVBlue mary
p3102
I3189
sVJulius belmont
p3103
I2435
sVFighter
p3104
I4707
sVMaximune
p3105
I2436
sVZan-b EX
p3106
I2437
sVTurn-x
p3107
I2438
sVJin O
p3108
I2439
sVPiccoloco
p3109
I4578
sVDark arcueid mk2
p3110
I2440
sVForte cross rockman.exe
p3111
I4611
sVRolento
p3112
I2441
sVHonda tadakatsu
p3113
I2442
sVMask the griffon
p3114
I2443
sVAndroid 18
p3115
I2444
sVClark 98
p3116
I2445
sVLuigi
p3117
I4244
sVMc hisui
p3118
I3517
sVUtsuho reiuji
p3119
I3982
sVEyedol
p3120
I2448
sVEvil donald
p3121
I2449
sVAsuka EX2
p3122
I2450
sVMegamami EX2
p3123
I4131
sVPetshop
p3124
I2451
sVMay(ac)
p3125
I2452
sVThe guy
p3126
I4744
sVKrusty
p3127
I2453
sVGeneral bush
p3128
I2957
sVUmbreon
p3129
I2455
sVMattrex
p3130
I2456
sVMiyako(coh)
p3131
I2457
sVK' dempsey
p3132
I2458
sVAkane tendo
p3133
I4436
sVGen kiba
p3134
I2459
sVCool
p3135
I2460
sVDreamform sula
p3136
I4593
sVSuperman
p3137
I2461
sVMoonmillenniummon
p3138
I2462
sVMaria EX2
p3139
I2463
sVSasuke
p3140
I4736
sVGuldin EX2
p3141
I2464
sVStrong guy
p3142
I2465
sVPeketo EX3
p3143
I4036
sVKensuke kudou
p3144
I2466
sVP3 heroine
p3145
I2467
sVSolitary-zero
p3146
I2468
sVIceclimber
p3147
I2469
sVDougster
p3148
I33
sVCyrax umk3
p3149
I2471
sVHitsugaya
p3150
I2472
sVWar
p3151
I4660
sVYue EX3
p3152
I1027
sVGod vega
p3153
I2474
sVGalford nrf
p3154
I2475
sVZankuro ex
p3155
I2476
sVIgniz scarlet
p3156
I2477
sVNoriko nijou
p3157
I2478
sVSailor moon EX2
p3158
I1859
sVElongated man
p3159
I4680
sVCyber shredder
p3160
I4621
sVSparta_heika
p3161
I2480
sVGochack bigbomb
p3162
I4738
sVKyoko
p3163
I2482
sVGrebam
p3164
I2483
sVFordy-z
p3165
I2484
sVRogue
p3166
I2485
sVShin gouki EX2
p3167
I2486
sVJin chonrei
p3168
I2487
sVMorrigan nxc
p3169
I2488
sVPepito EX2
p3170
I2489
sVBaby bonnie hood EX3
p3171
I4189
sVLink tloz
p3172
I2491
sVAxel 'hawk' stone
p3173
I4645
sVRobo-mizuchi
p3174
I2492
sVKaguya houraisan
p3175
I2493
sVShingo & momoko
p3176
I2494
sVUndeadhero
p3177
I2495
sVOrochi
p3178
I4781
sVTokiko
p3179
I2497
sVKirisima kyoko
p3180
I2963
sVZoma
p3181
I2498
sVHana akuma
p3182
I2499
sVCueca
p3183
I2500
sVKenshiro 64
p3184
I4910
sVKungfumithra
p3185
I2501
sVWing.0
p3186
I4380
sVSupergirl
p3187
I2502
sVSailor saturn
p3188
I2503
sVKing lion ngbc
p3189
I4003
sVFubuki
p3190
I2504
sVTron Bonne MVC2
p3191
I4705
sVUzumaki naruto
p3192
I4748
sVKeiji
p3193
I2506
sVOld
p3194
I2507
sVBeavis EX3
p3195
I2508
sVBeavis EX2
p3196
I2509
sVPredator
p3197
I2510
sVSaint kyo
p3198
I4285
sVShoujo genkai
p3199
I2511
sVGarner
p3200
I4914
sVMaster sakura
p3201
I2512
sVCvs sakura
p3202
I2513
sVRin_tohsaka
p3203
I3891
sVNegative shin
p3204
I4218
sVMaster hand
p3205
I2515
sVRobo-sol
p3206
I4105
sVMudman
p3207
I4165
sVOkina
p3208
I2516
sVKyo xi
p3209
I2517
sVGodzilla_ex
p3210
I2518
sVPikkon
p3211
I4726
sVCola
p3212
I2519
sVBlues hablam
p3213
I2520
sVToki 2
p3214
I2521
sVCci jhun EX3
p3215
I2522
sVYashiro nanakase EX3
p3216
I2523
sVArcueid
p3217
I2524
sVRei EX
p3218
I2525
sVA-green
p3219
I2526
sVDestoroyah_ex
p3220
I2527
sVGundam epyon
p3221
I2528
sVUltraman tiga
p3222
I3899
sVGeese EX2
p3223
I3315
sVLee Cosplay
p3224
I4377
sVRocky balboa
p3225
I2530
sVTanya
p3226
I2531
sVDaniel
p3227
I2532
sVUltimate aizen
p3228
I2533
sVSlash
p3229
I2534
sVUltra super3 goku
p3230
I2286
sVThe scyther
p3231
I4387
sVYue CC
p3232
I2536
sVIori 71113
p3233
I2537
sVTwelve EX3
p3234
I2538
sVIkki
p3235
I2539
sVRyu hell
p3236
I2540
sVJoshua bright
p3237
I4529
sVJohnny cage EX
p3238
I4582
sVKiriko
p3239
I2542
sVTwintail
p3240
I2543
sVLast adult goku
p3241
I2544
sVMysterious budo
p3242
I2545
sVChizuruxxx
p3243
I2546
sVCvs yun
p3244
I2547
sVReal Ryu
p3245
I2548
sVLuka
p3246
I1368
sVThalia
p3247
I2550
sVR.jackal
p3248
I3864
sVLambdadelta
p3249
I2551
sVRangle EX3
p3250
I2552
sVGenyew
p3251
I4108
sVRock(mkii)
p3252
I1845
sVEleicia
p3253
I3330
sV9
p3254
I2555
sVFangore
p3255
I2556
sVHakureimu
p3256
I2557
sVIbuki sf3
p3257
I744
sVMienshao
p3258
I4444
sVLemeza
p3259
I2559
sVMajic-pot
p3260
I4263
sVEliza EX
p3261
I2560
sVKongman
p3262
I2561
sVThierry henry
p3263
I2562
sVAmato
p3264
I2563
sVFullmoon_suika
p3265
I2564
sVMr burns
p3266
I4636
sVGreen lantern
p3267
I2565
sVThe world-dio EX3
p3268
I2566
sVMaster taekuk
p3269
I2567
sVUshio
p3270
I3678
sVRaphael
p3271
I4694
sVMr. bean
p3272
I2568
sVScopedog
p3273
I2569
sVThwomp
p3274
I2570
sVDark baltan
p3275
I2571
sVSkapokan
p3276
I2572
sVTotoro
p3277
I2573
sVW buffalo_n
p3278
I2574
sV009
p3279
I4161
sVHammer bro
p3280
I2575
sVHatate_himekaidou
p3281
I2576
sVDhaos RD
p3282
I2577
sVAtusi
p3283
I2578
sVKars
p3284
I2579
sVMedamaoyaji
p3285
I2580
sVSauri
p3286
I2581
sVGully
p3287
I4142
sVNeyufeulle
p3288
I2583
sVLasher
p3289
I2584
sVZero maverick hunter
p3290
I2585
sVOchamaro
p3291
I4691
sVIronpatriot
p3292
I2586
sVF.o.e.
p3293
I4015
sVSol
p3294
I2587
sVWafu
p3295
I2588
sVRinrin
p3296
I2589
sVTen
p3297
I2590
sVAkira kogami
p3298
I2661
sVRay mcdogall
p3299
I2591
sVMaster god ken
p3300
I4038
sVGiro
p3301
I2593
sVHikaru EX3
p3302
I4351
sVBoring kagekiyo
p3303
I2594
sVTrap master makoto
p3304
I4855
sVArmgon
p3305
I2595
sVHol 'butt king' funtimes
p3306
I2984
sVEdonokiba
p3307
I2596
sVFang
p3308
I2597
sVNanaya shiki
p3309
I4207
sVCharizard
p3310
I2598
sVLenalee-mvc EX3
p3311
I2599
sVYashiro 2k2
p3312
I4725
sVAnother clone ash
p3313
I443
sVVirginia
p3314
I2601
sVChipp zanuff h
p3315
I2602
sVK.m.mioh
p3316
I3996
sVTingle
p3317
I2604
sVKitaro EX3
p3318
I2605
sVGotenks ssj
p3319
I2606
sVAlvein
p3320
I4022
sVZeroko EX3
p3321
I2607
sVEvil ken
p3322
I1053
sVSpawn CVG
p3323
I4872
sVTam tam
p3324
I2610
sVSento kun
p3325
I2611
sVFelicia EX2
p3326
I2612
sVPuss in boots
p3327
I2613
sVTenko
p3328
I2614
sVTnok
p3329
I2615
sVKogasa_f
p3330
I3943
sVRorschach
p3331
I2616
sVJurane
p3332
I4500
sVArcbeetle
p3333
I2617
sVAyumu kasuga EX
p3334
I4446
sVNero DMC4
p3335
I4622
sVNaitou
p3336
I2619
sVAbui
p3337
I2620
sVAstro
p3338
I2621
sVMike haggar EX3
p3339
I2622
sVOmega tiger woods
p3340
I2623
sVTarantulra_dfo
p3341
I4277
sVDon patch
p3342
I2624
sVAwakened torao
p3343
I2625
sVAioria de leo
p3344
I4180
sVMetagang
p3345
I4202
sVChipp
p3346
I2628
sVClassic batman
p3347
I2629
sVRip_saber
p3348
I2630
sVAlien mefilas
p3349
I2631
sVCaptain marvell
p3350
I4889
sVMarshal law
p3351
I2632
sVTsu-
p3352
I2633
sVMaster barnes
p3353
I2634
sVTerry 02
p3354
I3666
sVAndore jr
p3355
I2636
sVThor
p3356
I2637
sVGold warmachine
p3357
I2638
sVSarashina
p3358
I2639
sVUme_age18
p3359
I2640
sVLucario
p3360
I2641
sVOx
p3361
I2642
sVKanaka
p3362
I2643
sVSyllin
p3363
I2644
sVAcguy
p3364
I2645
sVPatchouli
p3365
I4865
sVNick commando EX
p3366
I2647
sVTin star
p3367
I2648
sVBlack rabite
p3368
I2649
sVChill penguin
p3369
I4343
sVTakiyasya
p3370
I4267
sVEdward elrick
p3371
I2650
sVSteven seagal
p3372
I4615
sVJack in dia
p3373
I2652
sVMichelangelo
p3374
I3326
sVShimako
p3375
I2653
sVKudora
p3376
I3626
sVYawara
p3377
I2655
sVOmega Woods
p3378
I2656
sVMeiya
p3379
I2657
sVHugo EX
p3380
I3959
sVTallgeese
p3381
I4409
sVGekka suika
p3382
I2659
sVGhost rider
p3383
I4490
sVNico
p3384
I2660
sVAndroid 16 ai-barbatos
p3385
I4668
sVRyu Master
p3386
I2265
sVMariko konjou
p3387
I4562
sVJoe EX3
p3388
I2662
sVMr.satan EX3
p3389
I2663
sVNogami_aoi
p3390
I4204
sVRyu 98
p3391
I2664
sVJohn anderson
p3392
I3287
sVKaisensei ken
p3393
I840
sVChildre inarabitta
p3394
I2666
sVHyper neo-kamek EX3
p3395
I2667
sVBlaze EX2
p3396
I2206
sVEx snow
p3397
I2668
sVAndy
p3398
I2669
sVEx adamas
p3399
I2670
sVG_orochi
p3400
I2671
sVStrider hiryu
p3401
I2999
sVSeth ex
p3402
I2672
sVBonegolem
p3403
I2673
sVTyssa willing
p3404
I2674
sVHyper neo-kamek
p3405
I2675
sVWiler
p3406
I2676
sVSailor mercury k
p3407
I412
sVKira
p3408
I3000
sVSankuro yorozu
p3409
I3942
sVYami yugi
p3410
I2679
sVLambda 11
p3411
I2680
sVTetsu yatoji
p3412
I2681
sVK'
p3413
I3244
sVCar navi EX
p3414
I2682
sVBomber man
p3415
I4655
sVSakura EX2
p3416
I2683
sVMai_shiranui EX3
p3417
I4287
sVHol horse & boingo
p3418
I4505
sVTiblekun
p3419
I2685
sVBlack rugal
p3420
I2686
sVLin EX3
p3421
I2687
sVGodmars
p3422
I2688
sVApollo
p3423
I180
sVModel z
p3424
I2690
sVNyamo EX
p3425
I2691
sVYusuke
p3426
I2692
sVChen-mao
p3427
I2693
sVFrankenstein
p3428
I2694
sVColossus
p3429
I2695
sVSs6 renfa EX2
p3430
I2696
sVMajor alan dutch schaefer
p3431
I2470
sVToguro 100%
p3432
I2698
sVSaiyajin
p3433
I2713
sVShin akuma
p3434
I1051
sVDonkey kong EX2
p3435
I2700
sVTu shou
p3436
I2048
sVParasite
p3437
I3964
sVLotus master
p3438
I2702
sVIggy
p3439
I4568
sVGaits z
p3440
I2703
sVJado
p3441
I4576
sVTrunks
p3442
I2704
sVBlodia-k
p3443
I2705
sVGlenn
p3444
I2706
sVD Chun-li
p3445
I3717
sVRoa
p3446
I4372
sVIzanagi
p3447
I2707
sVDr. doom mvc3
p3448
I2708
sVMia touma
p3449
I2709
sVLucifer 2
p3450
I2710
sVKaf ka
p3451
I2711
sVBurai_yamamoto
p3452
I4464
sVLion
p3453
I3894
sVYusuke urameshi
p3454
I2714
sVPower lyzer
p3455
I2715
sVV2ab
p3456
I2716
sVSylveon_var1
p3457
I2717
sVReptile mk2
p3458
I2718
sVCell junior
p3459
I4456
sVStarsavior
p3460
I4084
sVThe gandhara
p3461
I2720
sVHeika-ss
p3462
I2721
sVNeco
p3463
I4177
sVSalty goku
p3464
I2722
sVOrochi ball
p3465
I1901
sVMichael jordan
p3466
I2724
sVEnegori
p3467
I2725
sVParace
p3468
I2726
sVLaststarman
p3469
I4789
sVEcoco
p3470
I2727
sVFygar
p3471
I2728
sVBurnie
p3472
I2729
sVHal jordan
p3473
I2730
sVBloo xiii
p3474
I2731
sVSula
p3475
I2732
sVKyo_99xi
p3476
I2733
sVMeteor
p3477
I2734
sVUsapi-
p3478
I4784
sVGeese_ff3rb
p3479
I2735
sVDai rai oh
p3480
I1803
sVRobin_mask
p3481
I2736
sVProtectos
p3482
I4897
sVLady deathstrike
p3483
I2737
sVSupermario64
p3484
I2738
sVBubble slime
p3485
I1250
sVLf2 - bat
p3486
I4356
sVRatking
p3487
I2740
sVBatgirl
p3488
I4501
sVWarlock-k
p3489
I4524
sVMr. fantastic
p3490
I4311
sVVulture
p3491
I2743
sVKill bill uma
p3492
I2744
sVCustom-bsreimu
p3493
I4059
sVKonata EX
p3494
I2745
sVChronoforce
p3495
I2746
sVCho-kichiku masamune EX3
p3496
I2747
sVCm punk
p3497
I2748
sVKarin CVS
p3498
I1327
sVLeopaldon
p3499
I4498
sVDante D4
p3500
I4078
sVRyu EX3
p3501
I2750
sVBenimaru EX3
p3502
I2751
sVBlue blood
p3503
I2752
sVWonder boy shion
p3504
I2753
sVSteel
p3505
I2754
sVBardock EX3
p3506
I4473
sVMobo
p3507
I4518
sVBou ken
p3508
I118
sVDeadpool EX
p3509
I2758
sVSerika
p3510
I2759
sVThawk sfa
p3511
I2760
sVAoshi
p3512
I2761
sVKung fu fiunn
p3513
I2762
sVKuanyinshen
p3514
I4746
sVTormentor jinmen
p3515
I2763
sVHyper kagami
p3516
I2764
sVLyzer
p3517
I2765
sVSyouzan matsuo
p3518
I2766
sVK-series
p3519
I2767
sVRen mizusaka
p3520
I2768
sVAura
p3521
I2769
sVKilyousuke
p3522
I2770
sVChaka EX3
p3523
I2771
sVClonekyo xi
p3524
I2742
sVKoneko
p3525
I2773
sVBoulma
p3526
I4370
sVJyubei yagyu
p3527
I2774
sVNighmare snake
p3528
I4041
sVThe red skull
p3529
I2775
sVDarkseid
p3530
I2776
sVDongdong
p3531
I1406
sVGeneral_l
p3532
I1667
sVJ'onn j'onnz
p3533
I2329
sVSpongebob
p3534
I4318
sVTwitch waifu chan-sd
p3535
I2779
sVElza kanagusuku
p3536
I2780
sVTetris EX
p3537
I4932
sVPiccolo
p3538
I4701
sVDolphin
p3539
I4938
sVSenna
p3540
I2582
sVHei meiling
p3541
I2781
sVNao EX3
p3542
I4741
sVPesoguin
p3543
I2782
sVStrawbelly jam
p3544
I2330
sVGrand master ryu
p3545
I2783
sVCustom ddv shadow master
p3546
I2784
sVChizuru 71113
p3547
I2785
sVKrillin
p3548
I421
sVFamardy
p3549
I2787
sVAlien borg
p3550
I4620
sVSara_cat EX
p3551
I2788
sVPapillon
p3552
I2789
sVDream bison
p3553
I2790
sVShion
p3554
I4711
sVAlcott
p3555
I2791
sVNacht_jaeger1.29
p3556
I2792
sVHige
p3557
I4862
sVJeff howard
p3558
I4024
sVShizuha aki
p3559
I4434
sVDare devil
p3560
I4530
sVScene
p3561
I4675
sVHoujuu nue H
p3562
I2794
sVGuldin
p3563
I4269
sVPeketo
p3564
I3991
sVO_flan-var.2
p3565
I2795
sVYukino
p3566
I2796
sVLuise
p3567
I2797
sVKungFu Man
p3568
I4430
sVBlizzard EX3
p3569
I3013
sVGuile machine
p3570
I2799
sVMegatron
p3571
I4807
sVKuwabara
p3572
I1555
sVJuggernaut ex
p3573
I2802
sVJagi bike
p3574
I2803
sVThe dazzler
p3575
I3958
sVPulunis
p3576
I2804
sVRyu mvc1
p3577
I4487
sVNachi
p3578
I4092
sVMagaki EX2
p3579
I2805
sVAdler-a
p3580
I4929
sVChonshu EX3
p3581
I4469
sVMike tyson
p3582
I2806
sVRaphael EX
p3583
I2807
sVGarfield
p3584
I2808
sVMary
p3585
I2809
sVH-duolon
p3586
I2810
sVGoku ssj3
p3587
I4717
sVHiryu EX2
p3588
I2699
sVHan EX3
p3589
I2811
sVChie_rumiko
p3590
I2812
sVAkito(coh)
p3591
I2813
sVOuyang feng
p3592
I2814
sVAn ogre
p3593
I2815
sVGoblin
p3594
I4947
sVMito_mashiro
p3595
I2816
sVRobo rock
p3596
I2817
sVKeine kamishirasawa(keln)
p3597
I2818
sVKlonoa
p3598
I2819
sVCheng_fu
p3599
I4485
sVAntimage
p3600
I2820
sVAzteca
p3601
I2821
sVKanoko hosokawa
p3602
I2822
sVLight yagami
p3603
I2823
sVGolden axe
p3604
I2824
sVSentry
p3605
I1697
sVDoppo orochi
p3606
I4447
sVH_gate_0350
p3607
I2826
sVAsha
p3608
I2827
sVMomiji inubashiri
p3609
I2828
sVGorilla
p3610
I4097
sVDante 4
p3611
I2830
sVToki hakurei
p3612
I2831
sVMazinger-z ex
p3613
I4136
sVCc iron clara
p3614
I1774
sVYujiro-hanma
p3615
I2832
sVGohan saiya-jin ex
p3616
I2833
sVGouki
p3617
I3108
sVKoishi_b
p3618
I4002
sVKanae
p3619
I2836
sVFull armor ciel
p3620
I2837
sVThe nightmare
p3621
I4916
sVC-stm-00x
p3622
I4854
sVSabu EX3
p3623
I2838
sVMusashi
p3624
I4021
sVAi
p3625
I2840
sVWreck-it ralph EX3
p3626
I2841
sVPicurin
p3627
I2842
sVSf4 vega
p3628
I2843
sVAl
p3629
I4087
sVForte.exe
p3630
I4208
sVHaruhi suzumiya
p3631
I4045
sVIria
p3632
I4332
sVUppercut
p3633
I2847
sVKyoshiro ex
p3634
I2341
sVD4 roll
p3635
I2849
sVImperfect cell
p3636
I2850
sVLf2 - henry
p3637
I2851
sVHwoarang
p3638
I2852
sVKen CVS
p3639
I2853
sVKitanaitaru
p3640
I3146
sVRip Saber
p3641
I2854
sVOrochimaru nzc
p3642
I4868
sVChina kohaku
p3643
I3955
sVNanoha tsukikage
p3644
I2856
sVCyberdemon
p3645
I4471
sVGenma saotome
p3646
I2857
sVGertrud
p3647
I2858
sVAoi_amatu
p3648
I3635
sVPrince of all saiyans
p3649
I2859
sVBospider
p3650
I4887
sVSaya(p_ai)
p3651
I4231
sVBrimstone
p3652
I2861
sVTalonarten
p3653
I2862
sVExtramyon
p3654
I4114
sVCarriage driver
p3655
I4765
sVTiger mm
p3656
I4688
sVOrochi akuma
p3657
I2864
sVMultiple man
p3658
I2865
sVNoroko EX3
p3659
I2866
sVMamizou EX
p3660
I4559
sVNash
p3661
I3026
sVAyu tsukimiya
p3662
I2868
sVJet jaguar
p3663
I2869
sVFreddie mercury
p3664
I2618
sVMtguile
p3665
I2870
sVIceman cota
p3666
I2871
sVAndy bogard rb
p3667
I2872
sVKoyomi mizuhara
p3668
I2873
sVLizardman
p3669
I4461
sVSho ryu
p3670
I2874
sVNoa
p3671
I4604
sVOlof
p3672
I4381
sVZangief sf4
p3673
I2875
sVGoddman batman
p3674
I3152
sVBenimaru 98
p3675
I2876
sVCyborg superman
p3676
I2877
sVRyousan gata patchouli
p3677
I2878
sVKenoh
p3678
I3944
sVQueen the spade
p3679
I4093
sVAmaterasu
p3680
I2879
sVBig ptolemaic tank
p3681
I4846
sVAnd 18
p3682
I2881
sVDixie kong
p3683
I4292
sVNeo meep140
p3684
I4824
sVHattori hanzou ph ai
p3685
I4821
sVTora shou
p3686
I2882
sVCius
p3687
I2883
sVLord zedd
p3688
I2884
sVSlash-beast
p3689
I2885
sVGolgo13
p3690
I4874
sVAlpha candy
p3691
I2886
sVClown
p3692
I2887
sVBurger king
p3693
I4901
sVVictor ortega
p3694
I2888
sVMugetu
p3695
I2889
sVTiti
p3696
I4101
sVWarakia
p3697
I4427
sVNitori(emanon)
p3698
I2890
sVGrimace
p3699
I2891
sVDurian EX3
p3700
I2892
sVYumina
p3701
I2893
sVDi gi charat
p3702
I2894
sVLeona
p3703
I2447
sVBig bear 0D
p3704
I2895
sVLeonardo EX
p3705
I2896
sVCharlotte
p3706
I2897
sVBully in the launderette
p3707
I2898
sVKyo
p3708
I2899
sVBaruganodon_ex
p3709
I2900
sVWyler xi ver
p3710
I2901
sVNazrin
p3711
I2902
sVMegaman.exe EX
p3712
I4079
sVBebum ryo
p3713
I2903
sVThe thing
p3714
I4082
sVReptos
p3715
I4757
sVKenshin uesugi
p3716
I2905
sVThe mask of ero
p3717
I4043
sVHaruka
p3718
I2907
sVTakumi hattori
p3719
I2908
sVAchamo
p3720
I2909
sVShiki tohno iqs
p3721
I4344
sVTouko matsudaira
p3722
I2352
sVCammy EX3
p3723
I4091
sVAlucard SOTN
p3724
I2910
sVRenji
p3725
I2911
sVRyoko kano EX2
p3726
I2912
sVAlena
p3727
I4761
sVVergil2
p3728
I2913
sVSavage hulk
p3729
I4569
sVAssasincross
p3730
I2914
sVRax coswell
p3731
I4400
sVKureha EX3
p3732
I2915
sVDiggle
p3733
I2261
sVSerika_os
p3734
I2917
sVBlue eyes white karin
p3735
I4463
sVJack-hamma
p3736
I2918
sVGoenitz
p3737
I4299
sV(sman) EX3
p3738
I2919
sVVan platin
p3739
I2920
sVMecha-gorilla
p3740
I2921
sVUltimat goku
p3741
I2922
sVDown
p3742
I2923
sVKurorim
p3743
I2924
sVOnslaught 2
p3744
I2925
sVJagi
p3745
I2926
sVLeo bradlay
p3746
I2927
sVJessica
p3747
I2928
sVJam(ac)
p3748
I2929
sVEvil Vegeta
p3749
I4888
sVHonda asuka
p3750
I2931
sVNests-rugal
p3751
I2932
sVZan-b
p3752
I2933
sVSuper-japanese
p3753
I2934
sVGoku transformer
p3754
I2930
sVArrange_misuzu
p3755
I4238
sVRock EX
p3756
I2936
sVGhost kick
p3757
I2937
sVOrochi vega
p3758
I2938
sVGulpfer
p3759
I3904
sVChunli 3so
p3760
I2739
sVKyo-1
p3761
I2940
sVMiopinja
p3762
I4641
sVLina
p3763
I2942
sVIzzy blue
p3764
I2943
sVAndroid 16
p3765
I2944
sVCyborg_t-8p
p3766
I2945
sVBousou oni-chiduru K
p3767
I2946
sVGiant jackson
p3768
I1358
sVAnother suwako
p3769
I2331
sVSkiboots
p3770
I4595
sVImr-765-s_kisaragi
p3771
I2948
sVChibi nazrin
p3772
I2949
sVThe grandmapocalypse
p3773
I2950
sVToyotomi hideyoshi
p3774
I2951
sVMars people
p3775
I2952
sVTrunks ssj4
p3776
I2953
sVFrank archer
p3777
I2954
sVOmega god ryu
p3778
I2955
sVYui
p3779
I2956
sVShin meep140
p3780
I3725
sVKing kong
p3781
I2756
sVYun
p3782
I2959
sVYue
p3783
I2960
sVTerry ex02
p3784
I2961
sVMr. game & watch plus
p3785
I4640
sVAmakusa
p3786
I2962
sVJames jerkenson
p3787
I4517
sVYukari
p3788
I4373
sVWave man
p3789
I1683
sVSpin youmu
p3790
I2965
sVHeavy rob
p3791
I2966
sVDeath13 EX3
p3792
I2967
sVFlan ex
p3793
I2969
sVAthena fake
p3794
I2970
sVKinopio
p3795
I4437
sVDhaos
p3796
I2971
sVSakura EX3
p3797
I2972
sVSayuri kurata
p3798
I4491
sVWu-ling
p3799
I2973
sVIshtar
p3800
I1402
sVKefka palazzo
p3801
I2975
sVThunder mask
p3802
I2976
sVZero Hotaru
p3803
I2977
sVOozaru
p3804
I3745
sVAlvin the chipmunk
p3805
I2979
sV2ban-tan
p3806
I2980
sVConker
p3807
I2981
sVKusanagi EX
p3808
I976
sVSuper-Mario
p3809
I604
sVBlue ranger
p3810
I4557
sVP-ciel
p3811
I2985
sVShadow dio
p3812
I4061
sVAkari
p3813
I2987
sVHihumi
p3814
I2989
sVYoko yuki
p3815
I2990
sVNorimaro EX3
p3816
I2991
sVReika EX3
p3817
I2992
sVNimuge president
p3818
I4224
sVHisui
p3819
I2993
sVT-h-m-a
p3820
I2994
sVArrange_mishio
p3821
I2995
sVTerryman
p3822
I2996
sVQbee c.v.
p3823
I2997
sV2nd death star
p3824
I2998
sVGenkai
p3825
I4900
sVEve EX3
p3826
I4540
sVBoring sdk shiina yuya
p3827
I3999
sVBerserker EX
p3828
I3001
sVScorpion CVW
p3829
I4126
sVKotone
p3830
I3659
sVCoil
p3831
I3003
sVYuri_96
p3832
I4632
sVDeath ogre
p3833
I3004
sVDeathscythe
p3834
I3005
sVG rugal
p3835
I3006
sVEdward newgate
p3836
I3007
sVHazama
p3837
I3008
sVShadowroo (pf 3)
p3838
I3932
sVSumo
p3839
I4147
sVMordecai
p3840
I3009
sVSolid snake EX
p3841
I4905
sVMami tomoe ai
p3842
I3011
sVShiki_kageya
p3843
I3370
sVWildcat
p3844
I3012
sVKohaku K
p3845
I2798
sVJurarus
p3846
I4130
sVDrunken master
p3847
I3014
sVSpelunker
p3848
I3015
sVKarnov ex
p3849
I3016
sVSion tatari EX
p3850
I4577
sVScharlachrot
p3851
I393
sVPocket Felicia
p3852
I3017
sVPyro
p3853
I3018
sVPandon fe
p3854
I3019
sVDonaiya
p3855
I4558
sVKyoso(n-cube ai)
p3856
I3020
sVHol horse EX
p3857
I3021
sVInjya
p3858
I3022
sVNakoruru ex EX3
p3859
I3023
sVR-unagi
p3860
I3024
sVKim hoon EX
p3861
I3025
sVGuy
p3862
I3429
sVZero Cloud
p3863
I3027
sVHaruka_amami
p3864
I3028
sVOgre
p3865
I3029
sVWolfgang krauser EX
p3866
I3030
sVAlbion
p3867
I3031
sVUsada hikaru
p3868
I4828
sVTao jun EX
p3869
I2192
sVShingetter1
p3870
I3032
sVBlizzard
p3871
I3033
sVKaname madoka
p3872
I3034
sVMurakumo-abk EX2
p3873
I3035
sVMorgiana EX2
p3874
I3036
sVMakoto nanaya
p3875
I1341
sVIbuki suika nightmare
p3876
I3037
sVZenith
p3877
I3038
sVMoguera
p3878
I4903
sVRyuuguu rena
p3879
I2723
sVMinmin
p3880
I3039
sVChris_gb
p3881
I3040
sVAracne de tarantula
p3882
I4699
sVNeko
p3883
I4016
sVScorponok
p3884
I4379
sVH_yujiro
p3885
I3793
sVPielle
p3886
I3208
sVPerfect cell
p3887
I3042
sVRockman
p3888
I3043
sVOrsted
p3889
I3044
sVYoung Heihachi
p3890
I3045
sVYuki fujiwara
p3891
I3046
sVCassius bright
p3892
I3047
sVAlpaca
p3893
I3390
sVMasaki anzu EX3
p3894
I3049
sVCirno brando
p3895
I3587
sVCondor
p3896
I4528
sVYoriko-mvc EX3
p3897
I3050
sVAlex mercer
p3898
I4328
sVAgony
p3899
I4042
sVKaori
p3900
I3051
sVDiokles
p3901
I1852
sVCliff-tsunade-godaime
p3902
I3053
sVNoah
p3903
I4851
sVCchouou
p3904
I3054
sVByakuya kuchiki
p3905
I1898
sVYako_katsuragi
p3906
I4515
sVUltimate armor x
p3907
I3056
sVSonozaki_shion
p3908
I3057
sVOnslaught 1st
p3909
I3731
sVGato ex
p3910
I4226
sVDate masamune
p3911
I4894
sVRosie
p3912
I3058
sVAoko
p3913
I3096
sVRyoko(mugen)
p3914
I3060
sVMaat
p3915
I4199
sVTukuyo
p3916
I3061
sVMetaknight
p3917
I3062
sVKusanagi
p3918
I3063
sVBeast
p3919
I3064
sVBloody flandre
p3920
I3065
sVAsamiya saki x
p3921
I3066
sVJo jo
p3922
I3067
sVPlatinum the trinity
p3923
I3068
sVJedah
p3924
I3069
sVHouoh EX
p3925
I3070
sVAgrias BC
p3926
I4229
sVRbff master geese
p3927
I3072
sVYacopu
p3928
I3073
sVShinjuro
p3929
I3074
sVJigglypuff EX2
p3930
I3174
sVPorky minch
p3931
I3076
sVRuili EX3
p3932
I1842
sVPocket Ken
p3933
I3077
sVMokoi
p3934
I1758
sVBaby commando
p3935
I939
sVT.hawk sf2
p3936
I3204
sVShin scrub ken
p3937
I4066
sVSuper3 goku EX3
p3938
I3080
sVMudman ngbc
p3939
I3081
sVQ
p3940
I3082
sVKendo&kyudo
p3941
I3083
sVKoryu
p3942
I3084
sVNatsu
p3943
I3239
sVSakazaki ryo
p3944
I3986
sV250% b.weapon
p3945
I2986
sVRigby
p3946
I3087
sVKazama sogetsu EX3
p3947
I3088
sVShrek
p3948
I3089
sVScarlet dragon
p3949
I3090
sVAner rolange
p3950
I3091
sVRock of spirit
p3951
I3092
sVSuperbot
p3952
I4289
sVBalrog IV
p3953
I26
sVReptile
p3954
I3094
sVChibi kuroko
p3955
I2496
sVFamily dog
p3956
I3095
sV94_flan
p3957
I3059
sVPerfectakishimai 2
p3958
I2982
sVCrystal
p3959
I3909
sVKira daidoji
p3960
I3097
sVIron lantern
p3961
I3098
sVKid trunks
p3962
I3099
sVSuperboy
p3963
I3100
sVRain mk2
p3964
I4121
sVGolems
p3965
I4783
sVLion magnus
p3966
I3102
sVRoza
p3967
I3103
sVShikamaru
p3968
I4587
sVShadow lady
p3969
I3104
sVAhojingod
p3970
I3105
sVFaust(ac)
p3971
I3106
sVHisui aa
p3972
I3107
sVMichelangelo 0d
p3973
I4472
sVJean pielle
p3974
I4133
sVYadamon
p3975
I3109
sVAkiba
p3976
I3110
sVAleti
p3977
I3111
sVGonzales
p3978
I3112
sVChange dragon
p3979
I2801
sVRx-78-2 gundam
p3980
I2378
sVAya
p3981
I3115
sVSagat SF4
p3982
I4057
sVHoppy
p3983
I3116
sVBlaziken
p3984
I449
sVJa-koh
p3985
I3118
sVKagetsura
p3986
I3119
sVPhysalis
p3987
I3120
sVMongori
p3988
I3956
sVGyaban
p3989
I4590
sVFinal
p3990
I4815
sVGuillotine gen
p3991
I3121
sVFreeman_n
p3992
I3122
sVTas_ken
p3993
I4786
sVGod gundam
p3994
I1114
sVZako-dan
p3995
I3124
sVBlossom DG
p3996
I4102
sVRistar
p3997
I4570
sVEvil dooby dummy
p3998
I1707
sVBoss gustab m.
p3999
I3127
sVYuiran
p4000
I4195
sVAsagi asagiri
p4001
I3128
sVRick
p4002
I3129
sVPrometheus
p4003
I3130
sVKusanagi EX3
p4004
I4205
sVSquall
p4005
I3131
sVRyu sf3
p4006
I1117
sVGundamexia
p4007
I3133
sVGori
p4008
I3071
sVBristol-d
p4009
I3134
sVTabunne
p4010
I3135
sVJohnny
p4011
I3501
sVSchlussel
p4012
I3136
sVAltered Amiba
p4013
I4001
sVSon goku
p4014
I1857
sVHyper omega chaos hiryu
p4015
I3139
sVDan 0d
p4016
I3140
sVCloud strife
p4017
I3141
sVHasshie
p4018
I3142
sVGosunkugi
p4019
I4920
sVChibi suika
p4020
I4813
sVSatsuki shindou
p4021
I3143
sVLittle busters!
p4022
I3144
sVReiji
p4023
I77
sVYorihime watatsuki
p4024
I4763
sVUdonge_a
p4025
I4610
sVFootee
p4026
I3546
sVGliz
p4027
I3148
sVSissy
p4028
I4230
sVGod kula
p4029
I4750
sVEharu_ai
p4030
I4512
sVAdam
p4031
I3150
sVParagus
p4032
I3151
sVMagneto_cota
p4033
I3113
sVGaia EX3
p4034
I3153
sVHeihachi CVS
p4035
I3154
sVHawkman
p4036
I3155
sVEnlightened sun wu kong
p4037
I3156
sVAnakaris
p4038
I3157
sVRobin
p4039
I3158
sVSilver horns
p4040
I3988
sVShredder
p4041
I3159
sVSai
p4042
I3160
sVVp frey
p4043
I3161
sVLyndis EX
p4044
I3162
sVKonata
p4045
I3163
sVRazorclaws
p4046
I3164
sVCf-len
p4047
I3165
sVKakashi hatake
p4048
I3166
sVRydia EX3
p4049
I3167
sVRb2_geese
p4050
I3168
sVTeh ryu
p4051
I3169
sVViper
p4052
I3170
sVKill bill jhonny_mo
p4053
I3171
sVTeam nicktoon
p4054
I4457
sVWraith
p4055
I4393
sVChrome dome EX
p4056
I2327
sVEko
p4057
I3075
sVEsmeralda
p4058
I3175
sVAner rolange EX3
p4059
I3176
sVRyuko2nd
p4060
I4331
sVKaede_hioh
p4061
I4052
sVEva-05
p4062
I3178
sVNamazu
p4063
I4363
sVCapsule monster
p4064
I3180
sVHanzo EX
p4065
I3181
sVEva-03
p4066
I3182
sVCoolseven
p4067
I4838
sVWolverine
p4068
I3183
sVBilly 'big bang' blitz
p4069
I3184
sVOriginal vega
p4070
I3185
sVCheng
p4071
I3186
sVGonzales s-r
p4072
I3187
sVG-adelheid
p4073
I3188
sVTorozo
p4074
I3538
sVSundown-kid
p4075
I3190
sVMystic son gohan
p4076
I3191
sVPateta
p4077
I3192
sVCactuar
p4078
I2829
sVSmoke mk2
p4079
I3193
sVPocket Morrigan
p4080
I4320
sVSilver samurai
p4081
I3194
sVAoc
p4082
I3195
sVA-lee
p4083
I3196
sVReimu-q
p4084
I1578
sVKaname
p4085
I3197
sVKohaku EX2
p4086
I3198
sVHyoga de cisne
p4087
I3199
sVNinja nwa
p4088
I3200
sVRock EX2
p4089
I3201
sVRock EX3
p4090
I3202
sVZabogar
p4091
I3611
sVG-akiha
p4092
I3203
sVTodo EX
p4093
I3079
sVGarmraid
p4094
I3205
sVMagneto mvc2
p4095
I3206
sVAselia
p4096
I3207
sVKongou
p4097
I44
sVMac os-x siam
p4098
I3209
sVFordy
p4099
I3210
sVHelion z
p4100
I3211
sVAssiette
p4101
I3212
sVKenpachi
p4102
I3213
sVSs6 ren
p4103
I3214
sVHarima
p4104
I4132
sVFernandeath 2
p4105
I3215
sVRobert945
p4106
I3216
sVKouryu
p4107
I4594
sVPacman
p4108
I3217
sVIce EX3
p4109
I3218
sVYukari_swr
p4110
I4314
sVPikopiko EX3
p4111
I3219
sVZero Marrow
p4112
I2161
sVAty
p4113
I2326
sVFinal peketo
p4114
I3221
sVZeldia
p4115
I4184
sVSenator
p4116
I3222
sVNanoha takamachi
p4117
I3223
sVRagna bloodedge
p4118
I2626
sVEcco
p4119
I4209
sVUltra ssj5 vegeta
p4120
I2958
sVFinal zone boss s1
p4121
I3226
sVShin mr. karate
p4122
I4039
sVZabel ex
p4123
I3227
sVRenna
p4124
I3228
sVGreat gohan
p4125
I4251
sVNaruto kid
p4126
I4875
sVGehorsam
p4127
I3230
sVCyborg EX
p4128
I3231
sVKonan
p4129
I3232
sVKenshi 1p
p4130
I3233
sVInternational karateka
p4131
I3234
sVSpace warrior
p4132
I3235
sVCommode serika
p4133
I3236
sVEvil ryu
p4134
I3237
sVAiant
p4135
I3469
sVYoshinaka hinata
p4136
I3238
sVSonia rotd
p4137
I2988
sVMasamichi oyama
p4138
I3240
sVJohnny bravo
p4139
I3241
sVVixen
p4140
I3242
sVMedicine melancholy
p4141
I1739
sVDark ash
p4142
I3887
sVIkadevil
p4143
I3245
sVMasaru_takahara
p4144
I3246
sVShitan uzuki
p4145
I3247
sVSonic EX2
p4146
I3248
sVSonic EX3
p4147
I3249
sVGaisei
p4148
I3250
sVFreya diamond
p4149
I3251
sVDuke nukem
p4150
I261
sVBinjyobrothers
p4151
I3253
sVDynamo
p4152
I3254
sVPekomaru
p4153
I3255
sVNicola zaza
p4154
I4624
sVNu-13
p4155
I3257
sVMizore s.
p4156
I3258
sVGalvatron
p4157
I3259
sVSaori - athena
p4158
I3260
sVJiraiya
p4159
I3261
sVEin
p4160
I3262
sVKrizalid N
p4161
I3263
sVScrooge mcduck
p4162
I4453
sVGeese 98
p4163
I3264
sVRalf 2k2 EX
p4164
I3048
sVRugal EX3
p4165
I3265
sVMaori
p4166
I3266
sVBellyache
p4167
I3267
sVEmily
p4168
I3268
sVSuper man
p4169
I4477
sVR.king
p4170
I3269
sVShana
p4171
I3270
sVKenshin
p4172
I4534
sVBatman Normal
p4173
I3271
sVBuntaro EX
p4174
I442
sVAssassin
p4175
I1890
sVMr. bear
p4176
I3273
sVAi momoyama
p4177
I3962
sVHashi EX3
p4178
I3274
sVBubbles jp
p4179
I4346
sVBad mr frosty
p4180
I3952
sVUchiha sasuke
p4181
I3276
sVNanaya_s
p4182
I3277
sVMusashi akatsuki
p4183
I2964
sVKusaregedo EX
p4184
I3279
sVPoring
p4185
I3280
sVSimon Belmondo
p4186
I4521
sVOrochi head
p4187
I3282
sVDhaos PS
p4188
I3283
sVNeodio
p4189
I3284
sVCiel EX
p4190
I3285
sVThe fabled sagileocorn
p4191
I3093
sVShadowman cfas
p4192
I4358
sVDead vega
p4193
I2010
sVChaos
p4194
I2401
sVLancer EX2
p4195
I4438
sVSharaku
p4196
I2553
sVChaos Blanka
p4197
I3289
sVReisen-e
p4198
I3290
sVGouki sf
p4199
I3291
sVOshima
p4200
I4538
sVKy
p4201
I3292
sVGiron
p4202
I447
sVNobunaga
p4203
I3294
sVUmvc_sentinel
p4204
I4715
sVUme
p4205
I3296
sVDark donald
p4206
I4581
sVArcueid_brunestud
p4207
I3298
sVAccelerator
p4208
I3299
sVMarvel frozen
p4209
I4830
sVNero
p4210
I2080
sVVenom
p4211
I3300
sVSailor mercury EX
p4212
I3486
sVTatsuki Arisawa
p4213
I3301
sVAnother cirno
p4214
I3302
sVMeep140 s-type
p4215
I4497
sVDragon EX3
p4216
I3303
sVZinc
p4217
I3304
sVRyo-sakazaki
p4218
I2408
sVHiei EX
p4219
I2026
sVYoshitora
p4220
I4563
sVRage rock ex
p4221
I3308
sVWonder momo
p4222
I3309
sVMillia Rage
p4223
I3310
sVGaap
p4224
I556
sV1.0
p4225
I3312
sVUltraseven
p4226
I3313
sVGundam zeta
p4227
I3314
sVStarship-kirby
p4228
I4455
sVJin EX
p4229
I4258
sVSanada_yukimura
p4230
I4083
sVTriceratops
p4231
I3317
sVNega peach
p4232
I601
sVNosferu
p4233
I3319
sVJin CVS
p4234
I3320
sVShion EX3
p4235
I3321
sVNagaoka shiho
p4236
I3322
sVCharging chuck
p4237
I3323
sVKirby c
p4238
I3324
sVSasuke uchiha
p4239
I3325
sVTrevor B
p4240
I2834
sVOrsted_w
p4241
I3327
sVMelty_magic_tenko
p4242
I3328
sVThe end
p4243
I3329
sVTyoukesin EX3
p4244
I4160
sVMaster chief
p4245
I1560
sVLian
p4246
I3331
sVSpider-man
p4247
I3332
sVDarkseid IS
p4248
I3333
sVKarin EX3
p4249
I3334
sVGogeta super saiyan 3
p4250
I3969
sVThe king
p4251
I3335
sVChiyo-chichi
p4252
I3336
sVDuane
p4253
I3337
sVYoung joseph
p4254
I3338
sVD4 reimu
p4255
I3339
sVMizuki takase
p4256
I3340
sVOld robo-ky
p4257
I2603
sVLacerta Misty
p4258
I3341
sVGotenks ssj EX
p4259
I3342
sVReminya
p4260
I3343
sVComrade athena
p4261
I4063
sVMiffy
p4262
I3344
sVMega vegeta
p4263
I4194
sVCaptainAmerica
p4264
I4089
sVHyper rare akuma
p4265
I3346
sVKing 13
p4266
I3347
sVGaragaranda
p4267
I3348
sVRouga(coh)
p4268
I3349
sVSparkster
p4269
I3350
sVCarmilla
p4270
I3351
sVSimon belmont
p4271
I3352
sVWing zero
p4272
I3353
sVDbloodbane
p4273
I3354
sVPrincess silver
p4274
I3355
sVMima EX
p4275
I3356
sVAvdol ver 2001/01/30 by camrat
p4276
I4149
sVLion sora
p4277
I4584
sVRin rin
p4278
I3357
sVRyoko
p4279
I3874
sVPsychopath kyo
p4280
I3179
sVMarvel spider-man
p4281
I4625
sVMai tokiha ex
p4282
I3358
sVBlack magician girl
p4283
I3359
sVFirestorm
p4284
I3360
sVCaptainamerica EX3
p4285
I2379
sVShiki EX2
p4286
I3362
sVUltrassjgoku
p4287
I3363
sVShimakaze
p4288
I3364
sVToki
p4289
I4127
sVGoku nex
p4290
I2250
sVLee_chen
p4291
I3365
sVCielo
p4292
I1874
sVOozura bebi
p4293
I3366
sVRhadamantis
p4294
I3367
sVRin EX
p4295
I3085
sVMamiya
p4296
I4395
sVMishio
p4297
I3368
sVRiggs
p4298
I3369
sVJinbei
p4299
I4606
sVShanoa
p4300
I2844
sVAlder(seraph)
p4301
I3371
sVPop
p4302
I3372
sVKaiba seto
p4303
I3373
sVRebecca
p4304
I4253
sVKunagi-f.o
p4305
I3374
sVDonald
p4306
I3375
sVLafiras
p4307
I3376
sVWeiss dhq
p4308
I2287
sVMarvin the martian
p4309
I4402
sVKintaro
p4310
I3377
sVP. chunli
p4311
I3378
sVDq5-daughter
p4312
I3379
sVMageko EX
p4313
I3689
sVBishop
p4314
I3381
sVVice CVS
p4315
I4952
sVMichael jackson
p4316
I3382
sVJubilee
p4317
I3383
sVJay Flash
p4318
I3384
sVShura
p4319
I3385
sVByakuya
p4320
I3386
sVYuka takeuchi
p4321
I3387
sVVegeta
p4322
I3388
sVHarry
p4323
I1760
sVSsj5 goku
p4324
I2701
sVErile
p4325
I4443
sVAlien queen
p4326
I3391
sVSion tatari
p4327
I3392
sVSmoo
p4328
I3393
sVBarney
p4329
I3394
sVDonkey kong
p4330
I3395
sVSetsuna hsr
p4331
I2390
sVShimo EX3
p4332
I3396
sVZz_gundam
p4333
I3397
sVWonder momo EX
p4334
I3398
sVAnother igniz
p4335
I3399
sVGeki
p4336
I3400
sVHu-ama EX3
p4337
I3401
sVKrillin EX3
p4338
I3402
sVWaluigi
p4339
I4704
sVNeo y&m
p4340
I1816
sVKitana
p4341
I3403
sVAmingo MVC2
p4342
I3404
sVDonatello
p4343
I2426
sVVanessa
p4344
I3406
sVUltraman
p4345
I3407
sVChun-li
p4346
I4080
sVGenkai_shihan
p4347
I3408
sVKanako yasaka EX3
p4348
I1275
sVAkaitsuki
p4349
I3409
sVAthena x
p4350
I3410
sVJill
p4351
I3411
sVSvc genjyuro
p4352
I4546
sVKazuya mishima
p4353
I4397
sVStefanie
p4354
I3229
sVSerio
p4355
I3412
sVSaki tsuzura
p4356
I3413
sVOmega EX
p4357
I4643
sVSayuri bernstein
p4358
I3414
sVRimururu
p4359
I3416
sVCar navi
p4360
I3417
sVZaku
p4361
I3418
sVKuando
p4362
I3419
sVYami_miko
p4363
I4771
sVAnge EX
p4364
I3420
sVGelato
p4365
I4567
sVDee bee kaw EX3
p4366
I3421
sVRyoko EX
p4367
I3422
sVMilitsa_patchouli
p4368
I3220
sVLuke EX
p4369
I3424
sVPorygon-z EX2
p4370
I3425
sVBowser
p4371
I3426
sVOrochi tenko
p4372
I1241
sVCyber shredder 2.1
p4373
I3428
sVYurung
p4374
I2867
sVZou
p4375
I3430
sVGrand_diable
p4376
I3431
sVSuperman hero
p4377
I4724
sVPeach toadstool EX3
p4378
I4375
sVShazam
p4379
I3432
sVSinclair
p4380
I3433
sVNekomo
p4381
I3434
sVPingu
p4382
I3435
sVNoob saibot mk2
p4383
I3436
sVMicky13
p4384
I3437
sVDual koa(v0.5.2)
p4385
I3438
sVSuparfcmeirin ver.1.15
p4386
I3439
sVAndroid 16 EX3
p4387
I3440
sVKaede+z_n
p4388
I3441
sVNanase EX
p4389
I4243
sVTrigger
p4390
I3117
sVRaiden EX
p4391
I3442
sVMarisa EX
p4392
I4134
sVMonk EX3
p4393
I3443
sVAyako
p4394
I4192
sVBlack moth
p4395
I633
sVUnlucky glauber
p4396
I3724
sVHugo andore jr. ff2
p4397
I3446
sVFcmeirin EX2
p4398
I3447
sVThouther
p4399
I4139
sVDeathmask
p4400
I3173
sVSnorlax EX2
p4401
I3055
sVCc medusa
p4402
I3448
sVAsagi kun
p4403
I3449
sVCustom getsufuma
p4404
I3450
sVJuggernaut
p4405
I4458
sVLeona ex
p4406
I3451
sVGlacial_girl
p4407
I3452
sVLelouch EX
p4408
I3453
sVJoachim
p4409
I3454
sVJimmy lee
p4410
I3455
sVIzumi konata
p4411
I3456
sVDark athena 2nd
p4412
I3457
sVRuquia ex
p4413
I3459
sVRandy m. green
p4414
I3460
sVZebura
p4415
I3461
sVDeluxe burter
p4416
I3462
sVDoppo orochi EX3
p4417
I3463
sVCyborg kung fu man
p4418
I4288
sVMissmarvel
p4419
I3464
sVRyu CVS
p4420
I4733
sVRaine
p4421
I3465
sVAthena EX3
p4422
I3466
sVCaptain_heart
p4423
I3821
sVVh_mami EX
p4424
I3467
sVMaplestory mage
p4425
I3468
sVSpy-dama EX
p4426
I4775
sVGodzilla
p4427
I4329
sVHisui EX
p4428
I2939
sVReika murasame EX
p4429
I4623
sVDevil jin
p4430
I1902
sVJuli
p4431
I3470
sVToro inoue
p4432
I1775
sVM-griffon
p4433
I3472
sVSupreme gogeta
p4434
I4115
sVIronman EX
p4435
I3474
sVMillia
p4436
I3475
sVLloyd irving
p4437
I3476
sVOrtega ex
p4438
I3477
sVSteely dan
p4439
I3729
sVYoukanman
p4440
I3478
sVHaoumaru
p4441
I3479
sVVoltage zero
p4442
I4669
sVViolent ryu
p4443
I3480
sVDemitri EX3
p4444
I3481
sVLion-o
p4445
I4213
sVLiu yungmie
p4446
I3482
sVMandoraf-f
p4447
I3483
sVTouka
p4448
I3484
sVSanada kojiroh s-style
p4449
I3485
sVEve silvan
p4450
I4088
sVMai maino
p4451
I3487
sVWang-fu
p4452
I4896
sVJecht EX
p4453
I3488
sVNukesaku EX2
p4454
I3489
sVAtsuko tomohara
p4455
I3490
sVRyu Evil
p4456
I3491
sVHeart-armardi
p4457
I3492
sVCaster
p4458
I3931
sVAxl
p4459
I3493
sVMoyomoto
p4460
I4499
sVSanae_x
p4461
I3224
sVRancid
p4462
I3494
sVSs3youmu
p4463
I3495
sVKim sueil
p4464
I3496
sVHoujuu nue
p4465
I4216
sVS-tomy
p4466
I3497
sVPocket Tessa
p4467
I4654
sVFujibayashi suzu
p4468
I3499
sVFlamme
p4469
I4829
sVShenlong
p4470
I4672
sVMasked rider hibiki(emanon)
p4471
I3500
sVOmanyte
p4472
I4309
sVZangief sf2
p4473
I4440
sVHugo sf3
p4474
I3502
sVShogun EX3
p4475
I3503
sVNico robin
p4476
I3504
sVGuile_a
p4477
I3505
sVAura 2nd revival
p4478
I4271
sVJean grey
p4479
I1184
sVIsao jinrai
p4480
I3507
sVAndy_xiii
p4481
I3508
sVChenshiro
p4482
I3509
sVKaigen
p4483
I4770
sVBarbie
p4484
I4030
sVPuri*princess
p4485
I3511
sVGhiaccio
p4486
I201
sVNyoki
p4487
I3512
sVLili
p4488
I3513
sVBubsy bobcat
p4489
I3514
sVCless ndx
p4490
I3515
sVMoriya ex
p4491
I2446
sVRobo-mukai
p4492
I4125
sVG akiha nightmare
p4493
I2334
sVRoll MVC
p4494
I4023
sVKhan EX3
p4495
I4222
sVL.c.kiso
p4496
I3518
sVGer
p4497
I4697
sVAsellus EX
p4498
I3519
sVBig volfogg
p4499
I3520
sVHeidern_ex
p4500
I3521
sVKrayce
p4501
I2778
sVCaptain.cat.kit
p4502
I4827
sVDocock
p4503
I4773
sVMr satan
p4504
I3522
sVHinako 2k3
p4505
I3523
sVSpider girl
p4506
I3524
sVDogma
p4507
I4283
sVF91
p4508
I3525
sV7th heaven ciel
p4509
I3526
sVSsj three broli
p4510
I3527
sVKana-chan dhq EX3
p4511
I1752
sVHan baedal
p4512
I3529
sVHuman bo
p4513
I3530
sVGen
p4514
I3531
sVJotaro
p4515
I3532
sVGel
p4516
I3533
sVJuri pf
p4517
I3534
sVAkuma shin
p4518
I3535
sVSenna vp
p4519
I3536
sVI-no(ac)
p4520
I3537
sVBloodtide
p4521
I1771
sVSannomiya_shiho
p4522
I3539
sVAn ordinary sonic the hedgehog
p4523
I3540
sVMario 119
p4524
I3541
sVRasetsumaru
p4525
I3542
sVYamame
p4526
I3543
sVStg-zero-
p4527
I3544
sVRaptorking-petshop
p4528
I3545
sVGodslayer shin meep140
p4529
I4895
sVMokou fujiwara
p4530
I1189
sVDaimon EX2
p4531
I2558
sVAkuma SF4
p4532
I3965
sVGoku EX3
p4533
I4340
sVSilverbloome
p4534
I3549
sVKam'lanaut
p4535
I3550
sVFuhashitei
p4536
I3985
sVSuika_ibuki
p4537
I3551
sVVega Mask
p4538
I3552
sVMorrigan EX
p4539
I3553
sVFire_fairy
p4540
I4103
sVAna
p4541
I4196
sVFusagiko
p4542
I3554
sVNouka
p4543
I3555
sVSsj vegeto
p4544
I3556
sVFireman EX3
p4545
I3557
sVS.sinclair
p4546
I3558
sVGelonimon
p4547
I3559
sVGiorno giovanna
p4548
I3560
sVGill hero
p4549
I3561
sVTenkochan EX
p4550
I3562
sVGenma human by jhfer
p4551
I3563
sVLf2 - julian
p4552
I3564
sVRaidou EX
p4553
I4020
sVSatori EX
p4554
I3566
sVElirin
p4555
I3567
sVDoruge
p4556
I3568
sVAcirno_3.5
p4557
I3569
sVOoze-o
p4558
I3570
sVTia langray
p4559
I4526
sVJubei
p4560
I3571
sVRudra-suija
p4561
I4406
sVShanghai
p4562
I3572
sVRobo rock type-2
p4563
I3573
sVMaster krauser
p4564
I3574
sVUltimate cap
p4565
I4297
sVGoku z2 EX3
p4566
I3575
sVCaptain agent
p4567
I3967
sVLety
p4568
I1795
sVSilhouette
p4569
I641
sVAnti.guile.zangief
p4570
I2019
sVJin kisaragi
p4571
I3580
sVArthas
p4572
I4644
sVPokita
p4573
I3581
sVD-rugal
p4574
I3582
sVUtsuho_b
p4575
I3583
sVBrahms
p4576
I3584
sVHinata
p4577
I4882
sVSteve
p4578
I4850
sVLobo
p4579
I3586
sVKang rotd
p4580
I4484
sVUmvc_hulk
p4581
I3588
sVSora com
p4582
I3589
sVShaolon
p4583
I3590
sVSakura Kasugano
p4584
I3591
sVAe86
p4585
I4304
sVNayuta
p4586
I3592
sVMech rugal
p4587
I3593
sVGemini
p4588
I3594
sVCapt Commando
p4589
I3595
sVSuper masao
p4590
I4884
sVPiccolo sb
p4591
I3597
sVUnzan&ichirin
p4592
I3598
sVRachel alucard
p4593
I3599
sVCliff-zabuza-nzc
p4594
I3600
sVKamek EX3
p4595
I4747
sVNecochaosblackg666mk2
p4596
I3602
sVMary 2k2
p4597
I4408
sVSailor mercury
p4598
I3603
sVFlygon
p4599
I3604
sVTenshi baiken
p4600
I3605
sVKiba
p4601
I4909
sVHugo andore jr.
p4602
I3606
sVFungi
p4603
I3607
sVThe creepy clock
p4604
I1769
sVShin EX
p4605
I3608
sVNina EX
p4606
I4293
sVSuave dude EX
p4607
I4713
sVKim kap hwan
p4608
I220
sVDooby dummy
p4609
I3612
sVGeki de oso
p4610
I3613
sVSaba
p4611
I4737
sVNightmare-gamera_ex
p4612
I3614
sVShiratama20
p4613
I3615
sVHibiki
p4614
I3616
sVDee jay
p4615
I3617
sVExocist(dnf)
p4616
I4545
sVBoggy b
p4617
I3619
sVHoly strider
p4618
I3620
sVRyoga hibiki
p4619
I3621
sVZankuro
p4620
I3622
sVMichael_roa_valdamjong
p4621
I3623
sVSachiel
p4622
I3624
sVDesperado+
p4623
I3625
sVShiki Ryougi
p4624
I3548
sVVenom scorpion
p4625
I3627
sVIrriana
p4626
I2249
sVAvdol
p4627
I3905
sVKobuta
p4628
I3629
sVMaxim kischine
p4629
I3630
sVStern
p4630
I3631
sVRed arremer
p4631
I3632
sVZangoose
p4632
I3149
sVSlash EX
p4633
I3634
sVOswald_deadly
p4634
I4768
sVNagae iku
p4635
I1133
sVAzrael
p4636
I3498
sVGigant
p4637
I3637
sVKazama sogetsu
p4638
I3638
sVKing godzilla
p4639
I4452
sVOrochi yuyuko
p4640
I3640
sVSuper skrull
p4641
I3641
sVMarcia
p4642
I3642
sVAndy_ff3rb
p4643
I3643
sVYtp robotnik
p4644
I4617
sVGuerrilla
p4645
I3644
sVSquall EX2
p4646
I3645
sVSon goku EX3
p4647
I3646
sVZao-long
p4648
I3647
sVSs6 renfa
p4649
I4541
sVSatsuki
p4650
I3648
sVBad megaman
p4651
I3649
sVDr.gero EX3
p4652
I3650
sVNaruto uzumaki
p4653
I4298
sVWangchang EX
p4654
I3652
sVGoten gt nex
p4655
I4804
sVNucrear cirno EX
p4656
I4300
sVReptile EX3
p4657
I3654
sVReptile EX2
p4658
I3655
sVKaori&shiori EX
p4659
I2490
sVNameless 02
p4660
I4110
sVChibiko
p4661
I3657
sVMega weapon
p4662
I3658
sVLipsyncher
p4663
I4658
sVMina EX2
p4664
I3660
sVTitan the great
p4665
I1205
sVM.bison sf2ww
p4666
I3662
sVBaiken(ac)
p4667
I3663
sVRyoko(fhd)
p4668
I3664
sVBroken
p4669
I4137
sVChuu
p4670
I1807
sVFilz-rout
p4671
I3510
sVDiablo
p4672
I4642
sVTin's fernandeath
p4673
I2011
sVShuma MVC3
p4674
I1225
sVKraft
p4675
I3668
sVMash figaro
p4676
I3669
sVGet in the robot you idiot
p4677
I3670
sVQ-bee ex
p4678
I3853
sVAngry video game nerd
p4679
I3671
sVMisty
p4680
I3672
sVNess EX3
p4681
I3389
sVGoku ssj 3
p4682
I4573
sVPerfect storm x
p4683
I1373
sVZoffy
p4684
I3674
sVHyper commando team
p4685
I3675
sVDeath adder
p4686
I3676
sVDet. garret laurel
p4687
I4262
sVShampoo
p4688
I3677
sVSanosuke
p4689
I4510
sVSnow
p4690
I3679
sVWild.o.yashiro
p4691
I3680
sVGaia EX2
p4692
I3681
sVAbyss EX
p4693
I3682
sVK' EX3
p4694
I3683
sVAsuras
p4695
I3684
sVWolvie
p4696
I3685
sVBlack demonica
p4697
I3686
sVLuise EX2
p4698
I3687
sVElement kofm
p4699
I3688
sVCarol stanzack
p4700
I3925
sVBirdie EX3
p4701
I3690
sVDeath black shot
p4702
I4759
sVChaka
p4703
I3994
sVNanmushi
p4704
I3901
sVDawn
p4705
I3692
sVBokosuka wars
p4706
I3693
sVWashizuka xi
p4707
I3694
sVC.commando
p4708
I3695
sVSailor jupiter k
p4709
I3696
sVShen xi
p4710
I4416
sVMaggyo IX
p4711
I3698
sVSaizo_hattori
p4712
I3528
sVHachune miku
p4713
I3699
sVSimple
p4714
I3700
sVNoel vermillion
p4715
I3701
sVEtomo shuko
p4716
I3702
sVKamille
p4717
I3703
sVZaku EX3
p4718
I3704
sVKokesz
p4719
I3705
sVDink smallwood
p4720
I2719
sVWarewarenocolibri
p4721
I3706
sVBlack tiger
p4722
I3707
sVEternal little girl
p4723
I4652
sVOshawott
p4724
I3708
sVGikoneko
p4725
I3961
sVGiratina
p4726
I3709
sVKathryne_keyron
p4727
I4174
sVPerfect cell EX3
p4728
I3710
sVDarkman
p4729
I3711
sVAoba
p4730
I4154
sVSeyren_windsor
p4731
I4070
sVChintao
p4732
I3712
sVGohan ssj4
p4733
I4671
sVForte
p4734
I3713
sVNf-kyo
p4735
I3714
sVKana orikura
p4736
I4212
sVBarts
p4737
I3715
sVKisume EX
p4738
I3716
sVWong fei hung
p4739
I4241
sVAbyss form 1
p4740
I3718
sVTengu man
p4741
I3719
sVWooden_doll
p4742
I3720
sVExistence-less
p4743
I3721
sVYang K
p4744
I4867
sVHinata wakaba
p4745
I3722
sVMukai EX3
p4746
I3723
sVKazama kazuki
p4747
I2454
sVObstinate_tank
p4748
I4333
sVGeese EX3
p4749
I2529
sVMr.karate EX2
p4750
I4723
sVDinozord EX
p4751
I3727
sVMaria EX
p4752
I3728
sVWaddledee
p4753
I4907
sVAgumon
p4754
I2983
sVZein_dael
p4755
I2150
sVIshida uryu
p4756
I1817
sVCelsius
p4757
I4407
sVAsuta-san
p4758
I3730
sVMora_g
p4759
I1554
sVHauzer
p4760
I3732
sVHeaddy
p4761
I3733
sVSuper gotenks
p4762
I3734
sVMeirin EX
p4763
I3735
sVShinji_san
p4764
I3736
sVYakui-san
p4765
I3737
sVWaki-miko
p4766
I3738
sVAmon EX2
p4767
I3739
sVHoly akuma
p4768
I4441
sVKanji
p4769
I4730
sVSasuke storm
p4770
I3741
sVKiruo_v1.18
p4771
I3742
sVAika toarcreat
p4772
I3743
sVCco
p4773
I3744
sVGotenks gt
p4774
I2978
sVLiu kang
p4775
I3981
sVRyu XIII
p4776
I3746
sVErza scarlet
p4777
I3747
sVDrill asamin
p4778
I3748
sVApe man
p4779
I3749
sVNaomi EX2
p4780
I3750
sVSaint-of-silver
p4781
I3752
sVBoggy
p4782
I4104
sVMurasa EX
p4783
I3754
sVDr.minerva
p4784
I4754
sVWhite buffalo EX3
p4785
I4433
sVGod ken
p4786
I4256
sVGeese mk ii
p4787
I884
sVVorgasm
p4788
I3052
sVPocket joker
p4789
I3756
sVKeion chan
p4790
I3757
sVTalon
p4791
I3758
sVCless-f
p4792
I3759
sVRaph
p4793
I3760
sVSayo chan
p4794
I3761
sVZatanna EX3
p4795
I3762
sVHu-ama
p4796
I3763
sVStinko man - 20x6
p4797
I3764
sVPolon
p4798
I4183
sVHeitasupermode
p4799
I3765
sVVergil EX3
p4800
I3766
sVInvader remi
p4801
I3767
sVEric cartman
p4802
I3768
sVGregorius:nmky
p4803
I3769
sVCarnage MMV
p4804
I3770
sVGreen lantern js
p4805
I4560
sVSakuya_izayoi
p4806
I738
sVJuan
p4807
I3771
sVA-utsuho
p4808
I1220
sVOmega red
p4809
I4017
sVSwordman (waifu)
p4810
I3773
sVHellboy
p4811
I3774
sVSandman
p4812
I3775
sVMakendo
p4813
I3776
sVTestament
p4814
I3870
sVRyo(mkii)
p4815
I4062
sVKamen rider kaixa
p4816
I3777
sVRevlius
p4817
I3778
sVAkatuki zetu
p4818
I3779
sVSailor moon k
p4819
I3780
sVKubikiri basara KOF
p4820
I4520
sVKagami
p4821
I3782
sVFrostman
p4822
I3783
sVTrainheartnet
p4823
I3784
sVKanorin
p4824
I3785
sVAlexa
p4825
I3786
sVMasked rider 555(emanon)
p4826
I3787
sVPrinny
p4827
I3788
sVEtomo shuko EX3
p4828
I4031
sVGallon EX2
p4829
I4302
sVGhetto warmachine
p4830
I3789
sVAmy
p4831
I4186
sVDark phoenix
p4832
I3790
sVSeth SF4
p4833
I3791
sVBoxer
p4834
I3792
sVCheatman
p4835
I320
sVYouki-so-suika
p4836
I3794
sVCook kawasaki
p4837
I3795
sVThe world-dio
p4838
I3796
sVLynn baker
p4839
I3797
sVBoring vigilante EX3
p4840
I4353
sVRob lucci
p4841
I3798
sVClara
p4842
I1956
sVNormal Ryu
p4843
I4892
sVKenji
p4844
I3799
sVEva-01
p4845
I3800
sVEuphoria the everlasting
p4846
I3345
sVEl stinger
p4847
I3802
sVS.p.o. ryu
p4848
I2968
sVGreen arrow
p4849
I3804
sVRario
p4850
I4232
sVEva-00
p4851
I3805
sVAdel-haaaaai
p4852
I3806
sVLeviathan
p4853
I3807
sVWonder Woman Reloaded
p4854
I3808
sVKaname madoka EX
p4855
I3809
sVRockula
p4856
I2848
sVNucrear cirno
p4857
I3923
sVRavange
p4858
I3811
sVYagumo_ex
p4859
I3812
sVJenny
p4860
I3813
sVKungfugirl uzuki
p4861
I3814
sVSakura 98
p4862
I3815
sVPoison qyc
p4863
I3816
sVBuggy
p4864
I3817
sVRamda EX3
p4865
I4250
sVAnother blood q
p4866
I3818
sVLuke skywalker
p4867
I3819
sVKirin
p4868
I3820
sVNeji
p4869
I3275
sVKing lion
p4870
I686
sVIkemen
p4871
I3822
sVShaq fu EX3
p4872
I3823
sVAtatatatatatata
p4873
I3824
sVThe world of arien
p4874
I3825
sVLf2 - louis
p4875
I3826
sVRajaamaki
p4876
I3827
sVGhost nappa EX
p4877
I3828
sVAbareimu
p4878
I4841
sVIvy
p4879
I4876
sVOtane oume
p4880
I4227
sVAtari dragon
p4881
I3990
sVRyo
p4882
I3829
sVKrillin UB22
p4883
I3830
sVVertigo
p4884
I3929
sVEleking
p4885
I4188
sVBang EX2
p4886
I3831
sVElque
p4887
I3832
sVCable
p4888
I3833
sVLf2 - john
p4889
I3834
sVShinji_san EX
p4890
I3835
sVJulian solo poseidon
p4891
I4047
sVMiyabi
p4892
I3836
sVShaky jake
p4893
I4596
sVHeavyarms
p4894
I3837
sVCc iron ryuji
p4895
I4598
sVNick commando EX FF
p4896
I3838
sVUltron
p4897
I3839
sVBristol weller
p4898
I1641
sVAbsolute_white_len
p4899
I3841
sVRyu
p4900
I3842
sVKanna_kouryu
p4901
I3843
sVChiaotzu
p4902
I4925
sVSailor venus
p4903
I3810
sVKenshi ex
p4904
I4235
sVGiant Ultraman
p4905
I586
sVReject no. 253
p4906
I3845
sVSub-zero mk2
p4907
I2947
sVAsh crimson
p4908
I3846
sVKoi reika
p4909
I2473
sVGanjou dan
p4910
I3848
sVShirakawa kotori
p4911
I2678
sVMarin
p4912
I3849
sVMario
p4913
I3850
sVByrne
p4914
I4295
sVMomo-kirby
p4915
I3852
sVEva-02 EX3
p4916
I4040
sVTiger
p4917
I4181
sVAlt(hana-ai)
p4918
I3855
sVAi EX2
p4919
I3977
sVPill
p4920
I1805
sVZangief cfj
p4921
I3856
sVTakuma
p4922
I3697
sVKratos
p4923
I4599
sVAya syameimaru
p4924
I2609
sVSho nuff
p4925
I3859
sVDemitri maximoff
p4926
I3860
sVAce
p4927
I3861
sVNaruto kun
p4928
I3862
sVProfessor x
p4929
I3863
sVCode-holder
p4930
I4506
sVKouma kishima
p4931
I582
sVBlue colonel
p4932
I3865
sVGades
p4933
I3866
sVTain-ren
p4934
I3867
sVSaten_level5
p4935
I3361
sVKarin
p4936
I3868
sVHammerin' harry
p4937
I3869
sVSkullomania
p4938
I680
sVJuda-(nericya)
p4939
I3871
sVKamui tenrou
p4940
I3609
sVTamara EX2
p4941
I2113
sVMaria
p4942
I3857
sVFake okami
p4943
I4366
sVSakon
p4944
I2658
sVWell
p4945
I3803
sVArturo
p4946
I3872
sVErmac
p4947
I3873
sVTerry rogers
p4948
I3177
sVPrivate
p4949
I3875
sVYusha
p4950
I1841
sVWarachia
p4951
I3877
sVOpera elmer
p4952
I3878
sVGatocyu
p4953
I3879
sVIk borodin
p4954
I4470
sVSue-zo
p4955
I3880
sVGoku ssj5
p4956
I3881
sVFulgore
p4957
I3882
sVSpera
p4958
I3883
sVAgeha
p4959
I3884
sVDaiyousei EX
p4960
I3885
sa(dp4961
I0
g2
sI1
g3
sI2
g4
sI3
g5
sI4
g6
sI5
g7
sI6
g8
sI7
g9
sI8
g10
sI9
g11
sI10
g12
sI11
g13
sI12
g14
sI13
g15
sI14
g16
sI15
g17
sI16
g18
sI17
g19
sI18
g20
sI19
g21
sI20
g22
sI21
g23
sI22
g24
sI23
g25
sI24
g26
sI25
g27
sI26
g3953
sI27
g28
sI28
g30
sI29
g31
sI30
g32
sI31
g33
sI32
g34
sI33
g3148
sI34
g37
sI35
g38
sI36
g39
sI37
g40
sI38
g41
sI39
g42
sI40
g43
sI41
g44
sI42
g46
sI43
g47
sI44
g4097
sI45
g50
sI46
g52
sI47
g54
sI48
g55
sI49
g56
sI50
g57
sI51
g58
sI52
g61
sI53
g63
sI54
g65
sI55
g66
sI56
g67
sI57
g68
sI58
g69
sI59
g70
sI60
g71
sI61
g72
sI62
g73
sI63
g74
sI64
g76
sI65
g77
sI66
g78
sI67
g79
sI68
g80
sI69
g81
sI70
g82
sI71
g83
sI72
g84
sI73
g85
sI74
g767
sI75
g87
sI76
g88
sI77
g4023
sI78
g89
sI79
g91
sI80
g92
sI81
g94
sI82
g97
sI83
g98
sI84
g100
sI85
g101
sI86
g104
sI87
g105
sI88
g106
sI89
g107
sI90
g108
sI91
g110
sI92
g111
sI93
g112
sI94
g113
sI95
g114
sI96
g115
sI97
g116
sI98
g117
sI99
g119
sI100
g120
sI101
g121
sI102
g123
sI103
g124
sI104
g125
sI105
g128
sI106
g129
sI107
g130
sI108
g131
sI109
g132
sI110
g133
sI111
g134
sI112
g135
sI113
g137
sI114
g138
sI115
g139
sI116
g140
sI117
g142
sI118
g3508
sI119
g144
sI120
g145
sI121
g146
sI122
g147
sI123
g148
sI124
g149
sI125
g151
sI126
g152
sI127
g153
sI128
g154
sI129
g155
sI130
g156
sI131
g157
sI132
g158
sI133
g160
sI134
g161
sI135
g162
sI136
g163
sI137
g164
sI138
g165
sI139
g168
sI140
g169
sI141
g170
sI142
g171
sI143
g491
sI144
g173
sI145
g176
sI146
g177
sI147
g2264
sI148
g182
sI149
g183
sI150
g184
sI151
g185
sI152
g186
sI153
g187
sI154
g188
sI155
g189
sI156
g190
sI157
g191
sI158
g192
sI159
g193
sI160
g194
sI161
g195
sI162
g196
sI163
g198
sI164
g199
sI165
g200
sI166
g201
sI167
g202
sI168
g203
sI169
g204
sI170
g207
sI171
g209
sI172
g210
sI173
g211
sI174
g212
sI175
g213
sI176
g214
sI177
g215
sI178
g216
sI179
g217
sI180
g3423
sI181
g218
sI182
g220
sI183
g221
sI184
g222
sI185
g223
sI186
g224
sI187
g225
sI188
g226
sI189
g227
sI190
g228
sI191
g229
sI192
g230
sI193
g231
sI194
g232
sI195
g234
sI196
g235
sI197
g238
sI198
g239
sI199
g240
sI200
g242
sI201
g4486
sI202
g244
sI203
g245
sI204
g246
sI205
g248
sI206
g249
sI207
g250
sI208
g252
sI209
g253
sI210
g256
sI211
g257
sI212
g259
sI213
g260
sI214
g261
sI215
g262
sI216
g263
sI217
g264
sI218
g266
sI219
g267
sI220
g4608
sI221
g269
sI222
g270
sI223
g272
sI224
g273
sI225
g275
sI226
g276
sI227
g277
sI228
g278
sI229
g279
sI230
g280
sI231
g282
sI232
g283
sI233
g284
sI234
g285
sI235
g286
sI236
g288
sI237
g289
sI238
g290
sI239
g291
sI240
g292
sI241
g295
sI242
g296
sI243
g297
sI244
g298
sI245
g299
sI246
g300
sI247
g301
sI248
g304
sI249
g305
sI250
g306
sI251
g307
sI252
g309
sI253
g310
sI254
g311
sI255
g312
sI256
g1610
sI257
g314
sI258
g315
sI259
g316
sI260
g317
sI261
g4150
sI262
g320
sI263
g321
sI264
g325
sI265
g2420
sI266
g328
sI267
g329
sI268
g331
sI269
g332
sI270
g333
sI271
g335
sI272
g337
sI273
g338
sI274
g339
sI275
g340
sI276
g341
sI277
g344
sI278
g346
sI279
g347
sI280
g348
sI281
g349
sI282
g350
sI283
g351
sI284
g352
sI285
g354
sI286
g355
sI287
g356
sI288
g358
sI289
g359
sI290
g360
sI291
g361
sI292
g362
sI293
g1682
sI294
g363
sI295
g364
sI296
g365
sI297
g367
sI298
g368
sI299
g369
sI300
g370
sI301
g371
sI302
g373
sI303
g374
sI304
g375
sI305
g376
sI306
g377
sI307
g378
sI308
g380
sI309
g381
sI310
g382
sI311
g383
sI312
g384
sI313
g385
sI314
g386
sI315
g387
sI316
g1813
sI317
g391
sI318
g392
sI319
g393
sI320
g4835
sI321
g395
sI322
g1206
sI323
g398
sI324
g400
sI325
g401
sI326
g404
sI327
g407
sI328
g408
sI329
g409
sI330
g410
sI331
g411
sI332
g412
sI333
g413
sI334
g414
sI335
g415
sI336
g416
sI337
g417
sI338
g418
sI339
g419
sI340
g420
sI341
g422
sI342
g423
sI343
g424
sI344
g425
sI345
g427
sI346
g428
sI347
g429
sI348
g430
sI349
g431
sI350
g432
sI351
g434
sI352
g435
sI353
g436
sI354
g438
sI355
g439
sI356
g440
sI357
g441
sI358
g573
sI359
g446
sI360
g447
sI361
g448
sI362
g2929
sI363
g455
sI364
g456
sI365
g457
sI366
g458
sI367
g459
sI368
g460
sI369
g462
sI370
g463
sI371
g464
sI372
g465
sI373
g466
sI374
g467
sI375
g468
sI376
g469
sI377
g470
sI378
g471
sI379
g472
sI380
g474
sI381
g475
sI382
g476
sI383
g477
sI384
g478
sI385
g480
sI386
g481
sI387
g482
sI388
g483
sI389
g484
sI390
g486
sI391
g487
sI392
g488
sI393
g3851
sI394
g490
sI395
g492
sI396
g493
sI397
g496
sI398
g498
sI399
g499
sI400
g501
sI401
g502
sI402
g504
sI403
g505
sI404
g506
sI405
g2342
sI406
g508
sI407
g509
sI408
g510
sI409
g512
sI410
g513
sI411
g514
sI412
g3407
sI413
g518
sI414
g519
sI415
g520
sI416
g523
sI417
g526
sI418
g527
sI419
g528
sI420
g529
sI421
g3548
sI422
g532
sI423
g533
sI424
g534
sI425
g536
sI426
g537
sI427
g539
sI428
g540
sI429
g541
sI430
g542
sI431
g543
sI432
g1655
sI433
g547
sI434
g548
sI435
g1126
sI436
g1957
sI437
g551
sI438
g552
sI439
g555
sI440
g556
sI441
g557
sI442
g4174
sI443
g3313
sI444
g560
sI445
g562
sI446
g564
sI447
g4202
sI448
g567
sI449
g3984
sI450
g569
sI451
g570
sI452
g443
sI453
g575
sI454
g576
sI455
g577
sI456
g580
sI457
g581
sI458
g582
sI459
g584
sI460
g585
sI461
g587
sI462
g588
sI463
g589
sI464
g590
sI465
g591
sI466
g592
sI467
g594
sI468
g596
sI469
g597
sI470
g2117
sI471
g598
sI472
g599
sI473
g601
sI474
g602
sI475
g604
sI476
g605
sI477
g607
sI478
g608
sI479
g610
sI480
g611
sI481
g612
sI482
g613
sI483
g614
sI484
g615
sI485
g616
sI486
g617
sI487
g620
sI488
g621
sI489
g622
sI490
g623
sI491
g2406
sI492
g626
sI493
g627
sI494
g628
sI495
g633
sI496
g634
sI497
g636
sI498
g637
sI499
g638
sI500
g640
sI501
g641
sI502
g1623
sI503
g646
sI504
g647
sI505
g648
sI506
g649
sI507
g650
sI508
g2473
sI509
g652
sI510
g654
sI511
g871
sI512
g656
sI513
g657
sI514
g658
sI515
g659
sI516
g660
sI517
g661
sI518
g662
sI519
g663
sI520
g664
sI521
g666
sI522
g668
sI523
g669
sI524
g670
sI525
g802
sI526
g672
sI527
g674
sI528
g675
sI529
g677
sI530
g678
sI531
g679
sI532
g681
sI533
g682
sI534
g683
sI535
g684
sI536
g685
sI537
g686
sI538
g688
sI539
g689
sI540
g690
sI541
g691
sI542
g692
sI543
g694
sI544
g696
sI545
g697
sI546
g698
sI547
g700
sI548
g701
sI549
g702
sI550
g703
sI551
g704
sI552
g705
sI553
g706
sI554
g707
sI555
g708
sI556
g4224
sI557
g710
sI558
g711
sI559
g713
sI560
g714
sI561
g715
sI562
g716
sI563
g717
sI564
g719
sI565
g720
sI566
g722
sI567
g723
sI568
g724
sI569
g726
sI570
g727
sI571
g728
sI572
g729
sI573
g730
sI574
g731
sI575
g732
sI576
g733
sI577
g734
sI578
g735
sI579
g736
sI580
g738
sI581
g739
sI582
g4931
sI583
g741
sI584
g742
sI585
g743
sI586
g4905
sI587
g745
sI588
g746
sI589
g748
sI590
g753
sI591
g754
sI592
g755
sI593
g757
sI594
g758
sI595
g760
sI596
g761
sI597
g762
sI598
g763
sI599
g764
sI600
g765
sI601
g4232
sI602
g1344
sI603
g768
sI604
g3809
sI605
g770
sI606
g772
sI607
g774
sI608
g775
sI609
g776
sI610
g778
sI611
g779
sI612
g780
sI613
g781
sI614
g2493
sI615
g783
sI616
g784
sI617
g785
sI618
g787
sI619
g788
sI620
g790
sI621
g791
sI622
g792
sI623
g793
sI624
g794
sI625
g796
sI626
g243
sI627
g798
sI628
g800
sI629
g801
sI630
g803
sI631
g804
sI632
g805
sI633
g4395
sI634
g807
sI635
g808
sI636
g810
sI637
g811
sI638
g812
sI639
g814
sI640
g815
sI641
g4569
sI642
g818
sI643
g820
sI644
g821
sI645
g822
sI646
g823
sI647
g824
sI648
g825
sI649
g827
sI650
g2819
sI651
g830
sI652
g831
sI653
g833
sI654
g834
sI655
g836
sI656
g837
sI657
g839
sI658
g840
sI659
g2505
sI660
g842
sI661
g843
sI662
g844
sI663
g845
sI664
g846
sI665
g847
sI666
g849
sI667
g850
sI668
g2680
sI669
g853
sI670
g854
sI671
g855
sI672
g856
sI673
g858
sI674
g862
sI675
g864
sI676
g865
sI677
g867
sI678
g868
sI679
g870
sI680
g4938
sI681
g1096
sI682
g873
sI683
g874
sI684
g875
sI685
g876
sI686
g4870
sI687
g878
sI688
g880
sI689
g882
sI690
g1640
sI691
g885
sI692
g886
sI693
g887
sI694
g888
sI695
g889
sI696
g890
sI697
g891
sI698
g892
sI699
g893
sI700
g895
sI701
g896
sI702
g897
sI703
g898
sI704
g900
sI705
g901
sI706
g902
sI707
g903
sI708
g907
sI709
g909
sI710
g910
sI711
g911
sI712
g912
sI713
g913
sI714
g914
sI715
g915
sI716
g916
sI717
g917
sI718
g918
sI719
g919
sI720
g920
sI721
g921
sI722
g922
sI723
g923
sI724
g1872
sI725
g925
sI726
g926
sI727
g970
sI728
g928
sI729
g2079
sI730
g931
sI731
g932
sI732
g933
sI733
g934
sI734
g935
sI735
g936
sI736
g937
sI737
g938
sI738
g4806
sI739
g941
sI740
g942
sI741
g943
sI742
g944
sI743
g945
sI744
g3257
sI745
g946
sI746
g947
sI747
g948
sI748
g949
sI749
g950
sI750
g951
sI751
g952
sI752
g953
sI753
g954
sI754
g955
sI755
g956
sI756
g957
sI757
g958
sI758
g959
sI759
g960
sI760
g961
sI761
g962
sI762
g963
sI763
g964
sI764
g965
sI765
g966
sI766
g968
sI767
g969
sI768
g2484
sI769
g971
sI770
g2237
sI771
g973
sI772
g974
sI773
g975
sI774
g977
sI775
g978
sI776
g979
sI777
g981
sI778
g982
sI779
g984
sI780
g986
sI781
g655
sI782
g1336
sI783
g1340
sI784
g991
sI785
g992
sI786
g993
sI787
g994
sI788
g995
sI789
g996
sI790
g997
sI791
g999
sI792
g1000
sI793
g1001
sI794
g1002
sI795
g1003
sI796
g1005
sI797
g1006
sI798
g1008
sI799
g1011
sI800
g553
sI801
g1014
sI802
g1016
sI803
g2346
sI804
g1018
sI805
g1020
sI806
g2533
sI807
g1613
sI808
g1023
sI809
g1024
sI810
g2401
sI811
g1575
sI812
g1029
sI813
g1031
sI814
g1032
sI815
g1033
sI816
g1034
sI817
g1037
sI818
g1038
sI819
g1040
sI820
g1041
sI821
g1042
sI822
g1725
sI823
g1044
sI824
g1045
sI825
g1046
sI826
g1047
sI827
g1048
sI828
g1050
sI829
g1051
sI830
g940
sI831
g1052
sI832
g1053
sI833
g1054
sI834
g1727
sI835
g1056
sI836
g1057
sI837
g1058
sI838
g1059
sI839
g1060
sI840
g3393
sI841
g1062
sI842
g1063
sI843
g1064
sI844
g1065
sI845
g1066
sI846
g2966
sI847
g1068
sI848
g1069
sI849
g1070
sI850
g1071
sI851
g1072
sI852
g1073
sI853
g1074
sI854
g1075
sI855
g1076
sI856
g1077
sI857
g1078
sI858
g1079
sI859
g1080
sI860
g1082
sI861
g1083
sI862
g1085
sI863
g1086
sI864
g1087
sI865
g1088
sI866
g1090
sI867
g1091
sI868
g1095
sI869
g1938
sI870
g1097
sI871
g1098
sI872
g1101
sI873
g1105
sI874
g1106
sI875
g1107
sI876
g1109
sI877
g1111
sI878
g1112
sI879
g1114
sI880
g1115
sI881
g1202
sI882
g1117
sI883
g1118
sI884
g4787
sI885
g1122
sI886
g1124
sI887
g1125
sI888
g1127
sI889
g1128
sI890
g1129
sI891
g1130
sI892
g1131
sI893
g1133
sI894
g1134
sI895
g1135
sI896
g1137
sI897
g1138
sI898
g1139
sI899
g1140
sI900
g1141
sI901
g1142
sI902
g1143
sI903
g1144
sI904
g1145
sI905
g1146
sI906
g1147
sI907
g1148
sI908
g172
sI909
g1150
sI910
g1152
sI911
g1153
sI912
g1154
sI913
g2295
sI914
g1156
sI915
g1157
sI916
g1159
sI917
g1160
sI918
g1161
sI919
g1162
sI920
g1164
sI921
g1165
sI922
g1167
sI923
g3029
sI924
g1169
sI925
g1170
sI926
g1171
sI927
g1174
sI928
g1175
sI929
g1177
sI930
g1178
sI931
g1179
sI932
g1180
sI933
g1181
sI934
g2441
sI935
g1183
sI936
g1185
sI937
g1186
sI938
g1187
sI939
g3935
sI940
g1189
sI941
g1190
sI942
g1192
sI943
g1193
sI944
g1194
sI945
g1195
sI946
g2096
sI947
g1197
sI948
g1198
sI949
g1200
sI950
g1201
sI951
g1203
sI952
g1204
sI953
g1205
sI954
g1207
sI955
g1208
sI956
g1210
sI957
g2650
sI958
g1213
sI959
g665
sI960
g1215
sI961
g1216
sI962
g1217
sI963
g1218
sI964
g1219
sI965
g1220
sI966
g1221
sI967
g1222
sI968
g1224
sI969
g1424
sI970
g1225
sI971
g1226
sI972
g1227
sI973
g1228
sI974
g1229
sI975
g1230
sI976
g3808
sI977
g2333
sI978
g1233
sI979
g1234
sI980
g1235
sI981
g1236
sI982
g1237
sI983
g1238
sI984
g1239
sI985
g1240
sI986
g1242
sI987
g1243
sI988
g1244
sI989
g1245
sI990
g1246
sI991
g1247
sI992
g1248
sI993
g1249
sI994
g1250
sI995
g1251
sI996
g1253
sI997
g1254
sI998
g1255
sI999
g1257
sI1000
g1258
sI1001
g1259
sI1002
g1260
sI1003
g1261
sI1004
g1262
sI1005
g2260
sI1006
g1264
sI1007
g1265
sI1008
g1266
sI1009
g1267
sI1010
g1268
sI1011
g1269
sI1012
g2996
sI1013
g1761
sI1014
g1272
sI1015
g1273
sI1016
g1274
sI1017
g1275
sI1018
g1276
sI1019
g1277
sI1020
g1279
sI1021
g1281
sI1022
g1282
sI1023
g1283
sI1024
g1284
sI1025
g1285
sI1026
g1287
sI1027
g3152
sI1028
g1290
sI1029
g1291
sI1030
g1292
sI1031
g1295
sI1032
g1296
sI1033
g1297
sI1034
g1298
sI1035
g1299
sI1036
g1300
sI1037
g1301
sI1038
g1302
sI1039
g1303
sI1040
g1304
sI1041
g1305
sI1042
g1306
sI1043
g1307
sI1044
g1310
sI1045
g1311
sI1046
g1312
sI1047
g1315
sI1048
g1316
sI1049
g1317
sI1050
g1319
sI1051
g3434
sI1052
g1322
sI1053
g3322
sI1054
g1324
sI1055
g1325
sI1056
g1326
sI1057
g1328
sI1058
g1329
sI1059
g1331
sI1060
g1333
sI1061
g1334
sI1062
g872
sI1063
g1337
sI1064
g1338
sI1065
g1339
sI1066
g990
sI1067
g1343
sI1068
g1345
sI1069
g1346
sI1070
g1347
sI1071
g1348
sI1072
g1349
sI1073
g1350
sI1074
g1351
sI1075
g1352
sI1076
g1353
sI1077
g1354
sI1078
g1355
sI1079
g1356
sI1080
g1357
sI1081
g1358
sI1082
g2562
sI1083
g1360
sI1084
g1361
sI1085
g1364
sI1086
g1366
sI1087
g1367
sI1088
g1368
sI1089
g1369
sI1090
g1196
sI1091
g1371
sI1092
g1372
sI1093
g1373
sI1094
g1375
sI1095
g1376
sI1096
g1377
sI1097
g1378
sI1098
g1379
sI1099
g1381
sI1100
g1383
sI1101
g1384
sI1102
g1385
sI1103
g1386
sI1104
g1387
sI1105
g1388
sI1106
g1389
sI1107
g1391
sI1108
g1393
sI1109
g1395
sI1110
g1396
sI1111
g1397
sI1112
g1398
sI1113
g1399
sI1114
g3994
sI1115
g1401
sI1116
g1402
sI1117
g4006
sI1118
g1404
sI1119
g1405
sI1120
g1406
sI1121
g1407
sI1122
g1410
sI1123
g1411
sI1124
g1413
sI1125
g1876
sI1126
g1415
sI1127
g1416
sI1128
g1418
sI1129
g1419
sI1130
g1420
sI1131
g1421
sI1132
g1423
sI1133
g4635
sI1134
g1425
sI1135
g1426
sI1136
g1427
sI1137
g1428
sI1138
g1430
sI1139
g1431
sI1140
g1433
sI1141
g1435
sI1142
g1436
sI1143
g1438
sI1144
g1439
sI1145
g1441
sI1146
g1442
sI1147
g1443
sI1148
g1445
sI1149
g1446
sI1150
g1795
sI1151
g1450
sI1152
g1451
sI1153
g1452
sI1154
g1453
sI1155
g1454
sI1156
g1455
sI1157
g1456
sI1158
g1457
sI1159
g1458
sI1160
g1460
sI1161
g1461
sI1162
g1463
sI1163
g1464
sI1164
g1465
sI1165
g1466
sI1166
g1467
sI1167
g1468
sI1168
g1469
sI1169
g1471
sI1170
g1472
sI1171
g1473
sI1172
g1474
sI1173
g1477
sI1174
g1478
sI1175
g1479
sI1176
g2605
sI1177
g1482
sI1178
g1484
sI1179
g1485
sI1180
g1486
sI1181
g1487
sI1182
g1488
sI1183
g1489
sI1184
g4479
sI1185
g1492
sI1186
g1493
sI1187
g1495
sI1188
g1496
sI1189
g4530
sI1190
g1499
sI1191
g1501
sI1192
g1362
sI1193
g1503
sI1194
g1504
sI1195
g1505
sI1196
g1506
sI1197
g1507
sI1198
g1508
sI1199
g1509
sI1200
g1510
sI1201
g1512
sI1202
g1513
sI1203
g1515
sI1204
g1516
sI1205
g4665
sI1206
g1519
sI1207
g1521
sI1208
g1522
sI1209
g1523
sI1210
g1524
sI1211
g1526
sI1212
g1527
sI1213
g1528
sI1214
g1529
sI1215
g1530
sI1216
g1531
sI1217
g1532
sI1218
g1534
sI1219
g1536
sI1220
g4808
sI1221
g1539
sI1222
g1540
sI1223
g1541
sI1224
g1542
sI1225
g4674
sI1226
g1546
sI1227
g1548
sI1228
g531
sI1229
g1549
sI1230
g1550
sI1231
g1552
sI1232
g1025
sI1233
g1557
sI1234
g1558
sI1235
g1559
sI1236
g1560
sI1237
g1561
sI1238
g1562
sI1239
g1563
sI1240
g1564
sI1241
g4372
sI1242
g1566
sI1243
g1568
sI1244
g1569
sI1245
g1570
sI1246
g1571
sI1247
g1573
sI1248
g1027
sI1249
g1576
sI1250
g3485
sI1251
g1578
sI1252
g1580
sI1253
g2931
sI1254
g1582
sI1255
g1583
sI1256
g1584
sI1257
g1587
sI1258
g1588
sI1259
g1589
sI1260
g1590
sI1261
g1591
sI1262
g1592
sI1263
g1594
sI1264
g1595
sI1265
g1596
sI1266
g1597
sI1267
g1599
sI1268
g1603
sI1269
g1604
sI1270
g1605
sI1271
g1606
sI1272
g1607
sI1273
g1608
sI1274
g1609
sI1275
g4348
sI1276
g1615
sI1277
g1617
sI1278
g2630
sI1279
g1625
sI1280
g394
sI1281
g1627
sI1282
g1628
sI1283
g1629
sI1284
g1630
sI1285
g1631
sI1286
g1634
sI1287
g1635
sI1288
g1636
sI1289
g1637
sI1290
g1638
sI1291
g1639
sI1292
g1642
sI1293
g1644
sI1294
g1647
sI1295
g1648
sI1296
g1652
sI1297
g1653
sI1298
g1654
sI1299
g545
sI1300
g1656
sI1301
g1657
sI1302
g1659
sI1303
g1660
sI1304
g1662
sI1305
g150
sI1306
g1664
sI1307
g1667
sI1308
g1668
sI1309
g1669
sI1310
g1670
sI1311
g1671
sI1312
g1672
sI1313
g2898
sI1314
g1673
sI1315
g1675
sI1316
g2161
sI1317
g1677
sI1318
g1952
sI1319
g1680
sI1320
g1681
sI1321
g744
sI1322
g1683
sI1323
g1684
sI1324
g1686
sI1325
g1688
sI1326
g1689
sI1327
g3498
sI1328
g1692
sI1329
g1693
sI1330
g1694
sI1331
g1695
sI1332
g1696
sI1333
g1697
sI1334
g1698
sI1335
g1699
sI1336
g1700
sI1337
g1701
sI1338
g1702
sI1339
g1703
sI1340
g1704
sI1341
g3875
sI1342
g1706
sI1343
g1707
sI1344
g1708
sI1345
g1709
sI1346
g1710
sI1347
g1712
sI1348
g1713
sI1349
g1714
sI1350
g1715
sI1351
g1716
sI1352
g1717
sI1353
g1719
sI1354
g1721
sI1355
g1723
sI1356
g1043
sI1357
g1726
sI1358
g3768
sI1359
g1728
sI1360
g1729
sI1361
g1730
sI1362
g606
sI1363
g1732
sI1364
g1734
sI1365
g1092
sI1366
g1736
sI1367
g1737
sI1368
g3246
sI1369
g1740
sI1370
g1743
sI1371
g1744
sI1372
g1745
sI1373
g4683
sI1374
g1747
sI1375
g1748
sI1376
g1750
sI1377
g1751
sI1378
g1752
sI1379
g1754
sI1380
g1755
sI1381
g1756
sI1382
g1758
sI1383
g1760
sI1384
g1067
sI1385
g1278
sI1386
g1763
sI1387
g1764
sI1388
g1766
sI1389
g1767
sI1390
g1768
sI1391
g1769
sI1392
g1335
sI1393
g1771
sI1394
g1772
sI1395
g1773
sI1396
g1774
sI1397
g1775
sI1398
g1776
sI1399
g1777
sI1400
g1778
sI1401
g1779
sI1402
g3800
sI1403
g1781
sI1404
g1782
sI1405
g1783
sI1406
g3531
sI1407
g1786
sI1408
g1789
sI1409
g1790
sI1410
g1791
sI1411
g1792
sI1412
g1793
sI1413
g1794
sI1414
g2513
sI1415
g1800
sI1416
g1801
sI1417
g1802
sI1418
g1803
sI1419
g1805
sI1420
g1806
sI1421
g1850
sI1422
g1808
sI1423
g1809
sI1424
g1810
sI1425
g1811
sI1426
g1812
sI1427
g1814
sI1428
g1816
sI1429
g1817
sI1430
g1819
sI1431
g1820
sI1432
g1621
sI1433
g1823
sI1434
g1824
sI1435
g1825
sI1436
g1826
sI1437
g1827
sI1438
g1828
sI1439
g1829
sI1440
g1830
sI1441
g1831
sI1442
g1832
sI1443
g1834
sI1444
g1836
sI1445
g1837
sI1446
g1838
sI1447
g1839
sI1448
g1842
sI1449
g1843
sI1450
g1845
sI1451
g1846
sI1452
g1848
sI1453
g1849
sI1454
g126
sI1455
g1851
sI1456
g1852
sI1457
g1853
sI1458
g1854
sI1459
g1855
sI1460
g1856
sI1461
g1861
sI1462
g1858
sI1463
g1859
sI1464
g1860
sI1465
g1879
sI1466
g1862
sI1467
g1863
sI1468
g1864
sI1469
g1867
sI1470
g1868
sI1471
g1870
sI1472
g1871
sI1473
g1873
sI1474
g1874
sI1475
g1875
sI1476
g1877
sI1477
g1878
sI1478
g1881
sI1479
g2315
sI1480
g1885
sI1481
g1886
sI1482
g1887
sI1483
g1889
sI1484
g1890
sI1485
g1891
sI1486
g1892
sI1487
g1894
sI1488
g1895
sI1489
g1896
sI1490
g1897
sI1491
g1898
sI1492
g1899
sI1493
g1900
sI1494
g1902
sI1495
g1903
sI1496
g1904
sI1497
g1905
sI1498
g1906
sI1499
g1908
sI1500
g1909
sI1501
g1910
sI1502
g1911
sI1503
g1912
sI1504
g1914
sI1505
g1915
sI1506
g1916
sI1507
g2242
sI1508
g1919
sI1509
g1920
sI1510
g1921
sI1511
g1923
sI1512
g1924
sI1513
g1926
sI1514
g1927
sI1515
g1929
sI1516
g1931
sI1517
g1933
sI1518
g1934
sI1519
g1935
sI1520
g1936
sI1521
g1939
sI1522
g1941
sI1523
g1942
sI1524
g1943
sI1525
g1944
sI1526
g1945
sI1527
g1946
sI1528
g1947
sI1529
g1948
sI1530
g1949
sI1531
g1950
sI1532
g1951
sI1533
g2450
sI1534
g1954
sI1535
g1955
sI1536
g1956
sI1537
g1958
sI1538
g1959
sI1539
g1960
sI1540
g2512
sI1541
g1962
sI1542
g1963
sI1543
g1964
sI1544
g1965
sI1545
g1967
sI1546
g1969
sI1547
g1971
sI1548
g1972
sI1549
g2588
sI1550
g1975
sI1551
g1976
sI1552
g1980
sI1553
g1981
sI1554
g4759
sI1555
g3572
sI1556
g1984
sI1557
g1985
sI1558
g1987
sI1559
g2666
sI1560
g4245
sI1561
g1990
sI1562
g1991
sI1563
g1992
sI1564
g1993
sI1565
g1995
sI1566
g1996
sI1567
g2712
sI1568
g1998
sI1569
g1999
sI1570
g2000
sI1571
g2002
sI1572
g2004
sI1573
g2007
sI1574
g2008
sI1575
g2010
sI1576
g2011
sI1577
g2012
sI1578
g4084
sI1579
g2834
sI1580
g2016
sI1581
g2017
sI1582
g2018
sI1583
g2019
sI1584
g2020
sI1585
g2022
sI1586
g2024
sI1587
g2026
sI1588
g2027
sI1589
g2029
sI1590
g2030
sI1591
g2031
sI1592
g2032
sI1593
g2033
sI1594
g2034
sI1595
g2035
sI1596
g861
sI1597
g2038
sI1598
g2039
sI1599
g2040
sI1600
g2041
sI1601
g2042
sI1602
g2044
sI1603
g2045
sI1604
g2046
sI1605
g2047
sI1606
g2048
sI1607
g2049
sI1608
g2050
sI1609
g2051
sI1610
g3050
sI1611
g2053
sI1612
g2054
sI1613
g2055
sI1614
g2056
sI1615
g2057
sI1616
g2058
sI1617
g2061
sI1618
g2062
sI1619
g2063
sI1620
g2064
sI1621
g2065
sI1622
g2067
sI1623
g2068
sI1624
g2069
sI1625
g2070
sI1626
g2071
sI1627
g2072
sI1628
g2073
sI1629
g2074
sI1630
g2076
sI1631
g2077
sI1632
g2078
sI1633
g2080
sI1634
g2083
sI1635
g2084
sI1636
g2086
sI1637
g2087
sI1638
g2088
sI1639
g2089
sI1640
g2090
sI1641
g4898
sI1642
g2091
sI1643
g2092
sI1644
g2093
sI1645
g2094
sI1646
g2980
sI1647
g2281
sI1648
g2097
sI1649
g2098
sI1650
g2099
sI1651
g2100
sI1652
g2101
sI1653
g2102
sI1654
g2103
sI1655
g2104
sI1656
g2105
sI1657
g2106
sI1658
g2108
sI1659
g1901
sI1660
g2110
sI1661
g2111
sI1662
g2112
sI1663
g2113
sI1664
g2114
sI1665
g2115
sI1666
g2116
sI1667
g3532
sI1668
g2118
sI1669
g2119
sI1670
g2120
sI1671
g2121
sI1672
g2122
sI1673
g2123
sI1674
g2124
sI1675
g2125
sI1676
g2126
sI1677
g2127
sI1678
g2128
sI1679
g2129
sI1680
g2130
sI1681
g2131
sI1682
g2132
sI1683
g3789
sI1684
g2134
sI1685
g2137
sI1686
g2139
sI1687
g2140
sI1688
g2141
sI1689
g2142
sI1690
g2144
sI1691
g2145
sI1692
g2146
sI1693
g2148
sI1694
g2149
sI1695
g2150
sI1696
g2151
sI1697
g3605
sI1698
g2152
sI1699
g859
sI1700
g2155
sI1701
g2156
sI1702
g2157
sI1703
g2158
sI1704
g2159
sI1705
g2160
sI1706
g2163
sI1707
g3998
sI1708
g2166
sI1709
g2169
sI1710
g2170
sI1711
g2171
sI1712
g2172
sI1713
g2173
sI1714
g2175
sI1715
g2176
sI1716
g2177
sI1717
g2179
sI1718
g2180
sI1719
g2181
sI1720
g2184
sI1721
g2186
sI1722
g2187
sI1723
g2188
sI1724
g2189
sI1725
g2190
sI1726
g643
sI1727
g2194
sI1728
g2196
sI1729
g2197
sI1730
g2199
sI1731
g2200
sI1732
g2203
sI1733
g2204
sI1734
g2209
sI1735
g2210
sI1736
g2211
sI1737
g2212
sI1738
g2213
sI1739
g4141
sI1740
g2216
sI1741
g2747
sI1742
g2218
sI1743
g2219
sI1744
g2220
sI1745
g2222
sI1746
g2223
sI1747
g2224
sI1748
g2225
sI1749
g2226
sI1750
g2227
sI1751
g2228
sI1752
g4511
sI1753
g2229
sI1754
g2230
sI1755
g2571
sI1756
g2234
sI1757
g2235
sI1758
g3934
sI1759
g2240
sI1760
g4323
sI1761
g2243
sI1762
g2244
sI1763
g2245
sI1764
g2246
sI1765
g2248
sI1766
g2250
sI1767
g2251
sI1768
g2252
sI1769
g4604
sI1770
g2256
sI1771
g4521
sI1772
g2258
sI1773
g2259
sI1774
g3614
sI1775
g4432
sI1776
g2263
sI1777
g2265
sI1778
g1341
sI1779
g2267
sI1780
g2268
sI1781
g2269
sI1782
g2270
sI1783
g2271
sI1784
g2272
sI1785
g2273
sI1786
g254
sI1787
g2276
sI1788
g2278
sI1789
g2279
sI1790
g2280
sI1791
g2282
sI1792
g2283
sI1793
g2284
sI1794
g2287
sI1795
g4568
sI1796
g2289
sI1797
g2290
sI1798
g2291
sI1799
g2292
sI1800
g2293
sI1801
g2294
sI1802
g2296
sI1803
g3480
sI1804
g2644
sI1805
g4920
sI1806
g2301
sI1807
g4670
sI1808
g2303
sI1809
g2304
sI1810
g2305
sI1811
g2308
sI1812
g2309
sI1813
g2310
sI1814
g2312
sI1815
g2313
sI1816
g4340
sI1817
g4756
sI1818
g2317
sI1819
g2318
sI1820
g2319
sI1821
g2320
sI1822
g2321
sI1823
g2322
sI1824
g2324
sI1825
g2326
sI1826
g2327
sI1827
g2329
sI1828
g2330
sI1829
g2331
sI1830
g2334
sI1831
g2336
sI1832
g2337
sI1833
g2339
sI1834
g2340
sI1835
g2343
sI1836
g777
sI1837
g2345
sI1838
g2347
sI1839
g2348
sI1840
g2350
sI1841
g4950
sI1842
g3932
sI1843
g2354
sI1844
g2355
sI1845
g3252
sI1846
g2358
sI1847
g2448
sI1848
g2360
sI1849
g2361
sI1850
g2362
sI1851
g2363
sI1852
g3901
sI1853
g2366
sI1854
g2367
sI1855
g2369
sI1856
g2370
sI1857
g4014
sI1858
g2371
sI1859
g3158
sI1860
g2373
sI1861
g2374
sI1862
g2375
sI1863
g2376
sI1864
g2378
sI1865
g2379
sI1866
g2381
sI1867
g2461
sI1868
g2383
sI1869
g2384
sI1870
g2385
sI1871
g2386
sI1872
g2387
sI1873
g2388
sI1874
g4292
sI1875
g2390
sI1876
g2391
sI1877
g2392
sI1878
g2393
sI1879
g2394
sI1880
g2396
sI1881
g2397
sI1882
g2399
sI1883
g2400
sI1884
g2403
sI1885
g2404
sI1886
g2405
sI1887
g2407
sI1888
g2409
sI1889
g2410
sI1890
g4175
sI1891
g2412
sI1892
g2413
sI1893
g2415
sI1894
g2416
sI1895
g2417
sI1896
g2418
sI1897
g2419
sI1898
g3905
sI1899
g2421
sI1900
g2423
sI1901
g3465
sI1902
g4430
sI1903
g2427
sI1904
g2428
sI1905
g2429
sI1906
g2430
sI1907
g2432
sI1908
g2433
sI1909
g2434
sI1910
g2435
sI1911
g2436
sI1912
g2437
sI1913
g2438
sI1914
g2439
sI1915
g2440
sI1916
g2984
sI1917
g2442
sI1918
g2443
sI1919
g2444
sI1920
g2445
sI1921
g2446
sI1922
g2447
sI1923
g2449
sI1924
g2451
sI1925
g2452
sI1926
g2453
sI1927
g2454
sI1928
g2456
sI1929
g559
sI1930
g2458
sI1931
g2460
sI1932
g2462
sI1933
g2463
sI1934
g2465
sI1935
g2466
sI1936
g2467
sI1937
g2468
sI1938
g2471
sI1939
g2967
sI1940
g2474
sI1941
g2475
sI1942
g2476
sI1943
g2477
sI1944
g2478
sI1945
g2479
sI1946
g2480
sI1947
g2481
sI1948
g2482
sI1949
g2483
sI1950
g725
sI1951
g2485
sI1952
g2487
sI1953
g2488
sI1954
g2490
sI1955
g2491
sI1956
g4842
sI1957
g2494
sI1958
g795
sI1959
g2497
sI1960
g2498
sI1961
g2499
sI1962
g2500
sI1963
g2501
sI1964
g2502
sI1965
g2503
sI1966
g2507
sI1967
g2508
sI1968
g860
sI1969
g2510
sI1970
g2511
sI1971
g3008
sI1972
g2514
sI1973
g2515
sI1974
g2516
sI1975
g2518
sI1976
g2521
sI1977
g2522
sI1978
g2524
sI1979
g2525
sI1980
g2526
sI1981
g2527
sI1982
g2528
sI1983
g2529
sI1984
g2530
sI1985
g2531
sI1986
g2532
sI1987
g1021
sI1988
g2534
sI1989
g2535
sI1990
g2536
sI1991
g2537
sI1992
g2538
sI1993
g2539
sI1994
g2540
sI1995
g2541
sI1996
g2542
sI1997
g2543
sI1998
g2544
sI1999
g1116
sI2000
g2546
sI2001
g2547
sI2002
g2548
sI2003
g2549
sI2004
g2550
sI2005
g2551
sI2006
g2552
sI2007
g2554
sI2008
g2556
sI2009
g2558
sI2010
g4193
sI2011
g4673
sI2012
g2561
sI2013
g2563
sI2014
g2647
sI2015
g2566
sI2016
g2567
sI2017
g1807
sI2018
g2569
sI2019
g4570
sI2020
g2183
sI2021
g2573
sI2022
g2574
sI2023
g2575
sI2024
g2576
sI2025
g2577
sI2026
g4219
sI2027
g2579
sI2028
g2580
sI2029
g2583
sI2030
g2584
sI2031
g2585
sI2032
g2586
sI2033
g2587
sI2034
g2589
sI2035
g2590
sI2036
g2591
sI2037
g2592
sI2038
g2593
sI2039
g2594
sI2040
g2595
sI2041
g2596
sI2042
g2597
sI2043
g2598
sI2044
g2599
sI2045
g2601
sI2046
g2602
sI2047
g2603
sI2048
g3436
sI2049
g2606
sI2050
g2607
sI2051
g2807
sI2052
g2608
sI2053
g2612
sI2054
g2613
sI2055
g2615
sI2056
g2616
sI2057
g2617
sI2058
g2618
sI2059
g2619
sI2060
g2621
sI2061
g2623
sI2062
g2624
sI2063
g2625
sI2064
g2626
sI2065
g2627
sI2066
g2628
sI2067
g2629
sI2068
g2835
sI2069
g2631
sI2070
g2635
sI2071
g2636
sI2072
g2638
sI2073
g2639
sI2074
g2640
sI2075
g2641
sI2076
g2642
sI2077
g2643
sI2078
g2645
sI2079
g2646
sI2080
g4210
sI2081
g2036
sI2082
g2653
sI2083
g2654
sI2084
g2657
sI2085
g2658
sI2086
g2659
sI2087
g2660
sI2088
g2661
sI2089
g2662
sI2090
g2663
sI2091
g2664
sI2092
g2665
sI2093
g1988
sI2094
g2667
sI2095
g2669
sI2096
g2671
sI2097
g2675
sI2098
g2676
sI2099
g265
sI2100
g2678
sI2101
g2695
sI2102
g2756
sI2103
g2681
sI2104
g2682
sI2105
g2684
sI2106
g2686
sI2107
g2687
sI2108
g2688
sI2109
g2689
sI2110
g2691
sI2111
g1977
sI2112
g2694
sI2113
g4941
sI2114
g2696
sI2115
g2697
sI2116
g2698
sI2117
g2699
sI2118
g2700
sI2119
g2701
sI2120
g2703
sI2121
g2705
sI2122
g2707
sI2123
g2709
sI2124
g2710
sI2125
g2711
sI2126
g2713
sI2127
g2714
sI2128
g2715
sI2129
g2716
sI2130
g2717
sI2131
g2718
sI2132
g2719
sI2133
g2720
sI2134
g2815
sI2135
g1382
sI2136
g2725
sI2137
g2726
sI2138
g2727
sI2139
g2728
sI2140
g2731
sI2141
g2732
sI2142
g2733
sI2143
g2734
sI2144
g2735
sI2145
g2736
sI2146
g2737
sI2147
g2738
sI2148
g2739
sI2149
g2740
sI2150
g4755
sI2151
g2744
sI2152
g2745
sI2153
g2746
sI2154
g1494
sI2155
g1678
sI2156
g2750
sI2157
g2752
sI2158
g2753
sI2159
g2754
sI2160
g2755
sI2161
g4112
sI2162
g2757
sI2163
g2758
sI2164
g2760
sI2165
g2761
sI2166
g2762
sI2167
g2763
sI2168
g2765
sI2169
g2767
sI2170
g2768
sI2171
g2769
sI2172
g2770
sI2173
g2771
sI2174
g2772
sI2175
g2773
sI2176
g2774
sI2177
g2775
sI2178
g2776
sI2179
g2777
sI2180
g2778
sI2181
g2779
sI2182
g2780
sI2183
g2781
sI2184
g2783
sI2185
g2784
sI2186
g2785
sI2187
g2787
sI2188
g2788
sI2189
g2789
sI2190
g2790
sI2191
g2791
sI2192
g3869
sI2193
g2262
sI2194
g2794
sI2195
g2795
sI2196
g2796
sI2197
g2797
sI2198
g2798
sI2199
g2799
sI2200
g2800
sI2201
g2801
sI2202
g379
sI2203
g2803
sI2204
g2805
sI2205
g2806
sI2206
g3396
sI2207
g2809
sI2208
g2810
sI2209
g2968
sI2210
g2812
sI2211
g2813
sI2212
g2656
sI2213
g2816
sI2214
g2817
sI2215
g2818
sI2216
g2820
sI2217
g2821
sI2218
g2823
sI2219
g2824
sI2220
g2825
sI2221
g2826
sI2222
g2827
sI2223
g2828
sI2224
g2829
sI2225
g2830
sI2226
g2832
sI2227
g2849
sI2228
g2837
sI2229
g2838
sI2230
g2839
sI2231
g2802
sI2232
g2841
sI2233
g2842
sI2234
g2843
sI2235
g2846
sI2236
g2860
sI2237
g2851
sI2238
g2852
sI2239
g2853
sI2240
g2856
sI2241
g2858
sI2242
g1666
sI2243
g2897
sI2244
g2861
sI2245
g2862
sI2246
g2863
sI2247
g2864
sI2248
g2865
sI2249
g4626
sI2250
g4290
sI2251
g2869
sI2252
g2870
sI2253
g2871
sI2254
g2872
sI2255
g2873
sI2256
g2874
sI2257
g2876
sI2258
g2877
sI2259
g2878
sI2260
g2879
sI2261
g3733
sI2262
g2882
sI2263
g3039
sI2264
g2885
sI2265
g3386
sI2266
g2887
sI2267
g2889
sI2268
g2890
sI2269
g2891
sI2270
g2893
sI2271
g2895
sI2272
g2896
sI2273
g1173
sI2274
g1314
sI2275
g2900
sI2276
g2901
sI2277
g2903
sI2278
g2904
sI2279
g2905
sI2280
g2906
sI2281
g2908
sI2282
g2909
sI2283
g2910
sI2284
g2911
sI2285
g2912
sI2286
g3230
sI2287
g4308
sI2288
g2915
sI2289
g2917
sI2290
g2919
sI2291
g2408
sI2292
g1104
sI2293
g2922
sI2294
g2923
sI2295
g2924
sI2296
g2925
sI2297
g2927
sI2298
g2928
sI2299
g786
sI2300
g2930
sI2301
g2933
sI2302
g2934
sI2303
g2935
sI2304
g2937
sI2305
g2938
sI2306
g1036
sI2307
g2940
sI2308
g2941
sI2309
g2942
sI2310
g2943
sI2311
g2945
sI2312
g2947
sI2313
g2948
sI2314
g2949
sI2315
g2950
sI2316
g2951
sI2317
g2952
sI2318
g2953
sI2319
g2954
sI2320
g2955
sI2321
g2957
sI2322
g2959
sI2323
g2960
sI2324
g2961
sI2325
g2962
sI2326
g4113
sI2327
g4056
sI2328
g2965
sI2329
g3533
sI2330
g3544
sI2331
g3769
sI2332
g2970
sI2333
g2971
sI2334
g4493
sI2335
g2973
sI2336
g2975
sI2337
g2976
sI2338
g2977
sI2339
g2978
sI2340
g2979
sI2341
g3634
sI2342
g2981
sI2343
g2982
sI2344
g2986
sI2345
g2987
sI2346
g2988
sI2347
g2990
sI2348
g2991
sI2349
g2992
sI2350
g2994
sI2351
g2995
sI2352
g3722
sI2353
g2997
sI2354
g2998
sI2355
g2999
sI2356
g3000
sI2357
g3002
sI2358
g3003
sI2359
g3004
sI2360
g3006
sI2361
g3009
sI2362
g3012
sI2363
g3013
sI2364
g3015
sI2365
g3017
sI2366
g3018
sI2367
g3019
sI2368
g3020
sI2369
g3021
sI2370
g3022
sI2371
g3023
sI2372
g3025
sI2373
g3027
sI2374
g3028
sI2375
g3030
sI2376
g3031
sI2377
g3032
sI2378
g3980
sI2379
g4285
sI2380
g3036
sI2381
g3037
sI2382
g3038
sI2383
g3040
sI2384
g3041
sI2385
g3042
sI2386
g3043
sI2387
g3044
sI2388
g3045
sI2389
g3049
sI2390
g4331
sI2391
g3052
sI2392
g3053
sI2393
g3054
sI2394
g3055
sI2395
g3056
sI2396
g3058
sI2397
g3060
sI2398
g2690
sI2399
g3063
sI2400
g3064
sI2401
g4194
sI2402
g3066
sI2403
g3067
sI2404
g3068
sI2405
g3069
sI2406
g3070
sI2407
g3071
sI2408
g4218
sI2409
g3073
sI2410
g3074
sI2411
g3075
sI2412
g3076
sI2413
g3077
sI2414
g3078
sI2415
g3079
sI2416
g3080
sI2417
g3081
sI2418
g3082
sI2419
g3083
sI2420
g3084
sI2421
g3085
sI2422
g75
sI2423
g3087
sI2424
g3088
sI2425
g3089
sI2426
g4343
sI2427
g3093
sI2428
g3094
sI2429
g1600
sI2430
g3096
sI2431
g3097
sI2432
g3098
sI2433
g3099
sI2434
g3100
sI2435
g3103
sI2436
g3105
sI2437
g3106
sI2438
g3107
sI2439
g3108
sI2440
g3110
sI2441
g3112
sI2442
g3113
sI2443
g3114
sI2444
g3115
sI2445
g3116
sI2446
g4491
sI2447
g3703
sI2448
g3120
sI2449
g3121
sI2450
g3122
sI2451
g3124
sI2452
g3125
sI2453
g3127
sI2454
g4747
sI2455
g3129
sI2456
g3130
sI2457
g3131
sI2458
g3132
sI2459
g3134
sI2460
g3135
sI2461
g3137
sI2462
g3138
sI2463
g3139
sI2464
g3141
sI2465
g3142
sI2466
g3144
sI2467
g3145
sI2468
g3146
sI2469
g3147
sI2470
g3431
sI2471
g3149
sI2472
g3150
sI2473
g4909
sI2474
g3153
sI2475
g3154
sI2476
g3155
sI2477
g3156
sI2478
g3157
sI2479
g632
sI2480
g3161
sI2481
g1015
sI2482
g3163
sI2483
g3164
sI2484
g3165
sI2485
g3166
sI2486
g3167
sI2487
g3168
sI2488
g3169
sI2489
g3170
sI2490
g4659
sI2491
g3172
sI2492
g3174
sI2493
g3175
sI2494
g3176
sI2495
g3177
sI2496
g3955
sI2497
g3179
sI2498
g3181
sI2499
g3182
sI2500
g3183
sI2501
g3185
sI2502
g3187
sI2503
g3188
sI2504
g3190
sI2505
g36
sI2506
g3193
sI2507
g3194
sI2508
g3195
sI2509
g3196
sI2510
g3197
sI2511
g3199
sI2512
g3201
sI2513
g3202
sI2514
g809
sI2515
g3205
sI2516
g3208
sI2517
g3209
sI2518
g3210
sI2519
g3212
sI2520
g3213
sI2521
g3214
sI2522
g3215
sI2523
g3216
sI2524
g3217
sI2525
g3218
sI2526
g3219
sI2527
g3220
sI2528
g3221
sI2529
g4749
sI2530
g3225
sI2531
g3226
sI2532
g3227
sI2533
g3228
sI2534
g3229
sI2535
g2913
sI2536
g3232
sI2537
g3233
sI2538
g3234
sI2539
g3235
sI2540
g3236
sI2541
g2261
sI2542
g3239
sI2543
g3240
sI2544
g3241
sI2545
g3242
sI2546
g3243
sI2547
g3244
sI2548
g3245
sI2549
g2983
sI2550
g3247
sI2551
g3249
sI2552
g3250
sI2553
g4196
sI2554
g308
sI2555
g3254
sI2556
g3255
sI2557
g3256
sI2558
g4531
sI2559
g3259
sI2560
g3261
sI2561
g3262
sI2562
g3263
sI2563
g3264
sI2564
g3265
sI2565
g3267
sI2566
g3268
sI2567
g3269
sI2568
g3272
sI2569
g3273
sI2570
g3274
sI2571
g3275
sI2572
g3276
sI2573
g3277
sI2574
g3278
sI2575
g3280
sI2576
g3281
sI2577
g3282
sI2578
g3283
sI2579
g3284
sI2580
g3285
sI2581
g3286
sI2582
g3540
sI2583
g3288
sI2584
g3289
sI2585
g3290
sI2586
g3292
sI2587
g3294
sI2588
g3295
sI2589
g3296
sI2590
g3297
sI2591
g3299
sI2592
g1593
sI2593
g3301
sI2594
g3303
sI2595
g3305
sI2596
g3307
sI2597
g3308
sI2598
g3310
sI2599
g3311
sI2600
g583
sI2601
g3314
sI2602
g3315
sI2603
g4257
sI2604
g3317
sI2605
g3318
sI2606
g3319
sI2607
g3321
sI2608
g631
sI2609
g4924
sI2610
g3324
sI2611
g3325
sI2612
g3326
sI2613
g3327
sI2614
g3328
sI2615
g3329
sI2616
g3331
sI2617
g3333
sI2618
g3664
sI2619
g3336
sI2620
g3337
sI2621
g3338
sI2622
g3339
sI2623
g3340
sI2624
g3342
sI2625
g3343
sI2626
g4118
sI2627
g771
sI2628
g3346
sI2629
g3347
sI2630
g3348
sI2631
g3349
sI2632
g3351
sI2633
g3352
sI2634
g3353
sI2635
g1646
sI2636
g3355
sI2637
g3356
sI2638
g3357
sI2639
g3358
sI2640
g3359
sI2641
g3360
sI2642
g3361
sI2643
g3362
sI2644
g3363
sI2645
g3364
sI2646
g2611
sI2647
g3366
sI2648
g3367
sI2649
g3368
sI2650
g3371
sI2651
g1641
sI2652
g3373
sI2653
g3375
sI2654
g1313
sI2655
g3377
sI2656
g3378
sI2657
g3379
sI2658
g4944
sI2659
g3382
sI2660
g3384
sI2661
g3298
sI2662
g3388
sI2663
g3389
sI2664
g3391
sI2665
g1061
sI2666
g3394
sI2667
g3395
sI2668
g3397
sI2669
g3398
sI2670
g3399
sI2671
g3400
sI2672
g3402
sI2673
g3403
sI2674
g3404
sI2675
g3405
sI2676
g3406
sI2677
g2426
sI2678
g4911
sI2679
g3410
sI2680
g3411
sI2681
g3412
sI2682
g3414
sI2683
g3416
sI2684
g1884
sI2685
g3419
sI2686
g3420
sI2687
g3421
sI2688
g3422
sI2689
g1271
sI2690
g3424
sI2691
g3425
sI2692
g3426
sI2693
g3427
sI2694
g3428
sI2695
g3429
sI2696
g3430
sI2697
g2233
sI2698
g3432
sI2699
g3588
sI2700
g3435
sI2701
g4324
sI2702
g3438
sI2703
g3440
sI2704
g3442
sI2705
g3443
sI2706
g3444
sI2707
g3447
sI2708
g3448
sI2709
g3449
sI2710
g3450
sI2711
g3451
sI2712
g271
sI2713
g3433
sI2714
g3454
sI2715
g3455
sI2716
g3456
sI2717
g3457
sI2718
g3458
sI2719
g4720
sI2720
g3461
sI2721
g3462
sI2722
g3464
sI2723
g3879
sI2724
g3466
sI2725
g3467
sI2726
g3468
sI2727
g3470
sI2728
g3471
sI2729
g3472
sI2730
g3473
sI2731
g3474
sI2732
g3475
sI2733
g3476
sI2734
g3477
sI2735
g3479
sI2736
g3481
sI2737
g3483
sI2738
g3484
sI2739
g3760
sI2740
g3487
sI2741
g511
sI2742
g3524
sI2743
g3491
sI2744
g3492
sI2745
g3494
sI2746
g3495
sI2747
g3496
sI2748
g3497
sI2749
g1649
sI2750
g3501
sI2751
g3502
sI2752
g3503
sI2753
g3504
sI2754
g3505
sI2755
g2470
sI2756
g3781
sI2757
g2964
sI2758
g3509
sI2759
g3510
sI2760
g3511
sI2761
g3512
sI2762
g3513
sI2763
g3515
sI2764
g3516
sI2765
g3517
sI2766
g3518
sI2767
g3519
sI2768
g3520
sI2769
g3521
sI2770
g3522
sI2771
g3523
sI2772
g1753
sI2773
g3525
sI2774
g3527
sI2775
g3529
sI2776
g3530
sI2777
g1784
sI2778
g4501
sI2779
g3535
sI2780
g3536
sI2781
g3541
sI2782
g3543
sI2783
g3545
sI2784
g3546
sI2785
g3547
sI2786
g1502
sI2787
g3549
sI2788
g3551
sI2789
g3552
sI2790
g3553
sI2791
g3555
sI2792
g3556
sI2793
g1359
sI2794
g3562
sI2795
g3565
sI2796
g3566
sI2797
g3567
sI2798
g3845
sI2799
g3570
sI2800
g2972
sI2801
g3979
sI2802
g3573
sI2803
g3574
sI2804
g3576
sI2805
g3579
sI2806
g3582
sI2807
g3583
sI2808
g3584
sI2809
g3585
sI2810
g3586
sI2811
g3589
sI2812
g3590
sI2813
g3591
sI2814
g3592
sI2815
g3593
sI2816
g3595
sI2817
g3596
sI2818
g3597
sI2819
g3598
sI2820
g3600
sI2821
g3601
sI2822
g3602
sI2823
g3603
sI2824
g3604
sI2825
g1770
sI2826
g3607
sI2827
g3608
sI2828
g3609
sI2829
g4078
sI2830
g3611
sI2831
g3612
sI2832
g3615
sI2833
g3616
sI2834
g4240
sI2835
g2167
sI2836
g3619
sI2837
g3620
sI2838
g3623
sI2839
g2918
sI2840
g3625
sI2841
g3626
sI2842
g3627
sI2843
g3628
sI2844
g4300
sI2845
g927
sI2846
g247
sI2847
g3633
sI2848
g4856
sI2849
g3635
sI2850
g3636
sI2851
g3637
sI2852
g3638
sI2853
g3639
sI2854
g3641
sI2855
g2352
sI2856
g3644
sI2857
g3646
sI2858
g3647
sI2859
g3649
sI2860
g538
sI2861
g3652
sI2862
g3653
sI2863
g603
sI2864
g3657
sI2865
g3658
sI2866
g3659
sI2867
g4374
sI2868
g3662
sI2869
g3663
sI2870
g3665
sI2871
g3666
sI2872
g3667
sI2873
g3668
sI2874
g3670
sI2875
g3673
sI2876
g3675
sI2877
g3676
sI2878
g3677
sI2879
g3680
sI2880
g2037
sI2881
g3682
sI2882
g3686
sI2883
g3687
sI2884
g3688
sI2885
g3689
sI2886
g3691
sI2887
g3692
sI2888
g3694
sI2889
g3695
sI2890
g3698
sI2891
g3699
sI2892
g3700
sI2893
g3701
sI2894
g3702
sI2895
g3704
sI2896
g3705
sI2897
g3706
sI2898
g3707
sI2899
g3708
sI2900
g3709
sI2901
g3710
sI2902
g3711
sI2903
g3713
sI2904
g175
sI2905
g3716
sI2906
g3001
sI2907
g3718
sI2908
g3719
sI2909
g3720
sI2910
g3724
sI2911
g3725
sI2912
g3726
sI2913
g3728
sI2914
g3730
sI2915
g3732
sI2916
g2881
sI2917
g3734
sI2918
g3736
sI2919
g3738
sI2920
g3739
sI2921
g3740
sI2922
g3741
sI2923
g3742
sI2924
g3743
sI2925
g3744
sI2926
g3745
sI2927
g3746
sI2928
g3747
sI2929
g3748
sI2930
g3754
sI2931
g3750
sI2932
g3751
sI2933
g3752
sI2934
g3753
sI2935
g3016
sI2936
g3756
sI2937
g3757
sI2938
g3758
sI2939
g4428
sI2940
g3761
sI2941
g3047
sI2942
g3763
sI2943
g3764
sI2944
g3765
sI2945
g3766
sI2946
g3767
sI2947
g4907
sI2948
g3771
sI2949
g3772
sI2950
g3773
sI2951
g3774
sI2952
g3775
sI2953
g3776
sI2954
g3777
sI2955
g3778
sI2956
g3779
sI2957
g3128
sI2958
g4120
sI2959
g3782
sI2960
g3783
sI2961
g3784
sI2962
g3786
sI2963
g3180
sI2964
g4183
sI2965
g3790
sI2966
g3791
sI2967
g3792
sI2968
g4848
sI2969
g3793
sI2970
g3794
sI2971
g3796
sI2972
g3797
sI2973
g3799
sI2974
g2162
sI2975
g3801
sI2976
g3802
sI2977
g3803
sI2978
g4774
sI2979
g3805
sI2980
g3806
sI2981
g3807
sI2982
g3958
sI2983
g4754
sI2984
g3306
sI2985
g3811
sI2986
g3945
sI2987
g3813
sI2988
g4137
sI2989
g3814
sI2990
g3815
sI2991
g3816
sI2992
g3817
sI2993
g3819
sI2994
g3820
sI2995
g3821
sI2996
g3822
sI2997
g3823
sI2998
g3824
sI2999
g3401
sI3000
g3408
sI3001
g3828
sI3002
g2165
sI3003
g3831
sI3004
g3833
sI3005
g3834
sI3006
g3835
sI3007
g3836
sI3008
g3837
sI3009
g3840
sI3010
g2914
sI3011
g3842
sI3012
g3844
sI3013
g3569
sI3014
g3847
sI3015
g3848
sI3016
g3849
sI3017
g3852
sI3018
g3853
sI3019
g3854
sI3020
g3856
sI3021
g3857
sI3022
g3858
sI3023
g3859
sI3024
g3860
sI3025
g3861
sI3026
g3661
sI3027
g3863
sI3028
g3864
sI3029
g3865
sI3030
g3866
sI3031
g3867
sI3032
g3870
sI3033
g3871
sI3034
g3872
sI3035
g3873
sI3036
g3874
sI3037
g3876
sI3038
g3877
sI3039
g3880
sI3040
g3881
sI3041
g2902
sI3042
g3887
sI3043
g3888
sI3044
g3889
sI3045
g3890
sI3046
g3891
sI3047
g3892
sI3048
g4164
sI3049
g3894
sI3050
g3897
sI3051
g3900
sI3052
g4788
sI3053
g3902
sI3054
g3904
sI3055
g4401
sI3056
g3907
sI3057
g3908
sI3058
g3912
sI3059
g3957
sI3060
g3914
sI3061
g3916
sI3062
g3917
sI3063
g3918
sI3064
g3919
sI3065
g3920
sI3066
g3921
sI3067
g3922
sI3068
g3923
sI3069
g3924
sI3070
g3925
sI3071
g4008
sI3072
g3927
sI3073
g3928
sI3074
g3929
sI3075
g4057
sI3076
g3931
sI3077
g3933
sI3078
g1403
sI3079
g4093
sI3080
g3938
sI3081
g3939
sI3082
g3940
sI3083
g3941
sI3084
g3942
sI3085
g4295
sI3086
g1746
sI3087
g3946
sI3088
g3947
sI3089
g3948
sI3090
g3949
sI3091
g3950
sI3092
g3951
sI3093
g4191
sI3094
g3954
sI3095
g3956
sI3096
g3913
sI3097
g3960
sI3098
g3961
sI3099
g3962
sI3100
g3963
sI3101
g2792
sI3102
g3966
sI3103
g3967
sI3104
g3969
sI3105
g3970
sI3106
g3971
sI3107
g3972
sI3108
g3617
sI3109
g3975
sI3110
g3976
sI3111
g3977
sI3112
g3978
sI3113
g4033
sI3114
g2673
sI3115
g3981
sI3116
g3983
sI3117
g4390
sI3118
g3985
sI3119
g3986
sI3120
g3987
sI3121
g3991
sI3122
g3992
sI3123
g1414
sI3124
g3995
sI3125
g2207
sI3126
g497
sI3127
g3999
sI3128
g4001
sI3129
g4002
sI3130
g4003
sI3131
g4005
sI3132
g1434
sI3133
g4007
sI3134
g4009
sI3135
g4010
sI3136
g4012
sI3137
g2193
sI3138
g1480
sI3139
g4015
sI3140
g4016
sI3141
g4017
sI3142
g4018
sI3143
g4021
sI3144
g4022
sI3145
g2759
sI3146
g3640
sI3147
g1759
sI3148
g4027
sI3149
g4632
sI3150
g4031
sI3151
g4032
sI3152
g3674
sI3153
g4034
sI3154
g4035
sI3155
g4036
sI3156
g4037
sI3157
g4038
sI3158
g4039
sI3159
g4041
sI3160
g4042
sI3161
g4043
sI3162
g4044
sI3163
g4045
sI3164
g4046
sI3165
g4047
sI3166
g4048
sI3167
g4049
sI3168
g4050
sI3169
g4051
sI3170
g4052
sI3171
g4053
sI3172
g1785
sI3173
g4400
sI3174
g3930
sI3175
g4058
sI3176
g4059
sI3177
g4948
sI3178
g4062
sI3179
g4280
sI3180
g4064
sI3181
g4065
sI3182
g4066
sI3183
g4068
sI3184
g4069
sI3185
g4070
sI3186
g4071
sI3187
g4072
sI3188
g4073
sI3189
g3102
sI3190
g4075
sI3191
g4076
sI3192
g4077
sI3193
g4079
sI3194
g4081
sI3195
g4082
sI3196
g4083
sI3197
g4085
sI3198
g4086
sI3199
g4087
sI3200
g4088
sI3201
g4089
sI3202
g4090
sI3203
g4092
sI3204
g3936
sI3205
g4094
sI3206
g4095
sI3207
g4096
sI3208
g3886
sI3209
g4098
sI3210
g4099
sI3211
g4100
sI3212
g4101
sI3213
g4102
sI3214
g4103
sI3215
g4105
sI3216
g4106
sI3217
g4108
sI3218
g4109
sI3219
g4111
sI3220
g4368
sI3221
g4114
sI3222
g4116
sI3223
g4117
sI3224
g4461
sI3225
g166
sI3226
g4121
sI3227
g4123
sI3228
g4124
sI3229
g4354
sI3230
g4127
sI3231
g4128
sI3232
g4129
sI3233
g4130
sI3234
g4131
sI3235
g4132
sI3236
g4133
sI3237
g4134
sI3238
g4136
sI3239
g3943
sI3240
g4138
sI3241
g4139
sI3242
g4140
sI3243
g2214
sI3244
g3413
sI3245
g4143
sI3246
g4144
sI3247
g4145
sI3248
g4146
sI3249
g4147
sI3250
g4148
sI3251
g4149
sI3252
g318
sI3253
g4151
sI3254
g4152
sI3255
g4153
sI3256
g1616
sI3257
g4155
sI3258
g4156
sI3259
g4157
sI3260
g4158
sI3261
g4159
sI3262
g4160
sI3263
g4161
sI3264
g4163
sI3265
g4165
sI3266
g4166
sI3267
g4167
sI3268
g4168
sI3269
g4170
sI3270
g4171
sI3271
g4173
sI3272
g433
sI3273
g4176
sI3274
g4178
sI3275
g4869
sI3276
g4181
sI3277
g4182
sI3278
g1094
sI3279
g4184
sI3280
g4185
sI3281
g479
sI3282
g4187
sI3283
g4188
sI3284
g4189
sI3285
g4190
sI3286
g673
sI3287
g3392
sI3288
g930
sI3289
g4197
sI3290
g4198
sI3291
g4199
sI3292
g4201
sI3293
g1674
sI3294
g4203
sI3295
g2847
sI3296
g4205
sI3297
g595
sI3298
g4207
sI3299
g4208
sI3300
g4211
sI3301
g4213
sI3302
g4214
sI3303
g4216
sI3304
g4217
sI3305
g3072
sI3306
g680
sI3307
g2095
sI3308
g4221
sI3309
g4222
sI3310
g4223
sI3311
g709
sI3312
g4225
sI3313
g4226
sI3314
g4227
sI3315
g3223
sI3316
g1447
sI3317
g4231
sI3318
g766
sI3319
g4233
sI3320
g4234
sI3321
g4235
sI3322
g4236
sI3323
g4237
sI3324
g4238
sI3325
g4239
sI3326
g3374
sI3327
g4241
sI3328
g4242
sI3329
g4243
sI3330
g3253
sI3331
g4246
sI3332
g4247
sI3333
g4248
sI3334
g4249
sI3335
g4251
sI3336
g4252
sI3337
g4253
sI3338
g4254
sI3339
g4255
sI3340
g4256
sI3341
g4258
sI3342
g4259
sI3343
g4260
sI3344
g4262
sI3345
g4846
sI3346
g4265
sI3347
g4266
sI3348
g4267
sI3349
g4268
sI3350
g4269
sI3351
g4270
sI3352
g4271
sI3353
g4272
sI3354
g4273
sI3355
g4274
sI3356
g4275
sI3357
g4278
sI3358
g4282
sI3359
g4283
sI3360
g4284
sI3361
g4935
sI3362
g4286
sI3363
g4287
sI3364
g4288
sI3365
g4291
sI3366
g4293
sI3367
g4294
sI3368
g4297
sI3369
g4298
sI3370
g3843
sI3371
g4301
sI3372
g4302
sI3373
g4303
sI3374
g4305
sI3375
g4306
sI3376
g4307
sI3377
g4310
sI3378
g4311
sI3379
g4312
sI3380
g1151
sI3381
g4314
sI3382
g4316
sI3383
g4317
sI3384
g4318
sI3385
g4319
sI3386
g4320
sI3387
g4321
sI3388
g4322
sI3389
g4681
sI3390
g3893
sI3391
g4326
sI3392
g4327
sI3393
g4328
sI3394
g4329
sI3395
g4330
sI3396
g4332
sI3397
g4333
sI3398
g4334
sI3399
g4335
sI3400
g4336
sI3401
g4337
sI3402
g4338
sI3403
g4341
sI3404
g4342
sI3405
g3091
sI3406
g4344
sI3407
g4345
sI3408
g4347
sI3409
g4349
sI3410
g4350
sI3411
g4351
sI3412
g4355
sI3413
g4356
sI3414
g4358
sI3415
g2353
sI3416
g4359
sI3417
g4360
sI3418
g4361
sI3419
g4362
sI3420
g4364
sI3421
g4366
sI3422
g4367
sI3423
g2963
sI3424
g4369
sI3425
g4370
sI3426
g4371
sI3427
g1586
sI3428
g4373
sI3429
g3862
sI3430
g4375
sI3431
g4376
sI3432
g4379
sI3433
g4380
sI3434
g4381
sI3435
g4382
sI3436
g4383
sI3437
g4384
sI3438
g4385
sI3439
g4386
sI3440
g4387
sI3441
g4388
sI3442
g4391
sI3443
g4393
sI3444
g1579
sI3445
g2831
sI3446
g4397
sI3447
g4398
sI3448
g4402
sI3449
g4403
sI3450
g4404
sI3451
g4406
sI3452
g4407
sI3453
g4408
sI3454
g4409
sI3455
g4410
sI3456
g4411
sI3457
g4412
sI3458
g751
sI3459
g4413
sI3460
g4414
sI3461
g4415
sI3462
g4416
sI3463
g4417
sI3464
g4419
sI3465
g4421
sI3466
g4422
sI3467
g4424
sI3468
g4425
sI3469
g4135
sI3470
g4431
sI3471
g2633
sI3472
g4433
sI3473
g1551
sI3474
g4435
sI3475
g4436
sI3476
g4437
sI3477
g4438
sI3478
g4440
sI3479
g4441
sI3480
g4443
sI3481
g4444
sI3482
g4446
sI3483
g4447
sI3484
g4448
sI3485
g4449
sI3486
g4212
sI3487
g4451
sI3488
g4453
sI3489
g4454
sI3490
g4455
sI3491
g4456
sI3492
g4457
sI3493
g4459
sI3494
g4462
sI3495
g4463
sI3496
g4464
sI3497
g4466
sI3498
g4636
sI3499
g4468
sI3500
g4471
sI3501
g4011
sI3502
g4474
sI3503
g4475
sI3504
g4476
sI3505
g4477
sI3506
g2025
sI3507
g4480
sI3508
g4481
sI3509
g4482
sI3510
g4671
sI3511
g4485
sI3512
g4487
sI3513
g4488
sI3514
g4489
sI3515
g4490
sI3516
g712
sI3517
g3118
sI3518
g4496
sI3519
g4498
sI3520
g4499
sI3521
g4500
sI3522
g4504
sI3523
g4505
sI3524
g4506
sI3525
g4508
sI3526
g4509
sI3527
g4510
sI3528
g4712
sI3529
g4512
sI3530
g4513
sI3531
g4514
sI3532
g4515
sI3533
g4516
sI3534
g4517
sI3535
g4518
sI3536
g4519
sI3537
g4520
sI3538
g4074
sI3539
g4522
sI3540
g4523
sI3541
g4524
sI3542
g4525
sI3543
g4526
sI3544
g4527
sI3545
g4528
sI3546
g4026
sI3547
g1498
sI3548
g4624
sI3549
g4534
sI3550
g4535
sI3551
g4537
sI3552
g4538
sI3553
g4539
sI3554
g4542
sI3555
g4543
sI3556
g4544
sI3557
g4545
sI3558
g4546
sI3559
g4547
sI3560
g4548
sI3561
g4549
sI3562
g4550
sI3563
g4551
sI3564
g4552
sI3565
g2506
sI3566
g4554
sI3567
g4555
sI3568
g4556
sI3569
g4557
sI3570
g4558
sI3571
g4560
sI3572
g4562
sI3573
g4563
sI3574
g4564
sI3575
g4566
sI3576
g2559
sI3577
g2288
sI3578
g572
sI3579
g1979
sI3580
g4571
sI3581
g4573
sI3582
g4574
sI3583
g4575
sI3584
g4576
sI3585
g2323
sI3586
g4579
sI3587
g3895
sI3588
g4581
sI3589
g4582
sI3590
g4583
sI3591
g4584
sI3592
g4586
sI3593
g4587
sI3594
g4588
sI3595
g4589
sI3596
g1821
sI3597
g4591
sI3598
g4592
sI3599
g4593
sI3600
g4594
sI3601
g2741
sI3602
g4596
sI3603
g4598
sI3604
g4599
sI3605
g4600
sI3606
g4602
sI3607
g4603
sI3608
g4605
sI3609
g4940
sI3610
g2804
sI3611
g4091
sI3612
g4609
sI3613
g4610
sI3614
g4612
sI3615
g4613
sI3616
g4614
sI3617
g4615
sI3618
g2875
sI3619
g4617
sI3620
g4618
sI3621
g4619
sI3622
g4620
sI3623
g4621
sI3624
g4622
sI3625
g4623
sI3626
g3376
sI3627
g4625
sI3628
g353
sI3629
g4628
sI3630
g4629
sI3631
g4630
sI3632
g4631
sI3633
g2956
sI3634
g4633
sI3635
g3648
sI3636
g2325
sI3637
g4637
sI3638
g4638
sI3639
g1907
sI3640
g4640
sI3641
g4641
sI3642
g4642
sI3643
g4643
sI3644
g4645
sI3645
g4646
sI3646
g4647
sI3647
g4648
sI3648
g4650
sI3649
g4651
sI3650
g4652
sI3651
g1572
sI3652
g4654
sI3653
g3057
sI3654
g4657
sI3655
g4658
sI3656
g2300
sI3657
g4661
sI3658
g4662
sI3659
g3830
sI3660
g4664
sI3661
g1518
sI3662
g4666
sI3663
g4667
sI3664
g4668
sI3665
g2302
sI3666
g3354
sI3667
g1422
sI3668
g4675
sI3669
g4676
sI3670
g4677
sI3671
g4679
sI3672
g4680
sI3673
g773
sI3674
g4684
sI3675
g4685
sI3676
g4686
sI3677
g4688
sI3678
g3270
sI3679
g4690
sI3680
g4691
sI3681
g4692
sI3682
g4693
sI3683
g4694
sI3684
g4695
sI3685
g4696
sI3686
g4697
sI3687
g4698
sI3688
g4699
sI3689
g4313
sI3690
g4701
sI3691
g2564
sI3692
g4705
sI3693
g4706
sI3694
g4707
sI3695
g4708
sI3696
g4709
sI3697
g4922
sI3698
g4711
sI3699
g4713
sI3700
g4714
sI3701
g4715
sI3702
g4716
sI3703
g4717
sI3704
g4718
sI3705
g4719
sI3706
g4721
sI3707
g4722
sI3708
g4724
sI3709
g4726
sI3710
g4728
sI3711
g4729
sI3712
g4732
sI3713
g4734
sI3714
g4735
sI3715
g4737
sI3716
g4738
sI3717
g3445
sI3718
g4740
sI3719
g4741
sI3720
g4742
sI3721
g4743
sI3722
g4745
sI3723
g4746
sI3724
g4396
sI3725
g3780
sI3726
g1123
sI3727
g4751
sI3728
g4752
sI3729
g4439
sI3730
g4758
sI3731
g3909
sI3732
g4760
sI3733
g4761
sI3734
g4762
sI3735
g4763
sI3736
g4764
sI3737
g4765
sI3738
g4766
sI3739
g4767
sI3740
g426
sI3741
g4770
sI3742
g4771
sI3743
g4772
sI3744
g4773
sI3745
g3804
sI3746
g4776
sI3747
g4777
sI3748
g4778
sI3749
g4779
sI3750
g4780
sI3751
g1537
sI3752
g4781
sI3753
g219
sI3754
g4783
sI3755
g507
sI3756
g4789
sI3757
g4790
sI3758
g4791
sI3759
g4792
sI3760
g4793
sI3761
g4794
sI3762
g4795
sI3763
g4796
sI3764
g4797
sI3765
g4799
sI3766
g4800
sI3767
g4801
sI3768
g4802
sI3769
g4803
sI3770
g4804
sI3771
g4807
sI3772
g2634
sI3773
g4810
sI3774
g4811
sI3775
g4812
sI3776
g4813
sI3777
g4816
sI3778
g4817
sI3779
g4818
sI3780
g4819
sI3781
g2610
sI3782
g4821
sI3783
g4822
sI3784
g4823
sI3785
g4824
sI3786
g4825
sI3787
g4826
sI3788
g4827
sI3789
g4830
sI3790
g4832
sI3791
g4833
sI3792
g4834
sI3793
g3885
sI3794
g4836
sI3795
g4837
sI3796
g4838
sI3797
g4839
sI3798
g4841
sI3799
g4844
sI3800
g4845
sI3801
g1556
sI3802
g4847
sI3803
g4945
sI3804
g4849
sI3805
g4851
sI3806
g4852
sI3807
g4853
sI3808
g4854
sI3809
g4855
sI3810
g4903
sI3811
g4858
sI3812
g4859
sI3813
g4860
sI3814
g4861
sI3815
g4862
sI3816
g4863
sI3817
g4864
sI3818
g4866
sI3819
g4867
sI3820
g4868
sI3821
g4423
sI3822
g4871
sI3823
g4872
sI3824
g4873
sI3825
g4874
sI3826
g4875
sI3827
g4876
sI3828
g4877
sI3829
g4882
sI3830
g4883
sI3831
g4886
sI3832
g4887
sI3833
g4888
sI3834
g4889
sI3835
g4890
sI3836
g4892
sI3837
g4894
sI3838
g4896
sI3839
g4897
sI3840
g1601
sI3841
g4899
sI3842
g4900
sI3843
g4901
sI3844
g2854
sI3845
g4906
sI3846
g4908
sI3847
g2316
sI3848
g4910
sI3849
g4912
sI3850
g4913
sI3851
g2814
sI3852
g4915
sI3853
g4678
sI3854
g740
sI3855
g4918
sI3856
g4921
sI3857
g4942
sI3858
g1280
sI3859
g4925
sI3860
g4926
sI3861
g4927
sI3862
g4928
sI3863
g4929
sI3864
g3248
sI3865
g4932
sI3866
g4933
sI3867
g4934
sI3868
g4936
sI3869
g4937
sI3870
g4814
sI3871
g4939
sI3872
g4946
sI3873
g4947
sI3874
g4279
sI3875
g4949
sI3876
g2351
sI3877
g4951
sI3878
g4952
sI3879
g4953
sI3880
g4955
sI3881
g4956
sI3882
g4957
sI3883
g4958
sI3884
g4959
sI3885
g4960
sI3886
g3033
sI3887
g4142
sI3888
g437
sI3889
g1691
sI3890
g2751
sI3891
g3203
sI3892
g2866
sI3893
g2622
sI3894
g3453
sI3895
g2138
sI3896
g1176
sI3897
g2472
sI3898
g1318
sI3899
g3222
sI3900
g578
sI3901
g4704
sI3902
g924
sI3903
g1475
sI3904
g3759
sI3905
g4627
sI3906
g2402
sI3907
g1687
sI3908
g1799
sI3909
g3959
sI3910
g2920
sI3911
g693
sI3912
g1055
sI3913
g324
sI3914
g180
sI3915
g2178
sI3916
g1392
sI3917
g1787
sI3918
g233
sI3919
g1511
sI3920
g829
sI3921
g2582
sI3922
g1223
sI3923
g4857
sI3924
g1840
sI3925
g4700
sI3926
g1650
sI3927
g2208
sI3928
g1818
sI3929
g4884
sI3930
g1986
sI3931
g4458
sI3932
g3838
sI3933
g1731
sI3934
g1619
sI3935
g1994
sI3936
g1199
sI3937
g1844
sI3938
g2811
sI3939
g402
sI3940
g397
sI3941
g403
sI3942
g3409
sI3943
g3330
sI3944
g3678
sI3945
g1293
sI3946
g1724
sI3947
g629
sI3948
g1574
sI3949
g904
sI3950
g1030
sI3951
g1520
sI3952
g4180
sI3953
g3059
sI3954
g2238
sI3955
g3643
sI3956
g3988
sI3957
g2215
sI3958
g3575
sI3959
g3380
sI3960
g461
sI3961
g4725
sI3962
g4177
sI3963
g3065
sI3964
g3437
sI3965
g4532
sI3966
g1019
sI3967
g4567
sI3968
g1711
sI3969
g4250
sI3970
g1983
sI3971
g2043
sI3972
g2232
sI3973
g122
sI3974
g2241
sI3975
g1749
sI3976
g2782
sI3977
g4919
sI3978
g62
sI3979
g1470
sI3980
g554
sI3981
g4775
sI3982
g3119
sI3983
g1035
sI3984
g1013
sI3985
g4536
sI3986
g3944
sI3987
g1940
sI3988
g4040
sI3989
g313
sI3990
g4881
sI3991
g3564
sI3992
g972
sI3993
g642
sI3994
g4703
sI3995
g2006
sI3996
g3316
sI3997
g1882
sI3998
g2202
sI3999
g3827
sI4000
g2469
sI4001
g4013
sI4002
g3618
sI4003
g3189
sI4004
g268
sI4005
g624
sI4006
g454
sI4007
g1252
sI4008
g2201
sI4009
g586
sI4010
g406
sI4011
g2356
sI4012
g1866
sI4013
g563
sI4014
g2845
sI4015
g3293
sI4016
g3883
sI4017
g4809
sI4018
g1893
sI4019
g2052
sI4020
g4553
sI4021
g3624
sI4022
g3320
sI4023
g4494
sI4024
g3558
sI4025
g838
sI4026
g2231
sI4027
g574
sI4028
g769
sI4029
g2424
sI4030
g4484
sI4031
g4828
sI4032
g2932
sI4033
g899
sI4034
g2926
sI4035
g1449
sI4036
g3143
sI4037
g174
sI4038
g3300
sI4039
g4122
sI4040
g4916
sI4041
g3528
sI4042
g3899
sI4043
g3717
sI4044
g2003
sI4045
g3631
sI4046
g3014
sI4047
g4891
sI4048
g2135
sI4049
g3062
sI4050
g1049
sI4051
g579
sI4052
g4061
sI4053
g1598
sI4054
g1663
sI4055
g2349
sI4056
g1102
sI4057
g3982
sI4058
g2766
sI4059
g3493
sI4060
g2614
sI4061
g3812
sI4062
g4815
sI4063
g4261
sI4064
g2679
sI4065
g45
sI4066
g3937
sI4067
g495
sI4068
g2081
sI4069
g1444
sI4070
g4731
sI4071
g883
sI4072
g544
sI4073
g848
sI4074
g2916
sI4075
g1741
sI4076
g852
sI4077
g653
sI4078
g3500
sI4079
g3712
sI4080
g4346
sI4081
g561
sI4082
g3714
sI4083
g4230
sI4084
g3460
sI4085
g1925
sI4086
g2236
sI4087
g3629
sI4088
g4450
sI4089
g4264
sI4090
g366
sI4091
g3723
sI4092
g3578
sI4093
g3679
sI4094
g444
sI4095
g1309
sI4096
g835
sI4097
g3610
sI4098
g3048
sI4099
g2015
sI4100
g2457
sI4101
g3696
sI4102
g3996
sI4103
g4540
sI4104
g4782
sI4105
g3206
sI4106
g405
sI4107
g1483
sI4108
g3251
sI4109
g2364
sI4110
g4660
sI4111
g980
sI4112
g2886
sI4113
g1928
sI4114
g3654
sI4115
g4434
sI4116
g1409
sI4117
g2195
sI4118
g3024
sI4119
g645
sI4120
g1308
sI4121
g3964
sI4122
g2620
sI4123
g2335
sI4124
g2182
sI4125
g4492
sI4126
g3829
sI4127
g4289
sI4128
g550
sI4129
g3034
sI4130
g3846
sI4131
g3123
sI4132
g4104
sI4133
g3974
sI4134
g4392
sI4135
g2306
sI4136
g3613
sI4137
g4669
sI4138
g2147
sI4139
g4399
sI4140
g1835
sI4141
g500
sI4142
g3287
sI4143
g908
sI4144
g1100
sI4145
g1462
sI4146
g2649
sI4147
g3839
sI4148
g3026
sI4149
g4276
sI4150
g2520
sI4151
g1974
sI4152
g2464
sI4153
g521
sI4154
g4730
sI4155
g2974
sI4156
g2185
sI4157
g2247
sI4158
g86
sI4159
g906
sI4160
g4244
sI4161
g3279
sI4162
g2299
sI4163
g905
sI4164
g503
sI4165
g3207
sI4166
g109
sI4167
g2198
sI4168
g1953
sI4169
g2249
sI4170
g1119
sI4171
g2489
sI4172
g832
sI4173
g1643
sI4174
g4727
sI4175
g197
sI4176
g1332
sI4177
g3463
sI4178
g59
sI4179
g99
sI4180
g3344
sI4181
g4917
sI4182
g95
sI4183
g4798
sI4184
g4115
sI4185
g1113
sI4186
g4831
sI4187
g1581
sI4188
g4885
sI4189
g3171
sI4190
g756
sI4191
g2632
sI4192
g4394
sI4193
g695
sI4194
g4263
sI4195
g4000
sI4196
g4541
sI4197
g2836
sI4198
g1155
sI4199
g3915
sI4200
g2495
sI4201
g976
sI4202
g3345
sI4203
g1762
sI4204
g3390
sI4205
g4004
sI4206
g2848
sI4207
g3309
sI4208
g3630
sI4209
g4119
sI4210
g1796
sI4211
g2742
sI4212
g4736
sI4213
g4445
sI4214
g2749
sI4215
g2867
sI4216
g4465
sI4217
g806
sI4218
g3204
sI4219
g749
sI4220
g2075
sI4221
g258
sI4222
g4495
sI4223
g1841
sI4224
g3818
sI4225
g1780
sI4226
g3910
sI4227
g4880
sI4228
g323
sI4229
g3926
sI4230
g4028
sI4231
g3651
sI4232
g4850
sI4233
g293
sI4234
g1545
sI4235
g4904
sI4236
g294
sI4237
g2883
sI4238
g3755
sI4239
g2382
sI4240
g522
sI4241
g4739
sI4242
g1665
sI4243
g4389
sI4244
g3117
sI4245
g1961
sI4246
g3095
sI4247
g1099
sI4248
g2743
sI4249
g1323
sI4250
g4865
sI4251
g4125
sI4252
g1718
sI4253
g4304
sI4254
g2221
sI4255
g985
sI4256
g4786
sI4257
g2786
sI4258
g4229
sI4259
g817
sI4260
g566
sI4261
g2239
sI4262
g4687
sI4263
g3260
sI4264
g819
sI4265
g619
sI4266
g816
sI4267
g3370
sI4268
g159
sI4269
g3563
sI4270
g1651
sI4271
g4478
sI4272
g2888
sI4273
g60
sI4274
g2668
sI4275
g2572
sI4276
g2944
sI4277
g3341
sI4278
g167
sI4279
g939
sI4280
g1330
sI4281
g2285
sI4282
g2677
sI4283
g4507
sI4284
g1476
sI4285
g3198
sI4286
g205
sI4287
g3417
sI4288
g4418
sI4289
g3952
sI4290
g630
sI4291
g1012
sI4292
g3683
sI4293
g4606
sI4294
g274
sI4295
g4914
sI4296
g2808
sI4297
g4565
sI4298
g4653
sI4299
g3737
sI4300
g4656
sI4301
g1010
sI4302
g4829
sI4303
g178
sI4304
g4585
sI4305
g851
sI4306
g759
sI4307
g2609
sI4308
g1624
sI4309
g4472
sI4310
g752
sI4311
g3490
sI4312
g2939
sI4313
g1026
sI4314
g4110
sI4315
g1490
sI4316
g1093
sI4317
g1039
sI4318
g3534
sI4319
g2570
sI4320
g4080
sI4321
g485
sI4322
g1500
sI4323
g2206
sI4324
g206
sI4325
g1232
sI4326
g1408
sI4327
g1182
sI4328
g3898
sI4329
g4427
sI4330
g1400
sI4331
g4060
sI4332
g3632
sI4333
g4748
sI4334
g2192
sI4335
g1365
sI4336
g2133
sI4337
g535
sI4338
g1007
sI4339
g2672
sI4340
g4533
sI4341
g2600
sI4342
g2422
sI4343
g3369
sI4344
g3721
sI4345
g699
sI4346
g4179
sI4347
g2286
sI4348
g1188
sI4349
g1481
sI4350
g1370
sI4351
g3302
sI4352
g1922
sI4353
g4840
sI4354
g1412
sI4355
g1166
sI4356
g3486
sI4357
g3086
sI4358
g4192
sI4359
g3061
sI4360
g2368
sI4361
g2328
sI4362
g618
sI4363
g4063
sI4364
g1110
sI4365
g3035
sI4366
g4943
sI4367
g568
sI4368
g2560
sI4369
g1913
sI4370
g3526
sI4371
g2021
sI4372
g3446
sI4373
g3788
sI4374
g141
sI4375
g4378
sI4376
g2894
sI4377
g3224
sI4378
g2706
sI4379
g3884
sI4380
g3186
sI4381
g3672
sI4382
g1622
sI4383
g1342
sI4384
g2651
sI4385
g3005
sI4386
g2109
sI4387
g3231
sI4388
g302
sI4389
g2398
sI4390
g2332
sI4391
g2297
sI4392
g2298
sI4393
g4055
sI4394
g281
sI4395
g4296
sI4396
g1163
sI4397
g4353
sI4398
g399
sI4399
g2425
sI4400
g3731
sI4401
g1172
sI4402
g4309
sI4403
g2174
sI4404
g2724
sI4405
g1544
sI4406
g4561
sI4407
g4757
sI4408
g4597
sI4409
g3381
sI4410
g1212
sI4411
g737
sI4412
g1132
sI4413
g1577
sI4414
g345
sI4415
g2857
sI4416
g4710
sI4417
g2855
sI4418
g2085
sI4419
g2730
sI4420
g600
sI4421
g93
sI4422
g322
sI4423
g869
sI4424
g103
sI4425
g1676
sI4426
g3101
sI4427
g3697
sI4428
g2722
sI4429
g2519
sI4430
g3568
sI4431
g2985
sI4432
g421
sI4433
g4785
sI4434
g3559
sI4435
g1612
sI4436
g3133
sI4437
g3795
sI4438
g4195
sI4439
g1538
sI4440
g4473
sI4441
g4768
sI4442
g1618
sI4443
g4325
sI4444
g3258
sI4445
g2414
sI4446
g3334
sI4447
g3606
sI4448
g983
sI4449
g1390
sI4450
g718
sI4451
g1533
sI4452
g4639
sI4453
g4162
sI4454
g797
sI4455
g4228
sI4456
g3459
sI4457
g4054
sI4458
g4405
sI4459
g1883
sI4460
g517
sI4461
g3669
sI4462
g516
sI4463
g3735
sI4464
g3452
sI4465
g609
sI4466
g1429
sI4467
g635
sI4468
g2153
sI4469
g3581
sI4470
g4954
sI4471
g3645
sI4472
g3973
sI4473
g3506
sI4474
g530
sI4475
g390
sI4476
g342
sI4477
g4169
sI4478
g2793
sI4479
g90
sI4480
g1620
sI4481
g750
sI4482
g118
sI4483
g473
sI4484
g4580
sI4485
g3599
sI4486
g1982
sI4487
g3577
sI4488
g330
sI4489
g987
sI4490
g3383
sI4491
g3798
sI4492
g2670
sI4493
g2023
sI4494
g255
sI4495
g287
sI4496
g651
sI4497
g4215
sI4498
g3499
sI4499
g4460
sI4500
g3332
sI4501
g3488
sI4502
g303
sI4503
g143
sI4504
g2275
sI4505
g3418
sI4506
g4930
sI4507
g2060
sI4508
g49
sI4509
g1081
sI4510
g4689
sI4511
g2389
sI4512
g4030
sI4513
g1690
sI4514
g2191
sI4515
g3906
sI4516
g2107
sI4517
g3787
sI4518
g3507
sI4519
g3010
sI4520
g4820
sI4521
g4186
sI4522
g2989
sI4523
g2936
sI4524
g3489
sI4525
g625
sI4526
g4559
sI4527
g2655
sI4528
g3896
sI4529
g3237
sI4530
g3560
sI4531
g1440
sI4532
g2892
sI4533
g2545
sI4534
g4172
sI4535
g2509
sI4536
g357
sI4537
g1448
sI4538
g4200
sI4539
g2565
sI4540
g3826
sI4541
g4649
sI4542
g1149
sI4543
g2380
sI4544
g2136
sI4545
g4616
sI4546
g4352
sI4547
g1417
sI4548
g2553
sI4549
g1888
sI4550
g2411
sI4551
g721
sI4552
g1989
sI4553
g1633
sI4554
g2958
sI4555
g1626
sI4556
g2721
sI4557
g3810
sI4558
g3855
sI4559
g3660
sI4560
g4805
sI4561
g2486
sI4562
g3387
sI4563
g4220
sI4564
g1720
sI4565
g1918
sI4566
g251
sI4567
g4365
sI4568
g3439
sI4569
g3729
sI4570
g3997
sI4571
g1645
sI4572
g3090
sI4573
g4682
sI4574
g1211
sI4575
g3011
sI4576
g3441
sI4577
g3850
sI4578
g3109
sI4579
g2708
sI4580
g1869
sI4581
g4206
sI4582
g3238
sI4583
g879
sI4584
g4277
sI4585
g1497
sI4586
g450
sI4587
g3968
sI4588
g1022
sI4589
g208
sI4590
g3989
sI4591
g1209
sI4592
g2555
sI4593
g3136
sI4594
g4107
sI4595
g3770
sI4596
g4893
sI4597
g2001
sI4598
g4895
sI4599
g4923
sI4600
g1286
sI4601
g2674
sI4602
g2969
sI4603
g813
sI4604
g3671
sI4605
g2014
sI4606
g4299
sI4607
g389
sI4608
g1136
sI4609
g998
sI4610
g4025
sI4611
g3111
sI4612
g2946
sI4613
g2357
sI4614
g3046
sI4615
g3372
sI4616
g1191
sI4617
g4644
sI4618
g3007
sI4619
g2254
sI4620
g3550
sI4621
g3160
sI4622
g3335
sI4623
g4429
sI4624
g4154
sI4625
g4281
sI4626
g1658
sI4627
g1865
sI4628
g1491
sI4629
g1917
sI4630
g343
sI4631
g1380
sI4632
g3832
sI4633
g449
sI4634
g2455
sI4635
g1966
sI4636
g3266
sI4637
g1009
sI4638
g747
sI4639
g1833
sI4640
g3785
sI4641
g3762
sI4642
g4672
sI4643
g4357
sI4644
g4572
sI4645
g3173
sI4646
g1567
sI4647
g2496
sI4648
g1847
sI4649
g1705
sI4650
g1739
sI4651
g1765
sI4652
g4723
sI4653
g1121
sI4654
g4467
sI4655
g3415
sI4656
g644
sI4657
g1241
sI4658
g4663
sI4659
g799
sI4660
g3151
sI4661
g1214
sI4662
g136
sI4663
g1089
sI4664
g549
sI4665
g442
sI4666
g2154
sI4667
g1517
sI4668
g3385
sI4669
g4442
sI4670
g181
sI4671
g4733
sI4672
g4470
sI4673
g2833
sI4674
g2844
sI4675
g3561
sI4676
g1432
sI4677
g1685
sI4678
g1797
sI4679
g2604
sI4680
g3159
sI4681
g863
sI4682
g1757
sI4683
g1722
sI4684
g336
sI4685
g2880
sI4686
g1394
sI4687
g1632
sI4688
g3656
sI4689
g565
sI4690
g2568
sI4691
g3291
sI4692
g2307
sI4693
g327
sI4694
g3271
sI4695
g1543
sI4696
g1738
sI4697
g4497
sI4698
g1798
sI4699
g3882
sI4700
g2431
sI4701
g3538
sI4702
g1028
sI4703
g1932
sI4704
g4339
sI4705
g3191
sI4706
g988
sI4707
g3104
sI4708
g102
sI4709
g2764
sI4710
g2859
sI4711
g3554
sI4712
g1602
sI4713
g4607
sI4714
g1815
sI4715
g4204
sI4716
g236
sI4717
g3587
sI4718
g1514
sI4719
g334
sI4720
g1535
sI4721
g2648
sI4722
g326
sI4723
g4750
sI4724
g4377
sI4725
g3312
sI4726
g3211
sI4727
g2748
sI4728
g1017
sI4729
g1120
sI4730
g4769
sI4731
g2683
sI4732
g1437
sI4733
g4420
sI4734
g237
sI4735
g2066
sI4736
g3140
sI4737
g4611
sI4738
g3162
sI4739
g2685
sI4740
g53
sI4741
g3542
sI4742
g1978
sI4743
g967
sI4744
g3126
sI4745
g929
sI4746
g3514
sI4747
g4595
sI4748
g3192
sI4749
g2693
sI4750
g4029
sI4751
g1822
sI4752
g1555
sI4753
g671
sI4754
g4784
sI4755
g319
sI4756
g515
sI4757
g3715
sI4758
g2868
sI4759
g4702
sI4760
g1270
sI4761
g3727
sI4762
g2372
sI4763
g4024
sI4764
g2255
sI4765
g3655
sI4766
g1327
sI4767
g789
sI4768
g4634
sI4769
g2993
sI4770
g4483
sI4771
g4363
sI4772
g1084
sI4773
g4503
sI4774
g2164
sI4775
g4426
sI4776
g2359
sI4777
g51
sI4778
g1611
sI4779
g3092
sI4780
g2253
sI4781
g3178
sI4782
g1679
sI4783
g3965
sI4784
g3478
sI4785
g2028
sI4786
g3993
sI4787
g1184
sI4788
g2517
sI4789
g3469
sI4790
g2009
sI4791
g1321
sI4792
g179
sI4793
g571
sI4794
g2723
sI4795
g1294
sI4796
g877
sI4797
g687
sI4798
g2082
sI4799
g2729
sI4800
g1004
sI4801
g2266
sI4802
g782
sI4803
g1363
sI4804
g4655
sI4805
g2822
sI4806
g1263
sI4807
g3571
sI4808
g2504
sI4809
g1103
sI4810
g989
sI4811
g2013
sI4812
g1997
sI4813
g4020
sI4814
g2840
sI4815
g3990
sI4816
g2143
sI4817
g894
sI4818
g2523
sI4819
g2005
sI4820
g452
sI4821
g3685
sI4822
g489
sI4823
g1525
sI4824
g3684
sI4825
g524
sI4826
g1937
sI4827
g4502
sI4828
g3868
sI4829
g4469
sI4830
g4209
sI4831
g2059
sI4832
g1374
sI4833
g2652
sI4834
g1735
sI4835
g667
sI4836
g2692
sI4837
g1857
sI4838
g4067
sI4839
g2850
sI4840
g2704
sI4841
g4878
sI4842
g2344
sI4843
g1565
sI4844
g1742
sI4845
g1788
sI4846
g3681
sI4847
g866
sI4848
g388
sI4849
g1930
sI4850
g4578
sI4851
g3903
sI4852
g3051
sI4853
g2578
sI4854
g3622
sI4855
g3304
sI4856
g2257
sI4857
g2217
sI4858
g2921
sI4859
g881
sI4860
g558
sI4861
g1320
sI4862
g3557
sI4863
g48
sI4864
g96
sI4865
g3365
sI4866
g1108
sI4867
g4744
sI4868
g3642
sI4869
g639
sI4870
g2907
sI4871
g2581
sI4872
g3323
sI4873
g29
sI4874
g3690
sI4875
g4126
sI4876
g4879
sI4877
g2205
sI4878
g2277
sI4879
g35
sI4880
g1256
sI4881
g1970
sI4882
g4577
sI4883
g2274
sI4884
g4590
sI4885
g2884
sI4886
g1289
sI4887
g3650
sI4888
g3749
sI4889
g3350
sI4890
g1585
sI4891
g857
sI4892
g4843
sI4893
g593
sI4894
g3911
sI4895
g4529
sI4896
g4452
sI4897
g3482
sI4898
g2377
sI4899
g546
sI4900
g3825
sI4901
g3693
sI4902
g1973
sI4903
g3878
sI4904
g1553
sI4905
g3841
sI4906
g1614
sI4907
g4753
sI4908
g1554
sI4909
g4601
sI4910
g3184
sI4911
g2702
sI4912
g1547
sI4913
g1733
sI4914
g3200
sI4915
g2314
sI4916
g3621
sI4917
g2395
sI4918
g1158
sI4919
g2899
sI4920
g4019
sI4921
g1168
sI4922
g1288
sI4923
g451
sI4924
g241
sI4925
g4902
sI4926
g2311
sI4927
g2365
sI4928
g494
sI4929
g3580
sI4930
g841
sI4931
g445
sI4932
g3537
sI4933
g1968
sI4934
g1880
sI4935
g2341
sI4936
g2459
sI4937
g396
sI4938
g3539
sI4939
g2492
sI4940
g1661
sI4941
g828
sI4942
g1459
sI4943
g1231
sI4944
g2557
sI4945
g525
sI4946
g64
sI4947
g3594
sI4948
g884
sI4949
g1804
sI4950
g2637
sI4951
g2168
sI4952
g4315
sI4953
g127
sI4954
g826
sI4955
g372
sI4956
g676
sI4957
g453
sI4958
g2338
sa.